
Lab62.elf:     file format elf32-avr32

Sections:
Idx Name          Size      VMA       LMA       File off  Algn
  0 .reset        0000200c  80000000  80000000  00000400  2**2
                  CONTENTS, ALLOC, LOAD, READONLY, CODE
  1 .rela.got     00000000  8000200c  8000200c  0000240c  2**2
                  CONTENTS, ALLOC, LOAD, READONLY, DATA
  2 .init         0000001a  8000200c  8000200c  0000240c  2**2
                  CONTENTS, ALLOC, LOAD, READONLY, CODE
  3 .text         00009cf0  80002028  80002028  00002428  2**2
                  CONTENTS, ALLOC, LOAD, READONLY, CODE
  4 .exception    00000200  8000be00  8000be00  0000c200  2**9
                  CONTENTS, ALLOC, LOAD, READONLY, CODE
  5 .fini         00000018  8000c000  8000c000  0000c400  2**2
                  CONTENTS, ALLOC, LOAD, READONLY, CODE
  6 .rodata       000006a0  8000c018  8000c018  0000c418  2**2
                  CONTENTS, ALLOC, LOAD, READONLY, DATA
  7 .dalign       00000004  00000004  00000004  00000000  2**0
                  ALLOC
  8 .ctors        00000008  00000008  8000c6b8  0000cc08  2**2
                  CONTENTS, ALLOC, LOAD, DATA
  9 .dtors        00000008  00000010  8000c6c0  0000cc10  2**2
                  CONTENTS, ALLOC, LOAD, DATA
 10 .jcr          00000004  00000018  8000c6c8  0000cc18  2**2
                  CONTENTS, ALLOC, LOAD, DATA
 11 .got          00000000  0000001c  8000c6cc  0000cc1c  2**2
                  CONTENTS, ALLOC, LOAD, DATA
 12 .data         00000510  0000001c  8000c6cc  0000cc1c  2**2
                  CONTENTS, ALLOC, LOAD, DATA
 13 .bss          000002e0  00000548  00000548  00000000  2**2
                  ALLOC
 14 .heap         0000e7d8  00000828  00000828  00000000  2**0
                  ALLOC
 15 .comment      00000030  00000000  00000000  0000d12c  2**0
                  CONTENTS, READONLY
 16 .debug_aranges 000010f8  00000000  00000000  0000d160  2**3
                  CONTENTS, READONLY, DEBUGGING
 17 .debug_pubnames 00001ff4  00000000  00000000  0000e258  2**0
                  CONTENTS, READONLY, DEBUGGING
 18 .debug_info   000294ae  00000000  00000000  0001024c  2**0
                  CONTENTS, READONLY, DEBUGGING
 19 .debug_abbrev 00005cf2  00000000  00000000  000396fa  2**0
                  CONTENTS, READONLY, DEBUGGING
 20 .debug_line   000127f4  00000000  00000000  0003f3ec  2**0
                  CONTENTS, READONLY, DEBUGGING
 21 .debug_frame  00002e4c  00000000  00000000  00051be0  2**2
                  CONTENTS, READONLY, DEBUGGING
 22 .debug_str    00005692  00000000  00000000  00054a2c  2**0
                  CONTENTS, READONLY, DEBUGGING
 23 .debug_loc    0000a860  00000000  00000000  0005a0be  2**0
                  CONTENTS, READONLY, DEBUGGING
 24 .debug_macinfo 010cfffa  00000000  00000000  0006491e  2**0
                  CONTENTS, READONLY, DEBUGGING
 25 .stack        00001000  0000f000  0000f000  00000000  2**0
                  ALLOC
 26 .debug_ranges 00001158  00000000  00000000  01134918  2**0
                  CONTENTS, READONLY, DEBUGGING

Disassembly of section .reset:

80000000 <_start>:
80000000:	48 1f       	lddpc	pc,80000004 <_start+0x4>
80000002:	d7 03       	nop
80000004:	80 00       	ld.sh	r0,r0[0x0]
80000006:	20 28       	sub	r8,2

80000008 <_trampoline>:
80000008:	e0 8f 10 00 	bral	80002008 <program_start>
	...

80002008 <program_start>:
80002008:	fe cf ff e0 	sub	pc,pc,-32

Disassembly of section .init:

8000200c <_init>:
8000200c:	eb cd 40 40 	pushm	r6,lr
80002010:	48 26       	lddpc	r6,80002018 <_init+0xc>
80002012:	1e 26       	rsub	r6,pc
80002014:	c0 48       	rjmp	8000201c <_init+0x10>
80002016:	d7 03       	nop
80002018:	80 00       	ld.sh	r0,r0[0x0]
8000201a:	1f f6       	ld.ub	r6,pc[0x7]
8000201c:	c5 6c       	rcall	800020c8 <frame_dummy>
8000201e:	e0 a0 4e 73 	rcall	8000bd04 <__do_global_ctors_aux>
80002022:	e3 cd 80 40 	ldm	sp++,r6,pc

Disassembly of section .text:

80002028 <_stext>:
80002028:	30 07       	mov	r7,0
8000202a:	e0 7a 00 00 	mov	r10,65536
8000202e:	5b fa       	cp.w	r10,-1
80002030:	f4 0d 17 10 	movne	sp,r10
80002034:	49 4b       	lddpc	r11,80002084 <_stext+0x5c>
80002036:	30 8c       	mov	r12,8
80002038:	18 3b       	cp.w	r11,r12
8000203a:	c0 70       	breq	80002048 <_stext+0x20>
8000203c:	e0 6a 05 30 	mov	r10,1328
80002040:	b7 09       	ld.d	r8,r11++
80002042:	b9 28       	st.d	r12++,r8
80002044:	14 3c       	cp.w	r12,r10
80002046:	cf d5       	brlt	80002040 <_stext+0x18>
80002048:	e0 6a 08 28 	mov	r10,2088
8000204c:	e0 6c 05 30 	mov	r12,1328
80002050:	30 08       	mov	r8,0
80002052:	30 09       	mov	r9,0
80002054:	b9 28       	st.d	r12++,r8
80002056:	14 3c       	cp.w	r12,r10
80002058:	cf e5       	brlt	80002054 <_stext+0x2c>
8000205a:	e0 a0 15 13 	rcall	80004a80 <_init_startup>
8000205e:	48 bc       	lddpc	r12,80002088 <_stext+0x60>
80002060:	e0 a0 22 2a 	rcall	800064b4 <atexit>
80002064:	cd 4f       	rcall	8000200c <_init>
80002066:	1a 9c       	mov	r12,sp
80002068:	30 0b       	mov	r11,0
8000206a:	e0 a0 26 95 	rcall	80006d94 <_init_argv>
8000206e:	5b fc       	cp.w	r12,-1
80002070:	f9 bc 00 00 	moveq	r12,0
80002074:	f9 ba 00 00 	moveq	r10,0
80002078:	14 1d       	sub	sp,r10
8000207a:	e0 a0 0d ff 	rcall	80003c78 <main>
8000207e:	e0 a0 22 23 	rcall	800064c4 <exit>
80002082:	d7 03       	nop
80002084:	80 00       	ld.sh	r0,r0[0x0]
80002086:	c6 b8       	rjmp	8000215c <dip204_init+0x54>
80002088:	80 00       	ld.sh	r0,r0[0x0]
8000208a:	c0 00       	breq	8000208a <_stext+0x62>

8000208c <__do_global_dtors_aux>:
8000208c:	d4 21       	pushm	r4-r7,lr
8000208e:	e0 68 05 48 	mov	r8,1352
80002092:	11 89       	ld.ub	r9,r8[0x0]
80002094:	30 08       	mov	r8,0
80002096:	f0 09 18 00 	cp.b	r9,r8
8000209a:	c1 61       	brne	800020c6 <__do_global_dtors_aux+0x3a>
8000209c:	31 08       	mov	r8,16
8000209e:	31 46       	mov	r6,20
800020a0:	10 95       	mov	r5,r8
800020a2:	10 16       	sub	r6,r8
800020a4:	e0 67 05 4c 	mov	r7,1356
800020a8:	a3 46       	asr	r6,0x2
800020aa:	20 16       	sub	r6,1
800020ac:	c0 68       	rjmp	800020b8 <__do_global_dtors_aux+0x2c>
800020ae:	2f f8       	sub	r8,-1
800020b0:	8f 08       	st.w	r7[0x0],r8
800020b2:	ea 08 03 28 	ld.w	r8,r5[r8<<0x2]
800020b6:	5d 18       	icall	r8
800020b8:	6e 08       	ld.w	r8,r7[0x0]
800020ba:	0c 38       	cp.w	r8,r6
800020bc:	cf 93       	brcs	800020ae <__do_global_dtors_aux+0x22>
800020be:	30 19       	mov	r9,1
800020c0:	e0 68 05 48 	mov	r8,1352
800020c4:	b0 89       	st.b	r8[0x0],r9
800020c6:	d8 22       	popm	r4-r7,pc

800020c8 <frame_dummy>:
800020c8:	d4 01       	pushm	lr
800020ca:	31 8c       	mov	r12,24
800020cc:	78 08       	ld.w	r8,r12[0x0]
800020ce:	58 08       	cp.w	r8,0
800020d0:	c0 50       	breq	800020da <frame_dummy+0x12>
800020d2:	48 38       	lddpc	r8,800020dc <frame_dummy+0x14>
800020d4:	58 08       	cp.w	r8,0
800020d6:	c0 20       	breq	800020da <frame_dummy+0x12>
800020d8:	5d 18       	icall	r8
800020da:	d8 02       	popm	pc
800020dc:	00 00       	add	r0,r0
	...

800020e0 <sysclk_get_main_hz>:
800020e0:	eb cd 40 80 	pushm	r7,lr
800020e4:	1a 97       	mov	r7,sp
800020e6:	e0 78 c2 00 	mov	r8,115200
800020ea:	10 9c       	mov	r12,r8
800020ec:	e3 cd 80 80 	ldm	sp++,r7,pc

800020f0 <sysclk_get_cpu_hz>:
800020f0:	eb cd 40 80 	pushm	r7,lr
800020f4:	1a 97       	mov	r7,sp
800020f6:	f0 1f 00 04 	mcall	80002104 <sysclk_get_cpu_hz+0x14>
800020fa:	18 98       	mov	r8,r12
800020fc:	10 9c       	mov	r12,r8
800020fe:	e3 cd 80 80 	ldm	sp++,r7,pc
80002102:	00 00       	add	r0,r0
80002104:	80 00       	ld.sh	r0,r0[0x0]
80002106:	20 e0       	sub	r0,14

80002108 <dip204_init>:
80002108:	eb cd 40 8f 	pushm	r0-r3,r7,lr
8000210c:	1a 97       	mov	r7,sp
8000210e:	fa cd 01 ac 	sub	sp,sp,428
80002112:	ef 4c fe b8 	st.w	r7[-328],r12
80002116:	16 98       	mov	r8,r11
80002118:	ef 68 fe b4 	st.b	r7[-332],r8
8000211c:	ee f8 fe b8 	ld.w	r8,r7[-328]
80002120:	58 18       	cp.w	r8,1
80002122:	c6 41       	brne	800021ea <dip204_init+0xe2>
80002124:	fe f9 0a 84 	ld.w	r9,pc[2692]
80002128:	30 68       	mov	r8,6
8000212a:	93 08       	st.w	r9[0x0],r8
8000212c:	30 2b       	mov	r11,2
8000212e:	33 2c       	mov	r12,50
80002130:	f0 1f 02 9f 	mcall	80002bac <dip204_init+0xaa4>
80002134:	30 08       	mov	r8,0
80002136:	ef 48 ff 14 	st.w	r7[-236],r8
8000213a:	30 08       	mov	r8,0
8000213c:	ef 48 ff 10 	st.w	r7[-240],r8
80002140:	30 08       	mov	r8,0
80002142:	ef 48 ff 1c 	st.w	r7[-228],r8
80002146:	30 08       	mov	r8,0
80002148:	ef 48 ff 18 	st.w	r7[-232],r8
8000214c:	ee c8 00 f0 	sub	r8,r7,240
80002150:	10 9c       	mov	r12,r8
80002152:	f0 1f 02 98 	mcall	80002bb0 <dip204_init+0xaa8>
80002156:	ef 39 fe b4 	ld.ub	r9,r7[-332]
8000215a:	30 08       	mov	r8,0
8000215c:	f0 09 18 00 	cp.b	r9,r8
80002160:	c0 30       	breq	80002166 <dip204_init+0x5e>
80002162:	33 18       	mov	r8,49
80002164:	c0 28       	rjmp	80002168 <dip204_init+0x60>
80002166:	30 18       	mov	r8,1
80002168:	fe f9 0a 4c 	ld.w	r9,pc[2636]
8000216c:	b2 08       	st.h	r9[0x0],r8
8000216e:	fe fa 0a 4a 	ld.w	r10,pc[2634]
80002172:	74 08       	ld.w	r8,r10[0x0]
80002174:	30 09       	mov	r9,0
80002176:	f1 d9 d1 01 	bfins	r8,r9,0x8,0x1
8000217a:	95 08       	st.w	r10[0x0],r8
8000217c:	fe fa 0a 3c 	ld.w	r10,pc[2620]
80002180:	74 08       	ld.w	r8,r10[0x0]
80002182:	30 09       	mov	r9,0
80002184:	f1 d9 d1 21 	bfins	r8,r9,0x9,0x1
80002188:	95 08       	st.w	r10[0x0],r8
8000218a:	fe fa 0a 2e 	ld.w	r10,pc[2606]
8000218e:	74 08       	ld.w	r8,r10[0x0]
80002190:	30 19       	mov	r9,1
80002192:	f1 d9 d1 41 	bfins	r8,r9,0xa,0x1
80002196:	95 08       	st.w	r10[0x0],r8
80002198:	fe fa 0a 20 	ld.w	r10,pc[2592]
8000219c:	74 08       	ld.w	r8,r10[0x0]
8000219e:	30 89       	mov	r9,8
800021a0:	f1 d9 d0 04 	bfins	r8,r9,0x0,0x4
800021a4:	95 08       	st.w	r10[0x0],r8
800021a6:	fe f8 0a 0e 	ld.w	r8,pc[2574]
800021aa:	90 08       	ld.sh	r8,r8[0x0]
800021ac:	f3 d8 c0 10 	bfextu	r9,r8,0x0,0x10
800021b0:	fe f8 0a 08 	ld.w	r8,pc[2568]
800021b4:	91 19       	st.w	r8[0x4],r9
800021b6:	fe f9 0a 02 	ld.w	r9,pc[2562]
800021ba:	33 28       	mov	r8,50
800021bc:	93 28       	st.w	r9[0x8],r8
800021be:	fe f9 09 fa 	ld.w	r9,pc[2554]
800021c2:	30 08       	mov	r8,0
800021c4:	93 48       	st.w	r9[0x10],r8
800021c6:	fe f8 09 e2 	ld.w	r8,pc[2530]
800021ca:	70 08       	ld.w	r8,r8[0x0]
800021cc:	fe fb 09 ec 	ld.w	r11,pc[2540]
800021d0:	10 9c       	mov	r12,r8
800021d2:	f0 1f 02 7b 	mcall	80002bbc <dip204_init+0xab4>
800021d6:	fe f8 09 d2 	ld.w	r8,pc[2514]
800021da:	70 09       	ld.w	r9,r8[0x0]
800021dc:	30 18       	mov	r8,1
800021de:	f0 09 09 48 	lsl	r8,r8,r9
800021e2:	10 9c       	mov	r12,r8
800021e4:	f0 1f 02 77 	mcall	80002bc0 <dip204_init+0xab8>
800021e8:	c0 e8       	rjmp	80002204 <dip204_init+0xfc>
800021ea:	ef 39 fe b4 	ld.ub	r9,r7[-332]
800021ee:	30 08       	mov	r8,0
800021f0:	f0 09 18 00 	cp.b	r9,r8
800021f4:	c0 50       	breq	800021fe <dip204_init+0xf6>
800021f6:	33 2c       	mov	r12,50
800021f8:	f0 1f 02 73 	mcall	80002bc4 <dip204_init+0xabc>
800021fc:	c0 48       	rjmp	80002204 <dip204_init+0xfc>
800021fe:	33 2c       	mov	r12,50
80002200:	f0 1f 02 72 	mcall	80002bc8 <dip204_init+0xac0>
80002204:	f0 1f 02 72 	mcall	80002bcc <dip204_init+0xac4>
80002208:	18 99       	mov	r9,r12
8000220a:	31 48       	mov	r8,20
8000220c:	ef 48 ff 24 	st.w	r7[-220],r8
80002210:	ef 49 ff 20 	st.w	r7[-224],r9
80002214:	ee f8 ff 24 	ld.w	r8,r7[-220]
80002218:	ef 48 ff 2c 	st.w	r7[-212],r8
8000221c:	ee f8 ff 20 	ld.w	r8,r7[-224]
80002220:	ef 48 ff 28 	st.w	r7[-216],r8
80002224:	ee f0 ff 2c 	ld.w	r0,r7[-212]
80002228:	30 01       	mov	r1,0
8000222a:	ee f2 ff 28 	ld.w	r2,r7[-216]
8000222e:	30 03       	mov	r3,0
80002230:	e2 02 02 49 	mul	r9,r1,r2
80002234:	e6 00 02 48 	mul	r8,r3,r0
80002238:	10 09       	add	r9,r8
8000223a:	e0 02 06 4a 	mulu.d	r10,r0,r2
8000223e:	16 09       	add	r9,r11
80002240:	12 9b       	mov	r11,r9
80002242:	e0 68 03 e7 	mov	r8,999
80002246:	30 09       	mov	r9,0
80002248:	10 0a       	add	r10,r8
8000224a:	f6 09 00 4b 	adc	r11,r11,r9
8000224e:	e0 68 03 e8 	mov	r8,1000
80002252:	30 09       	mov	r9,0
80002254:	f0 1f 02 5f 	mcall	80002bd0 <dip204_init+0xac8>
80002258:	14 98       	mov	r8,r10
8000225a:	16 99       	mov	r9,r11
8000225c:	ef 48 ff 34 	st.w	r7[-204],r8
80002260:	ee c8 01 44 	sub	r8,r7,324
80002264:	ef 48 ff 30 	st.w	r7[-208],r8
80002268:	e1 b8 00 42 	mfsr	r8,0x108
8000226c:	10 99       	mov	r9,r8
8000226e:	ee f8 ff 30 	ld.w	r8,r7[-208]
80002272:	91 09       	st.w	r8[0x0],r9
80002274:	ee f8 ff 30 	ld.w	r8,r7[-208]
80002278:	70 09       	ld.w	r9,r8[0x0]
8000227a:	ee f8 ff 34 	ld.w	r8,r7[-204]
8000227e:	10 09       	add	r9,r8
80002280:	ee f8 ff 30 	ld.w	r8,r7[-208]
80002284:	91 19       	st.w	r8[0x4],r9
80002286:	ee f9 ff 30 	ld.w	r9,r7[-208]
8000228a:	30 08       	mov	r8,0
8000228c:	f3 68 00 08 	st.b	r9[8],r8
80002290:	ee c8 01 44 	sub	r8,r7,324
80002294:	ef 48 ff 38 	st.w	r7[-200],r8
80002298:	e1 b8 00 42 	mfsr	r8,0x108
8000229c:	ef 48 ff 3c 	st.w	r7[-196],r8
800022a0:	ee f8 ff 38 	ld.w	r8,r7[-200]
800022a4:	f1 39 00 08 	ld.ub	r9,r8[8]
800022a8:	30 28       	mov	r8,2
800022aa:	f0 09 18 00 	cp.b	r9,r8
800022ae:	c0 31       	brne	800022b4 <dip204_init+0x1ac>
800022b0:	30 08       	mov	r8,0
800022b2:	c4 38       	rjmp	80002338 <dip204_init+0x230>
800022b4:	ee f8 ff 38 	ld.w	r8,r7[-200]
800022b8:	f1 39 00 08 	ld.ub	r9,r8[8]
800022bc:	30 18       	mov	r8,1
800022be:	f0 09 18 00 	cp.b	r9,r8
800022c2:	c0 31       	brne	800022c8 <dip204_init+0x1c0>
800022c4:	30 18       	mov	r8,1
800022c6:	c3 98       	rjmp	80002338 <dip204_init+0x230>
800022c8:	ee f8 ff 38 	ld.w	r8,r7[-200]
800022cc:	70 09       	ld.w	r9,r8[0x0]
800022ce:	ee f8 ff 38 	ld.w	r8,r7[-200]
800022d2:	70 18       	ld.w	r8,r8[0x4]
800022d4:	10 39       	cp.w	r9,r8
800022d6:	e0 88 00 1a 	brls	8000230a <dip204_init+0x202>
800022da:	ee f8 ff 38 	ld.w	r8,r7[-200]
800022de:	70 09       	ld.w	r9,r8[0x0]
800022e0:	ee f8 ff 3c 	ld.w	r8,r7[-196]
800022e4:	12 38       	cp.w	r8,r9
800022e6:	c1 02       	brcc	80002306 <dip204_init+0x1fe>
800022e8:	ee f8 ff 38 	ld.w	r8,r7[-200]
800022ec:	70 19       	ld.w	r9,r8[0x4]
800022ee:	ee f8 ff 3c 	ld.w	r8,r7[-196]
800022f2:	12 38       	cp.w	r8,r9
800022f4:	e0 88 00 09 	brls	80002306 <dip204_init+0x1fe>
800022f8:	ee f9 ff 38 	ld.w	r9,r7[-200]
800022fc:	30 18       	mov	r8,1
800022fe:	f3 68 00 08 	st.b	r9[8],r8
80002302:	30 18       	mov	r8,1
80002304:	c1 a8       	rjmp	80002338 <dip204_init+0x230>
80002306:	30 08       	mov	r8,0
80002308:	c1 88       	rjmp	80002338 <dip204_init+0x230>
8000230a:	ee f8 ff 38 	ld.w	r8,r7[-200]
8000230e:	70 09       	ld.w	r9,r8[0x0]
80002310:	ee f8 ff 3c 	ld.w	r8,r7[-196]
80002314:	12 38       	cp.w	r8,r9
80002316:	c0 93       	brcs	80002328 <dip204_init+0x220>
80002318:	ee f8 ff 38 	ld.w	r8,r7[-200]
8000231c:	70 19       	ld.w	r9,r8[0x4]
8000231e:	ee f8 ff 3c 	ld.w	r8,r7[-196]
80002322:	12 38       	cp.w	r8,r9
80002324:	e0 88 00 09 	brls	80002336 <dip204_init+0x22e>
80002328:	ee f9 ff 38 	ld.w	r9,r7[-200]
8000232c:	30 18       	mov	r8,1
8000232e:	f3 68 00 08 	st.b	r9[8],r8
80002332:	30 18       	mov	r8,1
80002334:	c0 28       	rjmp	80002338 <dip204_init+0x230>
80002336:	30 08       	mov	r8,0
80002338:	58 08       	cp.w	r8,0
8000233a:	ca b0       	breq	80002290 <dip204_init+0x188>
8000233c:	f0 1f 02 26 	mcall	80002bd4 <dip204_init+0xacc>
80002340:	e0 6c 00 f8 	mov	r12,248
80002344:	f0 1f 02 25 	mcall	80002bd8 <dip204_init+0xad0>
80002348:	33 4c       	mov	r12,52
8000234a:	f0 1f 02 24 	mcall	80002bd8 <dip204_init+0xad0>
8000234e:	f0 1f 02 20 	mcall	80002bcc <dip204_init+0xac4>
80002352:	18 99       	mov	r9,r12
80002354:	30 18       	mov	r8,1
80002356:	ef 48 ff 44 	st.w	r7[-188],r8
8000235a:	ef 49 ff 40 	st.w	r7[-192],r9
8000235e:	ee f8 ff 44 	ld.w	r8,r7[-188]
80002362:	ef 48 ff 4c 	st.w	r7[-180],r8
80002366:	ee f8 ff 40 	ld.w	r8,r7[-192]
8000236a:	ef 48 ff 48 	st.w	r7[-184],r8
8000236e:	ee fc ff 4c 	ld.w	r12,r7[-180]
80002372:	ef 4c fe 60 	st.w	r7[-416],r12
80002376:	30 0b       	mov	r11,0
80002378:	ef 4b fe 5c 	st.w	r7[-420],r11
8000237c:	ee fa ff 48 	ld.w	r10,r7[-184]
80002380:	ef 4a fe 58 	st.w	r7[-424],r10
80002384:	30 09       	mov	r9,0
80002386:	ef 49 fe 54 	st.w	r7[-428],r9
8000238a:	ee f9 fe 5c 	ld.w	r9,r7[-420]
8000238e:	ee f8 fe 58 	ld.w	r8,r7[-424]
80002392:	b1 39       	mul	r9,r8
80002394:	ee f8 fe 54 	ld.w	r8,r7[-428]
80002398:	ee fc fe 60 	ld.w	r12,r7[-416]
8000239c:	b9 38       	mul	r8,r12
8000239e:	10 09       	add	r9,r8
800023a0:	ee f8 fe 60 	ld.w	r8,r7[-416]
800023a4:	ee fc fe 58 	ld.w	r12,r7[-424]
800023a8:	f0 0c 06 4a 	mulu.d	r10,r8,r12
800023ac:	16 09       	add	r9,r11
800023ae:	12 9b       	mov	r11,r9
800023b0:	e0 68 03 e7 	mov	r8,999
800023b4:	30 09       	mov	r9,0
800023b6:	10 0a       	add	r10,r8
800023b8:	f6 09 00 4b 	adc	r11,r11,r9
800023bc:	e0 68 03 e8 	mov	r8,1000
800023c0:	30 09       	mov	r9,0
800023c2:	f0 1f 02 04 	mcall	80002bd0 <dip204_init+0xac8>
800023c6:	14 98       	mov	r8,r10
800023c8:	16 99       	mov	r9,r11
800023ca:	ef 48 ff 54 	st.w	r7[-172],r8
800023ce:	ee c8 01 38 	sub	r8,r7,312
800023d2:	ef 48 ff 50 	st.w	r7[-176],r8
800023d6:	e1 b8 00 42 	mfsr	r8,0x108
800023da:	10 99       	mov	r9,r8
800023dc:	ee f8 ff 50 	ld.w	r8,r7[-176]
800023e0:	91 09       	st.w	r8[0x0],r9
800023e2:	ee f8 ff 50 	ld.w	r8,r7[-176]
800023e6:	70 09       	ld.w	r9,r8[0x0]
800023e8:	ee f8 ff 54 	ld.w	r8,r7[-172]
800023ec:	10 09       	add	r9,r8
800023ee:	ee f8 ff 50 	ld.w	r8,r7[-176]
800023f2:	91 19       	st.w	r8[0x4],r9
800023f4:	ee f9 ff 50 	ld.w	r9,r7[-176]
800023f8:	30 08       	mov	r8,0
800023fa:	f3 68 00 08 	st.b	r9[8],r8
800023fe:	ee c8 01 38 	sub	r8,r7,312
80002402:	ef 48 ff 58 	st.w	r7[-168],r8
80002406:	e1 b8 00 42 	mfsr	r8,0x108
8000240a:	ef 48 ff 5c 	st.w	r7[-164],r8
8000240e:	ee f8 ff 58 	ld.w	r8,r7[-168]
80002412:	f1 39 00 08 	ld.ub	r9,r8[8]
80002416:	30 28       	mov	r8,2
80002418:	f0 09 18 00 	cp.b	r9,r8
8000241c:	c0 31       	brne	80002422 <dip204_init+0x31a>
8000241e:	30 08       	mov	r8,0
80002420:	c4 38       	rjmp	800024a6 <dip204_init+0x39e>
80002422:	ee f8 ff 58 	ld.w	r8,r7[-168]
80002426:	f1 39 00 08 	ld.ub	r9,r8[8]
8000242a:	30 18       	mov	r8,1
8000242c:	f0 09 18 00 	cp.b	r9,r8
80002430:	c0 31       	brne	80002436 <dip204_init+0x32e>
80002432:	30 18       	mov	r8,1
80002434:	c3 98       	rjmp	800024a6 <dip204_init+0x39e>
80002436:	ee f8 ff 58 	ld.w	r8,r7[-168]
8000243a:	70 09       	ld.w	r9,r8[0x0]
8000243c:	ee f8 ff 58 	ld.w	r8,r7[-168]
80002440:	70 18       	ld.w	r8,r8[0x4]
80002442:	10 39       	cp.w	r9,r8
80002444:	e0 88 00 1a 	brls	80002478 <dip204_init+0x370>
80002448:	ee f8 ff 58 	ld.w	r8,r7[-168]
8000244c:	70 09       	ld.w	r9,r8[0x0]
8000244e:	ee f8 ff 5c 	ld.w	r8,r7[-164]
80002452:	12 38       	cp.w	r8,r9
80002454:	c1 02       	brcc	80002474 <dip204_init+0x36c>
80002456:	ee f8 ff 58 	ld.w	r8,r7[-168]
8000245a:	70 19       	ld.w	r9,r8[0x4]
8000245c:	ee f8 ff 5c 	ld.w	r8,r7[-164]
80002460:	12 38       	cp.w	r8,r9
80002462:	e0 88 00 09 	brls	80002474 <dip204_init+0x36c>
80002466:	ee f9 ff 58 	ld.w	r9,r7[-168]
8000246a:	30 18       	mov	r8,1
8000246c:	f3 68 00 08 	st.b	r9[8],r8
80002470:	30 18       	mov	r8,1
80002472:	c1 a8       	rjmp	800024a6 <dip204_init+0x39e>
80002474:	30 08       	mov	r8,0
80002476:	c1 88       	rjmp	800024a6 <dip204_init+0x39e>
80002478:	ee f8 ff 58 	ld.w	r8,r7[-168]
8000247c:	70 09       	ld.w	r9,r8[0x0]
8000247e:	ee f8 ff 5c 	ld.w	r8,r7[-164]
80002482:	12 38       	cp.w	r8,r9
80002484:	c0 93       	brcs	80002496 <dip204_init+0x38e>
80002486:	ee f8 ff 58 	ld.w	r8,r7[-168]
8000248a:	70 19       	ld.w	r9,r8[0x4]
8000248c:	ee f8 ff 5c 	ld.w	r8,r7[-164]
80002490:	12 38       	cp.w	r8,r9
80002492:	e0 88 00 09 	brls	800024a4 <dip204_init+0x39c>
80002496:	ee f9 ff 58 	ld.w	r9,r7[-168]
8000249a:	30 18       	mov	r8,1
8000249c:	f3 68 00 08 	st.b	r9[8],r8
800024a0:	30 18       	mov	r8,1
800024a2:	c0 28       	rjmp	800024a6 <dip204_init+0x39e>
800024a4:	30 08       	mov	r8,0
800024a6:	58 08       	cp.w	r8,0
800024a8:	ca b0       	breq	800023fe <dip204_init+0x2f6>
800024aa:	30 9c       	mov	r12,9
800024ac:	f0 1f 01 cb 	mcall	80002bd8 <dip204_init+0xad0>
800024b0:	f0 1f 01 c7 	mcall	80002bcc <dip204_init+0xac4>
800024b4:	18 99       	mov	r9,r12
800024b6:	30 18       	mov	r8,1
800024b8:	ef 48 ff 64 	st.w	r7[-156],r8
800024bc:	ef 49 ff 60 	st.w	r7[-160],r9
800024c0:	ee f8 ff 64 	ld.w	r8,r7[-156]
800024c4:	ef 48 ff 6c 	st.w	r7[-148],r8
800024c8:	ee f8 ff 60 	ld.w	r8,r7[-160]
800024cc:	ef 48 ff 68 	st.w	r7[-152],r8
800024d0:	ee fb ff 6c 	ld.w	r11,r7[-148]
800024d4:	ef 4b fe 70 	st.w	r7[-400],r11
800024d8:	30 0a       	mov	r10,0
800024da:	ef 4a fe 6c 	st.w	r7[-404],r10
800024de:	ee f9 ff 68 	ld.w	r9,r7[-152]
800024e2:	ef 49 fe 68 	st.w	r7[-408],r9
800024e6:	30 08       	mov	r8,0
800024e8:	ef 48 fe 64 	st.w	r7[-412],r8
800024ec:	ee f9 fe 6c 	ld.w	r9,r7[-404]
800024f0:	ee fc fe 68 	ld.w	r12,r7[-408]
800024f4:	b9 39       	mul	r9,r12
800024f6:	ee f8 fe 64 	ld.w	r8,r7[-412]
800024fa:	ee fb fe 70 	ld.w	r11,r7[-400]
800024fe:	b7 38       	mul	r8,r11
80002500:	10 09       	add	r9,r8
80002502:	ee f8 fe 70 	ld.w	r8,r7[-400]
80002506:	ee fc fe 68 	ld.w	r12,r7[-408]
8000250a:	f0 0c 06 4a 	mulu.d	r10,r8,r12
8000250e:	16 09       	add	r9,r11
80002510:	12 9b       	mov	r11,r9
80002512:	e0 68 03 e7 	mov	r8,999
80002516:	30 09       	mov	r9,0
80002518:	10 0a       	add	r10,r8
8000251a:	f6 09 00 4b 	adc	r11,r11,r9
8000251e:	e0 68 03 e8 	mov	r8,1000
80002522:	30 09       	mov	r9,0
80002524:	f0 1f 01 ab 	mcall	80002bd0 <dip204_init+0xac8>
80002528:	14 98       	mov	r8,r10
8000252a:	16 99       	mov	r9,r11
8000252c:	ef 48 ff 74 	st.w	r7[-140],r8
80002530:	ee c8 01 2c 	sub	r8,r7,300
80002534:	ef 48 ff 70 	st.w	r7[-144],r8
80002538:	e1 b8 00 42 	mfsr	r8,0x108
8000253c:	10 99       	mov	r9,r8
8000253e:	ee f8 ff 70 	ld.w	r8,r7[-144]
80002542:	91 09       	st.w	r8[0x0],r9
80002544:	ee f8 ff 70 	ld.w	r8,r7[-144]
80002548:	70 09       	ld.w	r9,r8[0x0]
8000254a:	ee f8 ff 74 	ld.w	r8,r7[-140]
8000254e:	10 09       	add	r9,r8
80002550:	ee f8 ff 70 	ld.w	r8,r7[-144]
80002554:	91 19       	st.w	r8[0x4],r9
80002556:	ee f9 ff 70 	ld.w	r9,r7[-144]
8000255a:	30 08       	mov	r8,0
8000255c:	f3 68 00 08 	st.b	r9[8],r8
80002560:	ee c8 01 2c 	sub	r8,r7,300
80002564:	ef 48 ff 78 	st.w	r7[-136],r8
80002568:	e1 b8 00 42 	mfsr	r8,0x108
8000256c:	ef 48 ff 7c 	st.w	r7[-132],r8
80002570:	ee f8 ff 78 	ld.w	r8,r7[-136]
80002574:	f1 39 00 08 	ld.ub	r9,r8[8]
80002578:	30 28       	mov	r8,2
8000257a:	f0 09 18 00 	cp.b	r9,r8
8000257e:	c0 31       	brne	80002584 <dip204_init+0x47c>
80002580:	30 08       	mov	r8,0
80002582:	c4 38       	rjmp	80002608 <dip204_init+0x500>
80002584:	ee f8 ff 78 	ld.w	r8,r7[-136]
80002588:	f1 39 00 08 	ld.ub	r9,r8[8]
8000258c:	30 18       	mov	r8,1
8000258e:	f0 09 18 00 	cp.b	r9,r8
80002592:	c0 31       	brne	80002598 <dip204_init+0x490>
80002594:	30 18       	mov	r8,1
80002596:	c3 98       	rjmp	80002608 <dip204_init+0x500>
80002598:	ee f8 ff 78 	ld.w	r8,r7[-136]
8000259c:	70 09       	ld.w	r9,r8[0x0]
8000259e:	ee f8 ff 78 	ld.w	r8,r7[-136]
800025a2:	70 18       	ld.w	r8,r8[0x4]
800025a4:	10 39       	cp.w	r9,r8
800025a6:	e0 88 00 1a 	brls	800025da <dip204_init+0x4d2>
800025aa:	ee f8 ff 78 	ld.w	r8,r7[-136]
800025ae:	70 09       	ld.w	r9,r8[0x0]
800025b0:	ee f8 ff 7c 	ld.w	r8,r7[-132]
800025b4:	12 38       	cp.w	r8,r9
800025b6:	c1 02       	brcc	800025d6 <dip204_init+0x4ce>
800025b8:	ee f8 ff 78 	ld.w	r8,r7[-136]
800025bc:	70 19       	ld.w	r9,r8[0x4]
800025be:	ee f8 ff 7c 	ld.w	r8,r7[-132]
800025c2:	12 38       	cp.w	r8,r9
800025c4:	e0 88 00 09 	brls	800025d6 <dip204_init+0x4ce>
800025c8:	ee f9 ff 78 	ld.w	r9,r7[-136]
800025cc:	30 18       	mov	r8,1
800025ce:	f3 68 00 08 	st.b	r9[8],r8
800025d2:	30 18       	mov	r8,1
800025d4:	c1 a8       	rjmp	80002608 <dip204_init+0x500>
800025d6:	30 08       	mov	r8,0
800025d8:	c1 88       	rjmp	80002608 <dip204_init+0x500>
800025da:	ee f8 ff 78 	ld.w	r8,r7[-136]
800025de:	70 09       	ld.w	r9,r8[0x0]
800025e0:	ee f8 ff 7c 	ld.w	r8,r7[-132]
800025e4:	12 38       	cp.w	r8,r9
800025e6:	c0 93       	brcs	800025f8 <dip204_init+0x4f0>
800025e8:	ee f8 ff 78 	ld.w	r8,r7[-136]
800025ec:	70 19       	ld.w	r9,r8[0x4]
800025ee:	ee f8 ff 7c 	ld.w	r8,r7[-132]
800025f2:	12 38       	cp.w	r8,r9
800025f4:	e0 88 00 09 	brls	80002606 <dip204_init+0x4fe>
800025f8:	ee f9 ff 78 	ld.w	r9,r7[-136]
800025fc:	30 18       	mov	r8,1
800025fe:	f3 68 00 08 	st.b	r9[8],r8
80002602:	30 18       	mov	r8,1
80002604:	c0 28       	rjmp	80002608 <dip204_init+0x500>
80002606:	30 08       	mov	r8,0
80002608:	58 08       	cp.w	r8,0
8000260a:	ca b0       	breq	80002560 <dip204_init+0x458>
8000260c:	33 0c       	mov	r12,48
8000260e:	f0 1f 01 73 	mcall	80002bd8 <dip204_init+0xad0>
80002612:	f0 1f 01 6f 	mcall	80002bcc <dip204_init+0xac4>
80002616:	18 99       	mov	r9,r12
80002618:	30 18       	mov	r8,1
8000261a:	ef 48 ff 84 	st.w	r7[-124],r8
8000261e:	ef 49 ff 80 	st.w	r7[-128],r9
80002622:	ee f8 ff 84 	ld.w	r8,r7[-124]
80002626:	ef 48 ff 8c 	st.w	r7[-116],r8
8000262a:	ee f8 ff 80 	ld.w	r8,r7[-128]
8000262e:	ef 48 ff 88 	st.w	r7[-120],r8
80002632:	ee fb ff 8c 	ld.w	r11,r7[-116]
80002636:	ef 4b fe 80 	st.w	r7[-384],r11
8000263a:	30 0a       	mov	r10,0
8000263c:	ef 4a fe 7c 	st.w	r7[-388],r10
80002640:	ee f9 ff 88 	ld.w	r9,r7[-120]
80002644:	ef 49 fe 78 	st.w	r7[-392],r9
80002648:	30 08       	mov	r8,0
8000264a:	ef 48 fe 74 	st.w	r7[-396],r8
8000264e:	ee f9 fe 7c 	ld.w	r9,r7[-388]
80002652:	ee fc fe 78 	ld.w	r12,r7[-392]
80002656:	b9 39       	mul	r9,r12
80002658:	ee f8 fe 74 	ld.w	r8,r7[-396]
8000265c:	ee fb fe 80 	ld.w	r11,r7[-384]
80002660:	b7 38       	mul	r8,r11
80002662:	10 09       	add	r9,r8
80002664:	ee f8 fe 80 	ld.w	r8,r7[-384]
80002668:	ee fc fe 78 	ld.w	r12,r7[-392]
8000266c:	f0 0c 06 4a 	mulu.d	r10,r8,r12
80002670:	16 09       	add	r9,r11
80002672:	12 9b       	mov	r11,r9
80002674:	e0 68 03 e7 	mov	r8,999
80002678:	30 09       	mov	r9,0
8000267a:	10 0a       	add	r10,r8
8000267c:	f6 09 00 4b 	adc	r11,r11,r9
80002680:	e0 68 03 e8 	mov	r8,1000
80002684:	30 09       	mov	r9,0
80002686:	f0 1f 01 53 	mcall	80002bd0 <dip204_init+0xac8>
8000268a:	14 98       	mov	r8,r10
8000268c:	16 99       	mov	r9,r11
8000268e:	ef 48 ff 94 	st.w	r7[-108],r8
80002692:	ee c8 01 20 	sub	r8,r7,288
80002696:	ef 48 ff 90 	st.w	r7[-112],r8
8000269a:	e1 b8 00 42 	mfsr	r8,0x108
8000269e:	10 99       	mov	r9,r8
800026a0:	ee f8 ff 90 	ld.w	r8,r7[-112]
800026a4:	91 09       	st.w	r8[0x0],r9
800026a6:	ee f8 ff 90 	ld.w	r8,r7[-112]
800026aa:	70 09       	ld.w	r9,r8[0x0]
800026ac:	ee f8 ff 94 	ld.w	r8,r7[-108]
800026b0:	10 09       	add	r9,r8
800026b2:	ee f8 ff 90 	ld.w	r8,r7[-112]
800026b6:	91 19       	st.w	r8[0x4],r9
800026b8:	ee f9 ff 90 	ld.w	r9,r7[-112]
800026bc:	30 08       	mov	r8,0
800026be:	f3 68 00 08 	st.b	r9[8],r8
800026c2:	ee c8 01 20 	sub	r8,r7,288
800026c6:	ef 48 ff 98 	st.w	r7[-104],r8
800026ca:	e1 b8 00 42 	mfsr	r8,0x108
800026ce:	ef 48 ff 9c 	st.w	r7[-100],r8
800026d2:	ee f8 ff 98 	ld.w	r8,r7[-104]
800026d6:	f1 39 00 08 	ld.ub	r9,r8[8]
800026da:	30 28       	mov	r8,2
800026dc:	f0 09 18 00 	cp.b	r9,r8
800026e0:	c0 31       	brne	800026e6 <dip204_init+0x5de>
800026e2:	30 08       	mov	r8,0
800026e4:	c4 38       	rjmp	8000276a <dip204_init+0x662>
800026e6:	ee f8 ff 98 	ld.w	r8,r7[-104]
800026ea:	f1 39 00 08 	ld.ub	r9,r8[8]
800026ee:	30 18       	mov	r8,1
800026f0:	f0 09 18 00 	cp.b	r9,r8
800026f4:	c0 31       	brne	800026fa <dip204_init+0x5f2>
800026f6:	30 18       	mov	r8,1
800026f8:	c3 98       	rjmp	8000276a <dip204_init+0x662>
800026fa:	ee f8 ff 98 	ld.w	r8,r7[-104]
800026fe:	70 09       	ld.w	r9,r8[0x0]
80002700:	ee f8 ff 98 	ld.w	r8,r7[-104]
80002704:	70 18       	ld.w	r8,r8[0x4]
80002706:	10 39       	cp.w	r9,r8
80002708:	e0 88 00 1a 	brls	8000273c <dip204_init+0x634>
8000270c:	ee f8 ff 98 	ld.w	r8,r7[-104]
80002710:	70 08       	ld.w	r8,r8[0x0]
80002712:	ee f9 ff 9c 	ld.w	r9,r7[-100]
80002716:	10 39       	cp.w	r9,r8
80002718:	c1 02       	brcc	80002738 <dip204_init+0x630>
8000271a:	ee f8 ff 98 	ld.w	r8,r7[-104]
8000271e:	70 18       	ld.w	r8,r8[0x4]
80002720:	ee f9 ff 9c 	ld.w	r9,r7[-100]
80002724:	10 39       	cp.w	r9,r8
80002726:	e0 88 00 09 	brls	80002738 <dip204_init+0x630>
8000272a:	ee f9 ff 98 	ld.w	r9,r7[-104]
8000272e:	30 18       	mov	r8,1
80002730:	f3 68 00 08 	st.b	r9[8],r8
80002734:	30 18       	mov	r8,1
80002736:	c1 a8       	rjmp	8000276a <dip204_init+0x662>
80002738:	30 08       	mov	r8,0
8000273a:	c1 88       	rjmp	8000276a <dip204_init+0x662>
8000273c:	ee f8 ff 98 	ld.w	r8,r7[-104]
80002740:	70 08       	ld.w	r8,r8[0x0]
80002742:	ee f9 ff 9c 	ld.w	r9,r7[-100]
80002746:	10 39       	cp.w	r9,r8
80002748:	c0 93       	brcs	8000275a <dip204_init+0x652>
8000274a:	ee f8 ff 98 	ld.w	r8,r7[-104]
8000274e:	70 18       	ld.w	r8,r8[0x4]
80002750:	ee f9 ff 9c 	ld.w	r9,r7[-100]
80002754:	10 39       	cp.w	r9,r8
80002756:	e0 88 00 09 	brls	80002768 <dip204_init+0x660>
8000275a:	ee f9 ff 98 	ld.w	r9,r7[-104]
8000275e:	30 18       	mov	r8,1
80002760:	f3 68 00 08 	st.b	r9[8],r8
80002764:	30 18       	mov	r8,1
80002766:	c0 28       	rjmp	8000276a <dip204_init+0x662>
80002768:	30 08       	mov	r8,0
8000276a:	58 08       	cp.w	r8,0
8000276c:	ca b0       	breq	800026c2 <dip204_init+0x5ba>
8000276e:	30 fc       	mov	r12,15
80002770:	f0 1f 01 1a 	mcall	80002bd8 <dip204_init+0xad0>
80002774:	f0 1f 01 16 	mcall	80002bcc <dip204_init+0xac4>
80002778:	18 98       	mov	r8,r12
8000277a:	30 19       	mov	r9,1
8000277c:	ef 49 ff a4 	st.w	r7[-92],r9
80002780:	ef 48 ff a0 	st.w	r7[-96],r8
80002784:	ee f8 ff a4 	ld.w	r8,r7[-92]
80002788:	ef 48 ff ac 	st.w	r7[-84],r8
8000278c:	ee f8 ff a0 	ld.w	r8,r7[-96]
80002790:	ef 48 ff a8 	st.w	r7[-88],r8
80002794:	ee fb ff ac 	ld.w	r11,r7[-84]
80002798:	ef 4b fe 90 	st.w	r7[-368],r11
8000279c:	30 0a       	mov	r10,0
8000279e:	ef 4a fe 8c 	st.w	r7[-372],r10
800027a2:	ee f9 ff a8 	ld.w	r9,r7[-88]
800027a6:	ef 49 fe 88 	st.w	r7[-376],r9
800027aa:	30 08       	mov	r8,0
800027ac:	ef 48 fe 84 	st.w	r7[-380],r8
800027b0:	ee fa fe 8c 	ld.w	r10,r7[-372]
800027b4:	ee fc fe 88 	ld.w	r12,r7[-376]
800027b8:	b9 3a       	mul	r10,r12
800027ba:	ee f8 fe 84 	ld.w	r8,r7[-380]
800027be:	ee fb fe 90 	ld.w	r11,r7[-368]
800027c2:	b7 38       	mul	r8,r11
800027c4:	10 0a       	add	r10,r8
800027c6:	ee fc fe 90 	ld.w	r12,r7[-368]
800027ca:	ee fb fe 88 	ld.w	r11,r7[-376]
800027ce:	f8 0b 06 48 	mulu.d	r8,r12,r11
800027d2:	12 0a       	add	r10,r9
800027d4:	14 99       	mov	r9,r10
800027d6:	e0 6a 03 e7 	mov	r10,999
800027da:	30 0b       	mov	r11,0
800027dc:	f0 0a 00 0a 	add	r10,r8,r10
800027e0:	f2 0b 00 4b 	adc	r11,r9,r11
800027e4:	e0 68 03 e8 	mov	r8,1000
800027e8:	30 09       	mov	r9,0
800027ea:	f0 1f 00 fa 	mcall	80002bd0 <dip204_init+0xac8>
800027ee:	14 98       	mov	r8,r10
800027f0:	16 99       	mov	r9,r11
800027f2:	ef 48 ff b4 	st.w	r7[-76],r8
800027f6:	ee c8 01 14 	sub	r8,r7,276
800027fa:	ef 48 ff b0 	st.w	r7[-80],r8
800027fe:	e1 b8 00 42 	mfsr	r8,0x108
80002802:	10 99       	mov	r9,r8
80002804:	ee f8 ff b0 	ld.w	r8,r7[-80]
80002808:	91 09       	st.w	r8[0x0],r9
8000280a:	ee f8 ff b0 	ld.w	r8,r7[-80]
8000280e:	70 09       	ld.w	r9,r8[0x0]
80002810:	ee f8 ff b4 	ld.w	r8,r7[-76]
80002814:	10 09       	add	r9,r8
80002816:	ee f8 ff b0 	ld.w	r8,r7[-80]
8000281a:	91 19       	st.w	r8[0x4],r9
8000281c:	ee f9 ff b0 	ld.w	r9,r7[-80]
80002820:	30 08       	mov	r8,0
80002822:	f3 68 00 08 	st.b	r9[8],r8
80002826:	ee c8 01 14 	sub	r8,r7,276
8000282a:	ef 48 ff b8 	st.w	r7[-72],r8
8000282e:	e1 b8 00 42 	mfsr	r8,0x108
80002832:	ef 48 ff bc 	st.w	r7[-68],r8
80002836:	ee f8 ff b8 	ld.w	r8,r7[-72]
8000283a:	f1 39 00 08 	ld.ub	r9,r8[8]
8000283e:	30 28       	mov	r8,2
80002840:	f0 09 18 00 	cp.b	r9,r8
80002844:	c0 31       	brne	8000284a <dip204_init+0x742>
80002846:	30 08       	mov	r8,0
80002848:	c4 38       	rjmp	800028ce <dip204_init+0x7c6>
8000284a:	ee f8 ff b8 	ld.w	r8,r7[-72]
8000284e:	f1 39 00 08 	ld.ub	r9,r8[8]
80002852:	30 18       	mov	r8,1
80002854:	f0 09 18 00 	cp.b	r9,r8
80002858:	c0 31       	brne	8000285e <dip204_init+0x756>
8000285a:	30 18       	mov	r8,1
8000285c:	c3 98       	rjmp	800028ce <dip204_init+0x7c6>
8000285e:	ee f8 ff b8 	ld.w	r8,r7[-72]
80002862:	70 09       	ld.w	r9,r8[0x0]
80002864:	ee f8 ff b8 	ld.w	r8,r7[-72]
80002868:	70 18       	ld.w	r8,r8[0x4]
8000286a:	10 39       	cp.w	r9,r8
8000286c:	e0 88 00 1a 	brls	800028a0 <dip204_init+0x798>
80002870:	ee f8 ff b8 	ld.w	r8,r7[-72]
80002874:	70 08       	ld.w	r8,r8[0x0]
80002876:	ee f9 ff bc 	ld.w	r9,r7[-68]
8000287a:	10 39       	cp.w	r9,r8
8000287c:	c1 02       	brcc	8000289c <dip204_init+0x794>
8000287e:	ee f8 ff b8 	ld.w	r8,r7[-72]
80002882:	70 18       	ld.w	r8,r8[0x4]
80002884:	ee f9 ff bc 	ld.w	r9,r7[-68]
80002888:	10 39       	cp.w	r9,r8
8000288a:	e0 88 00 09 	brls	8000289c <dip204_init+0x794>
8000288e:	ee f9 ff b8 	ld.w	r9,r7[-72]
80002892:	30 18       	mov	r8,1
80002894:	f3 68 00 08 	st.b	r9[8],r8
80002898:	30 18       	mov	r8,1
8000289a:	c1 a8       	rjmp	800028ce <dip204_init+0x7c6>
8000289c:	30 08       	mov	r8,0
8000289e:	c1 88       	rjmp	800028ce <dip204_init+0x7c6>
800028a0:	ee f8 ff b8 	ld.w	r8,r7[-72]
800028a4:	70 08       	ld.w	r8,r8[0x0]
800028a6:	ee f9 ff bc 	ld.w	r9,r7[-68]
800028aa:	10 39       	cp.w	r9,r8
800028ac:	c0 93       	brcs	800028be <dip204_init+0x7b6>
800028ae:	ee f8 ff b8 	ld.w	r8,r7[-72]
800028b2:	70 18       	ld.w	r8,r8[0x4]
800028b4:	ee f9 ff bc 	ld.w	r9,r7[-68]
800028b8:	10 39       	cp.w	r9,r8
800028ba:	e0 88 00 09 	brls	800028cc <dip204_init+0x7c4>
800028be:	ee f9 ff b8 	ld.w	r9,r7[-72]
800028c2:	30 18       	mov	r8,1
800028c4:	f3 68 00 08 	st.b	r9[8],r8
800028c8:	30 18       	mov	r8,1
800028ca:	c0 28       	rjmp	800028ce <dip204_init+0x7c6>
800028cc:	30 08       	mov	r8,0
800028ce:	58 08       	cp.w	r8,0
800028d0:	ca b0       	breq	80002826 <dip204_init+0x71e>
800028d2:	30 1c       	mov	r12,1
800028d4:	f0 1f 00 c1 	mcall	80002bd8 <dip204_init+0xad0>
800028d8:	f0 1f 00 bd 	mcall	80002bcc <dip204_init+0xac4>
800028dc:	18 98       	mov	r8,r12
800028de:	30 59       	mov	r9,5
800028e0:	ef 49 ff c4 	st.w	r7[-60],r9
800028e4:	ef 48 ff c0 	st.w	r7[-64],r8
800028e8:	ee f8 ff c4 	ld.w	r8,r7[-60]
800028ec:	ef 48 ff cc 	st.w	r7[-52],r8
800028f0:	ee f8 ff c0 	ld.w	r8,r7[-64]
800028f4:	ef 48 ff c8 	st.w	r7[-56],r8
800028f8:	ee fa ff cc 	ld.w	r10,r7[-52]
800028fc:	ef 4a fe a0 	st.w	r7[-352],r10
80002900:	30 09       	mov	r9,0
80002902:	ef 49 fe 9c 	st.w	r7[-356],r9
80002906:	ee f8 ff c8 	ld.w	r8,r7[-56]
8000290a:	ef 48 fe 98 	st.w	r7[-360],r8
8000290e:	30 0c       	mov	r12,0
80002910:	ef 4c fe 94 	st.w	r7[-364],r12
80002914:	ee fa fe 9c 	ld.w	r10,r7[-356]
80002918:	ee fb fe 98 	ld.w	r11,r7[-360]
8000291c:	b7 3a       	mul	r10,r11
8000291e:	ee f8 fe 94 	ld.w	r8,r7[-364]
80002922:	ee f9 fe a0 	ld.w	r9,r7[-352]
80002926:	b3 38       	mul	r8,r9
80002928:	10 0a       	add	r10,r8
8000292a:	ee fc fe a0 	ld.w	r12,r7[-352]
8000292e:	ee fb fe 98 	ld.w	r11,r7[-360]
80002932:	f8 0b 06 48 	mulu.d	r8,r12,r11
80002936:	12 0a       	add	r10,r9
80002938:	14 99       	mov	r9,r10
8000293a:	e0 6a 03 e7 	mov	r10,999
8000293e:	30 0b       	mov	r11,0
80002940:	f0 0a 00 0a 	add	r10,r8,r10
80002944:	f2 0b 00 4b 	adc	r11,r9,r11
80002948:	e0 68 03 e8 	mov	r8,1000
8000294c:	30 09       	mov	r9,0
8000294e:	f0 1f 00 a1 	mcall	80002bd0 <dip204_init+0xac8>
80002952:	14 98       	mov	r8,r10
80002954:	16 99       	mov	r9,r11
80002956:	ef 48 ff d4 	st.w	r7[-44],r8
8000295a:	ee c8 01 08 	sub	r8,r7,264
8000295e:	ef 48 ff d0 	st.w	r7[-48],r8
80002962:	e1 b8 00 42 	mfsr	r8,0x108
80002966:	10 99       	mov	r9,r8
80002968:	ee f8 ff d0 	ld.w	r8,r7[-48]
8000296c:	91 09       	st.w	r8[0x0],r9
8000296e:	ee f8 ff d0 	ld.w	r8,r7[-48]
80002972:	70 09       	ld.w	r9,r8[0x0]
80002974:	ee f8 ff d4 	ld.w	r8,r7[-44]
80002978:	10 09       	add	r9,r8
8000297a:	ee f8 ff d0 	ld.w	r8,r7[-48]
8000297e:	91 19       	st.w	r8[0x4],r9
80002980:	ee f9 ff d0 	ld.w	r9,r7[-48]
80002984:	30 08       	mov	r8,0
80002986:	f3 68 00 08 	st.b	r9[8],r8
8000298a:	ee c8 01 08 	sub	r8,r7,264
8000298e:	ef 48 ff d8 	st.w	r7[-40],r8
80002992:	e1 b8 00 42 	mfsr	r8,0x108
80002996:	ef 48 ff dc 	st.w	r7[-36],r8
8000299a:	ee f8 ff d8 	ld.w	r8,r7[-40]
8000299e:	f1 39 00 08 	ld.ub	r9,r8[8]
800029a2:	30 28       	mov	r8,2
800029a4:	f0 09 18 00 	cp.b	r9,r8
800029a8:	c0 31       	brne	800029ae <dip204_init+0x8a6>
800029aa:	30 08       	mov	r8,0
800029ac:	c4 38       	rjmp	80002a32 <dip204_init+0x92a>
800029ae:	ee f8 ff d8 	ld.w	r8,r7[-40]
800029b2:	f1 39 00 08 	ld.ub	r9,r8[8]
800029b6:	30 18       	mov	r8,1
800029b8:	f0 09 18 00 	cp.b	r9,r8
800029bc:	c0 31       	brne	800029c2 <dip204_init+0x8ba>
800029be:	30 18       	mov	r8,1
800029c0:	c3 98       	rjmp	80002a32 <dip204_init+0x92a>
800029c2:	ee f8 ff d8 	ld.w	r8,r7[-40]
800029c6:	70 09       	ld.w	r9,r8[0x0]
800029c8:	ee f8 ff d8 	ld.w	r8,r7[-40]
800029cc:	70 18       	ld.w	r8,r8[0x4]
800029ce:	10 39       	cp.w	r9,r8
800029d0:	e0 88 00 1a 	brls	80002a04 <dip204_init+0x8fc>
800029d4:	ee f8 ff d8 	ld.w	r8,r7[-40]
800029d8:	70 08       	ld.w	r8,r8[0x0]
800029da:	ee f9 ff dc 	ld.w	r9,r7[-36]
800029de:	10 39       	cp.w	r9,r8
800029e0:	c1 02       	brcc	80002a00 <dip204_init+0x8f8>
800029e2:	ee f8 ff d8 	ld.w	r8,r7[-40]
800029e6:	70 18       	ld.w	r8,r8[0x4]
800029e8:	ee f9 ff dc 	ld.w	r9,r7[-36]
800029ec:	10 39       	cp.w	r9,r8
800029ee:	e0 88 00 09 	brls	80002a00 <dip204_init+0x8f8>
800029f2:	ee f9 ff d8 	ld.w	r9,r7[-40]
800029f6:	30 18       	mov	r8,1
800029f8:	f3 68 00 08 	st.b	r9[8],r8
800029fc:	30 18       	mov	r8,1
800029fe:	c1 a8       	rjmp	80002a32 <dip204_init+0x92a>
80002a00:	30 08       	mov	r8,0
80002a02:	c1 88       	rjmp	80002a32 <dip204_init+0x92a>
80002a04:	ee f8 ff d8 	ld.w	r8,r7[-40]
80002a08:	70 08       	ld.w	r8,r8[0x0]
80002a0a:	ee f9 ff dc 	ld.w	r9,r7[-36]
80002a0e:	10 39       	cp.w	r9,r8
80002a10:	c0 93       	brcs	80002a22 <dip204_init+0x91a>
80002a12:	ee f8 ff d8 	ld.w	r8,r7[-40]
80002a16:	70 18       	ld.w	r8,r8[0x4]
80002a18:	ee f9 ff dc 	ld.w	r9,r7[-36]
80002a1c:	10 39       	cp.w	r9,r8
80002a1e:	e0 88 00 09 	brls	80002a30 <dip204_init+0x928>
80002a22:	ee f9 ff d8 	ld.w	r9,r7[-40]
80002a26:	30 18       	mov	r8,1
80002a28:	f3 68 00 08 	st.b	r9[8],r8
80002a2c:	30 18       	mov	r8,1
80002a2e:	c0 28       	rjmp	80002a32 <dip204_init+0x92a>
80002a30:	30 08       	mov	r8,0
80002a32:	58 08       	cp.w	r8,0
80002a34:	ca b0       	breq	8000298a <dip204_init+0x882>
80002a36:	30 6c       	mov	r12,6
80002a38:	f0 1f 00 68 	mcall	80002bd8 <dip204_init+0xad0>
80002a3c:	f0 1f 00 64 	mcall	80002bcc <dip204_init+0xac4>
80002a40:	18 98       	mov	r8,r12
80002a42:	30 19       	mov	r9,1
80002a44:	ef 49 ff e4 	st.w	r7[-28],r9
80002a48:	ef 48 ff e0 	st.w	r7[-32],r8
80002a4c:	ee f8 ff e4 	ld.w	r8,r7[-28]
80002a50:	ef 48 ff ec 	st.w	r7[-20],r8
80002a54:	ee f8 ff e0 	ld.w	r8,r7[-32]
80002a58:	ef 48 ff e8 	st.w	r7[-24],r8
80002a5c:	ee fa ff ec 	ld.w	r10,r7[-20]
80002a60:	ef 4a fe b0 	st.w	r7[-336],r10
80002a64:	30 09       	mov	r9,0
80002a66:	ef 49 fe ac 	st.w	r7[-340],r9
80002a6a:	ee f8 ff e8 	ld.w	r8,r7[-24]
80002a6e:	ef 48 fe a8 	st.w	r7[-344],r8
80002a72:	30 0c       	mov	r12,0
80002a74:	ef 4c fe a4 	st.w	r7[-348],r12
80002a78:	ee fa fe ac 	ld.w	r10,r7[-340]
80002a7c:	ee fb fe a8 	ld.w	r11,r7[-344]
80002a80:	b7 3a       	mul	r10,r11
80002a82:	ee f8 fe a4 	ld.w	r8,r7[-348]
80002a86:	ee f9 fe b0 	ld.w	r9,r7[-336]
80002a8a:	b3 38       	mul	r8,r9
80002a8c:	10 0a       	add	r10,r8
80002a8e:	ee fc fe b0 	ld.w	r12,r7[-336]
80002a92:	ee fb fe a8 	ld.w	r11,r7[-344]
80002a96:	f8 0b 06 48 	mulu.d	r8,r12,r11
80002a9a:	12 0a       	add	r10,r9
80002a9c:	14 99       	mov	r9,r10
80002a9e:	e0 6a 03 e7 	mov	r10,999
80002aa2:	30 0b       	mov	r11,0
80002aa4:	f0 0a 00 0a 	add	r10,r8,r10
80002aa8:	f2 0b 00 4b 	adc	r11,r9,r11
80002aac:	e0 68 03 e8 	mov	r8,1000
80002ab0:	30 09       	mov	r9,0
80002ab2:	f0 1f 00 48 	mcall	80002bd0 <dip204_init+0xac8>
80002ab6:	14 98       	mov	r8,r10
80002ab8:	16 99       	mov	r9,r11
80002aba:	ef 48 ff f4 	st.w	r7[-12],r8
80002abe:	ee c8 00 fc 	sub	r8,r7,252
80002ac2:	ef 48 ff f0 	st.w	r7[-16],r8
80002ac6:	e1 b8 00 42 	mfsr	r8,0x108
80002aca:	10 99       	mov	r9,r8
80002acc:	ee f8 ff f0 	ld.w	r8,r7[-16]
80002ad0:	91 09       	st.w	r8[0x0],r9
80002ad2:	ee f8 ff f0 	ld.w	r8,r7[-16]
80002ad6:	70 09       	ld.w	r9,r8[0x0]
80002ad8:	ee f8 ff f4 	ld.w	r8,r7[-12]
80002adc:	10 09       	add	r9,r8
80002ade:	ee f8 ff f0 	ld.w	r8,r7[-16]
80002ae2:	91 19       	st.w	r8[0x4],r9
80002ae4:	ee f9 ff f0 	ld.w	r9,r7[-16]
80002ae8:	30 08       	mov	r8,0
80002aea:	f3 68 00 08 	st.b	r9[8],r8
80002aee:	ee c8 00 fc 	sub	r8,r7,252
80002af2:	ef 48 ff f8 	st.w	r7[-8],r8
80002af6:	e1 b8 00 42 	mfsr	r8,0x108
80002afa:	ef 48 ff fc 	st.w	r7[-4],r8
80002afe:	ee f8 ff f8 	ld.w	r8,r7[-8]
80002b02:	f1 39 00 08 	ld.ub	r9,r8[8]
80002b06:	30 28       	mov	r8,2
80002b08:	f0 09 18 00 	cp.b	r9,r8
80002b0c:	c0 31       	brne	80002b12 <dip204_init+0xa0a>
80002b0e:	30 08       	mov	r8,0
80002b10:	c4 38       	rjmp	80002b96 <dip204_init+0xa8e>
80002b12:	ee f8 ff f8 	ld.w	r8,r7[-8]
80002b16:	f1 39 00 08 	ld.ub	r9,r8[8]
80002b1a:	30 18       	mov	r8,1
80002b1c:	f0 09 18 00 	cp.b	r9,r8
80002b20:	c0 31       	brne	80002b26 <dip204_init+0xa1e>
80002b22:	30 18       	mov	r8,1
80002b24:	c3 98       	rjmp	80002b96 <dip204_init+0xa8e>
80002b26:	ee f8 ff f8 	ld.w	r8,r7[-8]
80002b2a:	70 09       	ld.w	r9,r8[0x0]
80002b2c:	ee f8 ff f8 	ld.w	r8,r7[-8]
80002b30:	70 18       	ld.w	r8,r8[0x4]
80002b32:	10 39       	cp.w	r9,r8
80002b34:	e0 88 00 1a 	brls	80002b68 <dip204_init+0xa60>
80002b38:	ee f8 ff f8 	ld.w	r8,r7[-8]
80002b3c:	70 08       	ld.w	r8,r8[0x0]
80002b3e:	ee f9 ff fc 	ld.w	r9,r7[-4]
80002b42:	10 39       	cp.w	r9,r8
80002b44:	c1 02       	brcc	80002b64 <dip204_init+0xa5c>
80002b46:	ee f8 ff f8 	ld.w	r8,r7[-8]
80002b4a:	70 18       	ld.w	r8,r8[0x4]
80002b4c:	ee f9 ff fc 	ld.w	r9,r7[-4]
80002b50:	10 39       	cp.w	r9,r8
80002b52:	e0 88 00 09 	brls	80002b64 <dip204_init+0xa5c>
80002b56:	ee f9 ff f8 	ld.w	r9,r7[-8]
80002b5a:	30 18       	mov	r8,1
80002b5c:	f3 68 00 08 	st.b	r9[8],r8
80002b60:	30 18       	mov	r8,1
80002b62:	c1 a8       	rjmp	80002b96 <dip204_init+0xa8e>
80002b64:	30 08       	mov	r8,0
80002b66:	c1 88       	rjmp	80002b96 <dip204_init+0xa8e>
80002b68:	ee f8 ff f8 	ld.w	r8,r7[-8]
80002b6c:	70 08       	ld.w	r8,r8[0x0]
80002b6e:	ee f9 ff fc 	ld.w	r9,r7[-4]
80002b72:	10 39       	cp.w	r9,r8
80002b74:	c0 93       	brcs	80002b86 <dip204_init+0xa7e>
80002b76:	ee f8 ff f8 	ld.w	r8,r7[-8]
80002b7a:	70 18       	ld.w	r8,r8[0x4]
80002b7c:	ee f9 ff fc 	ld.w	r9,r7[-4]
80002b80:	10 39       	cp.w	r9,r8
80002b82:	e0 88 00 09 	brls	80002b94 <dip204_init+0xa8c>
80002b86:	ee f9 ff f8 	ld.w	r9,r7[-8]
80002b8a:	30 18       	mov	r8,1
80002b8c:	f3 68 00 08 	st.b	r9[8],r8
80002b90:	30 18       	mov	r8,1
80002b92:	c0 28       	rjmp	80002b96 <dip204_init+0xa8e>
80002b94:	30 08       	mov	r8,0
80002b96:	58 08       	cp.w	r8,0
80002b98:	ca b0       	breq	80002aee <dip204_init+0x9e6>
80002b9a:	f0 1f 00 11 	mcall	80002bdc <dip204_init+0xad4>
80002b9e:	f0 1f 00 11 	mcall	80002be0 <dip204_init+0xad8>
80002ba2:	29 5d       	sub	sp,-428
80002ba4:	e3 cd 80 8f 	ldm	sp++,r0-r3,r7,pc
80002ba8:	00 00       	add	r0,r0
80002baa:	00 1c       	sub	r12,r0
80002bac:	80 00       	ld.sh	r0,r0[0x0]
80002bae:	3e cc       	mov	r12,-20
80002bb0:	80 00       	ld.sh	r0,r0[0x0]
80002bb2:	31 30       	mov	r0,19
80002bb4:	00 00       	add	r0,r0
80002bb6:	05 50       	ld.sh	r0,--r2
80002bb8:	00 00       	add	r0,r0
80002bba:	05 54       	ld.sh	r4,--r2
80002bbc:	80 00       	ld.sh	r0,r0[0x0]
80002bbe:	31 c4       	mov	r4,28
80002bc0:	80 00       	ld.sh	r0,r0[0x0]
80002bc2:	32 4c       	mov	r12,36
80002bc4:	80 00       	ld.sh	r0,r0[0x0]
80002bc6:	40 44       	lddsp	r4,sp[0x10]
80002bc8:	80 00       	ld.sh	r0,r0[0x0]
80002bca:	3f dc       	mov	r12,-3
80002bcc:	80 00       	ld.sh	r0,r0[0x0]
80002bce:	20 f0       	sub	r0,15
80002bd0:	80 00       	ld.sh	r0,r0[0x0]
80002bd2:	62 50       	ld.w	r0,r1[0x14]
80002bd4:	80 00       	ld.sh	r0,r0[0x0]
80002bd6:	2e e0       	sub	r0,-18
80002bd8:	80 00       	ld.sh	r0,r0[0x0]
80002bda:	2f 10       	sub	r0,-15
80002bdc:	80 00       	ld.sh	r0,r0[0x0]
80002bde:	2f f4       	sub	r4,-1
80002be0:	80 00       	ld.sh	r0,r0[0x0]
80002be2:	2e f8       	sub	r8,-17

80002be4 <dip204_hide_cursor>:
80002be4:	eb cd 40 80 	pushm	r7,lr
80002be8:	1a 97       	mov	r7,sp
80002bea:	f0 1f 00 08 	mcall	80002c08 <dip204_hide_cursor+0x24>
80002bee:	e0 6c 00 f8 	mov	r12,248
80002bf2:	f0 1f 00 07 	mcall	80002c0c <dip204_hide_cursor+0x28>
80002bf6:	30 cc       	mov	r12,12
80002bf8:	f0 1f 00 05 	mcall	80002c0c <dip204_hide_cursor+0x28>
80002bfc:	f0 1f 00 05 	mcall	80002c10 <dip204_hide_cursor+0x2c>
80002c00:	f0 1f 00 05 	mcall	80002c14 <dip204_hide_cursor+0x30>
80002c04:	e3 cd 80 80 	ldm	sp++,r7,pc
80002c08:	80 00       	ld.sh	r0,r0[0x0]
80002c0a:	2e e0       	sub	r0,-18
80002c0c:	80 00       	ld.sh	r0,r0[0x0]
80002c0e:	2f 10       	sub	r0,-15
80002c10:	80 00       	ld.sh	r0,r0[0x0]
80002c12:	2f f4       	sub	r4,-1
80002c14:	80 00       	ld.sh	r0,r0[0x0]
80002c16:	2e f8       	sub	r8,-17

80002c18 <dip204_set_cursor_position>:
80002c18:	eb cd 40 80 	pushm	r7,lr
80002c1c:	1a 97       	mov	r7,sp
80002c1e:	20 3d       	sub	sp,12
80002c20:	18 99       	mov	r9,r12
80002c22:	16 98       	mov	r8,r11
80002c24:	ef 69 ff f8 	st.b	r7[-8],r9
80002c28:	ef 68 ff f4 	st.b	r7[-12],r8
80002c2c:	30 08       	mov	r8,0
80002c2e:	ef 68 ff ff 	st.b	r7[-1],r8
80002c32:	f0 1f 00 18 	mcall	80002c90 <dip204_set_cursor_position+0x78>
80002c36:	ef 39 ff f8 	ld.ub	r9,r7[-8]
80002c3a:	31 48       	mov	r8,20
80002c3c:	f0 09 18 00 	cp.b	r9,r8
80002c40:	e0 8b 00 17 	brhi	80002c6e <dip204_set_cursor_position+0x56>
80002c44:	ef 39 ff f4 	ld.ub	r9,r7[-12]
80002c48:	30 48       	mov	r8,4
80002c4a:	f0 09 18 00 	cp.b	r9,r8
80002c4e:	e0 8b 00 10 	brhi	80002c6e <dip204_set_cursor_position+0x56>
80002c52:	ef 38 ff f4 	ld.ub	r8,r7[-12]
80002c56:	20 18       	sub	r8,1
80002c58:	5c 58       	castu.b	r8
80002c5a:	a5 78       	lsl	r8,0x5
80002c5c:	5c 58       	castu.b	r8
80002c5e:	ef 39 ff f8 	ld.ub	r9,r7[-8]
80002c62:	f2 08 00 08 	add	r8,r9,r8
80002c66:	5c 58       	castu.b	r8
80002c68:	28 18       	sub	r8,-127
80002c6a:	ef 68 ff ff 	st.b	r7[-1],r8
80002c6e:	e0 6c 00 f8 	mov	r12,248
80002c72:	f0 1f 00 09 	mcall	80002c94 <dip204_set_cursor_position+0x7c>
80002c76:	ef 38 ff ff 	ld.ub	r8,r7[-1]
80002c7a:	10 9c       	mov	r12,r8
80002c7c:	f0 1f 00 06 	mcall	80002c94 <dip204_set_cursor_position+0x7c>
80002c80:	f0 1f 00 06 	mcall	80002c98 <dip204_set_cursor_position+0x80>
80002c84:	f0 1f 00 06 	mcall	80002c9c <dip204_set_cursor_position+0x84>
80002c88:	2f dd       	sub	sp,-12
80002c8a:	e3 cd 80 80 	ldm	sp++,r7,pc
80002c8e:	00 00       	add	r0,r0
80002c90:	80 00       	ld.sh	r0,r0[0x0]
80002c92:	2e e0       	sub	r0,-18
80002c94:	80 00       	ld.sh	r0,r0[0x0]
80002c96:	2f 10       	sub	r0,-15
80002c98:	80 00       	ld.sh	r0,r0[0x0]
80002c9a:	2f f4       	sub	r4,-1
80002c9c:	80 00       	ld.sh	r0,r0[0x0]
80002c9e:	2e f8       	sub	r8,-17

80002ca0 <dip204_clear_display>:
80002ca0:	eb cd 40 8f 	pushm	r0-r3,r7,lr
80002ca4:	1a 97       	mov	r7,sp
80002ca6:	20 bd       	sub	sp,44
80002ca8:	f0 1f 00 57 	mcall	80002e04 <dip204_clear_display+0x164>
80002cac:	e0 6c 00 f8 	mov	r12,248
80002cb0:	f0 1f 00 56 	mcall	80002e08 <dip204_clear_display+0x168>
80002cb4:	30 1c       	mov	r12,1
80002cb6:	f0 1f 00 55 	mcall	80002e08 <dip204_clear_display+0x168>
80002cba:	f0 1f 00 55 	mcall	80002e0c <dip204_clear_display+0x16c>
80002cbe:	18 98       	mov	r8,r12
80002cc0:	30 49       	mov	r9,4
80002cc2:	ef 49 ff e4 	st.w	r7[-28],r9
80002cc6:	ef 48 ff e0 	st.w	r7[-32],r8
80002cca:	ee f8 ff e4 	ld.w	r8,r7[-28]
80002cce:	ef 48 ff ec 	st.w	r7[-20],r8
80002cd2:	ee f8 ff e0 	ld.w	r8,r7[-32]
80002cd6:	ef 48 ff e8 	st.w	r7[-24],r8
80002cda:	ee f0 ff ec 	ld.w	r0,r7[-20]
80002cde:	30 01       	mov	r1,0
80002ce0:	ee f2 ff e8 	ld.w	r2,r7[-24]
80002ce4:	30 03       	mov	r3,0
80002ce6:	e2 02 02 4a 	mul	r10,r1,r2
80002cea:	e6 00 02 48 	mul	r8,r3,r0
80002cee:	10 0a       	add	r10,r8
80002cf0:	e0 02 06 48 	mulu.d	r8,r0,r2
80002cf4:	12 0a       	add	r10,r9
80002cf6:	14 99       	mov	r9,r10
80002cf8:	e0 6a 03 e7 	mov	r10,999
80002cfc:	30 0b       	mov	r11,0
80002cfe:	f0 0a 00 0a 	add	r10,r8,r10
80002d02:	f2 0b 00 4b 	adc	r11,r9,r11
80002d06:	e0 68 03 e8 	mov	r8,1000
80002d0a:	30 09       	mov	r9,0
80002d0c:	f0 1f 00 41 	mcall	80002e10 <dip204_clear_display+0x170>
80002d10:	14 98       	mov	r8,r10
80002d12:	16 99       	mov	r9,r11
80002d14:	ef 48 ff f4 	st.w	r7[-12],r8
80002d18:	ee c8 00 2c 	sub	r8,r7,44
80002d1c:	ef 48 ff f0 	st.w	r7[-16],r8
80002d20:	e1 b8 00 42 	mfsr	r8,0x108
80002d24:	10 99       	mov	r9,r8
80002d26:	ee f8 ff f0 	ld.w	r8,r7[-16]
80002d2a:	91 09       	st.w	r8[0x0],r9
80002d2c:	ee f8 ff f0 	ld.w	r8,r7[-16]
80002d30:	70 09       	ld.w	r9,r8[0x0]
80002d32:	ee f8 ff f4 	ld.w	r8,r7[-12]
80002d36:	10 09       	add	r9,r8
80002d38:	ee f8 ff f0 	ld.w	r8,r7[-16]
80002d3c:	91 19       	st.w	r8[0x4],r9
80002d3e:	ee f9 ff f0 	ld.w	r9,r7[-16]
80002d42:	30 08       	mov	r8,0
80002d44:	f3 68 00 08 	st.b	r9[8],r8
80002d48:	ee c8 00 2c 	sub	r8,r7,44
80002d4c:	ef 48 ff f8 	st.w	r7[-8],r8
80002d50:	e1 b8 00 42 	mfsr	r8,0x108
80002d54:	ef 48 ff fc 	st.w	r7[-4],r8
80002d58:	ee f8 ff f8 	ld.w	r8,r7[-8]
80002d5c:	f1 39 00 08 	ld.ub	r9,r8[8]
80002d60:	30 28       	mov	r8,2
80002d62:	f0 09 18 00 	cp.b	r9,r8
80002d66:	c0 31       	brne	80002d6c <dip204_clear_display+0xcc>
80002d68:	30 08       	mov	r8,0
80002d6a:	c4 38       	rjmp	80002df0 <dip204_clear_display+0x150>
80002d6c:	ee f8 ff f8 	ld.w	r8,r7[-8]
80002d70:	f1 39 00 08 	ld.ub	r9,r8[8]
80002d74:	30 18       	mov	r8,1
80002d76:	f0 09 18 00 	cp.b	r9,r8
80002d7a:	c0 31       	brne	80002d80 <dip204_clear_display+0xe0>
80002d7c:	30 18       	mov	r8,1
80002d7e:	c3 98       	rjmp	80002df0 <dip204_clear_display+0x150>
80002d80:	ee f8 ff f8 	ld.w	r8,r7[-8]
80002d84:	70 09       	ld.w	r9,r8[0x0]
80002d86:	ee f8 ff f8 	ld.w	r8,r7[-8]
80002d8a:	70 18       	ld.w	r8,r8[0x4]
80002d8c:	10 39       	cp.w	r9,r8
80002d8e:	e0 88 00 1a 	brls	80002dc2 <dip204_clear_display+0x122>
80002d92:	ee f8 ff f8 	ld.w	r8,r7[-8]
80002d96:	70 08       	ld.w	r8,r8[0x0]
80002d98:	ee f9 ff fc 	ld.w	r9,r7[-4]
80002d9c:	10 39       	cp.w	r9,r8
80002d9e:	c1 02       	brcc	80002dbe <dip204_clear_display+0x11e>
80002da0:	ee f8 ff f8 	ld.w	r8,r7[-8]
80002da4:	70 18       	ld.w	r8,r8[0x4]
80002da6:	ee f9 ff fc 	ld.w	r9,r7[-4]
80002daa:	10 39       	cp.w	r9,r8
80002dac:	e0 88 00 09 	brls	80002dbe <dip204_clear_display+0x11e>
80002db0:	ee f9 ff f8 	ld.w	r9,r7[-8]
80002db4:	30 18       	mov	r8,1
80002db6:	f3 68 00 08 	st.b	r9[8],r8
80002dba:	30 18       	mov	r8,1
80002dbc:	c1 a8       	rjmp	80002df0 <dip204_clear_display+0x150>
80002dbe:	30 08       	mov	r8,0
80002dc0:	c1 88       	rjmp	80002df0 <dip204_clear_display+0x150>
80002dc2:	ee f8 ff f8 	ld.w	r8,r7[-8]
80002dc6:	70 08       	ld.w	r8,r8[0x0]
80002dc8:	ee f9 ff fc 	ld.w	r9,r7[-4]
80002dcc:	10 39       	cp.w	r9,r8
80002dce:	c0 93       	brcs	80002de0 <dip204_clear_display+0x140>
80002dd0:	ee f8 ff f8 	ld.w	r8,r7[-8]
80002dd4:	70 18       	ld.w	r8,r8[0x4]
80002dd6:	ee f9 ff fc 	ld.w	r9,r7[-4]
80002dda:	10 39       	cp.w	r9,r8
80002ddc:	e0 88 00 09 	brls	80002dee <dip204_clear_display+0x14e>
80002de0:	ee f9 ff f8 	ld.w	r9,r7[-8]
80002de4:	30 18       	mov	r8,1
80002de6:	f3 68 00 08 	st.b	r9[8],r8
80002dea:	30 18       	mov	r8,1
80002dec:	c0 28       	rjmp	80002df0 <dip204_clear_display+0x150>
80002dee:	30 08       	mov	r8,0
80002df0:	58 08       	cp.w	r8,0
80002df2:	ca b0       	breq	80002d48 <dip204_clear_display+0xa8>
80002df4:	f0 1f 00 08 	mcall	80002e14 <dip204_clear_display+0x174>
80002df8:	f0 1f 00 08 	mcall	80002e18 <dip204_clear_display+0x178>
80002dfc:	2f 5d       	sub	sp,-44
80002dfe:	e3 cd 80 8f 	ldm	sp++,r0-r3,r7,pc
80002e02:	00 00       	add	r0,r0
80002e04:	80 00       	ld.sh	r0,r0[0x0]
80002e06:	2e e0       	sub	r0,-18
80002e08:	80 00       	ld.sh	r0,r0[0x0]
80002e0a:	2f 10       	sub	r0,-15
80002e0c:	80 00       	ld.sh	r0,r0[0x0]
80002e0e:	20 f0       	sub	r0,15
80002e10:	80 00       	ld.sh	r0,r0[0x0]
80002e12:	62 50       	ld.w	r0,r1[0x14]
80002e14:	80 00       	ld.sh	r0,r0[0x0]
80002e16:	2f f4       	sub	r4,-1
80002e18:	80 00       	ld.sh	r0,r0[0x0]
80002e1a:	2e f8       	sub	r8,-17

80002e1c <dip204_printf_string>:
80002e1c:	eb cd 40 80 	pushm	r7,lr
80002e20:	1a 97       	mov	r7,sp
80002e22:	20 9d       	sub	sp,36
80002e24:	ee c9 ff f8 	sub	r9,r7,-8
80002e28:	ef 4c ff dc 	st.w	r7[-36],r12
80002e2c:	30 08       	mov	r8,0
80002e2e:	ef 68 ff ff 	st.b	r7[-1],r8
80002e32:	f2 c8 00 00 	sub	r8,r9,0
80002e36:	ef 48 ff f8 	st.w	r7[-8],r8
80002e3a:	ee f9 ff f8 	ld.w	r9,r7[-8]
80002e3e:	ee c8 00 20 	sub	r8,r7,32
80002e42:	12 9a       	mov	r10,r9
80002e44:	ee fb ff dc 	ld.w	r11,r7[-36]
80002e48:	10 9c       	mov	r12,r8
80002e4a:	f0 1f 00 21 	mcall	80002ecc <dip204_printf_string+0xb0>
80002e4e:	18 98       	mov	r8,r12
80002e50:	ef 68 ff ff 	st.b	r7[-1],r8
80002e54:	c0 d8       	rjmp	80002e6e <dip204_printf_string+0x52>
80002e56:	ef 38 ff ff 	ld.ub	r8,r7[-1]
80002e5a:	ee 08 00 09 	add	r9,r7,r8
80002e5e:	30 08       	mov	r8,0
80002e60:	f3 68 ff e0 	st.b	r9[-32],r8
80002e64:	ef 38 ff ff 	ld.ub	r8,r7[-1]
80002e68:	2f f8       	sub	r8,-1
80002e6a:	ef 68 ff ff 	st.b	r7[-1],r8
80002e6e:	ef 39 ff ff 	ld.ub	r9,r7[-1]
80002e72:	31 38       	mov	r8,19
80002e74:	f0 09 18 00 	cp.b	r9,r8
80002e78:	fe 98 ff ef 	brls	80002e56 <dip204_printf_string+0x3a>
80002e7c:	f0 1f 00 15 	mcall	80002ed0 <dip204_printf_string+0xb4>
80002e80:	30 08       	mov	r8,0
80002e82:	ef 68 ff ff 	st.b	r7[-1],r8
80002e86:	c1 58       	rjmp	80002eb0 <dip204_printf_string+0x94>
80002e88:	e0 6c 00 fa 	mov	r12,250
80002e8c:	f0 1f 00 12 	mcall	80002ed4 <dip204_printf_string+0xb8>
80002e90:	ef 38 ff ff 	ld.ub	r8,r7[-1]
80002e94:	ee 08 00 08 	add	r8,r7,r8
80002e98:	f1 38 ff e0 	ld.ub	r8,r8[-32]
80002e9c:	10 9c       	mov	r12,r8
80002e9e:	f0 1f 00 0e 	mcall	80002ed4 <dip204_printf_string+0xb8>
80002ea2:	ef 38 ff ff 	ld.ub	r8,r7[-1]
80002ea6:	2f f8       	sub	r8,-1
80002ea8:	ef 68 ff ff 	st.b	r7[-1],r8
80002eac:	f0 1f 00 0b 	mcall	80002ed8 <dip204_printf_string+0xbc>
80002eb0:	ef 38 ff ff 	ld.ub	r8,r7[-1]
80002eb4:	ee 08 00 08 	add	r8,r7,r8
80002eb8:	f1 38 ff e0 	ld.ub	r8,r8[-32]
80002ebc:	58 08       	cp.w	r8,0
80002ebe:	ce 51       	brne	80002e88 <dip204_printf_string+0x6c>
80002ec0:	f0 1f 00 07 	mcall	80002edc <dip204_printf_string+0xc0>
80002ec4:	2f 7d       	sub	sp,-36
80002ec6:	e3 cd 80 80 	ldm	sp++,r7,pc
80002eca:	00 00       	add	r0,r0
80002ecc:	80 00       	ld.sh	r0,r0[0x0]
80002ece:	6e ac       	ld.w	r12,r7[0x28]
80002ed0:	80 00       	ld.sh	r0,r0[0x0]
80002ed2:	2e e0       	sub	r0,-18
80002ed4:	80 00       	ld.sh	r0,r0[0x0]
80002ed6:	2f 10       	sub	r0,-15
80002ed8:	80 00       	ld.sh	r0,r0[0x0]
80002eda:	2f f4       	sub	r4,-1
80002edc:	80 00       	ld.sh	r0,r0[0x0]
80002ede:	2e f8       	sub	r8,-17

80002ee0 <dip204_select>:
80002ee0:	eb cd 40 80 	pushm	r7,lr
80002ee4:	1a 97       	mov	r7,sp
80002ee6:	30 2b       	mov	r11,2
80002ee8:	fe 7c 28 00 	mov	r12,-55296
80002eec:	f0 1f 00 02 	mcall	80002ef4 <dip204_select+0x14>
80002ef0:	e3 cd 80 80 	ldm	sp++,r7,pc
80002ef4:	80 00       	ld.sh	r0,r0[0x0]
80002ef6:	33 f2       	mov	r2,63

80002ef8 <dip204_unselect>:
80002ef8:	eb cd 40 80 	pushm	r7,lr
80002efc:	1a 97       	mov	r7,sp
80002efe:	30 2b       	mov	r11,2
80002f00:	fe 7c 28 00 	mov	r12,-55296
80002f04:	f0 1f 00 02 	mcall	80002f0c <dip204_unselect+0x14>
80002f08:	e3 cd 80 80 	ldm	sp++,r7,pc
80002f0c:	80 00       	ld.sh	r0,r0[0x0]
80002f0e:	34 8a       	mov	r10,72

80002f10 <dip204_write_byte>:
80002f10:	eb cd 40 80 	pushm	r7,lr
80002f14:	1a 97       	mov	r7,sp
80002f16:	20 3d       	sub	sp,12
80002f18:	18 98       	mov	r8,r12
80002f1a:	ef 68 ff f4 	st.b	r7[-12],r8
80002f1e:	ef 38 ff f4 	ld.ub	r8,r7[-12]
80002f22:	f0 c8 00 f8 	sub	r8,r8,248
80002f26:	58 68       	cp.w	r8,6
80002f28:	e0 8b 00 10 	brhi	80002f48 <dip204_write_byte+0x38>
80002f2c:	30 19       	mov	r9,1
80002f2e:	f2 08 09 48 	lsl	r8,r9,r8
80002f32:	e2 18 00 55 	andl	r8,0x55,COH
80002f36:	c0 90       	breq	80002f48 <dip204_write_byte+0x38>
80002f38:	ef 38 ff f4 	ld.ub	r8,r7[-12]
80002f3c:	10 9b       	mov	r11,r8
80002f3e:	fe 7c 28 00 	mov	r12,-55296
80002f42:	f0 1f 00 15 	mcall	80002f94 <dip204_write_byte+0x84>
80002f46:	c2 48       	rjmp	80002f8e <dip204_write_byte+0x7e>
80002f48:	ef 38 ff f4 	ld.ub	r8,r7[-12]
80002f4c:	ef 48 ff fc 	st.w	r7[-4],r8
80002f50:	ee f8 ff fc 	ld.w	r8,r7[-4]
80002f54:	5c 98       	brev	r8
80002f56:	ef 48 ff fc 	st.w	r7[-4],r8
80002f5a:	ee f8 ff fc 	ld.w	r8,r7[-4]
80002f5e:	b9 88       	lsr	r8,0x18
80002f60:	ef 68 ff fb 	st.b	r7[-5],r8
80002f64:	ef 38 ff fb 	ld.ub	r8,r7[-5]
80002f68:	e2 18 00 f0 	andl	r8,0xf0,COH
80002f6c:	10 9b       	mov	r11,r8
80002f6e:	fe 7c 28 00 	mov	r12,-55296
80002f72:	f0 1f 00 09 	mcall	80002f94 <dip204_write_byte+0x84>
80002f76:	ef 38 ff fb 	ld.ub	r8,r7[-5]
80002f7a:	a5 68       	lsl	r8,0x4
80002f7c:	5c 88       	casts.h	r8
80002f7e:	5c 78       	castu.h	r8
80002f80:	f1 d8 c0 08 	bfextu	r8,r8,0x0,0x8
80002f84:	10 9b       	mov	r11,r8
80002f86:	fe 7c 28 00 	mov	r12,-55296
80002f8a:	f0 1f 00 03 	mcall	80002f94 <dip204_write_byte+0x84>
80002f8e:	2f dd       	sub	sp,-12
80002f90:	e3 cd 80 80 	ldm	sp++,r7,pc
80002f94:	80 00       	ld.sh	r0,r0[0x0]
80002f96:	36 92       	mov	r2,105

80002f98 <dip204_read_byte>:
80002f98:	eb cd 40 80 	pushm	r7,lr
80002f9c:	1a 97       	mov	r7,sp
80002f9e:	20 3d       	sub	sp,12
80002fa0:	ef 4c ff f4 	st.w	r7[-12],r12
80002fa4:	30 08       	mov	r8,0
80002fa6:	ef 58 ff fa 	st.h	r7[-6],r8
80002faa:	30 0b       	mov	r11,0
80002fac:	fe 7c 28 00 	mov	r12,-55296
80002fb0:	f0 1f 00 0f 	mcall	80002fec <dip204_read_byte+0x54>
80002fb4:	ee c8 00 06 	sub	r8,r7,6
80002fb8:	10 9b       	mov	r11,r8
80002fba:	fe 7c 28 00 	mov	r12,-55296
80002fbe:	f0 1f 00 0d 	mcall	80002ff0 <dip204_read_byte+0x58>
80002fc2:	ef 08 ff fa 	ld.sh	r8,r7[-6]
80002fc6:	5c 58       	castu.b	r8
80002fc8:	ef 48 ff fc 	st.w	r7[-4],r8
80002fcc:	ee f8 ff fc 	ld.w	r8,r7[-4]
80002fd0:	5c 98       	brev	r8
80002fd2:	ef 48 ff fc 	st.w	r7[-4],r8
80002fd6:	ee f8 ff fc 	ld.w	r8,r7[-4]
80002fda:	b9 88       	lsr	r8,0x18
80002fdc:	5c 58       	castu.b	r8
80002fde:	ee f9 ff f4 	ld.w	r9,r7[-12]
80002fe2:	b2 88       	st.b	r9[0x0],r8
80002fe4:	2f dd       	sub	sp,-12
80002fe6:	e3 cd 80 80 	ldm	sp++,r7,pc
80002fea:	00 00       	add	r0,r0
80002fec:	80 00       	ld.sh	r0,r0[0x0]
80002fee:	36 92       	mov	r2,105
80002ff0:	80 00       	ld.sh	r0,r0[0x0]
80002ff2:	36 ea       	mov	r10,110

80002ff4 <dip204_wait_busy>:
80002ff4:	eb cd 40 80 	pushm	r7,lr
80002ff8:	1a 97       	mov	r7,sp
80002ffa:	20 1d       	sub	sp,4
80002ffc:	30 08       	mov	r8,0
80002ffe:	ef 68 ff ff 	st.b	r7[-1],r8
80003002:	e0 6c 00 fc 	mov	r12,252
80003006:	f0 1f 00 09 	mcall	80003028 <dip204_wait_busy+0x34>
8000300a:	ee c8 00 01 	sub	r8,r7,1
8000300e:	10 9c       	mov	r12,r8
80003010:	f0 1f 00 07 	mcall	8000302c <dip204_wait_busy+0x38>
80003014:	ef 38 ff ff 	ld.ub	r8,r7[-1]
80003018:	10 99       	mov	r9,r8
8000301a:	30 08       	mov	r8,0
8000301c:	f0 09 18 00 	cp.b	r9,r8
80003020:	cf 55       	brlt	8000300a <dip204_wait_busy+0x16>
80003022:	2f fd       	sub	sp,-4
80003024:	e3 cd 80 80 	ldm	sp++,r7,pc
80003028:	80 00       	ld.sh	r0,r0[0x0]
8000302a:	2f 10       	sub	r0,-15
8000302c:	80 00       	ld.sh	r0,r0[0x0]
8000302e:	2f 98       	sub	r8,-7

80003030 <adc_configure>:
80003030:	eb cd 40 80 	pushm	r7,lr
80003034:	1a 97       	mov	r7,sp
80003036:	20 1d       	sub	sp,4
80003038:	ef 4c ff fc 	st.w	r7[-4],r12
8000303c:	ee f8 ff fc 	ld.w	r8,r7[-4]
80003040:	70 18       	ld.w	r8,r8[0x4]
80003042:	10 99       	mov	r9,r8
80003044:	ea 19 0f 00 	orh	r9,0xf00
80003048:	ee f8 ff fc 	ld.w	r8,r7[-4]
8000304c:	91 19       	st.w	r8[0x4],r9
8000304e:	ee f8 ff fc 	ld.w	r8,r7[-4]
80003052:	70 18       	ld.w	r8,r8[0x4]
80003054:	10 99       	mov	r9,r8
80003056:	ea 19 00 1f 	orh	r9,0x1f
8000305a:	ee f8 ff fc 	ld.w	r8,r7[-4]
8000305e:	91 19       	st.w	r8[0x4],r9
80003060:	2f fd       	sub	sp,-4
80003062:	e3 cd 80 80 	ldm	sp++,r7,pc

80003066 <adc_enable>:
80003066:	eb cd 40 80 	pushm	r7,lr
8000306a:	1a 97       	mov	r7,sp
8000306c:	20 2d       	sub	sp,8
8000306e:	ef 4c ff fc 	st.w	r7[-4],r12
80003072:	16 98       	mov	r8,r11
80003074:	ef 58 ff f8 	st.h	r7[-8],r8
80003078:	ef 18 ff f8 	ld.uh	r8,r7[-8]
8000307c:	30 19       	mov	r9,1
8000307e:	f2 08 09 48 	lsl	r8,r9,r8
80003082:	10 99       	mov	r9,r8
80003084:	ee f8 ff fc 	ld.w	r8,r7[-4]
80003088:	91 49       	st.w	r8[0x10],r9
8000308a:	2f ed       	sub	sp,-8
8000308c:	e3 cd 80 80 	ldm	sp++,r7,pc

80003090 <adc_check_eoc>:
80003090:	eb cd 40 80 	pushm	r7,lr
80003094:	1a 97       	mov	r7,sp
80003096:	20 2d       	sub	sp,8
80003098:	ef 4c ff fc 	st.w	r7[-4],r12
8000309c:	16 98       	mov	r8,r11
8000309e:	ef 58 ff f8 	st.h	r7[-8],r8
800030a2:	ee f8 ff fc 	ld.w	r8,r7[-4]
800030a6:	70 79       	ld.w	r9,r8[0x1c]
800030a8:	ef 18 ff f8 	ld.uh	r8,r7[-8]
800030ac:	30 1a       	mov	r10,1
800030ae:	f4 08 09 48 	lsl	r8,r10,r8
800030b2:	f3 e8 00 08 	and	r8,r9,r8
800030b6:	5f 18       	srne	r8
800030b8:	5c 58       	castu.b	r8
800030ba:	10 9c       	mov	r12,r8
800030bc:	2f ed       	sub	sp,-8
800030be:	e3 cd 80 80 	ldm	sp++,r7,pc
800030c2:	d7 03       	nop

800030c4 <adc_get_value>:
800030c4:	eb cd 40 80 	pushm	r7,lr
800030c8:	1a 97       	mov	r7,sp
800030ca:	20 2d       	sub	sp,8
800030cc:	ef 4c ff fc 	st.w	r7[-4],r12
800030d0:	16 98       	mov	r8,r11
800030d2:	ef 58 ff f8 	st.h	r7[-8],r8
800030d6:	ef 18 ff f8 	ld.uh	r8,r7[-8]
800030da:	10 9b       	mov	r11,r8
800030dc:	ee fc ff fc 	ld.w	r12,r7[-4]
800030e0:	f0 1f 00 0b 	mcall	8000310c <adc_get_value+0x48>
800030e4:	18 98       	mov	r8,r12
800030e6:	ec 18 00 01 	eorl	r8,0x1
800030ea:	5c 58       	castu.b	r8
800030ec:	cf 51       	brne	800030d6 <adc_get_value+0x12>
800030ee:	ee f8 ff fc 	ld.w	r8,r7[-4]
800030f2:	f0 c9 ff d0 	sub	r9,r8,-48
800030f6:	ef 18 ff f8 	ld.uh	r8,r7[-8]
800030fa:	a3 68       	lsl	r8,0x2
800030fc:	f2 08 00 08 	add	r8,r9,r8
80003100:	70 08       	ld.w	r8,r8[0x0]
80003102:	10 9c       	mov	r12,r8
80003104:	2f ed       	sub	sp,-8
80003106:	e3 cd 80 80 	ldm	sp++,r7,pc
8000310a:	00 00       	add	r0,r0
8000310c:	80 00       	ld.sh	r0,r0[0x0]
8000310e:	30 90       	mov	r0,9

80003110 <cpu_irq_is_enabled_flags>:
80003110:	eb cd 40 80 	pushm	r7,lr
80003114:	1a 97       	mov	r7,sp
80003116:	20 1d       	sub	sp,4
80003118:	ef 4c ff fc 	st.w	r7[-4],r12
8000311c:	ee f8 ff fc 	ld.w	r8,r7[-4]
80003120:	e6 18 00 01 	andh	r8,0x1,COH
80003124:	5f 08       	sreq	r8
80003126:	5c 58       	castu.b	r8
80003128:	10 9c       	mov	r12,r8
8000312a:	2f fd       	sub	sp,-4
8000312c:	e3 cd 80 80 	ldm	sp++,r7,pc

80003130 <pwm_init>:
80003130:	eb cd 40 80 	pushm	r7,lr
80003134:	1a 97       	mov	r7,sp
80003136:	20 3d       	sub	sp,12
80003138:	ef 4c ff f4 	st.w	r7[-12],r12
8000313c:	fe 78 30 00 	mov	r8,-53248
80003140:	ef 48 ff f8 	st.w	r7[-8],r8
80003144:	e1 b8 00 00 	mfsr	r8,0x0
80003148:	10 9c       	mov	r12,r8
8000314a:	f0 1f 00 1e 	mcall	800031c0 <pwm_init+0x90>
8000314e:	18 98       	mov	r8,r12
80003150:	ef 68 ff ff 	st.b	r7[-1],r8
80003154:	ee f8 ff f4 	ld.w	r8,r7[-12]
80003158:	58 08       	cp.w	r8,0
8000315a:	c0 31       	brne	80003160 <pwm_init+0x30>
8000315c:	30 18       	mov	r8,1
8000315e:	c2 c8       	rjmp	800031b6 <pwm_init+0x86>
80003160:	ef 39 ff ff 	ld.ub	r9,r7[-1]
80003164:	30 08       	mov	r8,0
80003166:	f0 09 18 00 	cp.b	r9,r8
8000316a:	c0 20       	breq	8000316e <pwm_init+0x3e>
8000316c:	d3 03       	ssrf	0x10
8000316e:	ee f8 ff f8 	ld.w	r8,r7[-8]
80003172:	37 f9       	mov	r9,127
80003174:	91 59       	st.w	r8[0x14],r9
80003176:	ee f8 ff f8 	ld.w	r8,r7[-8]
8000317a:	70 78       	ld.w	r8,r8[0x1c]
8000317c:	ef 39 ff ff 	ld.ub	r9,r7[-1]
80003180:	30 08       	mov	r8,0
80003182:	f0 09 18 00 	cp.b	r9,r8
80003186:	c0 20       	breq	8000318a <pwm_init+0x5a>
80003188:	d5 03       	csrf	0x10
8000318a:	ee f8 ff f4 	ld.w	r8,r7[-12]
8000318e:	70 19       	ld.w	r9,r8[0x4]
80003190:	ee f8 ff f4 	ld.w	r8,r7[-12]
80003194:	70 08       	ld.w	r8,r8[0x0]
80003196:	b1 68       	lsl	r8,0x10
80003198:	10 49       	or	r9,r8
8000319a:	ee f8 ff f4 	ld.w	r8,r7[-12]
8000319e:	70 38       	ld.w	r8,r8[0xc]
800031a0:	a9 68       	lsl	r8,0x8
800031a2:	10 49       	or	r9,r8
800031a4:	ee f8 ff f4 	ld.w	r8,r7[-12]
800031a8:	70 28       	ld.w	r8,r8[0x8]
800031aa:	b9 68       	lsl	r8,0x18
800031ac:	10 49       	or	r9,r8
800031ae:	ee f8 ff f8 	ld.w	r8,r7[-8]
800031b2:	91 09       	st.w	r8[0x0],r9
800031b4:	30 08       	mov	r8,0
800031b6:	10 9c       	mov	r12,r8
800031b8:	2f dd       	sub	sp,-12
800031ba:	e3 cd 80 80 	ldm	sp++,r7,pc
800031be:	00 00       	add	r0,r0
800031c0:	80 00       	ld.sh	r0,r0[0x0]
800031c2:	31 10       	mov	r0,17

800031c4 <pwm_channel_init>:
800031c4:	eb cd 40 80 	pushm	r7,lr
800031c8:	1a 97       	mov	r7,sp
800031ca:	20 3d       	sub	sp,12
800031cc:	ef 4c ff f8 	st.w	r7[-8],r12
800031d0:	ef 4b ff f4 	st.w	r7[-12],r11
800031d4:	fe 78 30 00 	mov	r8,-53248
800031d8:	ef 48 ff fc 	st.w	r7[-4],r8
800031dc:	ee f8 ff f4 	ld.w	r8,r7[-12]
800031e0:	58 08       	cp.w	r8,0
800031e2:	c0 31       	brne	800031e8 <pwm_channel_init+0x24>
800031e4:	30 18       	mov	r8,1
800031e6:	c2 f8       	rjmp	80003244 <pwm_channel_init+0x80>
800031e8:	ee f8 ff f8 	ld.w	r8,r7[-8]
800031ec:	58 68       	cp.w	r8,6
800031ee:	e0 88 00 04 	brls	800031f6 <pwm_channel_init+0x32>
800031f2:	30 18       	mov	r8,1
800031f4:	c2 88       	rjmp	80003244 <pwm_channel_init+0x80>
800031f6:	ee f8 ff f8 	ld.w	r8,r7[-8]
800031fa:	ee f9 ff f4 	ld.w	r9,r7[-12]
800031fe:	72 09       	ld.w	r9,r9[0x0]
80003200:	ee fa ff fc 	ld.w	r10,r7[-4]
80003204:	2f 08       	sub	r8,-16
80003206:	a5 78       	lsl	r8,0x5
80003208:	f4 08 00 08 	add	r8,r10,r8
8000320c:	91 09       	st.w	r8[0x0],r9
8000320e:	ee f8 ff f8 	ld.w	r8,r7[-8]
80003212:	ee f9 ff f4 	ld.w	r9,r7[-12]
80003216:	72 19       	ld.w	r9,r9[0x4]
80003218:	ee fa ff fc 	ld.w	r10,r7[-4]
8000321c:	a5 78       	lsl	r8,0x5
8000321e:	f4 08 00 08 	add	r8,r10,r8
80003222:	f0 c8 fd fc 	sub	r8,r8,-516
80003226:	91 09       	st.w	r8[0x0],r9
80003228:	ee f8 ff f8 	ld.w	r8,r7[-8]
8000322c:	ee f9 ff f4 	ld.w	r9,r7[-12]
80003230:	72 29       	ld.w	r9,r9[0x8]
80003232:	ee fa ff fc 	ld.w	r10,r7[-4]
80003236:	a5 78       	lsl	r8,0x5
80003238:	f4 08 00 08 	add	r8,r10,r8
8000323c:	f0 c8 fd f8 	sub	r8,r8,-520
80003240:	91 09       	st.w	r8[0x0],r9
80003242:	30 08       	mov	r8,0
80003244:	10 9c       	mov	r12,r8
80003246:	2f dd       	sub	sp,-12
80003248:	e3 cd 80 80 	ldm	sp++,r7,pc

8000324c <pwm_start_channels>:
8000324c:	eb cd 40 80 	pushm	r7,lr
80003250:	1a 97       	mov	r7,sp
80003252:	20 1d       	sub	sp,4
80003254:	ef 4c ff fc 	st.w	r7[-4],r12
80003258:	ee f8 ff fc 	ld.w	r8,r7[-4]
8000325c:	e0 18 ff 80 	andl	r8,0xff80
80003260:	c0 30       	breq	80003266 <pwm_start_channels+0x1a>
80003262:	30 18       	mov	r8,1
80003264:	c0 78       	rjmp	80003272 <pwm_start_channels+0x26>
80003266:	fe 78 30 00 	mov	r8,-53248
8000326a:	ee f9 ff fc 	ld.w	r9,r7[-4]
8000326e:	91 19       	st.w	r8[0x4],r9
80003270:	30 08       	mov	r8,0
80003272:	10 9c       	mov	r12,r8
80003274:	2f fd       	sub	sp,-4
80003276:	e3 cd 80 80 	ldm	sp++,r7,pc

8000327a <getBaudDiv>:
8000327a:	eb cd 40 80 	pushm	r7,lr
8000327e:	1a 97       	mov	r7,sp
80003280:	20 3d       	sub	sp,12
80003282:	ef 4c ff f8 	st.w	r7[-8],r12
80003286:	ef 4b ff f4 	st.w	r7[-12],r11
8000328a:	ee f9 ff f4 	ld.w	r9,r7[-12]
8000328e:	ee f8 ff f8 	ld.w	r8,r7[-8]
80003292:	f2 08 00 08 	add	r8,r9,r8
80003296:	20 18       	sub	r8,1
80003298:	ee f9 ff f8 	ld.w	r9,r7[-8]
8000329c:	f0 09 0d 08 	divu	r8,r8,r9
800032a0:	ef 48 ff fc 	st.w	r7[-4],r8
800032a4:	ee f8 ff fc 	ld.w	r8,r7[-4]
800032a8:	58 08       	cp.w	r8,0
800032aa:	c0 70       	breq	800032b8 <getBaudDiv+0x3e>
800032ac:	ee f8 ff fc 	ld.w	r8,r7[-4]
800032b0:	e0 48 00 ff 	cp.w	r8,255
800032b4:	e0 88 00 04 	brls	800032bc <getBaudDiv+0x42>
800032b8:	3f f8       	mov	r8,-1
800032ba:	c0 48       	rjmp	800032c2 <getBaudDiv+0x48>
800032bc:	ee f8 ff fc 	ld.w	r8,r7[-4]
800032c0:	5c 88       	casts.h	r8
800032c2:	10 9c       	mov	r12,r8
800032c4:	2f dd       	sub	sp,-12
800032c6:	e3 cd 80 80 	ldm	sp++,r7,pc

800032ca <spi_initMaster>:
800032ca:	eb cd 40 80 	pushm	r7,lr
800032ce:	1a 97       	mov	r7,sp
800032d0:	20 3d       	sub	sp,12
800032d2:	ef 4c ff f8 	st.w	r7[-8],r12
800032d6:	ef 4b ff f4 	st.w	r7[-12],r11
800032da:	ee f8 ff f4 	ld.w	r8,r7[-12]
800032de:	f1 39 00 0d 	ld.ub	r9,r8[13]
800032e2:	30 18       	mov	r8,1
800032e4:	f0 09 18 00 	cp.b	r9,r8
800032e8:	e0 88 00 04 	brls	800032f0 <spi_initMaster+0x26>
800032ec:	30 28       	mov	r8,2
800032ee:	c3 48       	rjmp	80003356 <spi_initMaster+0x8c>
800032f0:	ee f8 ff f8 	ld.w	r8,r7[-8]
800032f4:	e0 69 00 80 	mov	r9,128
800032f8:	91 09       	st.w	r8[0x0],r9
800032fa:	ee f8 ff f8 	ld.w	r8,r7[-8]
800032fe:	70 18       	ld.w	r8,r8[0x4]
80003300:	ef 48 ff fc 	st.w	r7[-4],r8
80003304:	ee f8 ff fc 	ld.w	r8,r7[-4]
80003308:	30 19       	mov	r9,1
8000330a:	f1 d9 d0 01 	bfins	r8,r9,0x0,0x1
8000330e:	ef 48 ff fc 	st.w	r7[-4],r8
80003312:	ee f8 ff f4 	ld.w	r8,r7[-12]
80003316:	f1 38 00 0d 	ld.ub	r8,r8[13]
8000331a:	f1 d8 c0 01 	bfextu	r8,r8,0x0,0x1
8000331e:	f3 d8 c0 08 	bfextu	r9,r8,0x0,0x8
80003322:	ee f8 ff fc 	ld.w	r8,r7[-4]
80003326:	f1 d9 d0 81 	bfins	r8,r9,0x4,0x1
8000332a:	ef 48 ff fc 	st.w	r7[-4],r8
8000332e:	ee f8 ff fc 	ld.w	r8,r7[-4]
80003332:	30 09       	mov	r9,0
80003334:	f1 d9 d0 e1 	bfins	r8,r9,0x7,0x1
80003338:	ef 48 ff fc 	st.w	r7[-4],r8
8000333c:	ee f8 ff fc 	ld.w	r8,r7[-4]
80003340:	30 f9       	mov	r9,15
80003342:	f1 d9 d2 04 	bfins	r8,r9,0x10,0x4
80003346:	ef 48 ff fc 	st.w	r7[-4],r8
8000334a:	ee f9 ff fc 	ld.w	r9,r7[-4]
8000334e:	ee f8 ff f8 	ld.w	r8,r7[-8]
80003352:	91 19       	st.w	r8[0x4],r9
80003354:	30 08       	mov	r8,0
80003356:	10 9c       	mov	r12,r8
80003358:	2f dd       	sub	sp,-12
8000335a:	e3 cd 80 80 	ldm	sp++,r7,pc

8000335e <spi_selectionMode>:
8000335e:	eb cd 40 80 	pushm	r7,lr
80003362:	1a 97       	mov	r7,sp
80003364:	20 5d       	sub	sp,20
80003366:	ef 4c ff f8 	st.w	r7[-8],r12
8000336a:	12 98       	mov	r8,r9
8000336c:	16 99       	mov	r9,r11
8000336e:	ef 69 ff f4 	st.b	r7[-12],r9
80003372:	14 99       	mov	r9,r10
80003374:	ef 69 ff f0 	st.b	r7[-16],r9
80003378:	ef 68 ff ec 	st.b	r7[-20],r8
8000337c:	ef 39 ff f4 	ld.ub	r9,r7[-12]
80003380:	30 18       	mov	r8,1
80003382:	f0 09 18 00 	cp.b	r9,r8
80003386:	e0 8b 00 09 	brhi	80003398 <spi_selectionMode+0x3a>
8000338a:	ef 39 ff f0 	ld.ub	r9,r7[-16]
8000338e:	30 18       	mov	r8,1
80003390:	f0 09 18 00 	cp.b	r9,r8
80003394:	e0 88 00 04 	brls	8000339c <spi_selectionMode+0x3e>
80003398:	30 28       	mov	r8,2
8000339a:	c2 88       	rjmp	800033ea <spi_selectionMode+0x8c>
8000339c:	ee f8 ff f8 	ld.w	r8,r7[-8]
800033a0:	70 18       	ld.w	r8,r8[0x4]
800033a2:	ef 48 ff fc 	st.w	r7[-4],r8
800033a6:	ef 38 ff f4 	ld.ub	r8,r7[-12]
800033aa:	f1 d8 c0 01 	bfextu	r8,r8,0x0,0x1
800033ae:	f3 d8 c0 08 	bfextu	r9,r8,0x0,0x8
800033b2:	ee f8 ff fc 	ld.w	r8,r7[-4]
800033b6:	f1 d9 d0 21 	bfins	r8,r9,0x1,0x1
800033ba:	ef 48 ff fc 	st.w	r7[-4],r8
800033be:	ef 38 ff f0 	ld.ub	r8,r7[-16]
800033c2:	f1 d8 c0 01 	bfextu	r8,r8,0x0,0x1
800033c6:	f3 d8 c0 08 	bfextu	r9,r8,0x0,0x8
800033ca:	ee f8 ff fc 	ld.w	r8,r7[-4]
800033ce:	f1 d9 d0 41 	bfins	r8,r9,0x2,0x1
800033d2:	ef 48 ff fc 	st.w	r7[-4],r8
800033d6:	ef 38 ff ec 	ld.ub	r8,r7[-20]
800033da:	ef 68 ff fc 	st.b	r7[-4],r8
800033de:	ee f9 ff fc 	ld.w	r9,r7[-4]
800033e2:	ee f8 ff f8 	ld.w	r8,r7[-8]
800033e6:	91 19       	st.w	r8[0x4],r9
800033e8:	30 08       	mov	r8,0
800033ea:	10 9c       	mov	r12,r8
800033ec:	2f bd       	sub	sp,-20
800033ee:	e3 cd 80 80 	ldm	sp++,r7,pc

800033f2 <spi_selectChip>:
800033f2:	eb cd 40 80 	pushm	r7,lr
800033f6:	1a 97       	mov	r7,sp
800033f8:	20 2d       	sub	sp,8
800033fa:	ef 4c ff fc 	st.w	r7[-4],r12
800033fe:	16 98       	mov	r8,r11
80003400:	ef 68 ff f8 	st.b	r7[-8],r8
80003404:	ee f8 ff fc 	ld.w	r8,r7[-4]
80003408:	70 18       	ld.w	r8,r8[0x4]
8000340a:	10 99       	mov	r9,r8
8000340c:	ea 19 00 0f 	orh	r9,0xf
80003410:	ee f8 ff fc 	ld.w	r8,r7[-4]
80003414:	91 19       	st.w	r8[0x4],r9
80003416:	ee f8 ff fc 	ld.w	r8,r7[-4]
8000341a:	70 18       	ld.w	r8,r8[0x4]
8000341c:	e2 18 00 04 	andl	r8,0x4,COH
80003420:	c1 90       	breq	80003452 <spi_selectChip+0x60>
80003422:	ef 39 ff f8 	ld.ub	r9,r7[-8]
80003426:	30 e8       	mov	r8,14
80003428:	f0 09 18 00 	cp.b	r9,r8
8000342c:	e0 88 00 04 	brls	80003434 <spi_selectChip+0x42>
80003430:	30 28       	mov	r8,2
80003432:	c2 88       	rjmp	80003482 <spi_selectChip+0x90>
80003434:	ee f8 ff fc 	ld.w	r8,r7[-4]
80003438:	70 19       	ld.w	r9,r8[0x4]
8000343a:	ef 38 ff f8 	ld.ub	r8,r7[-8]
8000343e:	b1 68       	lsl	r8,0x10
80003440:	ea 18 ff f0 	orh	r8,0xfff0
80003444:	e8 18 ff ff 	orl	r8,0xffff
80003448:	10 69       	and	r9,r8
8000344a:	ee f8 ff fc 	ld.w	r8,r7[-4]
8000344e:	91 19       	st.w	r8[0x4],r9
80003450:	c1 88       	rjmp	80003480 <spi_selectChip+0x8e>
80003452:	ef 39 ff f8 	ld.ub	r9,r7[-8]
80003456:	30 38       	mov	r8,3
80003458:	f0 09 18 00 	cp.b	r9,r8
8000345c:	e0 88 00 04 	brls	80003464 <spi_selectChip+0x72>
80003460:	30 28       	mov	r8,2
80003462:	c1 08       	rjmp	80003482 <spi_selectChip+0x90>
80003464:	ee f8 ff fc 	ld.w	r8,r7[-4]
80003468:	70 19       	ld.w	r9,r8[0x4]
8000346a:	ef 38 ff f8 	ld.ub	r8,r7[-8]
8000346e:	2f 08       	sub	r8,-16
80003470:	30 1a       	mov	r10,1
80003472:	f4 08 09 48 	lsl	r8,r10,r8
80003476:	5c d8       	com	r8
80003478:	10 69       	and	r9,r8
8000347a:	ee f8 ff fc 	ld.w	r8,r7[-4]
8000347e:	91 19       	st.w	r8[0x4],r9
80003480:	30 08       	mov	r8,0
80003482:	10 9c       	mov	r12,r8
80003484:	2f ed       	sub	sp,-8
80003486:	e3 cd 80 80 	ldm	sp++,r7,pc

8000348a <spi_unselectChip>:
8000348a:	eb cd 40 80 	pushm	r7,lr
8000348e:	1a 97       	mov	r7,sp
80003490:	20 3d       	sub	sp,12
80003492:	ef 4c ff f8 	st.w	r7[-8],r12
80003496:	16 98       	mov	r8,r11
80003498:	ef 68 ff f4 	st.b	r7[-12],r8
8000349c:	e0 68 3a 98 	mov	r8,15000
800034a0:	ef 48 ff fc 	st.w	r7[-4],r8
800034a4:	c0 f8       	rjmp	800034c2 <spi_unselectChip+0x38>
800034a6:	ee f8 ff fc 	ld.w	r8,r7[-4]
800034aa:	58 08       	cp.w	r8,0
800034ac:	5f 08       	sreq	r8
800034ae:	5c 58       	castu.b	r8
800034b0:	ee f9 ff fc 	ld.w	r9,r7[-4]
800034b4:	20 19       	sub	r9,1
800034b6:	ef 49 ff fc 	st.w	r7[-4],r9
800034ba:	58 08       	cp.w	r8,0
800034bc:	c0 30       	breq	800034c2 <spi_unselectChip+0x38>
800034be:	30 18       	mov	r8,1
800034c0:	c1 68       	rjmp	800034ec <spi_unselectChip+0x62>
800034c2:	ee f8 ff f8 	ld.w	r8,r7[-8]
800034c6:	70 48       	ld.w	r8,r8[0x10]
800034c8:	e2 18 02 00 	andl	r8,0x200,COH
800034cc:	ce d0       	breq	800034a6 <spi_unselectChip+0x1c>
800034ce:	ee f8 ff f8 	ld.w	r8,r7[-8]
800034d2:	70 18       	ld.w	r8,r8[0x4]
800034d4:	10 99       	mov	r9,r8
800034d6:	ea 19 00 0f 	orh	r9,0xf
800034da:	ee f8 ff f8 	ld.w	r8,r7[-8]
800034de:	91 19       	st.w	r8[0x4],r9
800034e0:	ee f8 ff f8 	ld.w	r8,r7[-8]
800034e4:	fc 19 01 00 	movh	r9,0x100
800034e8:	91 09       	st.w	r8[0x0],r9
800034ea:	30 08       	mov	r8,0
800034ec:	10 9c       	mov	r12,r8
800034ee:	2f dd       	sub	sp,-12
800034f0:	e3 cd 80 80 	ldm	sp++,r7,pc

800034f4 <spi_setupChipReg>:
800034f4:	eb cd 40 80 	pushm	r7,lr
800034f8:	1a 97       	mov	r7,sp
800034fa:	20 5d       	sub	sp,20
800034fc:	ef 4c ff f4 	st.w	r7[-12],r12
80003500:	ef 4b ff f0 	st.w	r7[-16],r11
80003504:	ef 4a ff ec 	st.w	r7[-20],r10
80003508:	ee f8 ff f0 	ld.w	r8,r7[-16]
8000350c:	f1 39 00 0c 	ld.ub	r9,r8[12]
80003510:	30 38       	mov	r8,3
80003512:	f0 09 18 00 	cp.b	r9,r8
80003516:	e0 8b 00 1d 	brhi	80003550 <spi_setupChipReg+0x5c>
8000351a:	ee f8 ff f0 	ld.w	r8,r7[-16]
8000351e:	f1 39 00 0b 	ld.ub	r9,r8[11]
80003522:	30 18       	mov	r8,1
80003524:	f0 09 18 00 	cp.b	r9,r8
80003528:	e0 8b 00 14 	brhi	80003550 <spi_setupChipReg+0x5c>
8000352c:	ee f8 ff f0 	ld.w	r8,r7[-16]
80003530:	f1 39 00 08 	ld.ub	r9,r8[8]
80003534:	30 78       	mov	r8,7
80003536:	f0 09 18 00 	cp.b	r9,r8
8000353a:	e0 88 00 0b 	brls	80003550 <spi_setupChipReg+0x5c>
8000353e:	ee f8 ff f0 	ld.w	r8,r7[-16]
80003542:	f1 39 00 08 	ld.ub	r9,r8[8]
80003546:	31 08       	mov	r8,16
80003548:	f0 09 18 00 	cp.b	r9,r8
8000354c:	e0 88 00 04 	brls	80003554 <spi_setupChipReg+0x60>
80003550:	30 28       	mov	r8,2
80003552:	c8 d8       	rjmp	8000366c <spi_setupChipReg+0x178>
80003554:	ee f8 ff f0 	ld.w	r8,r7[-16]
80003558:	70 18       	ld.w	r8,r8[0x4]
8000355a:	ee fb ff ec 	ld.w	r11,r7[-20]
8000355e:	10 9c       	mov	r12,r8
80003560:	f0 1f 00 45 	mcall	80003674 <spi_setupChipReg+0x180>
80003564:	18 98       	mov	r8,r12
80003566:	ef 48 ff fc 	st.w	r7[-4],r8
8000356a:	ee f8 ff fc 	ld.w	r8,r7[-4]
8000356e:	58 08       	cp.w	r8,0
80003570:	c0 34       	brge	80003576 <spi_setupChipReg+0x82>
80003572:	30 28       	mov	r8,2
80003574:	c7 c8       	rjmp	8000366c <spi_setupChipReg+0x178>
80003576:	30 08       	mov	r8,0
80003578:	ef 48 ff f8 	st.w	r7[-8],r8
8000357c:	ee f8 ff f0 	ld.w	r8,r7[-16]
80003580:	f1 38 00 0c 	ld.ub	r8,r8[12]
80003584:	a1 98       	lsr	r8,0x1
80003586:	5c 58       	castu.b	r8
80003588:	f1 d8 c0 01 	bfextu	r8,r8,0x0,0x1
8000358c:	f3 d8 c0 08 	bfextu	r9,r8,0x0,0x8
80003590:	ee f8 ff f8 	ld.w	r8,r7[-8]
80003594:	f1 d9 d0 01 	bfins	r8,r9,0x0,0x1
80003598:	ef 48 ff f8 	st.w	r7[-8],r8
8000359c:	ee f8 ff f0 	ld.w	r8,r7[-16]
800035a0:	f1 38 00 0c 	ld.ub	r8,r8[12]
800035a4:	f1 d8 c0 01 	bfextu	r8,r8,0x0,0x1
800035a8:	5f 08       	sreq	r8
800035aa:	f3 d8 c0 08 	bfextu	r9,r8,0x0,0x8
800035ae:	ee f8 ff f8 	ld.w	r8,r7[-8]
800035b2:	f1 d9 d0 21 	bfins	r8,r9,0x1,0x1
800035b6:	ef 48 ff f8 	st.w	r7[-8],r8
800035ba:	ee f8 ff f0 	ld.w	r8,r7[-16]
800035be:	f1 38 00 0b 	ld.ub	r8,r8[11]
800035c2:	f1 d8 c0 01 	bfextu	r8,r8,0x0,0x1
800035c6:	f3 d8 c0 08 	bfextu	r9,r8,0x0,0x8
800035ca:	ee f8 ff f8 	ld.w	r8,r7[-8]
800035ce:	f1 d9 d0 61 	bfins	r8,r9,0x3,0x1
800035d2:	ef 48 ff f8 	st.w	r7[-8],r8
800035d6:	ee f8 ff f0 	ld.w	r8,r7[-16]
800035da:	f1 38 00 08 	ld.ub	r8,r8[8]
800035de:	20 88       	sub	r8,8
800035e0:	5c 58       	castu.b	r8
800035e2:	f1 d8 c0 04 	bfextu	r8,r8,0x0,0x4
800035e6:	f3 d8 c0 08 	bfextu	r9,r8,0x0,0x8
800035ea:	ee f8 ff f8 	ld.w	r8,r7[-8]
800035ee:	f1 d9 d0 84 	bfins	r8,r9,0x4,0x4
800035f2:	ef 48 ff f8 	st.w	r7[-8],r8
800035f6:	ee f8 ff fc 	ld.w	r8,r7[-4]
800035fa:	5c 58       	castu.b	r8
800035fc:	ef 68 ff fa 	st.b	r7[-6],r8
80003600:	ee f8 ff f0 	ld.w	r8,r7[-16]
80003604:	f1 38 00 09 	ld.ub	r8,r8[9]
80003608:	ef 68 ff f9 	st.b	r7[-7],r8
8000360c:	ee f8 ff f0 	ld.w	r8,r7[-16]
80003610:	f1 38 00 0a 	ld.ub	r8,r8[10]
80003614:	ef 68 ff f8 	st.b	r7[-8],r8
80003618:	ee f8 ff f0 	ld.w	r8,r7[-16]
8000361c:	11 88       	ld.ub	r8,r8[0x0]
8000361e:	58 18       	cp.w	r8,1
80003620:	c1 10       	breq	80003642 <spi_setupChipReg+0x14e>
80003622:	e0 89 00 05 	brgt	8000362c <spi_setupChipReg+0x138>
80003626:	58 08       	cp.w	r8,0
80003628:	c0 70       	breq	80003636 <spi_setupChipReg+0x142>
8000362a:	c1 e8       	rjmp	80003666 <spi_setupChipReg+0x172>
8000362c:	58 28       	cp.w	r8,2
8000362e:	c1 00       	breq	8000364e <spi_setupChipReg+0x15a>
80003630:	58 38       	cp.w	r8,3
80003632:	c1 40       	breq	8000365a <spi_setupChipReg+0x166>
80003634:	c1 98       	rjmp	80003666 <spi_setupChipReg+0x172>
80003636:	ee f9 ff f8 	ld.w	r9,r7[-8]
8000363a:	ee f8 ff f4 	ld.w	r8,r7[-12]
8000363e:	91 c9       	st.w	r8[0x30],r9
80003640:	c1 58       	rjmp	8000366a <spi_setupChipReg+0x176>
80003642:	ee f9 ff f8 	ld.w	r9,r7[-8]
80003646:	ee f8 ff f4 	ld.w	r8,r7[-12]
8000364a:	91 d9       	st.w	r8[0x34],r9
8000364c:	c0 f8       	rjmp	8000366a <spi_setupChipReg+0x176>
8000364e:	ee f9 ff f8 	ld.w	r9,r7[-8]
80003652:	ee f8 ff f4 	ld.w	r8,r7[-12]
80003656:	91 e9       	st.w	r8[0x38],r9
80003658:	c0 98       	rjmp	8000366a <spi_setupChipReg+0x176>
8000365a:	ee f9 ff f8 	ld.w	r9,r7[-8]
8000365e:	ee f8 ff f4 	ld.w	r8,r7[-12]
80003662:	91 f9       	st.w	r8[0x3c],r9
80003664:	c0 38       	rjmp	8000366a <spi_setupChipReg+0x176>
80003666:	30 28       	mov	r8,2
80003668:	c0 28       	rjmp	8000366c <spi_setupChipReg+0x178>
8000366a:	30 08       	mov	r8,0
8000366c:	10 9c       	mov	r12,r8
8000366e:	2f bd       	sub	sp,-20
80003670:	e3 cd 80 80 	ldm	sp++,r7,pc
80003674:	80 00       	ld.sh	r0,r0[0x0]
80003676:	32 7a       	mov	r10,39

80003678 <spi_enable>:
80003678:	eb cd 40 80 	pushm	r7,lr
8000367c:	1a 97       	mov	r7,sp
8000367e:	20 1d       	sub	sp,4
80003680:	ef 4c ff fc 	st.w	r7[-4],r12
80003684:	ee f8 ff fc 	ld.w	r8,r7[-4]
80003688:	30 19       	mov	r9,1
8000368a:	91 09       	st.w	r8[0x0],r9
8000368c:	2f fd       	sub	sp,-4
8000368e:	e3 cd 80 80 	ldm	sp++,r7,pc

80003692 <spi_write>:
80003692:	eb cd 40 80 	pushm	r7,lr
80003696:	1a 97       	mov	r7,sp
80003698:	20 3d       	sub	sp,12
8000369a:	ef 4c ff f8 	st.w	r7[-8],r12
8000369e:	16 98       	mov	r8,r11
800036a0:	ef 58 ff f4 	st.h	r7[-12],r8
800036a4:	e0 68 3a 98 	mov	r8,15000
800036a8:	ef 48 ff fc 	st.w	r7[-4],r8
800036ac:	c0 f8       	rjmp	800036ca <spi_write+0x38>
800036ae:	ee f8 ff fc 	ld.w	r8,r7[-4]
800036b2:	58 08       	cp.w	r8,0
800036b4:	5f 08       	sreq	r8
800036b6:	5c 58       	castu.b	r8
800036b8:	ee f9 ff fc 	ld.w	r9,r7[-4]
800036bc:	20 19       	sub	r9,1
800036be:	ef 49 ff fc 	st.w	r7[-4],r9
800036c2:	58 08       	cp.w	r8,0
800036c4:	c0 30       	breq	800036ca <spi_write+0x38>
800036c6:	30 18       	mov	r8,1
800036c8:	c0 d8       	rjmp	800036e2 <spi_write+0x50>
800036ca:	ee f8 ff f8 	ld.w	r8,r7[-8]
800036ce:	70 48       	ld.w	r8,r8[0x10]
800036d0:	e2 18 00 02 	andl	r8,0x2,COH
800036d4:	ce d0       	breq	800036ae <spi_write+0x1c>
800036d6:	ef 19 ff f4 	ld.uh	r9,r7[-12]
800036da:	ee f8 ff f8 	ld.w	r8,r7[-8]
800036de:	91 39       	st.w	r8[0xc],r9
800036e0:	30 08       	mov	r8,0
800036e2:	10 9c       	mov	r12,r8
800036e4:	2f dd       	sub	sp,-12
800036e6:	e3 cd 80 80 	ldm	sp++,r7,pc

800036ea <spi_read>:
800036ea:	eb cd 40 80 	pushm	r7,lr
800036ee:	1a 97       	mov	r7,sp
800036f0:	20 3d       	sub	sp,12
800036f2:	ef 4c ff f8 	st.w	r7[-8],r12
800036f6:	ef 4b ff f4 	st.w	r7[-12],r11
800036fa:	e0 68 3a 98 	mov	r8,15000
800036fe:	ef 48 ff fc 	st.w	r7[-4],r8
80003702:	c0 f8       	rjmp	80003720 <spi_read+0x36>
80003704:	ee f8 ff fc 	ld.w	r8,r7[-4]
80003708:	58 08       	cp.w	r8,0
8000370a:	5f 08       	sreq	r8
8000370c:	5c 58       	castu.b	r8
8000370e:	ee f9 ff fc 	ld.w	r9,r7[-4]
80003712:	20 19       	sub	r9,1
80003714:	ef 49 ff fc 	st.w	r7[-4],r9
80003718:	58 08       	cp.w	r8,0
8000371a:	c0 30       	breq	80003720 <spi_read+0x36>
8000371c:	30 18       	mov	r8,1
8000371e:	c1 18       	rjmp	80003740 <spi_read+0x56>
80003720:	ee f8 ff f8 	ld.w	r8,r7[-8]
80003724:	70 48       	ld.w	r8,r8[0x10]
80003726:	e2 18 02 01 	andl	r8,0x201,COH
8000372a:	e0 48 02 01 	cp.w	r8,513
8000372e:	ce b1       	brne	80003704 <spi_read+0x1a>
80003730:	ee f8 ff f8 	ld.w	r8,r7[-8]
80003734:	70 28       	ld.w	r8,r8[0x8]
80003736:	5c 88       	casts.h	r8
80003738:	ee f9 ff f4 	ld.w	r9,r7[-12]
8000373c:	b2 08       	st.h	r9[0x0],r8
8000373e:	30 08       	mov	r8,0
80003740:	10 9c       	mov	r12,r8
80003742:	2f dd       	sub	sp,-12
80003744:	e3 cd 80 80 	ldm	sp++,r7,pc

80003748 <sysclk_get_main_hz>:
80003748:	eb cd 40 80 	pushm	r7,lr
8000374c:	1a 97       	mov	r7,sp
8000374e:	e0 78 c2 00 	mov	r8,115200
80003752:	10 9c       	mov	r12,r8
80003754:	e3 cd 80 80 	ldm	sp++,r7,pc

80003758 <sysclk_get_cpu_hz>:
80003758:	eb cd 40 80 	pushm	r7,lr
8000375c:	1a 97       	mov	r7,sp
8000375e:	f0 1f 00 04 	mcall	8000376c <sysclk_get_cpu_hz+0x14>
80003762:	18 98       	mov	r8,r12
80003764:	10 9c       	mov	r12,r8
80003766:	e3 cd 80 80 	ldm	sp++,r7,pc
8000376a:	00 00       	add	r0,r0
8000376c:	80 00       	ld.sh	r0,r0[0x0]
8000376e:	37 48       	mov	r8,116

80003770 <display_init>:
80003770:	eb cd 40 8f 	pushm	r0-r3,r7,lr
80003774:	1a 97       	mov	r7,sp
80003776:	21 0d       	sub	sp,64
80003778:	fe 78 0c 00 	mov	r8,-62464
8000377c:	ef 48 ff dc 	st.w	r7[-36],r8
80003780:	4f 68       	lddpc	r8,80003958 <display_init+0x1e8>
80003782:	ee ca 00 34 	sub	r10,r7,52
80003786:	10 9b       	mov	r11,r8
80003788:	f6 e8 00 00 	ld.d	r8,r11[0]
8000378c:	f4 e9 00 00 	st.d	r10[0],r8
80003790:	f6 e8 00 08 	ld.d	r8,r11[8]
80003794:	f4 e9 00 08 	st.d	r10[8],r8
80003798:	e0 6b 1b 00 	mov	r11,6912
8000379c:	ea 1b 00 b7 	orh	r11,0xb7
800037a0:	ee fc ff dc 	ld.w	r12,r7[-36]
800037a4:	f0 1f 00 6e 	mcall	8000395c <display_init+0x1ec>
800037a8:	30 3b       	mov	r11,3
800037aa:	ee fc ff dc 	ld.w	r12,r7[-36]
800037ae:	f0 1f 00 6d 	mcall	80003960 <display_init+0x1f0>
800037b2:	30 1b       	mov	r11,1
800037b4:	ee fc ff dc 	ld.w	r12,r7[-36]
800037b8:	f0 1f 00 6b 	mcall	80003964 <display_init+0x1f4>
800037bc:	f0 1f 00 6b 	mcall	80003968 <display_init+0x1f8>
800037c0:	18 98       	mov	r8,r12
800037c2:	30 19       	mov	r9,1
800037c4:	ef 49 ff e4 	st.w	r7[-28],r9
800037c8:	ef 48 ff e0 	st.w	r7[-32],r8
800037cc:	ee f8 ff e4 	ld.w	r8,r7[-28]
800037d0:	ef 48 ff ec 	st.w	r7[-20],r8
800037d4:	ee f8 ff e0 	ld.w	r8,r7[-32]
800037d8:	ef 48 ff e8 	st.w	r7[-24],r8
800037dc:	ee f0 ff ec 	ld.w	r0,r7[-20]
800037e0:	30 01       	mov	r1,0
800037e2:	ee f2 ff e8 	ld.w	r2,r7[-24]
800037e6:	30 03       	mov	r3,0
800037e8:	e2 02 02 4a 	mul	r10,r1,r2
800037ec:	e6 00 02 48 	mul	r8,r3,r0
800037f0:	10 0a       	add	r10,r8
800037f2:	e0 02 06 48 	mulu.d	r8,r0,r2
800037f6:	12 0a       	add	r10,r9
800037f8:	14 99       	mov	r9,r10
800037fa:	e0 6a 03 e7 	mov	r10,999
800037fe:	30 0b       	mov	r11,0
80003800:	f0 0a 00 0a 	add	r10,r8,r10
80003804:	f2 0b 00 4b 	adc	r11,r9,r11
80003808:	e0 68 03 e8 	mov	r8,1000
8000380c:	30 09       	mov	r9,0
8000380e:	f0 1f 00 58 	mcall	8000396c <display_init+0x1fc>
80003812:	14 98       	mov	r8,r10
80003814:	16 99       	mov	r9,r11
80003816:	ef 48 ff f4 	st.w	r7[-12],r8
8000381a:	ee c8 00 40 	sub	r8,r7,64
8000381e:	ef 48 ff f0 	st.w	r7[-16],r8
80003822:	e1 b8 00 42 	mfsr	r8,0x108
80003826:	10 99       	mov	r9,r8
80003828:	ee f8 ff f0 	ld.w	r8,r7[-16]
8000382c:	91 09       	st.w	r8[0x0],r9
8000382e:	ee f8 ff f0 	ld.w	r8,r7[-16]
80003832:	70 09       	ld.w	r9,r8[0x0]
80003834:	ee f8 ff f4 	ld.w	r8,r7[-12]
80003838:	10 09       	add	r9,r8
8000383a:	ee f8 ff f0 	ld.w	r8,r7[-16]
8000383e:	91 19       	st.w	r8[0x4],r9
80003840:	ee f9 ff f0 	ld.w	r9,r7[-16]
80003844:	30 08       	mov	r8,0
80003846:	f3 68 00 08 	st.b	r9[8],r8
8000384a:	ee c8 00 40 	sub	r8,r7,64
8000384e:	ef 48 ff f8 	st.w	r7[-8],r8
80003852:	e1 b8 00 42 	mfsr	r8,0x108
80003856:	ef 48 ff fc 	st.w	r7[-4],r8
8000385a:	ee f8 ff f8 	ld.w	r8,r7[-8]
8000385e:	f1 39 00 08 	ld.ub	r9,r8[8]
80003862:	30 28       	mov	r8,2
80003864:	f0 09 18 00 	cp.b	r9,r8
80003868:	c0 31       	brne	8000386e <display_init+0xfe>
8000386a:	30 08       	mov	r8,0
8000386c:	c4 38       	rjmp	800038f2 <display_init+0x182>
8000386e:	ee f8 ff f8 	ld.w	r8,r7[-8]
80003872:	f1 39 00 08 	ld.ub	r9,r8[8]
80003876:	30 18       	mov	r8,1
80003878:	f0 09 18 00 	cp.b	r9,r8
8000387c:	c0 31       	brne	80003882 <display_init+0x112>
8000387e:	30 18       	mov	r8,1
80003880:	c3 98       	rjmp	800038f2 <display_init+0x182>
80003882:	ee f8 ff f8 	ld.w	r8,r7[-8]
80003886:	70 09       	ld.w	r9,r8[0x0]
80003888:	ee f8 ff f8 	ld.w	r8,r7[-8]
8000388c:	70 18       	ld.w	r8,r8[0x4]
8000388e:	10 39       	cp.w	r9,r8
80003890:	e0 88 00 1a 	brls	800038c4 <display_init+0x154>
80003894:	ee f8 ff f8 	ld.w	r8,r7[-8]
80003898:	70 08       	ld.w	r8,r8[0x0]
8000389a:	ee f9 ff fc 	ld.w	r9,r7[-4]
8000389e:	10 39       	cp.w	r9,r8
800038a0:	c1 02       	brcc	800038c0 <display_init+0x150>
800038a2:	ee f8 ff f8 	ld.w	r8,r7[-8]
800038a6:	70 18       	ld.w	r8,r8[0x4]
800038a8:	ee f9 ff fc 	ld.w	r9,r7[-4]
800038ac:	10 39       	cp.w	r9,r8
800038ae:	e0 88 00 09 	brls	800038c0 <display_init+0x150>
800038b2:	ee f9 ff f8 	ld.w	r9,r7[-8]
800038b6:	30 18       	mov	r8,1
800038b8:	f3 68 00 08 	st.b	r9[8],r8
800038bc:	30 18       	mov	r8,1
800038be:	c1 a8       	rjmp	800038f2 <display_init+0x182>
800038c0:	30 08       	mov	r8,0
800038c2:	c1 88       	rjmp	800038f2 <display_init+0x182>
800038c4:	ee f8 ff f8 	ld.w	r8,r7[-8]
800038c8:	70 08       	ld.w	r8,r8[0x0]
800038ca:	ee f9 ff fc 	ld.w	r9,r7[-4]
800038ce:	10 39       	cp.w	r9,r8
800038d0:	c0 93       	brcs	800038e2 <display_init+0x172>
800038d2:	ee f8 ff f8 	ld.w	r8,r7[-8]
800038d6:	70 18       	ld.w	r8,r8[0x4]
800038d8:	ee f9 ff fc 	ld.w	r9,r7[-4]
800038dc:	10 39       	cp.w	r9,r8
800038de:	e0 88 00 09 	brls	800038f0 <display_init+0x180>
800038e2:	ee f9 ff f8 	ld.w	r9,r7[-8]
800038e6:	30 18       	mov	r8,1
800038e8:	f3 68 00 08 	st.b	r9[8],r8
800038ec:	30 18       	mov	r8,1
800038ee:	c0 28       	rjmp	800038f2 <display_init+0x182>
800038f0:	30 08       	mov	r8,0
800038f2:	58 08       	cp.w	r8,0
800038f4:	ca b0       	breq	8000384a <display_init+0xda>
800038f6:	30 4b       	mov	r11,4
800038f8:	49 ec       	lddpc	r12,80003970 <display_init+0x200>
800038fa:	f0 1f 00 1f 	mcall	80003974 <display_init+0x204>
800038fe:	ee c8 00 34 	sub	r8,r7,52
80003902:	10 9b       	mov	r11,r8
80003904:	fe 7c 28 00 	mov	r12,-55296
80003908:	f0 1f 00 1c 	mcall	80003978 <display_init+0x208>
8000390c:	30 09       	mov	r9,0
8000390e:	30 0a       	mov	r10,0
80003910:	30 0b       	mov	r11,0
80003912:	fe 7c 28 00 	mov	r12,-55296
80003916:	f0 1f 00 1a 	mcall	8000397c <display_init+0x20c>
8000391a:	fe 7c 28 00 	mov	r12,-55296
8000391e:	f0 1f 00 19 	mcall	80003980 <display_init+0x210>
80003922:	ee c8 00 34 	sub	r8,r7,52
80003926:	e0 6a 1b 00 	mov	r10,6912
8000392a:	ea 1a 00 b7 	orh	r10,0xb7
8000392e:	10 9b       	mov	r11,r8
80003930:	fe 7c 28 00 	mov	r12,-55296
80003934:	f0 1f 00 14 	mcall	80003984 <display_init+0x214>
80003938:	30 1b       	mov	r11,1
8000393a:	30 0c       	mov	r12,0
8000393c:	f0 1f 00 13 	mcall	80003988 <display_init+0x218>
80003940:	f0 1f 00 13 	mcall	8000398c <display_init+0x21c>
80003944:	f0 1f 00 13 	mcall	80003990 <display_init+0x220>
80003948:	30 1b       	mov	r11,1
8000394a:	30 1c       	mov	r12,1
8000394c:	f0 1f 00 12 	mcall	80003994 <display_init+0x224>
80003950:	2f 0d       	sub	sp,-64
80003952:	e3 cd 80 8f 	ldm	sp++,r0-r3,r7,pc
80003956:	00 00       	add	r0,r0
80003958:	80 00       	ld.sh	r0,r0[0x0]
8000395a:	c0 18       	rjmp	8000395c <display_init+0x1ec>
8000395c:	80 00       	ld.sh	r0,r0[0x0]
8000395e:	42 f0       	lddsp	r0,sp[0xbc]
80003960:	80 00       	ld.sh	r0,r0[0x0]
80003962:	43 54       	lddsp	r4,sp[0xd4]
80003964:	80 00       	ld.sh	r0,r0[0x0]
80003966:	44 00       	lddsp	r0,sp[0x100]
80003968:	80 00       	ld.sh	r0,r0[0x0]
8000396a:	37 58       	mov	r8,117
8000396c:	80 00       	ld.sh	r0,r0[0x0]
8000396e:	62 50       	ld.w	r0,r1[0x14]
80003970:	80 00       	ld.sh	r0,r0[0x0]
80003972:	c0 28       	rjmp	80003976 <display_init+0x206>
80003974:	80 00       	ld.sh	r0,r0[0x0]
80003976:	3e 5c       	mov	r12,-27
80003978:	80 00       	ld.sh	r0,r0[0x0]
8000397a:	32 ca       	mov	r10,44
8000397c:	80 00       	ld.sh	r0,r0[0x0]
8000397e:	33 5e       	mov	lr,53
80003980:	80 00       	ld.sh	r0,r0[0x0]
80003982:	36 78       	mov	r8,103
80003984:	80 00       	ld.sh	r0,r0[0x0]
80003986:	34 f4       	mov	r4,79
80003988:	80 00       	ld.sh	r0,r0[0x0]
8000398a:	21 08       	sub	r8,16
8000398c:	80 00       	ld.sh	r0,r0[0x0]
8000398e:	2c a0       	sub	r0,-54
80003990:	80 00       	ld.sh	r0,r0[0x0]
80003992:	2b e4       	sub	r4,-66
80003994:	80 00       	ld.sh	r0,r0[0x0]
80003996:	2c 18       	sub	r8,-63

80003998 <initLED>:
#include "LED.h"

void initLED (void)
{
80003998:	eb cd 40 80 	pushm	r7,lr
8000399c:	1a 97       	mov	r7,sp
8000399e:	20 1d       	sub	sp,4
	/*
	* First make access to the GPIO port registers
	* shorter to type , just for our convenience
	*/
	volatile avr32_gpio_port_t * led0_port;
	led0_port = &AVR32_GPIO.port[LED0_PORT];
800039a0:	fe 78 11 00 	mov	r8,-61184
800039a4:	ef 48 ff fc 	st.w	r7[-4],r8
	/*
	* Choose GPIO peripheral function ,
	* by writing a 1 to gpers , GPIO Enable Register Set
	*/
	led0_port->gpers = LED0_BIT_VALUE;
800039a8:	ee f8 ff fc 	ld.w	r8,r7[-4]
800039ac:	fc 19 08 00 	movh	r9,0x800
800039b0:	91 19       	st.w	r8[0x4],r9
	led0_port->gpers = LED1_BIT_VALUE;
800039b2:	ee f8 ff fc 	ld.w	r8,r7[-4]
800039b6:	fc 19 10 00 	movh	r9,0x1000
800039ba:	91 19       	st.w	r8[0x4],r9
	led0_port->gpers = LED2_BIT_VALUE;
800039bc:	ee f8 ff fc 	ld.w	r8,r7[-4]
800039c0:	fc 19 20 00 	movh	r9,0x2000
800039c4:	91 19       	st.w	r8[0x4],r9
	/*
	* Set the output value register to 1 in order to
	* turn the LED off (1= off , 0= on in this case ) ,
	* by writing a 1 to ovrs , Output Value Register Set
	*/
	led0_port->ovrs = LED0_BIT_VALUE;
800039c6:	ee f8 ff fc 	ld.w	r8,r7[-4]
800039ca:	fc 19 08 00 	movh	r9,0x800
800039ce:	f1 49 00 54 	st.w	r8[84],r9
	led0_port->ovrs = LED1_BIT_VALUE;
800039d2:	ee f8 ff fc 	ld.w	r8,r7[-4]
800039d6:	fc 19 10 00 	movh	r9,0x1000
800039da:	f1 49 00 54 	st.w	r8[84],r9
	led0_port->ovrs = LED2_BIT_VALUE;
800039de:	ee f8 ff fc 	ld.w	r8,r7[-4]
800039e2:	fc 19 20 00 	movh	r9,0x2000
800039e6:	f1 49 00 54 	st.w	r8[84],r9
	/*
	* Set the output enable register ,
	* by writing a 1 to oders , Output Drive Enable
	* Register Set
	*/
	led0_port->oders = LED0_BIT_VALUE;
800039ea:	ee f8 ff fc 	ld.w	r8,r7[-4]
800039ee:	fc 19 08 00 	movh	r9,0x800
800039f2:	f1 49 00 44 	st.w	r8[68],r9
	led0_port->oders = LED1_BIT_VALUE;
800039f6:	ee f8 ff fc 	ld.w	r8,r7[-4]
800039fa:	fc 19 10 00 	movh	r9,0x1000
800039fe:	f1 49 00 44 	st.w	r8[68],r9
	led0_port->oders = LED2_BIT_VALUE;
80003a02:	ee f8 ff fc 	ld.w	r8,r7[-4]
80003a06:	fc 19 20 00 	movh	r9,0x2000
80003a0a:	f1 49 00 44 	st.w	r8[68],r9
}
80003a0e:	2f fd       	sub	sp,-4
80003a10:	e3 cd 80 80 	ldm	sp++,r7,pc

80003a14 <onLED>:
{
	AVR32_GPIO.port[LED0_PORT].ovrt = ledNr;
}

void onLED(int ledNr)
{
80003a14:	eb cd 40 80 	pushm	r7,lr
80003a18:	1a 97       	mov	r7,sp
80003a1a:	20 1d       	sub	sp,4
80003a1c:	ef 4c ff fc 	st.w	r7[-4],r12
	AVR32_GPIO.port[LED0_PORT].ovrc = ledNr;
80003a20:	fe 78 10 00 	mov	r8,-61440
80003a24:	ee f9 ff fc 	ld.w	r9,r7[-4]
80003a28:	f1 49 01 58 	st.w	r8[344],r9
}
80003a2c:	2f fd       	sub	sp,-4
80003a2e:	e3 cd 80 80 	ldm	sp++,r7,pc

80003a32 <offLED>:

void offLED(int ledNr)
{
80003a32:	eb cd 40 80 	pushm	r7,lr
80003a36:	1a 97       	mov	r7,sp
80003a38:	20 1d       	sub	sp,4
80003a3a:	ef 4c ff fc 	st.w	r7[-4],r12
	AVR32_GPIO.port[LED0_PORT].ovrs = ledNr;
80003a3e:	fe 78 10 00 	mov	r8,-61440
80003a42:	ee f9 ff fc 	ld.w	r9,r7[-4]
80003a46:	f1 49 01 54 	st.w	r8[340],r9
80003a4a:	2f fd       	sub	sp,-4
80003a4c:	e3 cd 80 80 	ldm	sp++,r7,pc
80003a50:	25 63       	sub	r3,86
80003a52:	00 00       	add	r0,r0
80003a54:	76 43       	ld.w	r3,r11[0x10]
80003a56:	6f 6e       	ld.w	lr,r7[0x58]
80003a58:	73 75       	ld.w	r5,r9[0x5c]
80003a5a:	6d 65       	ld.w	r5,r6[0x58]
80003a5c:	72 00       	ld.w	r0,r9[0x0]
80003a5e:	00 00       	add	r0,r0
80003a60:	76 54       	ld.w	r4,r11[0x14]
80003a62:	65 6d       	ld.w	sp,r2[0x58]
80003a64:	70 65       	ld.w	r5,r8[0x18]
80003a66:	72 61       	ld.w	r1,r9[0x18]
80003a68:	74 75       	ld.w	r5,r10[0x1c]
80003a6a:	72 65       	ld.w	r5,r9[0x18]
80003a6c:	00 00       	add	r0,r0
80003a6e:	00 00       	add	r0,r0
80003a70:	76 50       	ld.w	r0,r11[0x14]
80003a72:	6f 74       	ld.w	r4,r7[0x5c]
80003a74:	65 6e       	ld.w	lr,r2[0x58]
80003a76:	74 69       	ld.w	r9,r10[0x18]
80003a78:	6f 6d       	ld.w	sp,r7[0x58]
80003a7a:	65 74       	ld.w	r4,r2[0x5c]
80003a7c:	65 72       	ld.w	r2,r2[0x5c]
80003a7e:	00 00       	add	r0,r0
80003a80:	76 4c       	ld.w	r12,r11[0x10]
80003a82:	69 67       	ld.w	r7,r4[0x58]
80003a84:	68 74       	ld.w	r4,r4[0x1c]
	...

80003a88 <init_usart>:
int byteCount = 0;					// How long is the queue
int statusTaskActive = pdFALSE;		// Show status on display?
int statusCount = 0;				// How many characters have been sent

void init_usart ( void )
{
80003a88:	eb cd 40 80 	pushm	r7,lr
80003a8c:	1a 97       	mov	r7,sp
		. charlength = 8,
		. paritytype = USART_NO_PARITY ,
		. stopbits = USART_1_STOPBIT ,
		. channelmode = USART_NORMAL_CHMODE
	};
	pm_switch_to_osc0 (& AVR32_PM , FOSC0 , OSC0_STARTUP );				// Switch to 12 MHz clock
80003a8e:	30 3a       	mov	r10,3
80003a90:	e0 6b 1b 00 	mov	r11,6912
80003a94:	ea 1b 00 b7 	orh	r11,0xb7
80003a98:	fe 7c 0c 00 	mov	r12,-62464
80003a9c:	f0 1f 00 0f 	mcall	80003ad8 <init_usart+0x50>
	gpio_enable_module ( USART_SERIAL_GPIO_MAP , 2);					// Enable usart
80003aa0:	30 2b       	mov	r11,2
80003aa2:	48 fc       	lddpc	r12,80003adc <init_usart+0x54>
80003aa4:	f0 1f 00 0f 	mcall	80003ae0 <init_usart+0x58>
	gpio_enable_module ( USART_DEBUG_GPIO_MAP , 2);
80003aa8:	30 2b       	mov	r11,2
80003aaa:	48 fc       	lddpc	r12,80003ae4 <init_usart+0x5c>
80003aac:	f0 1f 00 0d 	mcall	80003ae0 <init_usart+0x58>
	usart_init_rs232 ( serialPORT_USART , & USART_OPTIONS , FOSC0 );	// Usart options
80003ab0:	e0 6a 1b 00 	mov	r10,6912
80003ab4:	ea 1a 00 b7 	orh	r10,0xb7
80003ab8:	48 cb       	lddpc	r11,80003ae8 <init_usart+0x60>
80003aba:	fe 7c 18 00 	mov	r12,-59392
80003abe:	f0 1f 00 0c 	mcall	80003aec <init_usart+0x64>
	usart_init_rs232 ( configDBG_USART , & USART_OPTIONS , FOSC0 );
80003ac2:	e0 6a 1b 00 	mov	r10,6912
80003ac6:	ea 1a 00 b7 	orh	r10,0xb7
80003aca:	48 8b       	lddpc	r11,80003ae8 <init_usart+0x60>
80003acc:	fe 7c 18 00 	mov	r12,-59392
80003ad0:	f0 1f 00 07 	mcall	80003aec <init_usart+0x64>
}
80003ad4:	e3 cd 80 80 	ldm	sp++,r7,pc
80003ad8:	80 00       	ld.sh	r0,r0[0x0]
80003ada:	44 4c       	lddsp	r12,sp[0x110]
80003adc:	80 00       	ld.sh	r0,r0[0x0]
80003ade:	c0 48       	rjmp	80003ae6 <init_usart+0x5e>
80003ae0:	80 00       	ld.sh	r0,r0[0x0]
80003ae2:	3e 5c       	mov	r12,-27
80003ae4:	80 00       	ld.sh	r0,r0[0x0]
80003ae6:	c0 58       	rjmp	80003af0 <vTemperature>
80003ae8:	80 00       	ld.sh	r0,r0[0x0]
80003aea:	c0 68       	rjmp	80003af6 <vTemperature+0x6>
80003aec:	80 00       	ld.sh	r0,r0[0x0]
80003aee:	45 fc       	lddsp	r12,sp[0x17c]

80003af0 <vTemperature>:
		}
	}
}
*/
void vTemperature(void *pvParameters)
{
80003af0:	eb cd 40 80 	pushm	r7,lr
80003af4:	1a 97       	mov	r7,sp
80003af6:	20 2d       	sub	sp,8
80003af8:	ef 4c ff f8 	st.w	r7[-8],r12
	volatile int value_to_send;		// Character to send to Consumer
	
	onLED(LED0_BIT_VALUE);	// On when the temp-producer is active
80003afc:	fc 1c 08 00 	movh	r12,0x800
80003b00:	f0 1f 00 16 	mcall	80003b58 <vTemperature+0x68>
	
	while(1)
	{
		
		offLED(LED0_BIT_VALUE);
80003b04:	fc 1c 08 00 	movh	r12,0x800
80003b08:	f0 1f 00 15 	mcall	80003b5c <vTemperature+0x6c>
		if(xSemaphoreTake(xEmptyCountTemperature, (portTickType)portMAX_DELAY) == pdTRUE)
80003b0c:	49 58       	lddpc	r8,80003b60 <vTemperature+0x70>
80003b0e:	70 08       	ld.w	r8,r8[0x0]
80003b10:	30 09       	mov	r9,0
80003b12:	3f fa       	mov	r10,-1
80003b14:	30 0b       	mov	r11,0
80003b16:	10 9c       	mov	r12,r8
80003b18:	f0 1f 00 13 	mcall	80003b64 <vTemperature+0x74>
		{
			// Semaphore taken
		}
		onLED(LED0_BIT_VALUE);
80003b1c:	fc 1c 08 00 	movh	r12,0x800
80003b20:	f0 1f 00 0e 	mcall	80003b58 <vTemperature+0x68>
		
		value_to_send = adc_get_value(&AVR32_ADC, ADC_TEMPERATURE_CHANNEL);
80003b24:	30 0b       	mov	r11,0
80003b26:	fe 7c 3c 00 	mov	r12,-50176
80003b2a:	f0 1f 00 10 	mcall	80003b68 <vTemperature+0x78>
80003b2e:	18 98       	mov	r8,r12
80003b30:	ef 48 ff fc 	st.w	r7[-4],r8
		xQueueSendToBack(xQHandleTemperature, &value_to_send, (portTickType)10);
80003b34:	48 e8       	lddpc	r8,80003b6c <vTemperature+0x7c>
80003b36:	70 08       	ld.w	r8,r8[0x0]
80003b38:	ee cb 00 04 	sub	r11,r7,4
80003b3c:	30 09       	mov	r9,0
80003b3e:	30 aa       	mov	r10,10
80003b40:	10 9c       	mov	r12,r8
80003b42:	f0 1f 00 0c 	mcall	80003b70 <vTemperature+0x80>
		
		if(xSemaphoreGive(xFillCountTemperature) == pdTRUE)
80003b46:	48 c8       	lddpc	r8,80003b74 <vTemperature+0x84>
80003b48:	70 08       	ld.w	r8,r8[0x0]
80003b4a:	30 09       	mov	r9,0
80003b4c:	30 0a       	mov	r10,0
80003b4e:	30 0b       	mov	r11,0
80003b50:	10 9c       	mov	r12,r8
80003b52:	f0 1f 00 08 	mcall	80003b70 <vTemperature+0x80>
		{
			// Semaphore given
		}
	}
80003b56:	cd 7b       	rjmp	80003b04 <vTemperature+0x14>
80003b58:	80 00       	ld.sh	r0,r0[0x0]
80003b5a:	3a 14       	mov	r4,-95
80003b5c:	80 00       	ld.sh	r0,r0[0x0]
80003b5e:	3a 32       	mov	r2,-93
80003b60:	00 00       	add	r0,r0
80003b62:	07 e0       	ld.ub	r0,r3[0x6]
80003b64:	80 00       	ld.sh	r0,r0[0x0]
80003b66:	53 0c       	stdsp	sp[0xc0],r12
80003b68:	80 00       	ld.sh	r0,r0[0x0]
80003b6a:	30 c4       	mov	r4,12
80003b6c:	00 00       	add	r0,r0
80003b6e:	08 14       	sub	r4,r4
80003b70:	80 00       	ld.sh	r0,r0[0x0]
80003b72:	51 a4       	stdsp	sp[0x68],r4
80003b74:	00 00       	add	r0,r0
80003b76:	07 d8       	ld.ub	r8,r3[0x5]

80003b78 <vPotentiometer>:
}

void vPotentiometer(void *pvParameters)
{
80003b78:	eb cd 40 80 	pushm	r7,lr
80003b7c:	1a 97       	mov	r7,sp
80003b7e:	20 1d       	sub	sp,4
80003b80:	ef 4c ff fc 	st.w	r7[-4],r12
	while(1)
	{
		
	}
80003b84:	c0 08       	rjmp	80003b84 <vPotentiometer+0xc>

80003b86 <vLight>:
}

void vLight(void *pvParameters)
{
80003b86:	eb cd 40 80 	pushm	r7,lr
80003b8a:	1a 97       	mov	r7,sp
80003b8c:	20 1d       	sub	sp,4
80003b8e:	ef 4c ff fc 	st.w	r7[-4],r12
	while(1)
	{
		
	}
80003b92:	c0 08       	rjmp	80003b92 <vLight+0xc>

80003b94 <vConsumer>:
}

void vConsumer( void *pvParameters )
{
80003b94:	eb cd 40 80 	pushm	r7,lr
80003b98:	1a 97       	mov	r7,sp
80003b9a:	20 7d       	sub	sp,28
80003b9c:	ef 4c ff e4 	st.w	r7[-28],r12
	volatile int temperature_received;		// Value received
	volatile int potentiometer_received;	// Value received
	volatile int light_received;			// Value received
	volatile int row_temp = 1;			// Where on display to write
80003ba0:	30 18       	mov	r8,1
80003ba2:	ef 48 ff f0 	st.w	r7[-16],r8
	volatile int row_potentiometer = 2;	// Where on display to write
80003ba6:	30 28       	mov	r8,2
80003ba8:	ef 48 ff ec 	st.w	r7[-20],r8
	volatile int row_light = 3;			// Where on display to write
80003bac:	30 38       	mov	r8,3
80003bae:	ef 48 ff e8 	st.w	r7[-24],r8
	
	onLED(LED3_BIT_VALUE);	// On when Consumer is active
80003bb2:	fc 1c 40 00 	movh	r12,0x4000
80003bb6:	f0 1f 00 25 	mcall	80003c48 <vConsumer+0xb4>
80003bba:	c0 28       	rjmp	80003bbe <vConsumer+0x2a>
			if(xSemaphoreGive(xLCDSemaphore) == pdTRUE)
			{
				//Successfully given back
			}
		}
	}
80003bbc:	d7 03       	nop
	
	onLED(LED3_BIT_VALUE);	// On when Consumer is active
	
	while(1)
	{
		offLED(LED3_BIT_VALUE);
80003bbe:	fc 1c 40 00 	movh	r12,0x4000
80003bc2:	f0 1f 00 23 	mcall	80003c4c <vConsumer+0xb8>
		if(xSemaphoreTake(xFillCountTemperature, (portTickType)portMAX_DELAY) == pdTRUE)
80003bc6:	4a 38       	lddpc	r8,80003c50 <vConsumer+0xbc>
80003bc8:	70 08       	ld.w	r8,r8[0x0]
80003bca:	30 09       	mov	r9,0
80003bcc:	3f fa       	mov	r10,-1
80003bce:	30 0b       	mov	r11,0
80003bd0:	10 9c       	mov	r12,r8
80003bd2:	f0 1f 00 21 	mcall	80003c54 <vConsumer+0xc0>
		{
			// Semaphore taken
		}
		onLED(LED3_BIT_VALUE);
80003bd6:	fc 1c 40 00 	movh	r12,0x4000
80003bda:	f0 1f 00 1c 	mcall	80003c48 <vConsumer+0xb4>
		
		xQueueReceive(xQHandleTemperature, &temperature_received, (portTickType)portMAX_DELAY);
80003bde:	49 f8       	lddpc	r8,80003c58 <vConsumer+0xc4>
80003be0:	70 08       	ld.w	r8,r8[0x0]
80003be2:	ee cb 00 04 	sub	r11,r7,4
80003be6:	30 09       	mov	r9,0
80003be8:	3f fa       	mov	r10,-1
80003bea:	10 9c       	mov	r12,r8
80003bec:	f0 1f 00 1a 	mcall	80003c54 <vConsumer+0xc0>
		
		if(xSemaphoreGive(xEmptyCount) == pdTRUE)
80003bf0:	49 b8       	lddpc	r8,80003c5c <vConsumer+0xc8>
80003bf2:	70 08       	ld.w	r8,r8[0x0]
80003bf4:	30 09       	mov	r9,0
80003bf6:	30 0a       	mov	r10,0
80003bf8:	30 0b       	mov	r11,0
80003bfa:	10 9c       	mov	r12,r8
80003bfc:	f0 1f 00 19 	mcall	80003c60 <vConsumer+0xcc>
		{
			// Semaphore given
		}
		
		if(xSemaphoreTake(xLCDSemaphore, (portTickType)portMAX_DELAY) == pdTRUE)	// Semaphore - Display
80003c00:	49 98       	lddpc	r8,80003c64 <vConsumer+0xd0>
80003c02:	70 08       	ld.w	r8,r8[0x0]
80003c04:	30 09       	mov	r9,0
80003c06:	3f fa       	mov	r10,-1
80003c08:	30 0b       	mov	r11,0
80003c0a:	10 9c       	mov	r12,r8
80003c0c:	f0 1f 00 12 	mcall	80003c54 <vConsumer+0xc0>
80003c10:	18 98       	mov	r8,r12
80003c12:	58 18       	cp.w	r8,1
80003c14:	cd 41       	brne	80003bbc <vConsumer+0x28>
		{
			dip204_clear_display();
80003c16:	f0 1f 00 15 	mcall	80003c68 <vConsumer+0xd4>
			dip204_set_cursor_position(1, row_temp);
80003c1a:	ee f8 ff f0 	ld.w	r8,r7[-16]
80003c1e:	5c 58       	castu.b	r8
80003c20:	10 9b       	mov	r11,r8
80003c22:	30 1c       	mov	r12,1
80003c24:	f0 1f 00 12 	mcall	80003c6c <vConsumer+0xd8>
			dip204_printf_string("%c", temperature_received); //print value
80003c28:	ee f8 ff fc 	ld.w	r8,r7[-4]
80003c2c:	1a d8       	st.w	--sp,r8
80003c2e:	49 1c       	lddpc	r12,80003c70 <vConsumer+0xdc>
80003c30:	f0 1f 00 11 	mcall	80003c74 <vConsumer+0xe0>
80003c34:	2f fd       	sub	sp,-4
			if(xSemaphoreGive(xLCDSemaphore) == pdTRUE)
80003c36:	48 c8       	lddpc	r8,80003c64 <vConsumer+0xd0>
80003c38:	70 08       	ld.w	r8,r8[0x0]
80003c3a:	30 09       	mov	r9,0
80003c3c:	30 0a       	mov	r10,0
80003c3e:	30 0b       	mov	r11,0
80003c40:	10 9c       	mov	r12,r8
80003c42:	f0 1f 00 08 	mcall	80003c60 <vConsumer+0xcc>
			{
				//Successfully given back
			}
		}
	}
80003c46:	cb cb       	rjmp	80003bbe <vConsumer+0x2a>
80003c48:	80 00       	ld.sh	r0,r0[0x0]
80003c4a:	3a 14       	mov	r4,-95
80003c4c:	80 00       	ld.sh	r0,r0[0x0]
80003c4e:	3a 32       	mov	r2,-93
80003c50:	00 00       	add	r0,r0
80003c52:	07 d8       	ld.ub	r8,r3[0x5]
80003c54:	80 00       	ld.sh	r0,r0[0x0]
80003c56:	53 0c       	stdsp	sp[0xc0],r12
80003c58:	00 00       	add	r0,r0
80003c5a:	08 14       	sub	r4,r4
80003c5c:	00 00       	add	r0,r0
80003c5e:	07 f8       	ld.ub	r8,r3[0x7]
80003c60:	80 00       	ld.sh	r0,r0[0x0]
80003c62:	51 a4       	stdsp	sp[0x68],r4
80003c64:	00 00       	add	r0,r0
80003c66:	07 dc       	ld.ub	r12,r3[0x5]
80003c68:	80 00       	ld.sh	r0,r0[0x0]
80003c6a:	2c a0       	sub	r0,-54
80003c6c:	80 00       	ld.sh	r0,r0[0x0]
80003c6e:	2c 18       	sub	r8,-63
80003c70:	80 00       	ld.sh	r0,r0[0x0]
80003c72:	3a 50       	mov	r0,-91
80003c74:	80 00       	ld.sh	r0,r0[0x0]
80003c76:	2e 1c       	sub	r12,-31

80003c78 <main>:
		}
	}
}
*/
int main(void)
{
80003c78:	eb cd 40 80 	pushm	r7,lr
80003c7c:	1a 97       	mov	r7,sp
	initLED();
80003c7e:	f0 1f 00 57 	mcall	80003dd8 <main+0x160>
	init_usart();
80003c82:	f0 1f 00 57 	mcall	80003ddc <main+0x164>
	display_init();
80003c86:	f0 1f 00 57 	mcall	80003de0 <main+0x168>
	dip204_clear_display();
80003c8a:	f0 1f 00 57 	mcall	80003de4 <main+0x16c>
	
	// Configure the ADC module and enable the potentiometer, temperature and light channel
	adc_configure(&AVR32_ADC);
80003c8e:	fe 7c 3c 00 	mov	r12,-50176
80003c92:	f0 1f 00 56 	mcall	80003de8 <main+0x170>
	adc_enable(&AVR32_ADC, ADC_POTENTIOMETER_CHANNEL);
80003c96:	30 1b       	mov	r11,1
80003c98:	fe 7c 3c 00 	mov	r12,-50176
80003c9c:	f0 1f 00 54 	mcall	80003dec <main+0x174>
	adc_enable(&AVR32_ADC, ADC_TEMPERATURE_CHANNEL);
80003ca0:	30 0b       	mov	r11,0
80003ca2:	fe 7c 3c 00 	mov	r12,-50176
80003ca6:	f0 1f 00 52 	mcall	80003dec <main+0x174>
	adc_enable(&AVR32_ADC, ADC_LIGHT_CHANNEL);
80003caa:	30 2b       	mov	r11,2
80003cac:	fe 7c 3c 00 	mov	r12,-50176
80003cb0:	f0 1f 00 4f 	mcall	80003dec <main+0x174>
	
	//vSemaphoreCreateBinary(xSemaphore);		// Semaphore - Queue
	vSemaphoreCreateBinary(xLCDSemaphore);	// Semaphore - Display
80003cb4:	30 0b       	mov	r11,0
80003cb6:	30 1c       	mov	r12,1
80003cb8:	f0 1f 00 4e 	mcall	80003df0 <main+0x178>
80003cbc:	18 99       	mov	r9,r12
80003cbe:	4c e8       	lddpc	r8,80003df4 <main+0x17c>
80003cc0:	91 09       	st.w	r8[0x0],r9
80003cc2:	4c d8       	lddpc	r8,80003df4 <main+0x17c>
80003cc4:	70 08       	ld.w	r8,r8[0x0]
80003cc6:	58 08       	cp.w	r8,0
80003cc8:	c0 90       	breq	80003cda <main+0x62>
80003cca:	4c b8       	lddpc	r8,80003df4 <main+0x17c>
80003ccc:	70 08       	ld.w	r8,r8[0x0]
80003cce:	30 09       	mov	r9,0
80003cd0:	30 0a       	mov	r10,0
80003cd2:	30 0b       	mov	r11,0
80003cd4:	10 9c       	mov	r12,r8
80003cd6:	f0 1f 00 49 	mcall	80003df8 <main+0x180>
	xFillCount = xSemaphoreCreateCounting(BUFFER_SIZE, 0);
80003cda:	30 0b       	mov	r11,0
80003cdc:	30 1c       	mov	r12,1
80003cde:	f0 1f 00 48 	mcall	80003dfc <main+0x184>
80003ce2:	18 99       	mov	r9,r12
80003ce4:	4c 78       	lddpc	r8,80003e00 <main+0x188>
80003ce6:	91 09       	st.w	r8[0x0],r9
	xEmptyCount = xSemaphoreCreateCounting(BUFFER_SIZE, BUFFER_SIZE);
80003ce8:	30 1b       	mov	r11,1
80003cea:	30 1c       	mov	r12,1
80003cec:	f0 1f 00 44 	mcall	80003dfc <main+0x184>
80003cf0:	18 99       	mov	r9,r12
80003cf2:	4c 58       	lddpc	r8,80003e04 <main+0x18c>
80003cf4:	91 09       	st.w	r8[0x0],r9
	xFillCountTemperature = xSemaphoreCreateCounting(BUFFER_SIZE, 0);
80003cf6:	30 0b       	mov	r11,0
80003cf8:	30 1c       	mov	r12,1
80003cfa:	f0 1f 00 41 	mcall	80003dfc <main+0x184>
80003cfe:	18 99       	mov	r9,r12
80003d00:	4c 28       	lddpc	r8,80003e08 <main+0x190>
80003d02:	91 09       	st.w	r8[0x0],r9
	xEmptyCountTemperature = xSemaphoreCreateCounting(BUFFER_SIZE, BUFFER_SIZE);
80003d04:	30 1b       	mov	r11,1
80003d06:	30 1c       	mov	r12,1
80003d08:	f0 1f 00 3d 	mcall	80003dfc <main+0x184>
80003d0c:	18 99       	mov	r9,r12
80003d0e:	4c 08       	lddpc	r8,80003e0c <main+0x194>
80003d10:	91 09       	st.w	r8[0x0],r9
	xFillCountPotentiometer = xSemaphoreCreateCounting(BUFFER_SIZE, 0);
80003d12:	30 0b       	mov	r11,0
80003d14:	30 1c       	mov	r12,1
80003d16:	f0 1f 00 3a 	mcall	80003dfc <main+0x184>
80003d1a:	18 99       	mov	r9,r12
80003d1c:	4b d8       	lddpc	r8,80003e10 <main+0x198>
80003d1e:	91 09       	st.w	r8[0x0],r9
	xEmptyCountPotentiometer = xSemaphoreCreateCounting(BUFFER_SIZE, BUFFER_SIZE);
80003d20:	30 1b       	mov	r11,1
80003d22:	30 1c       	mov	r12,1
80003d24:	f0 1f 00 36 	mcall	80003dfc <main+0x184>
80003d28:	18 99       	mov	r9,r12
80003d2a:	4b b8       	lddpc	r8,80003e14 <main+0x19c>
80003d2c:	91 09       	st.w	r8[0x0],r9
	xFillCountLight = xSemaphoreCreateCounting(BUFFER_SIZE, 0);
80003d2e:	30 0b       	mov	r11,0
80003d30:	30 1c       	mov	r12,1
80003d32:	f0 1f 00 33 	mcall	80003dfc <main+0x184>
80003d36:	18 99       	mov	r9,r12
80003d38:	4b 88       	lddpc	r8,80003e18 <main+0x1a0>
80003d3a:	91 09       	st.w	r8[0x0],r9
	xEmptyCountLight = xSemaphoreCreateCounting(BUFFER_SIZE, BUFFER_SIZE);
80003d3c:	30 1b       	mov	r11,1
80003d3e:	30 1c       	mov	r12,1
80003d40:	f0 1f 00 2f 	mcall	80003dfc <main+0x184>
80003d44:	18 99       	mov	r9,r12
80003d46:	4b 68       	lddpc	r8,80003e1c <main+0x1a4>
80003d48:	91 09       	st.w	r8[0x0],r9
	
	xQHandle = xQueueCreate(10, sizeof(int*));		// Queue - 10 spots of char-pointer size
80003d4a:	30 4b       	mov	r11,4
80003d4c:	30 ac       	mov	r12,10
80003d4e:	f0 1f 00 29 	mcall	80003df0 <main+0x178>
80003d52:	18 99       	mov	r9,r12
80003d54:	4b 38       	lddpc	r8,80003e20 <main+0x1a8>
80003d56:	91 09       	st.w	r8[0x0],r9
		//ERROR!
	}
	
	
	// Create the task , store the handle .
	xTaskCreate(	vConsumer, "vConsumer", configMINIMAL_STACK_SIZE, NULL, 1, &xHandleConsumer);	
80003d58:	4b 3b       	lddpc	r11,80003e24 <main+0x1ac>
80003d5a:	30 08       	mov	r8,0
80003d5c:	1a d8       	st.w	--sp,r8
80003d5e:	30 08       	mov	r8,0
80003d60:	1a d8       	st.w	--sp,r8
80003d62:	4b 28       	lddpc	r8,80003e28 <main+0x1b0>
80003d64:	1a d8       	st.w	--sp,r8
80003d66:	30 18       	mov	r8,1
80003d68:	30 09       	mov	r9,0
80003d6a:	e0 6a 01 00 	mov	r10,256
80003d6e:	4b 0c       	lddpc	r12,80003e2c <main+0x1b4>
80003d70:	f0 1f 00 30 	mcall	80003e30 <main+0x1b8>
80003d74:	2f dd       	sub	sp,-12
	xTaskCreate(	vTemperature, "vTemperature", configMINIMAL_STACK_SIZE, NULL, 1, &xHandleTemperature);
80003d76:	4b 0b       	lddpc	r11,80003e34 <main+0x1bc>
80003d78:	30 08       	mov	r8,0
80003d7a:	1a d8       	st.w	--sp,r8
80003d7c:	30 08       	mov	r8,0
80003d7e:	1a d8       	st.w	--sp,r8
80003d80:	4a e8       	lddpc	r8,80003e38 <main+0x1c0>
80003d82:	1a d8       	st.w	--sp,r8
80003d84:	30 18       	mov	r8,1
80003d86:	30 09       	mov	r9,0
80003d88:	e0 6a 01 00 	mov	r10,256
80003d8c:	4a cc       	lddpc	r12,80003e3c <main+0x1c4>
80003d8e:	f0 1f 00 29 	mcall	80003e30 <main+0x1b8>
80003d92:	2f dd       	sub	sp,-12
	xTaskCreate(	vPotentiometer, "vPotentiometer", configMINIMAL_STACK_SIZE, NULL, 1, &xHandlePotentiometer);
80003d94:	4a bb       	lddpc	r11,80003e40 <main+0x1c8>
80003d96:	30 08       	mov	r8,0
80003d98:	1a d8       	st.w	--sp,r8
80003d9a:	30 08       	mov	r8,0
80003d9c:	1a d8       	st.w	--sp,r8
80003d9e:	4a a8       	lddpc	r8,80003e44 <main+0x1cc>
80003da0:	1a d8       	st.w	--sp,r8
80003da2:	30 18       	mov	r8,1
80003da4:	30 09       	mov	r9,0
80003da6:	e0 6a 01 00 	mov	r10,256
80003daa:	4a 8c       	lddpc	r12,80003e48 <main+0x1d0>
80003dac:	f0 1f 00 21 	mcall	80003e30 <main+0x1b8>
80003db0:	2f dd       	sub	sp,-12
	xTaskCreate(	vLight, "vLight", configMINIMAL_STACK_SIZE, NULL, 1, &xHandleLight);
80003db2:	4a 7b       	lddpc	r11,80003e4c <main+0x1d4>
80003db4:	30 08       	mov	r8,0
80003db6:	1a d8       	st.w	--sp,r8
80003db8:	30 08       	mov	r8,0
80003dba:	1a d8       	st.w	--sp,r8
80003dbc:	4a 58       	lddpc	r8,80003e50 <main+0x1d8>
80003dbe:	1a d8       	st.w	--sp,r8
80003dc0:	30 18       	mov	r8,1
80003dc2:	30 09       	mov	r9,0
80003dc4:	e0 6a 01 00 	mov	r10,256
80003dc8:	4a 3c       	lddpc	r12,80003e54 <main+0x1dc>
80003dca:	f0 1f 00 1a 	mcall	80003e30 <main+0x1b8>
80003dce:	2f dd       	sub	sp,-12
	
	vTaskStartScheduler();		// Starts the schedueling
80003dd0:	f0 1f 00 22 	mcall	80003e58 <main+0x1e0>

	
	for( ;; )
	{
		
	}
80003dd4:	c0 08       	rjmp	80003dd4 <main+0x15c>
80003dd6:	00 00       	add	r0,r0
80003dd8:	80 00       	ld.sh	r0,r0[0x0]
80003dda:	39 98       	mov	r8,-103
80003ddc:	80 00       	ld.sh	r0,r0[0x0]
80003dde:	3a 88       	mov	r8,-88
80003de0:	80 00       	ld.sh	r0,r0[0x0]
80003de2:	37 70       	mov	r0,119
80003de4:	80 00       	ld.sh	r0,r0[0x0]
80003de6:	2c a0       	sub	r0,-54
80003de8:	80 00       	ld.sh	r0,r0[0x0]
80003dea:	30 30       	mov	r0,3
80003dec:	80 00       	ld.sh	r0,r0[0x0]
80003dee:	30 66       	mov	r6,6
80003df0:	80 00       	ld.sh	r0,r0[0x0]
80003df2:	50 48       	stdsp	sp[0x10],r8
80003df4:	00 00       	add	r0,r0
80003df6:	07 dc       	ld.ub	r12,r3[0x5]
80003df8:	80 00       	ld.sh	r0,r0[0x0]
80003dfa:	51 a4       	stdsp	sp[0x68],r4
80003dfc:	80 00       	ld.sh	r0,r0[0x0]
80003dfe:	51 60       	stdsp	sp[0x58],r0
80003e00:	00 00       	add	r0,r0
80003e02:	07 e4       	ld.ub	r4,r3[0x6]
80003e04:	00 00       	add	r0,r0
80003e06:	07 f8       	ld.ub	r8,r3[0x7]
80003e08:	00 00       	add	r0,r0
80003e0a:	07 d8       	ld.ub	r8,r3[0x5]
80003e0c:	00 00       	add	r0,r0
80003e0e:	07 e0       	ld.ub	r0,r3[0x6]
80003e10:	00 00       	add	r0,r0
80003e12:	07 fc       	ld.ub	r12,r3[0x7]
80003e14:	00 00       	add	r0,r0
80003e16:	08 18       	sub	r8,r4
80003e18:	00 00       	add	r0,r0
80003e1a:	08 1c       	sub	r12,r4
80003e1c:	00 00       	add	r0,r0
80003e1e:	08 10       	sub	r0,r4
80003e20:	00 00       	add	r0,r0
80003e22:	07 e8       	ld.ub	r8,r3[0x6]
80003e24:	80 00       	ld.sh	r0,r0[0x0]
80003e26:	3a 54       	mov	r4,-91
80003e28:	00 00       	add	r0,r0
80003e2a:	07 ec       	ld.ub	r12,r3[0x6]
80003e2c:	80 00       	ld.sh	r0,r0[0x0]
80003e2e:	3b 94       	mov	r4,-71
80003e30:	80 00       	ld.sh	r0,r0[0x0]
80003e32:	57 50       	stdsp	sp[0x1d4],r0
80003e34:	80 00       	ld.sh	r0,r0[0x0]
80003e36:	3a 60       	mov	r0,-90
80003e38:	00 00       	add	r0,r0
80003e3a:	07 d4       	ld.ub	r4,r3[0x5]
80003e3c:	80 00       	ld.sh	r0,r0[0x0]
80003e3e:	3a f0       	mov	r0,-81
80003e40:	80 00       	ld.sh	r0,r0[0x0]
80003e42:	3a 70       	mov	r0,-89
80003e44:	00 00       	add	r0,r0
80003e46:	08 08       	add	r8,r4
80003e48:	80 00       	ld.sh	r0,r0[0x0]
80003e4a:	3b 78       	mov	r8,-73
80003e4c:	80 00       	ld.sh	r0,r0[0x0]
80003e4e:	3a 80       	mov	r0,-88
80003e50:	00 00       	add	r0,r0
80003e52:	08 04       	add	r4,r4
80003e54:	80 00       	ld.sh	r0,r0[0x0]
80003e56:	3b 86       	mov	r6,-72
80003e58:	80 00       	ld.sh	r0,r0[0x0]
80003e5a:	59 18       	cp.w	r8,17

80003e5c <gpio_enable_module>:
80003e5c:	eb cd 40 80 	pushm	r7,lr
80003e60:	1a 97       	mov	r7,sp
80003e62:	20 4d       	sub	sp,16
80003e64:	ef 4c ff f4 	st.w	r7[-12],r12
80003e68:	ef 4b ff f0 	st.w	r7[-16],r11
80003e6c:	30 08       	mov	r8,0
80003e6e:	ef 48 ff f8 	st.w	r7[-8],r8
80003e72:	30 08       	mov	r8,0
80003e74:	ef 48 ff fc 	st.w	r7[-4],r8
80003e78:	c1 c8       	rjmp	80003eb0 <gpio_enable_module+0x54>
80003e7a:	ee f8 ff f4 	ld.w	r8,r7[-12]
80003e7e:	70 19       	ld.w	r9,r8[0x4]
80003e80:	ee f8 ff f4 	ld.w	r8,r7[-12]
80003e84:	70 08       	ld.w	r8,r8[0x0]
80003e86:	12 9b       	mov	r11,r9
80003e88:	10 9c       	mov	r12,r8
80003e8a:	f0 1f 00 10 	mcall	80003ec8 <gpio_enable_module+0x6c>
80003e8e:	18 98       	mov	r8,r12
80003e90:	ee f9 ff f8 	ld.w	r9,r7[-8]
80003e94:	f3 e8 10 08 	or	r8,r9,r8
80003e98:	ef 48 ff f8 	st.w	r7[-8],r8
80003e9c:	ee f8 ff f4 	ld.w	r8,r7[-12]
80003ea0:	2f 88       	sub	r8,-8
80003ea2:	ef 48 ff f4 	st.w	r7[-12],r8
80003ea6:	ee f8 ff fc 	ld.w	r8,r7[-4]
80003eaa:	2f f8       	sub	r8,-1
80003eac:	ef 48 ff fc 	st.w	r7[-4],r8
80003eb0:	ee f9 ff fc 	ld.w	r9,r7[-4]
80003eb4:	ee f8 ff f0 	ld.w	r8,r7[-16]
80003eb8:	10 39       	cp.w	r9,r8
80003eba:	ce 03       	brcs	80003e7a <gpio_enable_module+0x1e>
80003ebc:	ee f8 ff f8 	ld.w	r8,r7[-8]
80003ec0:	10 9c       	mov	r12,r8
80003ec2:	2f cd       	sub	sp,-16
80003ec4:	e3 cd 80 80 	ldm	sp++,r7,pc
80003ec8:	80 00       	ld.sh	r0,r0[0x0]
80003eca:	3e cc       	mov	r12,-20

80003ecc <gpio_enable_module_pin>:
80003ecc:	eb cd 40 80 	pushm	r7,lr
80003ed0:	1a 97       	mov	r7,sp
80003ed2:	20 3d       	sub	sp,12
80003ed4:	ef 4c ff f8 	st.w	r7[-8],r12
80003ed8:	ef 4b ff f4 	st.w	r7[-12],r11
80003edc:	ee f8 ff f8 	ld.w	r8,r7[-8]
80003ee0:	a5 98       	lsr	r8,0x5
80003ee2:	a9 68       	lsl	r8,0x8
80003ee4:	e0 28 f0 00 	sub	r8,61440
80003ee8:	ef 48 ff fc 	st.w	r7[-4],r8
80003eec:	ee f8 ff f4 	ld.w	r8,r7[-12]
80003ef0:	58 18       	cp.w	r8,1
80003ef2:	c1 e0       	breq	80003f2e <gpio_enable_module_pin+0x62>
80003ef4:	c0 63       	brcs	80003f00 <gpio_enable_module_pin+0x34>
80003ef6:	58 28       	cp.w	r8,2
80003ef8:	c3 20       	breq	80003f5c <gpio_enable_module_pin+0x90>
80003efa:	58 38       	cp.w	r8,3
80003efc:	c4 70       	breq	80003f8a <gpio_enable_module_pin+0xbe>
80003efe:	c5 d8       	rjmp	80003fb8 <gpio_enable_module_pin+0xec>
80003f00:	ee f8 ff f8 	ld.w	r8,r7[-8]
80003f04:	f1 d8 c0 05 	bfextu	r8,r8,0x0,0x5
80003f08:	30 19       	mov	r9,1
80003f0a:	f2 08 09 48 	lsl	r8,r9,r8
80003f0e:	10 99       	mov	r9,r8
80003f10:	ee f8 ff fc 	ld.w	r8,r7[-4]
80003f14:	91 69       	st.w	r8[0x18],r9
80003f16:	ee f8 ff f8 	ld.w	r8,r7[-8]
80003f1a:	f1 d8 c0 05 	bfextu	r8,r8,0x0,0x5
80003f1e:	30 19       	mov	r9,1
80003f20:	f2 08 09 48 	lsl	r8,r9,r8
80003f24:	10 99       	mov	r9,r8
80003f26:	ee f8 ff fc 	ld.w	r8,r7[-4]
80003f2a:	91 a9       	st.w	r8[0x28],r9
80003f2c:	c4 88       	rjmp	80003fbc <gpio_enable_module_pin+0xf0>
80003f2e:	ee f8 ff f8 	ld.w	r8,r7[-8]
80003f32:	f1 d8 c0 05 	bfextu	r8,r8,0x0,0x5
80003f36:	30 19       	mov	r9,1
80003f38:	f2 08 09 48 	lsl	r8,r9,r8
80003f3c:	10 99       	mov	r9,r8
80003f3e:	ee f8 ff fc 	ld.w	r8,r7[-4]
80003f42:	91 59       	st.w	r8[0x14],r9
80003f44:	ee f8 ff f8 	ld.w	r8,r7[-8]
80003f48:	f1 d8 c0 05 	bfextu	r8,r8,0x0,0x5
80003f4c:	30 19       	mov	r9,1
80003f4e:	f2 08 09 48 	lsl	r8,r9,r8
80003f52:	10 99       	mov	r9,r8
80003f54:	ee f8 ff fc 	ld.w	r8,r7[-4]
80003f58:	91 a9       	st.w	r8[0x28],r9
80003f5a:	c3 18       	rjmp	80003fbc <gpio_enable_module_pin+0xf0>
80003f5c:	ee f8 ff f8 	ld.w	r8,r7[-8]
80003f60:	f1 d8 c0 05 	bfextu	r8,r8,0x0,0x5
80003f64:	30 19       	mov	r9,1
80003f66:	f2 08 09 48 	lsl	r8,r9,r8
80003f6a:	10 99       	mov	r9,r8
80003f6c:	ee f8 ff fc 	ld.w	r8,r7[-4]
80003f70:	91 69       	st.w	r8[0x18],r9
80003f72:	ee f8 ff f8 	ld.w	r8,r7[-8]
80003f76:	f1 d8 c0 05 	bfextu	r8,r8,0x0,0x5
80003f7a:	30 19       	mov	r9,1
80003f7c:	f2 08 09 48 	lsl	r8,r9,r8
80003f80:	10 99       	mov	r9,r8
80003f82:	ee f8 ff fc 	ld.w	r8,r7[-4]
80003f86:	91 99       	st.w	r8[0x24],r9
80003f88:	c1 a8       	rjmp	80003fbc <gpio_enable_module_pin+0xf0>
80003f8a:	ee f8 ff f8 	ld.w	r8,r7[-8]
80003f8e:	f1 d8 c0 05 	bfextu	r8,r8,0x0,0x5
80003f92:	30 19       	mov	r9,1
80003f94:	f2 08 09 48 	lsl	r8,r9,r8
80003f98:	10 99       	mov	r9,r8
80003f9a:	ee f8 ff fc 	ld.w	r8,r7[-4]
80003f9e:	91 59       	st.w	r8[0x14],r9
80003fa0:	ee f8 ff f8 	ld.w	r8,r7[-8]
80003fa4:	f1 d8 c0 05 	bfextu	r8,r8,0x0,0x5
80003fa8:	30 19       	mov	r9,1
80003faa:	f2 08 09 48 	lsl	r8,r9,r8
80003fae:	10 99       	mov	r9,r8
80003fb0:	ee f8 ff fc 	ld.w	r8,r7[-4]
80003fb4:	91 99       	st.w	r8[0x24],r9
80003fb6:	c0 38       	rjmp	80003fbc <gpio_enable_module_pin+0xf0>
80003fb8:	30 18       	mov	r8,1
80003fba:	c0 d8       	rjmp	80003fd4 <gpio_enable_module_pin+0x108>
80003fbc:	ee f8 ff f8 	ld.w	r8,r7[-8]
80003fc0:	f1 d8 c0 05 	bfextu	r8,r8,0x0,0x5
80003fc4:	30 19       	mov	r9,1
80003fc6:	f2 08 09 48 	lsl	r8,r9,r8
80003fca:	10 99       	mov	r9,r8
80003fcc:	ee f8 ff fc 	ld.w	r8,r7[-4]
80003fd0:	91 29       	st.w	r8[0x8],r9
80003fd2:	30 08       	mov	r8,0
80003fd4:	10 9c       	mov	r12,r8
80003fd6:	2f dd       	sub	sp,-12
80003fd8:	e3 cd 80 80 	ldm	sp++,r7,pc

80003fdc <gpio_set_gpio_pin>:
80003fdc:	eb cd 40 80 	pushm	r7,lr
80003fe0:	1a 97       	mov	r7,sp
80003fe2:	20 2d       	sub	sp,8
80003fe4:	ef 4c ff f8 	st.w	r7[-8],r12
80003fe8:	ee f8 ff f8 	ld.w	r8,r7[-8]
80003fec:	a5 98       	lsr	r8,0x5
80003fee:	a9 68       	lsl	r8,0x8
80003ff0:	e0 28 f0 00 	sub	r8,61440
80003ff4:	ef 48 ff fc 	st.w	r7[-4],r8
80003ff8:	ee f8 ff f8 	ld.w	r8,r7[-8]
80003ffc:	f1 d8 c0 05 	bfextu	r8,r8,0x0,0x5
80004000:	30 19       	mov	r9,1
80004002:	f2 08 09 48 	lsl	r8,r9,r8
80004006:	10 99       	mov	r9,r8
80004008:	ee f8 ff fc 	ld.w	r8,r7[-4]
8000400c:	f1 49 00 54 	st.w	r8[84],r9
80004010:	ee f8 ff f8 	ld.w	r8,r7[-8]
80004014:	f1 d8 c0 05 	bfextu	r8,r8,0x0,0x5
80004018:	30 19       	mov	r9,1
8000401a:	f2 08 09 48 	lsl	r8,r9,r8
8000401e:	10 99       	mov	r9,r8
80004020:	ee f8 ff fc 	ld.w	r8,r7[-4]
80004024:	f1 49 00 44 	st.w	r8[68],r9
80004028:	ee f8 ff f8 	ld.w	r8,r7[-8]
8000402c:	f1 d8 c0 05 	bfextu	r8,r8,0x0,0x5
80004030:	30 19       	mov	r9,1
80004032:	f2 08 09 48 	lsl	r8,r9,r8
80004036:	10 99       	mov	r9,r8
80004038:	ee f8 ff fc 	ld.w	r8,r7[-4]
8000403c:	91 19       	st.w	r8[0x4],r9
8000403e:	2f ed       	sub	sp,-8
80004040:	e3 cd 80 80 	ldm	sp++,r7,pc

80004044 <gpio_clr_gpio_pin>:
80004044:	eb cd 40 80 	pushm	r7,lr
80004048:	1a 97       	mov	r7,sp
8000404a:	20 2d       	sub	sp,8
8000404c:	ef 4c ff f8 	st.w	r7[-8],r12
80004050:	ee f8 ff f8 	ld.w	r8,r7[-8]
80004054:	a5 98       	lsr	r8,0x5
80004056:	a9 68       	lsl	r8,0x8
80004058:	e0 28 f0 00 	sub	r8,61440
8000405c:	ef 48 ff fc 	st.w	r7[-4],r8
80004060:	ee f8 ff f8 	ld.w	r8,r7[-8]
80004064:	f1 d8 c0 05 	bfextu	r8,r8,0x0,0x5
80004068:	30 19       	mov	r9,1
8000406a:	f2 08 09 48 	lsl	r8,r9,r8
8000406e:	10 99       	mov	r9,r8
80004070:	ee f8 ff fc 	ld.w	r8,r7[-4]
80004074:	f1 49 00 58 	st.w	r8[88],r9
80004078:	ee f8 ff f8 	ld.w	r8,r7[-8]
8000407c:	f1 d8 c0 05 	bfextu	r8,r8,0x0,0x5
80004080:	30 19       	mov	r9,1
80004082:	f2 08 09 48 	lsl	r8,r9,r8
80004086:	10 99       	mov	r9,r8
80004088:	ee f8 ff fc 	ld.w	r8,r7[-4]
8000408c:	f1 49 00 44 	st.w	r8[68],r9
80004090:	ee f8 ff f8 	ld.w	r8,r7[-8]
80004094:	f1 d8 c0 05 	bfextu	r8,r8,0x0,0x5
80004098:	30 19       	mov	r9,1
8000409a:	f2 08 09 48 	lsl	r8,r9,r8
8000409e:	10 99       	mov	r9,r8
800040a0:	ee f8 ff fc 	ld.w	r8,r7[-4]
800040a4:	91 19       	st.w	r8[0x4],r9
800040a6:	2f ed       	sub	sp,-8
800040a8:	e3 cd 80 80 	ldm	sp++,r7,pc

800040ac <_unhandled_interrupt>:
800040ac:	eb cd 40 80 	pushm	r7,lr
800040b0:	1a 97       	mov	r7,sp
800040b2:	c0 08       	rjmp	800040b2 <_unhandled_interrupt+0x6>

800040b4 <_get_interrupt_handler>:
800040b4:	eb cd 40 80 	pushm	r7,lr
800040b8:	1a 97       	mov	r7,sp
800040ba:	20 3d       	sub	sp,12
800040bc:	ef 4c ff f4 	st.w	r7[-12],r12
800040c0:	fe 78 08 00 	mov	r8,-63488
800040c4:	ee f9 ff f4 	ld.w	r9,r7[-12]
800040c8:	f2 09 11 03 	rsub	r9,r9,3
800040cc:	28 09       	sub	r9,-128
800040ce:	f0 09 03 28 	ld.w	r8,r8[r9<<0x2]
800040d2:	ef 48 ff f8 	st.w	r7[-8],r8
800040d6:	fe 78 08 00 	mov	r8,-63488
800040da:	ee f9 ff f8 	ld.w	r9,r7[-8]
800040de:	2c 09       	sub	r9,-64
800040e0:	f0 09 03 28 	ld.w	r8,r8[r9<<0x2]
800040e4:	ef 48 ff fc 	st.w	r7[-4],r8
800040e8:	ee f8 ff fc 	ld.w	r8,r7[-4]
800040ec:	58 08       	cp.w	r8,0
800040ee:	c1 30       	breq	80004114 <_get_interrupt_handler+0x60>
800040f0:	ee f9 ff f8 	ld.w	r9,r7[-8]
800040f4:	48 b8       	lddpc	r8,80004120 <_get_interrupt_handler+0x6c>
800040f6:	a1 79       	lsl	r9,0x1
800040f8:	2f f9       	sub	r9,-1
800040fa:	f0 09 03 29 	ld.w	r9,r8[r9<<0x2]
800040fe:	ee f8 ff fc 	ld.w	r8,r7[-4]
80004102:	f0 08 12 00 	clz	r8,r8
80004106:	f0 08 11 1f 	rsub	r8,r8,31
8000410a:	a3 68       	lsl	r8,0x2
8000410c:	f2 08 00 08 	add	r8,r9,r8
80004110:	70 08       	ld.w	r8,r8[0x0]
80004112:	c0 28       	rjmp	80004116 <_get_interrupt_handler+0x62>
80004114:	30 08       	mov	r8,0
80004116:	10 9c       	mov	r12,r8
80004118:	2f dd       	sub	sp,-12
8000411a:	e3 cd 80 80 	ldm	sp++,r7,pc
8000411e:	00 00       	add	r0,r0
80004120:	80 00       	ld.sh	r0,r0[0x0]
80004122:	c0 74       	brge	80004130 <INTC_init_evba+0xc>

80004124 <INTC_init_evba>:
80004124:	eb cd 40 80 	pushm	r7,lr
80004128:	1a 97       	mov	r7,sp
8000412a:	48 38       	lddpc	r8,80004134 <INTC_init_evba+0x10>
8000412c:	e3 b8 00 01 	mtsr	0x4,r8
80004130:	e3 cd 80 80 	ldm	sp++,r7,pc
80004134:	80 00       	ld.sh	r0,r0[0x0]
80004136:	be 00       	st.h	pc[0x0],r0

80004138 <INTC_init_interrupts>:
80004138:	eb cd 40 80 	pushm	r7,lr
8000413c:	1a 97       	mov	r7,sp
8000413e:	20 2d       	sub	sp,8
80004140:	f0 1f 00 1f 	mcall	800041bc <INTC_init_interrupts+0x84>
80004144:	30 08       	mov	r8,0
80004146:	ef 48 ff f8 	st.w	r7[-8],r8
8000414a:	c3 18       	rjmp	800041ac <INTC_init_interrupts+0x74>
8000414c:	30 08       	mov	r8,0
8000414e:	ef 48 ff fc 	st.w	r7[-4],r8
80004152:	c1 48       	rjmp	8000417a <INTC_init_interrupts+0x42>
80004154:	ee f9 ff f8 	ld.w	r9,r7[-8]
80004158:	49 a8       	lddpc	r8,800041c0 <INTC_init_interrupts+0x88>
8000415a:	a1 79       	lsl	r9,0x1
8000415c:	2f f9       	sub	r9,-1
8000415e:	f0 09 03 29 	ld.w	r9,r8[r9<<0x2]
80004162:	ee f8 ff fc 	ld.w	r8,r7[-4]
80004166:	a3 68       	lsl	r8,0x2
80004168:	f2 08 00 08 	add	r8,r9,r8
8000416c:	49 69       	lddpc	r9,800041c4 <INTC_init_interrupts+0x8c>
8000416e:	91 09       	st.w	r8[0x0],r9
80004170:	ee f8 ff fc 	ld.w	r8,r7[-4]
80004174:	2f f8       	sub	r8,-1
80004176:	ef 48 ff fc 	st.w	r7[-4],r8
8000417a:	ee f9 ff f8 	ld.w	r9,r7[-8]
8000417e:	49 18       	lddpc	r8,800041c0 <INTC_init_interrupts+0x88>
80004180:	f0 09 03 39 	ld.w	r9,r8[r9<<0x3]
80004184:	ee f8 ff fc 	ld.w	r8,r7[-4]
80004188:	10 39       	cp.w	r9,r8
8000418a:	fe 9b ff e5 	brhi	80004154 <INTC_init_interrupts+0x1c>
8000418e:	fe 78 08 00 	mov	r8,-63488
80004192:	ee f9 ff f8 	ld.w	r9,r7[-8]
80004196:	48 db       	lddpc	r11,800041c8 <INTC_init_interrupts+0x90>
80004198:	48 da       	lddpc	r10,800041cc <INTC_init_interrupts+0x94>
8000419a:	f6 0a 01 0a 	sub	r10,r11,r10
8000419e:	f0 09 09 2a 	st.w	r8[r9<<0x2],r10
800041a2:	ee f8 ff f8 	ld.w	r8,r7[-8]
800041a6:	2f f8       	sub	r8,-1
800041a8:	ef 48 ff f8 	st.w	r7[-8],r8
800041ac:	ee f8 ff f8 	ld.w	r8,r7[-8]
800041b0:	59 38       	cp.w	r8,19
800041b2:	fe 98 ff cd 	brls	8000414c <INTC_init_interrupts+0x14>
800041b6:	2f ed       	sub	sp,-8
800041b8:	e3 cd 80 80 	ldm	sp++,r7,pc
800041bc:	80 00       	ld.sh	r0,r0[0x0]
800041be:	41 24       	lddsp	r4,sp[0x48]
800041c0:	80 00       	ld.sh	r0,r0[0x0]
800041c2:	c0 74       	brge	800041d0 <INTC_register_interrupt>
800041c4:	80 00       	ld.sh	r0,r0[0x0]
800041c6:	40 ac       	lddsp	r12,sp[0x28]
800041c8:	80 00       	ld.sh	r0,r0[0x0]
800041ca:	bf 04       	ld.d	r4,pc
800041cc:	80 00       	ld.sh	r0,r0[0x0]
800041ce:	be 00       	st.h	pc[0x0],r0

800041d0 <INTC_register_interrupt>:
800041d0:	eb cd 40 80 	pushm	r7,lr
800041d4:	1a 97       	mov	r7,sp
800041d6:	20 4d       	sub	sp,16
800041d8:	ef 4c ff f8 	st.w	r7[-8],r12
800041dc:	ef 4b ff f4 	st.w	r7[-12],r11
800041e0:	ef 4a ff f0 	st.w	r7[-16],r10
800041e4:	ee f8 ff f4 	ld.w	r8,r7[-12]
800041e8:	a5 98       	lsr	r8,0x5
800041ea:	ef 48 ff fc 	st.w	r7[-4],r8
800041ee:	ee f9 ff fc 	ld.w	r9,r7[-4]
800041f2:	4a 78       	lddpc	r8,8000428c <INTC_register_interrupt+0xbc>
800041f4:	a1 79       	lsl	r9,0x1
800041f6:	2f f9       	sub	r9,-1
800041f8:	f0 09 03 29 	ld.w	r9,r8[r9<<0x2]
800041fc:	ee f8 ff f4 	ld.w	r8,r7[-12]
80004200:	f1 d8 c0 05 	bfextu	r8,r8,0x0,0x5
80004204:	a3 68       	lsl	r8,0x2
80004206:	f2 08 00 08 	add	r8,r9,r8
8000420a:	ee f9 ff f8 	ld.w	r9,r7[-8]
8000420e:	91 09       	st.w	r8[0x0],r9
80004210:	ee f8 ff f0 	ld.w	r8,r7[-16]
80004214:	58 08       	cp.w	r8,0
80004216:	c0 c1       	brne	8000422e <INTC_register_interrupt+0x5e>
80004218:	fe 78 08 00 	mov	r8,-63488
8000421c:	ee f9 ff fc 	ld.w	r9,r7[-4]
80004220:	49 cb       	lddpc	r11,80004290 <INTC_register_interrupt+0xc0>
80004222:	49 da       	lddpc	r10,80004294 <INTC_register_interrupt+0xc4>
80004224:	f6 0a 01 0a 	sub	r10,r11,r10
80004228:	f0 09 09 2a 	st.w	r8[r9<<0x2],r10
8000422c:	c2 d8       	rjmp	80004286 <INTC_register_interrupt+0xb6>
8000422e:	ee f8 ff f0 	ld.w	r8,r7[-16]
80004232:	58 18       	cp.w	r8,1
80004234:	c0 d1       	brne	8000424e <INTC_register_interrupt+0x7e>
80004236:	fe 78 08 00 	mov	r8,-63488
8000423a:	ee f9 ff fc 	ld.w	r9,r7[-4]
8000423e:	49 7b       	lddpc	r11,80004298 <INTC_register_interrupt+0xc8>
80004240:	49 5a       	lddpc	r10,80004294 <INTC_register_interrupt+0xc4>
80004242:	f6 0a 01 0a 	sub	r10,r11,r10
80004246:	bf aa       	sbr	r10,0x1e
80004248:	f0 09 09 2a 	st.w	r8[r9<<0x2],r10
8000424c:	c1 d8       	rjmp	80004286 <INTC_register_interrupt+0xb6>
8000424e:	ee f8 ff f0 	ld.w	r8,r7[-16]
80004252:	58 28       	cp.w	r8,2
80004254:	c0 d1       	brne	8000426e <INTC_register_interrupt+0x9e>
80004256:	fe 78 08 00 	mov	r8,-63488
8000425a:	ee f9 ff fc 	ld.w	r9,r7[-4]
8000425e:	49 0b       	lddpc	r11,8000429c <INTC_register_interrupt+0xcc>
80004260:	48 da       	lddpc	r10,80004294 <INTC_register_interrupt+0xc4>
80004262:	f6 0a 01 0a 	sub	r10,r11,r10
80004266:	bf ba       	sbr	r10,0x1f
80004268:	f0 09 09 2a 	st.w	r8[r9<<0x2],r10
8000426c:	c0 d8       	rjmp	80004286 <INTC_register_interrupt+0xb6>
8000426e:	fe 78 08 00 	mov	r8,-63488
80004272:	ee f9 ff fc 	ld.w	r9,r7[-4]
80004276:	48 bb       	lddpc	r11,800042a0 <INTC_register_interrupt+0xd0>
80004278:	48 7a       	lddpc	r10,80004294 <INTC_register_interrupt+0xc4>
8000427a:	f6 0a 01 0a 	sub	r10,r11,r10
8000427e:	ea 1a c0 00 	orh	r10,0xc000
80004282:	f0 09 09 2a 	st.w	r8[r9<<0x2],r10
80004286:	2f cd       	sub	sp,-16
80004288:	e3 cd 80 80 	ldm	sp++,r7,pc
8000428c:	80 00       	ld.sh	r0,r0[0x0]
8000428e:	c0 74       	brge	8000429c <INTC_register_interrupt+0xcc>
80004290:	80 00       	ld.sh	r0,r0[0x0]
80004292:	bf 04       	ld.d	r4,pc
80004294:	80 00       	ld.sh	r0,r0[0x0]
80004296:	be 00       	st.h	pc[0x0],r0
80004298:	80 00       	ld.sh	r0,r0[0x0]
8000429a:	bf 12       	ld.d	r2,--pc
8000429c:	80 00       	ld.sh	r0,r0[0x0]
8000429e:	bf 20       	st.d	pc++,r0
800042a0:	80 00       	ld.sh	r0,r0[0x0]
800042a2:	bf 2e       	st.d	pc++,lr

800042a4 <pm_set_osc0_mode>:
800042a4:	eb cd 40 80 	pushm	r7,lr
800042a8:	1a 97       	mov	r7,sp
800042aa:	20 3d       	sub	sp,12
800042ac:	ef 4c ff f8 	st.w	r7[-8],r12
800042b0:	ef 4b ff f4 	st.w	r7[-12],r11
800042b4:	ee f8 ff f8 	ld.w	r8,r7[-8]
800042b8:	70 a8       	ld.w	r8,r8[0x28]
800042ba:	30 09       	mov	r9,0
800042bc:	ef 49 ff fc 	st.w	r7[-4],r9
800042c0:	ef 48 ff fc 	st.w	r7[-4],r8
800042c4:	ee f8 ff f4 	ld.w	r8,r7[-12]
800042c8:	5c 58       	castu.b	r8
800042ca:	f1 d8 c0 03 	bfextu	r8,r8,0x0,0x3
800042ce:	f3 d8 c0 08 	bfextu	r9,r8,0x0,0x8
800042d2:	ee f8 ff fc 	ld.w	r8,r7[-4]
800042d6:	f1 d9 d0 03 	bfins	r8,r9,0x0,0x3
800042da:	ef 48 ff fc 	st.w	r7[-4],r8
800042de:	ee f9 ff fc 	ld.w	r9,r7[-4]
800042e2:	ee f8 ff f8 	ld.w	r8,r7[-8]
800042e6:	91 a9       	st.w	r8[0x28],r9
800042e8:	2f dd       	sub	sp,-12
800042ea:	e3 cd 80 80 	ldm	sp++,r7,pc
800042ee:	d7 03       	nop

800042f0 <pm_enable_osc0_crystal>:
800042f0:	eb cd 40 80 	pushm	r7,lr
800042f4:	1a 97       	mov	r7,sp
800042f6:	20 2d       	sub	sp,8
800042f8:	ef 4c ff fc 	st.w	r7[-4],r12
800042fc:	ef 4b ff f8 	st.w	r7[-8],r11
80004300:	ee f8 ff f8 	ld.w	r8,r7[-8]
80004304:	ec 58 bb 9f 	cp.w	r8,899999
80004308:	e0 88 00 1a 	brls	8000433c <pm_enable_osc0_crystal+0x4c>
8000430c:	ee f8 ff f8 	ld.w	r8,r7[-8]
80004310:	e0 69 c6 bf 	mov	r9,50879
80004314:	ea 19 00 2d 	orh	r9,0x2d
80004318:	12 38       	cp.w	r8,r9
8000431a:	e0 88 00 0f 	brls	80004338 <pm_enable_osc0_crystal+0x48>
8000431e:	ee f8 ff f8 	ld.w	r8,r7[-8]
80004322:	e0 69 11 ff 	mov	r9,4607
80004326:	ea 19 00 7a 	orh	r9,0x7a
8000432a:	12 38       	cp.w	r8,r9
8000432c:	e0 8b 00 04 	brhi	80004334 <pm_enable_osc0_crystal+0x44>
80004330:	30 68       	mov	r8,6
80004332:	c0 28       	rjmp	80004336 <pm_enable_osc0_crystal+0x46>
80004334:	30 78       	mov	r8,7
80004336:	c0 28       	rjmp	8000433a <pm_enable_osc0_crystal+0x4a>
80004338:	30 58       	mov	r8,5
8000433a:	c0 28       	rjmp	8000433e <pm_enable_osc0_crystal+0x4e>
8000433c:	30 48       	mov	r8,4
8000433e:	10 9b       	mov	r11,r8
80004340:	ee fc ff fc 	ld.w	r12,r7[-4]
80004344:	f0 1f 00 03 	mcall	80004350 <pm_enable_osc0_crystal+0x60>
80004348:	2f ed       	sub	sp,-8
8000434a:	e3 cd 80 80 	ldm	sp++,r7,pc
8000434e:	00 00       	add	r0,r0
80004350:	80 00       	ld.sh	r0,r0[0x0]
80004352:	42 a4       	lddsp	r4,sp[0xa8]

80004354 <pm_enable_clk0>:
80004354:	eb cd 40 80 	pushm	r7,lr
80004358:	1a 97       	mov	r7,sp
8000435a:	20 2d       	sub	sp,8
8000435c:	ef 4c ff fc 	st.w	r7[-4],r12
80004360:	ef 4b ff f8 	st.w	r7[-8],r11
80004364:	ee fb ff f8 	ld.w	r11,r7[-8]
80004368:	ee fc ff fc 	ld.w	r12,r7[-4]
8000436c:	f0 1f 00 05 	mcall	80004380 <pm_enable_clk0+0x2c>
80004370:	ee fc ff fc 	ld.w	r12,r7[-4]
80004374:	f0 1f 00 04 	mcall	80004384 <pm_enable_clk0+0x30>
80004378:	2f ed       	sub	sp,-8
8000437a:	e3 cd 80 80 	ldm	sp++,r7,pc
8000437e:	00 00       	add	r0,r0
80004380:	80 00       	ld.sh	r0,r0[0x0]
80004382:	43 88       	lddsp	r8,sp[0xe0]
80004384:	80 00       	ld.sh	r0,r0[0x0]
80004386:	43 e2       	lddsp	r2,sp[0xf8]

80004388 <pm_enable_clk0_no_wait>:
80004388:	eb cd 40 80 	pushm	r7,lr
8000438c:	1a 97       	mov	r7,sp
8000438e:	20 3d       	sub	sp,12
80004390:	ef 4c ff f8 	st.w	r7[-8],r12
80004394:	ef 4b ff f4 	st.w	r7[-12],r11
80004398:	ee f8 ff f8 	ld.w	r8,r7[-8]
8000439c:	70 a8       	ld.w	r8,r8[0x28]
8000439e:	30 09       	mov	r9,0
800043a0:	ef 49 ff fc 	st.w	r7[-4],r9
800043a4:	ef 48 ff fc 	st.w	r7[-4],r8
800043a8:	ee f8 ff f4 	ld.w	r8,r7[-12]
800043ac:	5c 58       	castu.b	r8
800043ae:	f1 d8 c0 03 	bfextu	r8,r8,0x0,0x3
800043b2:	f3 d8 c0 08 	bfextu	r9,r8,0x0,0x8
800043b6:	ee f8 ff fc 	ld.w	r8,r7[-4]
800043ba:	f1 d9 d1 03 	bfins	r8,r9,0x8,0x3
800043be:	ef 48 ff fc 	st.w	r7[-4],r8
800043c2:	ee f9 ff fc 	ld.w	r9,r7[-4]
800043c6:	ee f8 ff f8 	ld.w	r8,r7[-8]
800043ca:	91 a9       	st.w	r8[0x28],r9
800043cc:	ee f8 ff f8 	ld.w	r8,r7[-8]
800043d0:	70 08       	ld.w	r8,r8[0x0]
800043d2:	10 99       	mov	r9,r8
800043d4:	a3 a9       	sbr	r9,0x2
800043d6:	ee f8 ff f8 	ld.w	r8,r7[-8]
800043da:	91 09       	st.w	r8[0x0],r9
800043dc:	2f dd       	sub	sp,-12
800043de:	e3 cd 80 80 	ldm	sp++,r7,pc

800043e2 <pm_wait_for_clk0_ready>:
800043e2:	eb cd 40 80 	pushm	r7,lr
800043e6:	1a 97       	mov	r7,sp
800043e8:	20 1d       	sub	sp,4
800043ea:	ef 4c ff fc 	st.w	r7[-4],r12
800043ee:	ee f8 ff fc 	ld.w	r8,r7[-4]
800043f2:	71 58       	ld.w	r8,r8[0x54]
800043f4:	e2 18 00 80 	andl	r8,0x80,COH
800043f8:	cf b0       	breq	800043ee <pm_wait_for_clk0_ready+0xc>
800043fa:	2f fd       	sub	sp,-4
800043fc:	e3 cd 80 80 	ldm	sp++,r7,pc

80004400 <pm_switch_to_clock>:
80004400:	eb cd 40 80 	pushm	r7,lr
80004404:	1a 97       	mov	r7,sp
80004406:	20 3d       	sub	sp,12
80004408:	ef 4c ff f8 	st.w	r7[-8],r12
8000440c:	ef 4b ff f4 	st.w	r7[-12],r11
80004410:	ee f8 ff f8 	ld.w	r8,r7[-8]
80004414:	70 08       	ld.w	r8,r8[0x0]
80004416:	30 09       	mov	r9,0
80004418:	ef 49 ff fc 	st.w	r7[-4],r9
8000441c:	ef 48 ff fc 	st.w	r7[-4],r8
80004420:	ee f8 ff f4 	ld.w	r8,r7[-12]
80004424:	5c 58       	castu.b	r8
80004426:	f1 d8 c0 02 	bfextu	r8,r8,0x0,0x2
8000442a:	f3 d8 c0 08 	bfextu	r9,r8,0x0,0x8
8000442e:	ee f8 ff fc 	ld.w	r8,r7[-4]
80004432:	f1 d9 d0 02 	bfins	r8,r9,0x0,0x2
80004436:	ef 48 ff fc 	st.w	r7[-4],r8
8000443a:	ee f9 ff fc 	ld.w	r9,r7[-4]
8000443e:	ee f8 ff f8 	ld.w	r8,r7[-8]
80004442:	91 09       	st.w	r8[0x0],r9
80004444:	2f dd       	sub	sp,-12
80004446:	e3 cd 80 80 	ldm	sp++,r7,pc
8000444a:	d7 03       	nop

8000444c <pm_switch_to_osc0>:
8000444c:	eb cd 40 80 	pushm	r7,lr
80004450:	1a 97       	mov	r7,sp
80004452:	20 3d       	sub	sp,12
80004454:	ef 4c ff fc 	st.w	r7[-4],r12
80004458:	ef 4b ff f8 	st.w	r7[-8],r11
8000445c:	ef 4a ff f4 	st.w	r7[-12],r10
80004460:	ee fb ff f8 	ld.w	r11,r7[-8]
80004464:	ee fc ff fc 	ld.w	r12,r7[-4]
80004468:	f0 1f 00 08 	mcall	80004488 <pm_switch_to_osc0+0x3c>
8000446c:	ee fb ff f4 	ld.w	r11,r7[-12]
80004470:	ee fc ff fc 	ld.w	r12,r7[-4]
80004474:	f0 1f 00 06 	mcall	8000448c <pm_switch_to_osc0+0x40>
80004478:	30 1b       	mov	r11,1
8000447a:	ee fc ff fc 	ld.w	r12,r7[-4]
8000447e:	f0 1f 00 05 	mcall	80004490 <pm_switch_to_osc0+0x44>
80004482:	2f dd       	sub	sp,-12
80004484:	e3 cd 80 80 	ldm	sp++,r7,pc
80004488:	80 00       	ld.sh	r0,r0[0x0]
8000448a:	42 f0       	lddsp	r0,sp[0xbc]
8000448c:	80 00       	ld.sh	r0,r0[0x0]
8000448e:	43 54       	lddsp	r4,sp[0xd4]
80004490:	80 00       	ld.sh	r0,r0[0x0]
80004492:	44 00       	lddsp	r0,sp[0x100]

80004494 <cpu_irq_is_enabled_flags>:
80004494:	eb cd 40 80 	pushm	r7,lr
80004498:	1a 97       	mov	r7,sp
8000449a:	20 1d       	sub	sp,4
8000449c:	ef 4c ff fc 	st.w	r7[-4],r12
800044a0:	ee f8 ff fc 	ld.w	r8,r7[-4]
800044a4:	e6 18 00 01 	andh	r8,0x1,COH
800044a8:	5f 08       	sreq	r8
800044aa:	5c 58       	castu.b	r8
800044ac:	10 9c       	mov	r12,r8
800044ae:	2f fd       	sub	sp,-4
800044b0:	e3 cd 80 80 	ldm	sp++,r7,pc

800044b4 <usart_set_async_baudrate>:
800044b4:	eb cd 40 80 	pushm	r7,lr
800044b8:	1a 97       	mov	r7,sp
800044ba:	20 7d       	sub	sp,28
800044bc:	ef 4c ff ec 	st.w	r7[-20],r12
800044c0:	ef 4b ff e8 	st.w	r7[-24],r11
800044c4:	ef 4a ff e4 	st.w	r7[-28],r10
800044c8:	ee f8 ff e8 	ld.w	r8,r7[-24]
800044cc:	f0 09 15 04 	lsl	r9,r8,0x4
800044d0:	ee f8 ff e4 	ld.w	r8,r7[-28]
800044d4:	10 39       	cp.w	r9,r8
800044d6:	e0 8b 00 04 	brhi	800044de <usart_set_async_baudrate+0x2a>
800044da:	31 08       	mov	r8,16
800044dc:	c0 28       	rjmp	800044e0 <usart_set_async_baudrate+0x2c>
800044de:	30 88       	mov	r8,8
800044e0:	ef 48 ff f0 	st.w	r7[-16],r8
800044e4:	ee f8 ff e4 	ld.w	r8,r7[-28]
800044e8:	f0 09 15 03 	lsl	r9,r8,0x3
800044ec:	ee fa ff f0 	ld.w	r10,r7[-16]
800044f0:	ee f8 ff e8 	ld.w	r8,r7[-24]
800044f4:	f4 08 02 48 	mul	r8,r10,r8
800044f8:	a1 98       	lsr	r8,0x1
800044fa:	f2 08 00 08 	add	r8,r9,r8
800044fe:	ee fa ff f0 	ld.w	r10,r7[-16]
80004502:	ee f9 ff e8 	ld.w	r9,r7[-24]
80004506:	f4 09 02 49 	mul	r9,r10,r9
8000450a:	f0 09 0d 08 	divu	r8,r8,r9
8000450e:	ef 48 ff f4 	st.w	r7[-12],r8
80004512:	ee f8 ff f4 	ld.w	r8,r7[-12]
80004516:	a3 98       	lsr	r8,0x3
80004518:	ef 48 ff f8 	st.w	r7[-8],r8
8000451c:	ee f8 ff f4 	ld.w	r8,r7[-12]
80004520:	f1 d8 c0 03 	bfextu	r8,r8,0x0,0x3
80004524:	ef 48 ff fc 	st.w	r7[-4],r8
80004528:	ee f8 ff f8 	ld.w	r8,r7[-8]
8000452c:	58 08       	cp.w	r8,0
8000452e:	c0 70       	breq	8000453c <usart_set_async_baudrate+0x88>
80004530:	ee f8 ff f8 	ld.w	r8,r7[-8]
80004534:	e0 48 ff ff 	cp.w	r8,65535
80004538:	e0 88 00 04 	brls	80004540 <usart_set_async_baudrate+0x8c>
8000453c:	30 18       	mov	r8,1
8000453e:	c2 08       	rjmp	8000457e <usart_set_async_baudrate+0xca>
80004540:	ee f8 ff ec 	ld.w	r8,r7[-20]
80004544:	70 18       	ld.w	r8,r8[0x4]
80004546:	10 99       	mov	r9,r8
80004548:	e4 19 ff f7 	andh	r9,0xfff7
8000454c:	e0 19 fe cf 	andl	r9,0xfecf
80004550:	ee f8 ff f0 	ld.w	r8,r7[-16]
80004554:	59 08       	cp.w	r8,16
80004556:	c0 40       	breq	8000455e <usart_set_async_baudrate+0xaa>
80004558:	e8 68 00 00 	mov	r8,524288
8000455c:	c0 28       	rjmp	80004560 <usart_set_async_baudrate+0xac>
8000455e:	30 08       	mov	r8,0
80004560:	10 49       	or	r9,r8
80004562:	ee f8 ff ec 	ld.w	r8,r7[-20]
80004566:	91 19       	st.w	r8[0x4],r9
80004568:	ee f8 ff fc 	ld.w	r8,r7[-4]
8000456c:	f0 09 15 10 	lsl	r9,r8,0x10
80004570:	ee f8 ff f8 	ld.w	r8,r7[-8]
80004574:	10 49       	or	r9,r8
80004576:	ee f8 ff ec 	ld.w	r8,r7[-20]
8000457a:	91 89       	st.w	r8[0x20],r9
8000457c:	30 08       	mov	r8,0
8000457e:	10 9c       	mov	r12,r8
80004580:	2f 9d       	sub	sp,-28
80004582:	e3 cd 80 80 	ldm	sp++,r7,pc
80004586:	d7 03       	nop

80004588 <usart_reset>:
80004588:	eb cd 40 80 	pushm	r7,lr
8000458c:	1a 97       	mov	r7,sp
8000458e:	20 2d       	sub	sp,8
80004590:	ef 4c ff f8 	st.w	r7[-8],r12
80004594:	e1 b8 00 00 	mfsr	r8,0x0
80004598:	10 9c       	mov	r12,r8
8000459a:	f0 1f 00 18 	mcall	800045f8 <usart_reset+0x70>
8000459e:	18 98       	mov	r8,r12
800045a0:	ef 68 ff ff 	st.b	r7[-1],r8
800045a4:	ef 39 ff ff 	ld.ub	r9,r7[-1]
800045a8:	30 08       	mov	r8,0
800045aa:	f0 09 18 00 	cp.b	r9,r8
800045ae:	c0 20       	breq	800045b2 <usart_reset+0x2a>
800045b0:	d3 03       	ssrf	0x10
800045b2:	ee f8 ff f8 	ld.w	r8,r7[-8]
800045b6:	3f f9       	mov	r9,-1
800045b8:	91 39       	st.w	r8[0xc],r9
800045ba:	ee f8 ff f8 	ld.w	r8,r7[-8]
800045be:	70 58       	ld.w	r8,r8[0x14]
800045c0:	ef 39 ff ff 	ld.ub	r9,r7[-1]
800045c4:	30 08       	mov	r8,0
800045c6:	f0 09 18 00 	cp.b	r9,r8
800045ca:	c0 20       	breq	800045ce <usart_reset+0x46>
800045cc:	d5 03       	csrf	0x10
800045ce:	ee f8 ff f8 	ld.w	r8,r7[-8]
800045d2:	30 09       	mov	r9,0
800045d4:	91 19       	st.w	r8[0x4],r9
800045d6:	ee f8 ff f8 	ld.w	r8,r7[-8]
800045da:	30 09       	mov	r9,0
800045dc:	91 99       	st.w	r8[0x24],r9
800045de:	ee f8 ff f8 	ld.w	r8,r7[-8]
800045e2:	30 09       	mov	r9,0
800045e4:	91 a9       	st.w	r8[0x28],r9
800045e6:	ee f8 ff f8 	ld.w	r8,r7[-8]
800045ea:	ea 69 61 0c 	mov	r9,680204
800045ee:	91 09       	st.w	r8[0x0],r9
800045f0:	2f ed       	sub	sp,-8
800045f2:	e3 cd 80 80 	ldm	sp++,r7,pc
800045f6:	00 00       	add	r0,r0
800045f8:	80 00       	ld.sh	r0,r0[0x0]
800045fa:	44 94       	lddsp	r4,sp[0x124]

800045fc <usart_init_rs232>:
800045fc:	eb cd 40 80 	pushm	r7,lr
80004600:	1a 97       	mov	r7,sp
80004602:	20 3d       	sub	sp,12
80004604:	ef 4c ff fc 	st.w	r7[-4],r12
80004608:	ef 4b ff f8 	st.w	r7[-8],r11
8000460c:	ef 4a ff f4 	st.w	r7[-12],r10
80004610:	ee fc ff fc 	ld.w	r12,r7[-4]
80004614:	f0 1f 00 54 	mcall	80004764 <usart_init_rs232+0x168>
80004618:	ee f8 ff f8 	ld.w	r8,r7[-8]
8000461c:	58 08       	cp.w	r8,0
8000461e:	c3 90       	breq	80004690 <usart_init_rs232+0x94>
80004620:	ee f8 ff f8 	ld.w	r8,r7[-8]
80004624:	11 c9       	ld.ub	r9,r8[0x4]
80004626:	30 48       	mov	r8,4
80004628:	f0 09 18 00 	cp.b	r9,r8
8000462c:	e0 88 00 32 	brls	80004690 <usart_init_rs232+0x94>
80004630:	ee f8 ff f8 	ld.w	r8,r7[-8]
80004634:	11 c9       	ld.ub	r9,r8[0x4]
80004636:	30 98       	mov	r8,9
80004638:	f0 09 18 00 	cp.b	r9,r8
8000463c:	e0 8b 00 2a 	brhi	80004690 <usart_init_rs232+0x94>
80004640:	ee f8 ff f8 	ld.w	r8,r7[-8]
80004644:	11 d9       	ld.ub	r9,r8[0x5]
80004646:	30 78       	mov	r8,7
80004648:	f0 09 18 00 	cp.b	r9,r8
8000464c:	e0 8b 00 22 	brhi	80004690 <usart_init_rs232+0x94>
80004650:	ee f8 ff f8 	ld.w	r8,r7[-8]
80004654:	90 39       	ld.sh	r9,r8[0x6]
80004656:	e0 68 01 01 	mov	r8,257
8000465a:	f0 09 19 00 	cp.h	r9,r8
8000465e:	e0 8b 00 19 	brhi	80004690 <usart_init_rs232+0x94>
80004662:	ee f8 ff f8 	ld.w	r8,r7[-8]
80004666:	f1 39 00 08 	ld.ub	r9,r8[8]
8000466a:	30 38       	mov	r8,3
8000466c:	f0 09 18 00 	cp.b	r9,r8
80004670:	e0 8b 00 10 	brhi	80004690 <usart_init_rs232+0x94>
80004674:	ee f9 ff f4 	ld.w	r9,r7[-12]
80004678:	ee f8 ff f8 	ld.w	r8,r7[-8]
8000467c:	70 08       	ld.w	r8,r8[0x0]
8000467e:	12 9a       	mov	r10,r9
80004680:	10 9b       	mov	r11,r8
80004682:	ee fc ff fc 	ld.w	r12,r7[-4]
80004686:	f0 1f 00 39 	mcall	80004768 <usart_init_rs232+0x16c>
8000468a:	18 98       	mov	r8,r12
8000468c:	58 18       	cp.w	r8,1
8000468e:	c0 31       	brne	80004694 <usart_init_rs232+0x98>
80004690:	30 18       	mov	r8,1
80004692:	c6 48       	rjmp	8000475a <usart_init_rs232+0x15e>
80004694:	ee f8 ff f8 	ld.w	r8,r7[-8]
80004698:	11 c9       	ld.ub	r9,r8[0x4]
8000469a:	30 98       	mov	r8,9
8000469c:	f0 09 18 00 	cp.b	r9,r8
800046a0:	c0 a1       	brne	800046b4 <usart_init_rs232+0xb8>
800046a2:	ee f8 ff fc 	ld.w	r8,r7[-4]
800046a6:	70 18       	ld.w	r8,r8[0x4]
800046a8:	10 99       	mov	r9,r8
800046aa:	b1 b9       	sbr	r9,0x11
800046ac:	ee f8 ff fc 	ld.w	r8,r7[-4]
800046b0:	91 19       	st.w	r8[0x4],r9
800046b2:	c0 d8       	rjmp	800046cc <usart_init_rs232+0xd0>
800046b4:	ee f8 ff fc 	ld.w	r8,r7[-4]
800046b8:	70 19       	ld.w	r9,r8[0x4]
800046ba:	ee f8 ff f8 	ld.w	r8,r7[-8]
800046be:	11 c8       	ld.ub	r8,r8[0x4]
800046c0:	20 58       	sub	r8,5
800046c2:	a7 68       	lsl	r8,0x6
800046c4:	10 49       	or	r9,r8
800046c6:	ee f8 ff fc 	ld.w	r8,r7[-4]
800046ca:	91 19       	st.w	r8[0x4],r9
800046cc:	ee f8 ff fc 	ld.w	r8,r7[-4]
800046d0:	70 19       	ld.w	r9,r8[0x4]
800046d2:	ee f8 ff f8 	ld.w	r8,r7[-8]
800046d6:	11 d8       	ld.ub	r8,r8[0x5]
800046d8:	f0 0a 15 09 	lsl	r10,r8,0x9
800046dc:	ee f8 ff f8 	ld.w	r8,r7[-8]
800046e0:	f1 38 00 08 	ld.ub	r8,r8[8]
800046e4:	af 68       	lsl	r8,0xe
800046e6:	f5 e8 10 08 	or	r8,r10,r8
800046ea:	10 49       	or	r9,r8
800046ec:	ee f8 ff fc 	ld.w	r8,r7[-4]
800046f0:	91 19       	st.w	r8[0x4],r9
800046f2:	ee f8 ff f8 	ld.w	r8,r7[-8]
800046f6:	90 39       	ld.sh	r9,r8[0x6]
800046f8:	30 28       	mov	r8,2
800046fa:	f0 09 19 00 	cp.h	r9,r8
800046fe:	e0 88 00 14 	brls	80004726 <usart_init_rs232+0x12a>
80004702:	ee f8 ff fc 	ld.w	r8,r7[-4]
80004706:	70 18       	ld.w	r8,r8[0x4]
80004708:	10 99       	mov	r9,r8
8000470a:	ad b9       	sbr	r9,0xd
8000470c:	ee f8 ff fc 	ld.w	r8,r7[-4]
80004710:	91 19       	st.w	r8[0x4],r9
80004712:	ee f8 ff f8 	ld.w	r8,r7[-8]
80004716:	90 38       	ld.sh	r8,r8[0x6]
80004718:	5c 78       	castu.h	r8
8000471a:	20 28       	sub	r8,2
8000471c:	10 99       	mov	r9,r8
8000471e:	ee f8 ff fc 	ld.w	r8,r7[-4]
80004722:	91 a9       	st.w	r8[0x28],r9
80004724:	c0 d8       	rjmp	8000473e <usart_init_rs232+0x142>
80004726:	ee f8 ff fc 	ld.w	r8,r7[-4]
8000472a:	70 19       	ld.w	r9,r8[0x4]
8000472c:	ee f8 ff f8 	ld.w	r8,r7[-8]
80004730:	90 38       	ld.sh	r8,r8[0x6]
80004732:	5c 78       	castu.h	r8
80004734:	ad 68       	lsl	r8,0xc
80004736:	10 49       	or	r9,r8
80004738:	ee f8 ff fc 	ld.w	r8,r7[-4]
8000473c:	91 19       	st.w	r8[0x4],r9
8000473e:	ee f8 ff fc 	ld.w	r8,r7[-4]
80004742:	70 18       	ld.w	r8,r8[0x4]
80004744:	10 99       	mov	r9,r8
80004746:	e0 19 ff f0 	andl	r9,0xfff0
8000474a:	ee f8 ff fc 	ld.w	r8,r7[-4]
8000474e:	91 19       	st.w	r8[0x4],r9
80004750:	ee f8 ff fc 	ld.w	r8,r7[-4]
80004754:	35 09       	mov	r9,80
80004756:	91 09       	st.w	r8[0x0],r9
80004758:	30 08       	mov	r8,0
8000475a:	10 9c       	mov	r12,r8
8000475c:	2f dd       	sub	sp,-12
8000475e:	e3 cd 80 80 	ldm	sp++,r7,pc
80004762:	00 00       	add	r0,r0
80004764:	80 00       	ld.sh	r0,r0[0x0]
80004766:	45 88       	lddsp	r8,sp[0x160]
80004768:	80 00       	ld.sh	r0,r0[0x0]
8000476a:	44 b4       	lddsp	r4,sp[0x12c]

8000476c <usart_write_char>:
8000476c:	eb cd 40 80 	pushm	r7,lr
80004770:	1a 97       	mov	r7,sp
80004772:	20 3d       	sub	sp,12
80004774:	ef 4c ff f8 	st.w	r7[-8],r12
80004778:	ef 4b ff f4 	st.w	r7[-12],r11
8000477c:	ee f8 ff f8 	ld.w	r8,r7[-8]
80004780:	ef 48 ff fc 	st.w	r7[-4],r8
80004784:	ee f8 ff fc 	ld.w	r8,r7[-4]
80004788:	70 58       	ld.w	r8,r8[0x14]
8000478a:	e2 18 00 02 	andl	r8,0x2,COH
8000478e:	5f 18       	srne	r8
80004790:	58 08       	cp.w	r8,0
80004792:	c0 a0       	breq	800047a6 <usart_write_char+0x3a>
80004794:	ee f8 ff f4 	ld.w	r8,r7[-12]
80004798:	f3 d8 c0 09 	bfextu	r9,r8,0x0,0x9
8000479c:	ee f8 ff f8 	ld.w	r8,r7[-8]
800047a0:	91 79       	st.w	r8[0x1c],r9
800047a2:	30 08       	mov	r8,0
800047a4:	c0 28       	rjmp	800047a8 <usart_write_char+0x3c>
800047a6:	30 28       	mov	r8,2
800047a8:	10 9c       	mov	r12,r8
800047aa:	2f dd       	sub	sp,-12
800047ac:	e3 cd 80 80 	ldm	sp++,r7,pc

800047b0 <usart_putchar>:
800047b0:	eb cd 40 80 	pushm	r7,lr
800047b4:	1a 97       	mov	r7,sp
800047b6:	20 3d       	sub	sp,12
800047b8:	ef 4c ff f8 	st.w	r7[-8],r12
800047bc:	ef 4b ff f4 	st.w	r7[-12],r11
800047c0:	e0 68 27 10 	mov	r8,10000
800047c4:	ef 48 ff fc 	st.w	r7[-4],r8
800047c8:	ee f8 ff fc 	ld.w	r8,r7[-4]
800047cc:	58 08       	cp.w	r8,0
800047ce:	5f 08       	sreq	r8
800047d0:	5c 58       	castu.b	r8
800047d2:	ee f9 ff fc 	ld.w	r9,r7[-4]
800047d6:	20 19       	sub	r9,1
800047d8:	ef 49 ff fc 	st.w	r7[-4],r9
800047dc:	58 08       	cp.w	r8,0
800047de:	c0 30       	breq	800047e4 <usart_putchar+0x34>
800047e0:	3f f8       	mov	r8,-1
800047e2:	c0 b8       	rjmp	800047f8 <usart_putchar+0x48>
800047e4:	ee fb ff f4 	ld.w	r11,r7[-12]
800047e8:	ee fc ff f8 	ld.w	r12,r7[-8]
800047ec:	f0 1f 00 05 	mcall	80004800 <usart_putchar+0x50>
800047f0:	18 98       	mov	r8,r12
800047f2:	58 08       	cp.w	r8,0
800047f4:	ce a1       	brne	800047c8 <usart_putchar+0x18>
800047f6:	30 08       	mov	r8,0
800047f8:	10 9c       	mov	r12,r8
800047fa:	2f dd       	sub	sp,-12
800047fc:	e3 cd 80 80 	ldm	sp++,r7,pc
80004800:	80 00       	ld.sh	r0,r0[0x0]
80004802:	47 6c       	lddsp	r12,sp[0x1d8]

80004804 <usart_read_char>:
80004804:	eb cd 40 80 	pushm	r7,lr
80004808:	1a 97       	mov	r7,sp
8000480a:	20 3d       	sub	sp,12
8000480c:	ef 4c ff f8 	st.w	r7[-8],r12
80004810:	ef 4b ff f4 	st.w	r7[-12],r11
80004814:	ee f8 ff f8 	ld.w	r8,r7[-8]
80004818:	70 58       	ld.w	r8,r8[0x14]
8000481a:	e2 18 00 e0 	andl	r8,0xe0,COH
8000481e:	c0 30       	breq	80004824 <usart_read_char+0x20>
80004820:	30 48       	mov	r8,4
80004822:	c1 68       	rjmp	8000484e <usart_read_char+0x4a>
80004824:	ee f8 ff f8 	ld.w	r8,r7[-8]
80004828:	ef 48 ff fc 	st.w	r7[-4],r8
8000482c:	ee f8 ff fc 	ld.w	r8,r7[-4]
80004830:	70 58       	ld.w	r8,r8[0x14]
80004832:	f1 d8 c0 01 	bfextu	r8,r8,0x0,0x1
80004836:	c0 b0       	breq	8000484c <usart_read_char+0x48>
80004838:	ee f8 ff f8 	ld.w	r8,r7[-8]
8000483c:	70 68       	ld.w	r8,r8[0x18]
8000483e:	f3 d8 c0 09 	bfextu	r9,r8,0x0,0x9
80004842:	ee f8 ff f4 	ld.w	r8,r7[-12]
80004846:	91 09       	st.w	r8[0x0],r9
80004848:	30 08       	mov	r8,0
8000484a:	c0 28       	rjmp	8000484e <usart_read_char+0x4a>
8000484c:	30 38       	mov	r8,3
8000484e:	10 9c       	mov	r12,r8
80004850:	2f dd       	sub	sp,-12
80004852:	e3 cd 80 80 	ldm	sp++,r7,pc
80004856:	d7 03       	nop

80004858 <usart_getchar>:
80004858:	eb cd 40 80 	pushm	r7,lr
8000485c:	1a 97       	mov	r7,sp
8000485e:	20 3d       	sub	sp,12
80004860:	ef 4c ff f4 	st.w	r7[-12],r12
80004864:	ee c8 00 08 	sub	r8,r7,8
80004868:	10 9b       	mov	r11,r8
8000486a:	ee fc ff f4 	ld.w	r12,r7[-12]
8000486e:	f0 1f 00 0b 	mcall	80004898 <usart_getchar+0x40>
80004872:	18 98       	mov	r8,r12
80004874:	ef 48 ff fc 	st.w	r7[-4],r8
80004878:	ee f8 ff fc 	ld.w	r8,r7[-4]
8000487c:	58 38       	cp.w	r8,3
8000487e:	cf 30       	breq	80004864 <usart_getchar+0xc>
80004880:	ee f8 ff fc 	ld.w	r8,r7[-4]
80004884:	58 48       	cp.w	r8,4
80004886:	c0 31       	brne	8000488c <usart_getchar+0x34>
80004888:	3f f8       	mov	r8,-1
8000488a:	c0 38       	rjmp	80004890 <usart_getchar+0x38>
8000488c:	ee f8 ff f8 	ld.w	r8,r7[-8]
80004890:	10 9c       	mov	r12,r8
80004892:	2f dd       	sub	sp,-12
80004894:	e3 cd 80 80 	ldm	sp++,r7,pc
80004898:	80 00       	ld.sh	r0,r0[0x0]
8000489a:	48 04       	lddpc	r4,80004898 <usart_getchar+0x40>

8000489c <vListInitialise>:
8000489c:	eb cd 40 80 	pushm	r7,lr
800048a0:	1a 97       	mov	r7,sp
800048a2:	20 1d       	sub	sp,4
800048a4:	ef 4c ff fc 	st.w	r7[-4],r12
800048a8:	ee f8 ff fc 	ld.w	r8,r7[-4]
800048ac:	2f 88       	sub	r8,-8
800048ae:	10 99       	mov	r9,r8
800048b0:	ee f8 ff fc 	ld.w	r8,r7[-4]
800048b4:	91 19       	st.w	r8[0x4],r9
800048b6:	ee f8 ff fc 	ld.w	r8,r7[-4]
800048ba:	3f f9       	mov	r9,-1
800048bc:	91 29       	st.w	r8[0x8],r9
800048be:	ee f8 ff fc 	ld.w	r8,r7[-4]
800048c2:	2f 88       	sub	r8,-8
800048c4:	10 99       	mov	r9,r8
800048c6:	ee f8 ff fc 	ld.w	r8,r7[-4]
800048ca:	91 39       	st.w	r8[0xc],r9
800048cc:	ee f8 ff fc 	ld.w	r8,r7[-4]
800048d0:	2f 88       	sub	r8,-8
800048d2:	10 99       	mov	r9,r8
800048d4:	ee f8 ff fc 	ld.w	r8,r7[-4]
800048d8:	91 49       	st.w	r8[0x10],r9
800048da:	ee f8 ff fc 	ld.w	r8,r7[-4]
800048de:	30 09       	mov	r9,0
800048e0:	91 09       	st.w	r8[0x0],r9
800048e2:	2f fd       	sub	sp,-4
800048e4:	e3 cd 80 80 	ldm	sp++,r7,pc

800048e8 <vListInitialiseItem>:
800048e8:	eb cd 40 80 	pushm	r7,lr
800048ec:	1a 97       	mov	r7,sp
800048ee:	20 1d       	sub	sp,4
800048f0:	ef 4c ff fc 	st.w	r7[-4],r12
800048f4:	ee f8 ff fc 	ld.w	r8,r7[-4]
800048f8:	30 09       	mov	r9,0
800048fa:	91 49       	st.w	r8[0x10],r9
800048fc:	2f fd       	sub	sp,-4
800048fe:	e3 cd 80 80 	ldm	sp++,r7,pc

80004902 <vListInsertEnd>:
80004902:	eb cd 40 80 	pushm	r7,lr
80004906:	1a 97       	mov	r7,sp
80004908:	20 3d       	sub	sp,12
8000490a:	ef 4c ff f8 	st.w	r7[-8],r12
8000490e:	ef 4b ff f4 	st.w	r7[-12],r11
80004912:	ee f8 ff f8 	ld.w	r8,r7[-8]
80004916:	70 18       	ld.w	r8,r8[0x4]
80004918:	ef 48 ff fc 	st.w	r7[-4],r8
8000491c:	ee f8 ff fc 	ld.w	r8,r7[-4]
80004920:	70 19       	ld.w	r9,r8[0x4]
80004922:	ee f8 ff f4 	ld.w	r8,r7[-12]
80004926:	91 19       	st.w	r8[0x4],r9
80004928:	ee f8 ff f8 	ld.w	r8,r7[-8]
8000492c:	70 19       	ld.w	r9,r8[0x4]
8000492e:	ee f8 ff f4 	ld.w	r8,r7[-12]
80004932:	91 29       	st.w	r8[0x8],r9
80004934:	ee f8 ff fc 	ld.w	r8,r7[-4]
80004938:	70 18       	ld.w	r8,r8[0x4]
8000493a:	ee f9 ff f4 	ld.w	r9,r7[-12]
8000493e:	91 29       	st.w	r8[0x8],r9
80004940:	ee f9 ff f4 	ld.w	r9,r7[-12]
80004944:	ee f8 ff fc 	ld.w	r8,r7[-4]
80004948:	91 19       	st.w	r8[0x4],r9
8000494a:	ee f9 ff f4 	ld.w	r9,r7[-12]
8000494e:	ee f8 ff f8 	ld.w	r8,r7[-8]
80004952:	91 19       	st.w	r8[0x4],r9
80004954:	ee f8 ff f4 	ld.w	r8,r7[-12]
80004958:	ee f9 ff f8 	ld.w	r9,r7[-8]
8000495c:	91 49       	st.w	r8[0x10],r9
8000495e:	ee f8 ff f8 	ld.w	r8,r7[-8]
80004962:	70 08       	ld.w	r8,r8[0x0]
80004964:	f0 c9 ff ff 	sub	r9,r8,-1
80004968:	ee f8 ff f8 	ld.w	r8,r7[-8]
8000496c:	91 09       	st.w	r8[0x0],r9
8000496e:	2f dd       	sub	sp,-12
80004970:	e3 cd 80 80 	ldm	sp++,r7,pc

80004974 <vListInsert>:
80004974:	eb cd 40 80 	pushm	r7,lr
80004978:	1a 97       	mov	r7,sp
8000497a:	20 4d       	sub	sp,16
8000497c:	ef 4c ff f4 	st.w	r7[-12],r12
80004980:	ef 4b ff f0 	st.w	r7[-16],r11
80004984:	ee f8 ff f0 	ld.w	r8,r7[-16]
80004988:	70 08       	ld.w	r8,r8[0x0]
8000498a:	ef 48 ff fc 	st.w	r7[-4],r8
8000498e:	ee f8 ff fc 	ld.w	r8,r7[-4]
80004992:	5b f8       	cp.w	r8,-1
80004994:	c0 71       	brne	800049a2 <vListInsert+0x2e>
80004996:	ee f8 ff f4 	ld.w	r8,r7[-12]
8000499a:	70 48       	ld.w	r8,r8[0x10]
8000499c:	ef 48 ff f8 	st.w	r7[-8],r8
800049a0:	c1 58       	rjmp	800049ca <vListInsert+0x56>
800049a2:	ee f8 ff f4 	ld.w	r8,r7[-12]
800049a6:	2f 88       	sub	r8,-8
800049a8:	ef 48 ff f8 	st.w	r7[-8],r8
800049ac:	c0 68       	rjmp	800049b8 <vListInsert+0x44>
800049ae:	ee f8 ff f8 	ld.w	r8,r7[-8]
800049b2:	70 18       	ld.w	r8,r8[0x4]
800049b4:	ef 48 ff f8 	st.w	r7[-8],r8
800049b8:	ee f8 ff f8 	ld.w	r8,r7[-8]
800049bc:	70 18       	ld.w	r8,r8[0x4]
800049be:	70 09       	ld.w	r9,r8[0x0]
800049c0:	ee f8 ff fc 	ld.w	r8,r7[-4]
800049c4:	10 39       	cp.w	r9,r8
800049c6:	fe 98 ff f4 	brls	800049ae <vListInsert+0x3a>
800049ca:	ee f8 ff f8 	ld.w	r8,r7[-8]
800049ce:	70 19       	ld.w	r9,r8[0x4]
800049d0:	ee f8 ff f0 	ld.w	r8,r7[-16]
800049d4:	91 19       	st.w	r8[0x4],r9
800049d6:	ee f8 ff f0 	ld.w	r8,r7[-16]
800049da:	70 18       	ld.w	r8,r8[0x4]
800049dc:	ee f9 ff f0 	ld.w	r9,r7[-16]
800049e0:	91 29       	st.w	r8[0x8],r9
800049e2:	ee f8 ff f0 	ld.w	r8,r7[-16]
800049e6:	ee f9 ff f8 	ld.w	r9,r7[-8]
800049ea:	91 29       	st.w	r8[0x8],r9
800049ec:	ee f9 ff f0 	ld.w	r9,r7[-16]
800049f0:	ee f8 ff f8 	ld.w	r8,r7[-8]
800049f4:	91 19       	st.w	r8[0x4],r9
800049f6:	ee f8 ff f0 	ld.w	r8,r7[-16]
800049fa:	ee f9 ff f4 	ld.w	r9,r7[-12]
800049fe:	91 49       	st.w	r8[0x10],r9
80004a00:	ee f8 ff f4 	ld.w	r8,r7[-12]
80004a04:	70 08       	ld.w	r8,r8[0x0]
80004a06:	f0 c9 ff ff 	sub	r9,r8,-1
80004a0a:	ee f8 ff f4 	ld.w	r8,r7[-12]
80004a0e:	91 09       	st.w	r8[0x0],r9
80004a10:	2f cd       	sub	sp,-16
80004a12:	e3 cd 80 80 	ldm	sp++,r7,pc

80004a16 <vListRemove>:
80004a16:	eb cd 40 80 	pushm	r7,lr
80004a1a:	1a 97       	mov	r7,sp
80004a1c:	20 2d       	sub	sp,8
80004a1e:	ef 4c ff f8 	st.w	r7[-8],r12
80004a22:	ee f8 ff f8 	ld.w	r8,r7[-8]
80004a26:	70 18       	ld.w	r8,r8[0x4]
80004a28:	ee f9 ff f8 	ld.w	r9,r7[-8]
80004a2c:	72 29       	ld.w	r9,r9[0x8]
80004a2e:	91 29       	st.w	r8[0x8],r9
80004a30:	ee f8 ff f8 	ld.w	r8,r7[-8]
80004a34:	70 28       	ld.w	r8,r8[0x8]
80004a36:	ee f9 ff f8 	ld.w	r9,r7[-8]
80004a3a:	72 19       	ld.w	r9,r9[0x4]
80004a3c:	91 19       	st.w	r8[0x4],r9
80004a3e:	ee f8 ff f8 	ld.w	r8,r7[-8]
80004a42:	70 48       	ld.w	r8,r8[0x10]
80004a44:	ef 48 ff fc 	st.w	r7[-4],r8
80004a48:	ee f8 ff fc 	ld.w	r8,r7[-4]
80004a4c:	70 19       	ld.w	r9,r8[0x4]
80004a4e:	ee f8 ff f8 	ld.w	r8,r7[-8]
80004a52:	10 39       	cp.w	r9,r8
80004a54:	c0 71       	brne	80004a62 <vListRemove+0x4c>
80004a56:	ee f8 ff f8 	ld.w	r8,r7[-8]
80004a5a:	70 29       	ld.w	r9,r8[0x8]
80004a5c:	ee f8 ff fc 	ld.w	r8,r7[-4]
80004a60:	91 19       	st.w	r8[0x4],r9
80004a62:	ee f8 ff f8 	ld.w	r8,r7[-8]
80004a66:	30 09       	mov	r9,0
80004a68:	91 49       	st.w	r8[0x10],r9
80004a6a:	ee f8 ff fc 	ld.w	r8,r7[-4]
80004a6e:	70 08       	ld.w	r8,r8[0x0]
80004a70:	f0 c9 00 01 	sub	r9,r8,1
80004a74:	ee f8 ff fc 	ld.w	r8,r7[-4]
80004a78:	91 09       	st.w	r8[0x0],r9
80004a7a:	2f ed       	sub	sp,-8
80004a7c:	e3 cd 80 80 	ldm	sp++,r7,pc

80004a80 <_init_startup>:
80004a80:	eb cd 40 80 	pushm	r7,lr
80004a84:	1a 97       	mov	r7,sp
80004a86:	48 e8       	lddpc	r8,80004abc <_init_startup+0x3c>
80004a88:	e3 b8 00 01 	mtsr	0x4,r8
80004a8c:	d5 53       	csrf	0x15
80004a8e:	f0 1f 00 0d 	mcall	80004ac0 <_init_startup+0x40>
80004a92:	48 d8       	lddpc	r8,80004ac4 <_init_startup+0x44>
80004a94:	fe 79 18 00 	mov	r9,-59392
80004a98:	91 09       	st.w	r8[0x0],r9
80004a9a:	30 2b       	mov	r11,2
80004a9c:	48 bc       	lddpc	r12,80004ac8 <_init_startup+0x48>
80004a9e:	f0 1f 00 0c 	mcall	80004acc <_init_startup+0x4c>
80004aa2:	e0 6a 1b 00 	mov	r10,6912
80004aa6:	ea 1a 00 b7 	orh	r10,0xb7
80004aaa:	48 ab       	lddpc	r11,80004ad0 <_init_startup+0x50>
80004aac:	fe 7c 18 00 	mov	r12,-59392
80004ab0:	f0 1f 00 09 	mcall	80004ad4 <_init_startup+0x54>
80004ab4:	30 18       	mov	r8,1
80004ab6:	10 9c       	mov	r12,r8
80004ab8:	e3 cd 80 80 	ldm	sp++,r7,pc
80004abc:	80 00       	ld.sh	r0,r0[0x0]
80004abe:	be 00       	st.h	pc[0x0],r0
80004ac0:	80 00       	ld.sh	r0,r0[0x0]
80004ac2:	41 38       	lddsp	r8,sp[0x4c]
80004ac4:	00 00       	add	r0,r0
80004ac6:	08 20       	rsub	r0,r4
80004ac8:	80 00       	ld.sh	r0,r0[0x0]
80004aca:	c1 14       	brge	80004aec <__malloc_lock+0x14>
80004acc:	80 00       	ld.sh	r0,r0[0x0]
80004ace:	3e 5c       	mov	r12,-27
80004ad0:	80 00       	ld.sh	r0,r0[0x0]
80004ad2:	c1 24       	brge	80004af6 <__malloc_unlock+0x2>
80004ad4:	80 00       	ld.sh	r0,r0[0x0]
80004ad6:	45 fc       	lddsp	r12,sp[0x17c]

80004ad8 <__malloc_lock>:
80004ad8:	eb cd 40 80 	pushm	r7,lr
80004adc:	1a 97       	mov	r7,sp
80004ade:	20 1d       	sub	sp,4
80004ae0:	ef 4c ff fc 	st.w	r7[-4],r12
80004ae4:	f0 1f 00 03 	mcall	80004af0 <__malloc_lock+0x18>
80004ae8:	2f fd       	sub	sp,-4
80004aea:	e3 cd 80 80 	ldm	sp++,r7,pc
80004aee:	00 00       	add	r0,r0
80004af0:	80 00       	ld.sh	r0,r0[0x0]
80004af2:	59 7c       	cp.w	r12,23

80004af4 <__malloc_unlock>:
80004af4:	eb cd 40 80 	pushm	r7,lr
80004af8:	1a 97       	mov	r7,sp
80004afa:	20 1d       	sub	sp,4
80004afc:	ef 4c ff fc 	st.w	r7[-4],r12
80004b00:	f0 1f 00 03 	mcall	80004b0c <__malloc_unlock+0x18>
80004b04:	2f fd       	sub	sp,-4
80004b06:	e3 cd 80 80 	ldm	sp++,r7,pc
80004b0a:	00 00       	add	r0,r0
80004b0c:	80 00       	ld.sh	r0,r0[0x0]
80004b0e:	59 98       	cp.w	r8,25

80004b10 <vTick>:
80004b10:	eb cd 00 ff 	pushm	r0-r7
80004b14:	e0 68 00 20 	mov	r8,32
80004b18:	ea 18 00 00 	orh	r8,0x0
80004b1c:	70 00       	ld.w	r0,r8[0x0]
80004b1e:	1a d0       	st.w	--sp,r0
80004b20:	7a 90       	ld.w	r0,sp[0x24]
80004b22:	e1 d0 c2 c3 	bfextu	r0,r0,0x16,0x3
80004b26:	58 10       	cp.w	r0,1
80004b28:	e0 8b 00 08 	brhi	80004b38 <LABEL_INT_SKIP_SAVE_CONTEXT_234>
80004b2c:	e0 68 06 60 	mov	r8,1632
80004b30:	ea 18 00 00 	orh	r8,0x0
80004b34:	70 00       	ld.w	r0,r8[0x0]
80004b36:	81 0d       	st.w	r0[0x0],sp

80004b38 <LABEL_INT_SKIP_SAVE_CONTEXT_234>:
80004b38:	f0 1f 00 12 	mcall	80004b80 <LABEL_INT_SKIP_RESTORE_CONTEXT_251+0x14>
80004b3c:	f0 1f 00 12 	mcall	80004b84 <LABEL_INT_SKIP_RESTORE_CONTEXT_251+0x18>
80004b40:	f0 1f 00 12 	mcall	80004b88 <LABEL_INT_SKIP_RESTORE_CONTEXT_251+0x1c>
80004b44:	f0 1f 00 12 	mcall	80004b8c <LABEL_INT_SKIP_RESTORE_CONTEXT_251+0x20>
80004b48:	7a 90       	ld.w	r0,sp[0x24]
80004b4a:	e1 d0 c2 c3 	bfextu	r0,r0,0x16,0x3
80004b4e:	58 10       	cp.w	r0,1
80004b50:	e0 8b 00 0e 	brhi	80004b6c <LABEL_INT_SKIP_RESTORE_CONTEXT_251>
80004b54:	f0 1f 00 0c 	mcall	80004b84 <LABEL_INT_SKIP_RESTORE_CONTEXT_251+0x18>
80004b58:	f0 1f 00 0e 	mcall	80004b90 <LABEL_INT_SKIP_RESTORE_CONTEXT_251+0x24>
80004b5c:	f0 1f 00 0c 	mcall	80004b8c <LABEL_INT_SKIP_RESTORE_CONTEXT_251+0x20>
80004b60:	e0 68 06 60 	mov	r8,1632
80004b64:	ea 18 00 00 	orh	r8,0x0
80004b68:	70 00       	ld.w	r0,r8[0x0]
80004b6a:	60 0d       	ld.w	sp,r0[0x0]

80004b6c <LABEL_INT_SKIP_RESTORE_CONTEXT_251>:
80004b6c:	1b 00       	ld.w	r0,sp++
80004b6e:	e0 68 00 20 	mov	r8,32
80004b72:	ea 18 00 00 	orh	r8,0x0
80004b76:	91 00       	st.w	r8[0x0],r0
80004b78:	e3 cd 00 ff 	ldm	sp++,r0-r7
80004b7c:	d6 03       	rete
80004b7e:	00 00       	add	r0,r0
80004b80:	80 00       	ld.sh	r0,r0[0x0]
80004b82:	4e 7c       	lddpc	r12,80004d1c <pxPortInitialiseStack+0xa8>
80004b84:	80 00       	ld.sh	r0,r0[0x0]
80004b86:	4c 2c       	lddpc	r12,80004c8c <pxPortInitialiseStack+0x18>
80004b88:	80 00       	ld.sh	r0,r0[0x0]
80004b8a:	5a c0       	cp.w	r0,-20
80004b8c:	80 00       	ld.sh	r0,r0[0x0]
80004b8e:	4c 48       	lddpc	r8,80004c9c <pxPortInitialiseStack+0x28>
80004b90:	80 00       	ld.sh	r0,r0[0x0]
80004b92:	5c 20       	cpc	r0

80004b94 <SCALLYield>:
80004b94:	20 6d       	sub	sp,24
80004b96:	eb cd 00 ff 	pushm	r0-r7
80004b9a:	fa c7 ff c0 	sub	r7,sp,-64
80004b9e:	ee f0 ff f8 	ld.w	r0,r7[-8]
80004ba2:	ef 40 ff e0 	st.w	r7[-32],r0
80004ba6:	ee f0 ff fc 	ld.w	r0,r7[-4]
80004baa:	ef 40 ff e4 	st.w	r7[-28],r0
80004bae:	eb c7 5f 00 	stm	--r7,r8-r12,lr
80004bb2:	e0 68 00 20 	mov	r8,32
80004bb6:	ea 18 00 00 	orh	r8,0x0
80004bba:	70 00       	ld.w	r0,r8[0x0]
80004bbc:	1a d0       	st.w	--sp,r0
80004bbe:	f0 1f 00 1a 	mcall	80004c24 <LABEL_RET_SCALL_260+0x14>
80004bc2:	e0 68 06 60 	mov	r8,1632
80004bc6:	ea 18 00 00 	orh	r8,0x0
80004bca:	70 00       	ld.w	r0,r8[0x0]
80004bcc:	81 0d       	st.w	r0[0x0],sp
80004bce:	f0 1f 00 17 	mcall	80004c28 <LABEL_RET_SCALL_260+0x18>
80004bd2:	e0 68 06 60 	mov	r8,1632
80004bd6:	ea 18 00 00 	orh	r8,0x0
80004bda:	70 00       	ld.w	r0,r8[0x0]
80004bdc:	60 0d       	ld.w	sp,r0[0x0]
80004bde:	1b 00       	ld.w	r0,sp++
80004be0:	e0 68 00 20 	mov	r8,32
80004be4:	ea 18 00 00 	orh	r8,0x0
80004be8:	91 00       	st.w	r8[0x0],r0
80004bea:	fa c7 ff d8 	sub	r7,sp,-40
80004bee:	e3 c7 5f 00 	ldm	r7++,r8-r12,lr
80004bf2:	ee f0 ff e0 	ld.w	r0,r7[-32]
80004bf6:	e0 61 00 20 	mov	r1,32
80004bfa:	ea 11 00 00 	orh	r1,0x0
80004bfe:	62 02       	ld.w	r2,r1[0x0]
80004c00:	58 02       	cp.w	r2,0
80004c02:	c0 70       	breq	80004c10 <LABEL_RET_SCALL_260>
80004c04:	e4 c2 00 01 	sub	r2,r2,1
80004c08:	83 02       	st.w	r1[0x0],r2
80004c0a:	58 02       	cp.w	r2,0
80004c0c:	c0 21       	brne	80004c10 <LABEL_RET_SCALL_260>
80004c0e:	b1 c0       	cbr	r0,0x10

80004c10 <LABEL_RET_SCALL_260>:
80004c10:	ef 40 ff f8 	st.w	r7[-8],r0
80004c14:	ee f0 ff e4 	ld.w	r0,r7[-28]
80004c18:	ef 40 ff fc 	st.w	r7[-4],r0
80004c1c:	e3 cd 00 ff 	ldm	sp++,r0-r7
80004c20:	2f ad       	sub	sp,-24
80004c22:	d6 13       	rets
80004c24:	80 00       	ld.sh	r0,r0[0x0]
80004c26:	4c 2c       	lddpc	r12,80004d2c <pxPortInitialiseStack+0xb8>
80004c28:	80 00       	ld.sh	r0,r0[0x0]
80004c2a:	5c 20       	cpc	r0

80004c2c <vPortEnterCritical>:
80004c2c:	eb cd 40 80 	pushm	r7,lr
80004c30:	1a 97       	mov	r7,sp
80004c32:	d3 03       	ssrf	0x10
80004c34:	48 48       	lddpc	r8,80004c44 <vPortEnterCritical+0x18>
80004c36:	70 08       	ld.w	r8,r8[0x0]
80004c38:	f0 c9 ff ff 	sub	r9,r8,-1
80004c3c:	48 28       	lddpc	r8,80004c44 <vPortEnterCritical+0x18>
80004c3e:	91 09       	st.w	r8[0x0],r9
80004c40:	e3 cd 80 80 	ldm	sp++,r7,pc
80004c44:	00 00       	add	r0,r0
80004c46:	00 20       	rsub	r0,r0

80004c48 <vPortExitCritical>:
80004c48:	eb cd 40 80 	pushm	r7,lr
80004c4c:	1a 97       	mov	r7,sp
80004c4e:	48 98       	lddpc	r8,80004c70 <vPortExitCritical+0x28>
80004c50:	70 08       	ld.w	r8,r8[0x0]
80004c52:	58 08       	cp.w	r8,0
80004c54:	c0 c0       	breq	80004c6c <vPortExitCritical+0x24>
80004c56:	48 78       	lddpc	r8,80004c70 <vPortExitCritical+0x28>
80004c58:	70 08       	ld.w	r8,r8[0x0]
80004c5a:	f0 c9 00 01 	sub	r9,r8,1
80004c5e:	48 58       	lddpc	r8,80004c70 <vPortExitCritical+0x28>
80004c60:	91 09       	st.w	r8[0x0],r9
80004c62:	48 48       	lddpc	r8,80004c70 <vPortExitCritical+0x28>
80004c64:	70 08       	ld.w	r8,r8[0x0]
80004c66:	58 08       	cp.w	r8,0
80004c68:	c0 21       	brne	80004c6c <vPortExitCritical+0x24>
80004c6a:	d5 03       	csrf	0x10
80004c6c:	e3 cd 80 80 	ldm	sp++,r7,pc
80004c70:	00 00       	add	r0,r0
80004c72:	00 20       	rsub	r0,r0

80004c74 <pxPortInitialiseStack>:
80004c74:	eb cd 40 80 	pushm	r7,lr
80004c78:	1a 97       	mov	r7,sp
80004c7a:	20 3d       	sub	sp,12
80004c7c:	ef 4c ff fc 	st.w	r7[-4],r12
80004c80:	ef 4b ff f8 	st.w	r7[-8],r11
80004c84:	ef 4a ff f4 	st.w	r7[-12],r10
80004c88:	ee f8 ff fc 	ld.w	r8,r7[-4]
80004c8c:	20 48       	sub	r8,4
80004c8e:	ef 48 ff fc 	st.w	r7[-4],r8
80004c92:	ee f8 ff fc 	ld.w	r8,r7[-4]
80004c96:	e0 69 08 08 	mov	r9,2056
80004c9a:	ea 19 08 08 	orh	r9,0x808
80004c9e:	91 09       	st.w	r8[0x0],r9
80004ca0:	ee f8 ff fc 	ld.w	r8,r7[-4]
80004ca4:	20 48       	sub	r8,4
80004ca6:	ef 48 ff fc 	st.w	r7[-4],r8
80004caa:	ee f8 ff fc 	ld.w	r8,r7[-4]
80004cae:	e0 69 09 09 	mov	r9,2313
80004cb2:	ea 19 09 09 	orh	r9,0x909
80004cb6:	91 09       	st.w	r8[0x0],r9
80004cb8:	ee f8 ff fc 	ld.w	r8,r7[-4]
80004cbc:	20 48       	sub	r8,4
80004cbe:	ef 48 ff fc 	st.w	r7[-4],r8
80004cc2:	ee f8 ff fc 	ld.w	r8,r7[-4]
80004cc6:	e0 69 0a 0a 	mov	r9,2570
80004cca:	ea 19 0a 0a 	orh	r9,0xa0a
80004cce:	91 09       	st.w	r8[0x0],r9
80004cd0:	ee f8 ff fc 	ld.w	r8,r7[-4]
80004cd4:	20 48       	sub	r8,4
80004cd6:	ef 48 ff fc 	st.w	r7[-4],r8
80004cda:	ee f8 ff fc 	ld.w	r8,r7[-4]
80004cde:	e0 69 0b 0b 	mov	r9,2827
80004ce2:	ea 19 0b 0b 	orh	r9,0xb0b
80004ce6:	91 09       	st.w	r8[0x0],r9
80004ce8:	ee f8 ff fc 	ld.w	r8,r7[-4]
80004cec:	20 48       	sub	r8,4
80004cee:	ef 48 ff fc 	st.w	r7[-4],r8
80004cf2:	ee f9 ff f4 	ld.w	r9,r7[-12]
80004cf6:	ee f8 ff fc 	ld.w	r8,r7[-4]
80004cfa:	91 09       	st.w	r8[0x0],r9
80004cfc:	ee f8 ff fc 	ld.w	r8,r7[-4]
80004d00:	20 48       	sub	r8,4
80004d02:	ef 48 ff fc 	st.w	r7[-4],r8
80004d06:	ee f8 ff fc 	ld.w	r8,r7[-4]
80004d0a:	e0 69 be ef 	mov	r9,48879
80004d0e:	ea 19 de ad 	orh	r9,0xdead
80004d12:	91 09       	st.w	r8[0x0],r9
80004d14:	ee f8 ff fc 	ld.w	r8,r7[-4]
80004d18:	20 48       	sub	r8,4
80004d1a:	ef 48 ff fc 	st.w	r7[-4],r8
80004d1e:	ee f9 ff f8 	ld.w	r9,r7[-8]
80004d22:	ee f8 ff fc 	ld.w	r8,r7[-4]
80004d26:	91 09       	st.w	r8[0x0],r9
80004d28:	ee f8 ff fc 	ld.w	r8,r7[-4]
80004d2c:	20 48       	sub	r8,4
80004d2e:	ef 48 ff fc 	st.w	r7[-4],r8
80004d32:	ee f8 ff fc 	ld.w	r8,r7[-4]
80004d36:	fc 19 00 40 	movh	r9,0x40
80004d3a:	91 09       	st.w	r8[0x0],r9
80004d3c:	ee f8 ff fc 	ld.w	r8,r7[-4]
80004d40:	20 48       	sub	r8,4
80004d42:	ef 48 ff fc 	st.w	r7[-4],r8
80004d46:	ee f8 ff fc 	ld.w	r8,r7[-4]
80004d4a:	e0 69 00 ff 	mov	r9,255
80004d4e:	ea 19 ff 00 	orh	r9,0xff00
80004d52:	91 09       	st.w	r8[0x0],r9
80004d54:	ee f8 ff fc 	ld.w	r8,r7[-4]
80004d58:	20 48       	sub	r8,4
80004d5a:	ef 48 ff fc 	st.w	r7[-4],r8
80004d5e:	ee f8 ff fc 	ld.w	r8,r7[-4]
80004d62:	e0 69 01 01 	mov	r9,257
80004d66:	ea 19 01 01 	orh	r9,0x101
80004d6a:	91 09       	st.w	r8[0x0],r9
80004d6c:	ee f8 ff fc 	ld.w	r8,r7[-4]
80004d70:	20 48       	sub	r8,4
80004d72:	ef 48 ff fc 	st.w	r7[-4],r8
80004d76:	ee f8 ff fc 	ld.w	r8,r7[-4]
80004d7a:	e0 69 02 02 	mov	r9,514
80004d7e:	ea 19 02 02 	orh	r9,0x202
80004d82:	91 09       	st.w	r8[0x0],r9
80004d84:	ee f8 ff fc 	ld.w	r8,r7[-4]
80004d88:	20 48       	sub	r8,4
80004d8a:	ef 48 ff fc 	st.w	r7[-4],r8
80004d8e:	ee f8 ff fc 	ld.w	r8,r7[-4]
80004d92:	e0 69 03 03 	mov	r9,771
80004d96:	ea 19 03 03 	orh	r9,0x303
80004d9a:	91 09       	st.w	r8[0x0],r9
80004d9c:	ee f8 ff fc 	ld.w	r8,r7[-4]
80004da0:	20 48       	sub	r8,4
80004da2:	ef 48 ff fc 	st.w	r7[-4],r8
80004da6:	ee f8 ff fc 	ld.w	r8,r7[-4]
80004daa:	e0 69 04 04 	mov	r9,1028
80004dae:	ea 19 04 04 	orh	r9,0x404
80004db2:	91 09       	st.w	r8[0x0],r9
80004db4:	ee f8 ff fc 	ld.w	r8,r7[-4]
80004db8:	20 48       	sub	r8,4
80004dba:	ef 48 ff fc 	st.w	r7[-4],r8
80004dbe:	ee f8 ff fc 	ld.w	r8,r7[-4]
80004dc2:	e0 69 05 05 	mov	r9,1285
80004dc6:	ea 19 05 05 	orh	r9,0x505
80004dca:	91 09       	st.w	r8[0x0],r9
80004dcc:	ee f8 ff fc 	ld.w	r8,r7[-4]
80004dd0:	20 48       	sub	r8,4
80004dd2:	ef 48 ff fc 	st.w	r7[-4],r8
80004dd6:	ee f8 ff fc 	ld.w	r8,r7[-4]
80004dda:	e0 69 06 06 	mov	r9,1542
80004dde:	ea 19 06 06 	orh	r9,0x606
80004de2:	91 09       	st.w	r8[0x0],r9
80004de4:	ee f8 ff fc 	ld.w	r8,r7[-4]
80004de8:	20 48       	sub	r8,4
80004dea:	ef 48 ff fc 	st.w	r7[-4],r8
80004dee:	ee f8 ff fc 	ld.w	r8,r7[-4]
80004df2:	e0 69 07 07 	mov	r9,1799
80004df6:	ea 19 07 07 	orh	r9,0x707
80004dfa:	91 09       	st.w	r8[0x0],r9
80004dfc:	ee f8 ff fc 	ld.w	r8,r7[-4]
80004e00:	20 48       	sub	r8,4
80004e02:	ef 48 ff fc 	st.w	r7[-4],r8
80004e06:	ee f8 ff fc 	ld.w	r8,r7[-4]
80004e0a:	30 09       	mov	r9,0
80004e0c:	91 09       	st.w	r8[0x0],r9
80004e0e:	ee f8 ff fc 	ld.w	r8,r7[-4]
80004e12:	10 9c       	mov	r12,r8
80004e14:	2f dd       	sub	sp,-12
80004e16:	e3 cd 80 80 	ldm	sp++,r7,pc
80004e1a:	d7 03       	nop

80004e1c <xPortStartScheduler>:
80004e1c:	eb cd 40 80 	pushm	r7,lr
80004e20:	1a 97       	mov	r7,sp
80004e22:	f0 1f 00 10 	mcall	80004e60 <xPortStartScheduler+0x44>
80004e26:	e0 68 06 60 	mov	r8,1632
80004e2a:	ea 18 00 00 	orh	r8,0x0
80004e2e:	70 00       	ld.w	r0,r8[0x0]
80004e30:	60 0d       	ld.w	sp,r0[0x0]
80004e32:	1b 00       	ld.w	r0,sp++
80004e34:	e0 68 00 20 	mov	r8,32
80004e38:	ea 18 00 00 	orh	r8,0x0
80004e3c:	91 00       	st.w	r8[0x0],r0
80004e3e:	e3 cd 00 ff 	ldm	sp++,r0-r7
80004e42:	2f ed       	sub	sp,-8
80004e44:	e3 cd 5f 00 	ldm	sp++,r8-r12,lr
80004e48:	fa f0 ff e0 	ld.w	r0,sp[-32]
80004e4c:	e3 b0 00 00 	mtsr	0x0,r0
80004e50:	fa f0 ff dc 	ld.w	r0,sp[-36]
80004e54:	fa ff ff e4 	ld.w	pc,sp[-28]
80004e58:	30 08       	mov	r8,0
80004e5a:	10 9c       	mov	r12,r8
80004e5c:	e3 cd 80 80 	ldm	sp++,r7,pc
80004e60:	80 00       	ld.sh	r0,r0[0x0]
80004e62:	4e 90       	lddpc	r0,80005004 <pvPortMalloc+0x30>

80004e64 <prvScheduleFirstTick>:
80004e64:	eb cd 40 80 	pushm	r7,lr
80004e68:	1a 97       	mov	r7,sp
80004e6a:	e0 68 2e e0 	mov	r8,12000
80004e6e:	e3 b8 00 43 	mtsr	0x10c,r8
80004e72:	30 08       	mov	r8,0
80004e74:	e3 b8 00 42 	mtsr	0x108,r8
80004e78:	e3 cd 80 80 	ldm	sp++,r7,pc

80004e7c <prvClearCcInt>:
80004e7c:	eb cd 40 80 	pushm	r7,lr
80004e80:	1a 97       	mov	r7,sp
80004e82:	e1 b8 00 43 	mfsr	r8,0x10c
80004e86:	e3 b8 00 43 	mtsr	0x10c,r8
80004e8a:	e3 cd 80 80 	ldm	sp++,r7,pc
80004e8e:	d7 03       	nop

80004e90 <prvSetupTimerInterrupt>:
80004e90:	eb cd 40 80 	pushm	r7,lr
80004e94:	1a 97       	mov	r7,sp
80004e96:	d3 03       	ssrf	0x10
80004e98:	30 0a       	mov	r10,0
80004e9a:	30 0b       	mov	r11,0
80004e9c:	48 4c       	lddpc	r12,80004eac <prvSetupTimerInterrupt+0x1c>
80004e9e:	f0 1f 00 05 	mcall	80004eb0 <prvSetupTimerInterrupt+0x20>
80004ea2:	f0 1f 00 05 	mcall	80004eb4 <prvSetupTimerInterrupt+0x24>
80004ea6:	e3 cd 80 80 	ldm	sp++,r7,pc
80004eaa:	00 00       	add	r0,r0
80004eac:	80 00       	ld.sh	r0,r0[0x0]
80004eae:	4b 10       	lddpc	r0,80004f70 <_write+0x2c>
80004eb0:	80 00       	ld.sh	r0,r0[0x0]
80004eb2:	41 d0       	lddsp	r0,sp[0x74]
80004eb4:	80 00       	ld.sh	r0,r0[0x0]
80004eb6:	4e 64       	lddpc	r4,8000504c <xQueueCreate+0x4>

80004eb8 <_read>:
80004eb8:	eb cd 40 80 	pushm	r7,lr
80004ebc:	1a 97       	mov	r7,sp
80004ebe:	20 5d       	sub	sp,20
80004ec0:	ef 4c ff f4 	st.w	r7[-12],r12
80004ec4:	ef 4b ff f0 	st.w	r7[-16],r11
80004ec8:	ef 4a ff ec 	st.w	r7[-20],r10
80004ecc:	30 08       	mov	r8,0
80004ece:	ef 48 ff f8 	st.w	r7[-8],r8
80004ed2:	ee f8 ff f4 	ld.w	r8,r7[-12]
80004ed6:	58 08       	cp.w	r8,0
80004ed8:	c2 40       	breq	80004f20 <_read+0x68>
80004eda:	3f f8       	mov	r8,-1
80004edc:	c2 b8       	rjmp	80004f32 <_read+0x7a>
80004ede:	49 88       	lddpc	r8,80004f3c <_read+0x84>
80004ee0:	70 08       	ld.w	r8,r8[0x0]
80004ee2:	10 9c       	mov	r12,r8
80004ee4:	f0 1f 00 17 	mcall	80004f40 <_read+0x88>
80004ee8:	18 98       	mov	r8,r12
80004eea:	ef 48 ff fc 	st.w	r7[-4],r8
80004eee:	ee f8 ff fc 	ld.w	r8,r7[-4]
80004ef2:	58 08       	cp.w	r8,0
80004ef4:	c1 c5       	brlt	80004f2c <_read+0x74>
80004ef6:	ee f8 ff fc 	ld.w	r8,r7[-4]
80004efa:	5c 58       	castu.b	r8
80004efc:	ee f9 ff f0 	ld.w	r9,r7[-16]
80004f00:	b2 88       	st.b	r9[0x0],r8
80004f02:	ee f8 ff f0 	ld.w	r8,r7[-16]
80004f06:	2f f8       	sub	r8,-1
80004f08:	ef 48 ff f0 	st.w	r7[-16],r8
80004f0c:	ee f8 ff f8 	ld.w	r8,r7[-8]
80004f10:	2f f8       	sub	r8,-1
80004f12:	ef 48 ff f8 	st.w	r7[-8],r8
80004f16:	ee f8 ff ec 	ld.w	r8,r7[-20]
80004f1a:	20 18       	sub	r8,1
80004f1c:	ef 48 ff ec 	st.w	r7[-20],r8
80004f20:	ee f8 ff ec 	ld.w	r8,r7[-20]
80004f24:	58 08       	cp.w	r8,0
80004f26:	fe 99 ff dc 	brgt	80004ede <_read+0x26>
80004f2a:	c0 28       	rjmp	80004f2e <_read+0x76>
80004f2c:	d7 03       	nop
80004f2e:	ee f8 ff f8 	ld.w	r8,r7[-8]
80004f32:	10 9c       	mov	r12,r8
80004f34:	2f bd       	sub	sp,-20
80004f36:	e3 cd 80 80 	ldm	sp++,r7,pc
80004f3a:	00 00       	add	r0,r0
80004f3c:	00 00       	add	r0,r0
80004f3e:	08 20       	rsub	r0,r4
80004f40:	80 00       	ld.sh	r0,r0[0x0]
80004f42:	48 58       	lddpc	r8,80004f54 <_write+0x10>

80004f44 <_write>:
80004f44:	eb cd 40 80 	pushm	r7,lr
80004f48:	1a 97       	mov	r7,sp
80004f4a:	20 4d       	sub	sp,16
80004f4c:	ef 4c ff f8 	st.w	r7[-8],r12
80004f50:	ef 4b ff f4 	st.w	r7[-12],r11
80004f54:	ef 4a ff f0 	st.w	r7[-16],r10
80004f58:	30 08       	mov	r8,0
80004f5a:	ef 48 ff fc 	st.w	r7[-4],r8
80004f5e:	ee f8 ff f8 	ld.w	r8,r7[-8]
80004f62:	58 18       	cp.w	r8,1
80004f64:	c2 90       	breq	80004fb6 <_write+0x72>
80004f66:	ee f8 ff f8 	ld.w	r8,r7[-8]
80004f6a:	58 28       	cp.w	r8,2
80004f6c:	c2 50       	breq	80004fb6 <_write+0x72>
80004f6e:	ee f8 ff f8 	ld.w	r8,r7[-8]
80004f72:	58 38       	cp.w	r8,3
80004f74:	c2 10       	breq	80004fb6 <_write+0x72>
80004f76:	3f f8       	mov	r8,-1
80004f78:	c2 58       	rjmp	80004fc2 <_write+0x7e>
80004f7a:	ee f8 ff f4 	ld.w	r8,r7[-12]
80004f7e:	11 88       	ld.ub	r8,r8[0x0]
80004f80:	10 99       	mov	r9,r8
80004f82:	ee f8 ff f4 	ld.w	r8,r7[-12]
80004f86:	2f f8       	sub	r8,-1
80004f88:	ef 48 ff f4 	st.w	r7[-12],r8
80004f8c:	49 08       	lddpc	r8,80004fcc <_write+0x88>
80004f8e:	70 08       	ld.w	r8,r8[0x0]
80004f90:	12 9b       	mov	r11,r9
80004f92:	10 9c       	mov	r12,r8
80004f94:	f0 1f 00 0f 	mcall	80004fd0 <_write+0x8c>
80004f98:	18 98       	mov	r8,r12
80004f9a:	58 08       	cp.w	r8,0
80004f9c:	c0 34       	brge	80004fa2 <_write+0x5e>
80004f9e:	3f f8       	mov	r8,-1
80004fa0:	c1 18       	rjmp	80004fc2 <_write+0x7e>
80004fa2:	ee f8 ff fc 	ld.w	r8,r7[-4]
80004fa6:	2f f8       	sub	r8,-1
80004fa8:	ef 48 ff fc 	st.w	r7[-4],r8
80004fac:	ee f8 ff f0 	ld.w	r8,r7[-16]
80004fb0:	20 18       	sub	r8,1
80004fb2:	ef 48 ff f0 	st.w	r7[-16],r8
80004fb6:	ee f8 ff f0 	ld.w	r8,r7[-16]
80004fba:	58 08       	cp.w	r8,0
80004fbc:	cd f1       	brne	80004f7a <_write+0x36>
80004fbe:	ee f8 ff fc 	ld.w	r8,r7[-4]
80004fc2:	10 9c       	mov	r12,r8
80004fc4:	2f cd       	sub	sp,-16
80004fc6:	e3 cd 80 80 	ldm	sp++,r7,pc
80004fca:	00 00       	add	r0,r0
80004fcc:	00 00       	add	r0,r0
80004fce:	08 20       	rsub	r0,r4
80004fd0:	80 00       	ld.sh	r0,r0[0x0]
80004fd2:	47 b0       	lddsp	r0,sp[0x1ec]

80004fd4 <pvPortMalloc>:
80004fd4:	eb cd 40 80 	pushm	r7,lr
80004fd8:	1a 97       	mov	r7,sp
80004fda:	20 2d       	sub	sp,8
80004fdc:	ef 4c ff f8 	st.w	r7[-8],r12
80004fe0:	f0 1f 00 09 	mcall	80005004 <pvPortMalloc+0x30>
80004fe4:	ee fc ff f8 	ld.w	r12,r7[-8]
80004fe8:	f0 1f 00 08 	mcall	80005008 <pvPortMalloc+0x34>
80004fec:	18 98       	mov	r8,r12
80004fee:	ef 48 ff fc 	st.w	r7[-4],r8
80004ff2:	f0 1f 00 07 	mcall	8000500c <pvPortMalloc+0x38>
80004ff6:	ee f8 ff fc 	ld.w	r8,r7[-4]
80004ffa:	10 9c       	mov	r12,r8
80004ffc:	2f ed       	sub	sp,-8
80004ffe:	e3 cd 80 80 	ldm	sp++,r7,pc
80005002:	00 00       	add	r0,r0
80005004:	80 00       	ld.sh	r0,r0[0x0]
80005006:	59 7c       	cp.w	r12,23
80005008:	80 00       	ld.sh	r0,r0[0x0]
8000500a:	64 f4       	ld.w	r4,r2[0x3c]
8000500c:	80 00       	ld.sh	r0,r0[0x0]
8000500e:	59 98       	cp.w	r8,25

80005010 <vPortFree>:
80005010:	eb cd 40 80 	pushm	r7,lr
80005014:	1a 97       	mov	r7,sp
80005016:	20 1d       	sub	sp,4
80005018:	ef 4c ff fc 	st.w	r7[-4],r12
8000501c:	ee f8 ff fc 	ld.w	r8,r7[-4]
80005020:	58 08       	cp.w	r8,0
80005022:	c0 90       	breq	80005034 <vPortFree+0x24>
80005024:	f0 1f 00 06 	mcall	8000503c <vPortFree+0x2c>
80005028:	ee fc ff fc 	ld.w	r12,r7[-4]
8000502c:	f0 1f 00 05 	mcall	80005040 <vPortFree+0x30>
80005030:	f0 1f 00 05 	mcall	80005044 <vPortFree+0x34>
80005034:	2f fd       	sub	sp,-4
80005036:	e3 cd 80 80 	ldm	sp++,r7,pc
8000503a:	00 00       	add	r0,r0
8000503c:	80 00       	ld.sh	r0,r0[0x0]
8000503e:	59 7c       	cp.w	r12,23
80005040:	80 00       	ld.sh	r0,r0[0x0]
80005042:	64 e4       	ld.w	r4,r2[0x38]
80005044:	80 00       	ld.sh	r0,r0[0x0]
80005046:	59 98       	cp.w	r8,25

80005048 <xQueueCreate>:
80005048:	eb cd 40 80 	pushm	r7,lr
8000504c:	1a 97       	mov	r7,sp
8000504e:	20 5d       	sub	sp,20
80005050:	ef 4c ff f0 	st.w	r7[-16],r12
80005054:	ef 4b ff ec 	st.w	r7[-20],r11
80005058:	30 08       	mov	r8,0
8000505a:	ef 48 ff fc 	st.w	r7[-4],r8
8000505e:	ee f8 ff f0 	ld.w	r8,r7[-16]
80005062:	58 08       	cp.w	r8,0
80005064:	c7 20       	breq	80005148 <xQueueCreate+0x100>
80005066:	34 cc       	mov	r12,76
80005068:	f0 1f 00 3b 	mcall	80005154 <xQueueCreate+0x10c>
8000506c:	18 98       	mov	r8,r12
8000506e:	ef 48 ff f4 	st.w	r7[-12],r8
80005072:	ee f8 ff f4 	ld.w	r8,r7[-12]
80005076:	58 08       	cp.w	r8,0
80005078:	c6 80       	breq	80005148 <xQueueCreate+0x100>
8000507a:	ee f9 ff f0 	ld.w	r9,r7[-16]
8000507e:	ee f8 ff ec 	ld.w	r8,r7[-20]
80005082:	f2 08 02 48 	mul	r8,r9,r8
80005086:	2f f8       	sub	r8,-1
80005088:	ef 48 ff f8 	st.w	r7[-8],r8
8000508c:	ee fc ff f8 	ld.w	r12,r7[-8]
80005090:	f0 1f 00 31 	mcall	80005154 <xQueueCreate+0x10c>
80005094:	18 98       	mov	r8,r12
80005096:	10 99       	mov	r9,r8
80005098:	ee f8 ff f4 	ld.w	r8,r7[-12]
8000509c:	91 09       	st.w	r8[0x0],r9
8000509e:	ee f8 ff f4 	ld.w	r8,r7[-12]
800050a2:	70 08       	ld.w	r8,r8[0x0]
800050a4:	58 08       	cp.w	r8,0
800050a6:	c4 d0       	breq	80005140 <xQueueCreate+0xf8>
800050a8:	ee f8 ff f4 	ld.w	r8,r7[-12]
800050ac:	70 09       	ld.w	r9,r8[0x0]
800050ae:	ee fa ff f0 	ld.w	r10,r7[-16]
800050b2:	ee f8 ff ec 	ld.w	r8,r7[-20]
800050b6:	f4 08 02 48 	mul	r8,r10,r8
800050ba:	10 09       	add	r9,r8
800050bc:	ee f8 ff f4 	ld.w	r8,r7[-12]
800050c0:	91 19       	st.w	r8[0x4],r9
800050c2:	ee f8 ff f4 	ld.w	r8,r7[-12]
800050c6:	30 09       	mov	r9,0
800050c8:	91 e9       	st.w	r8[0x38],r9
800050ca:	ee f8 ff f4 	ld.w	r8,r7[-12]
800050ce:	70 09       	ld.w	r9,r8[0x0]
800050d0:	ee f8 ff f4 	ld.w	r8,r7[-12]
800050d4:	91 29       	st.w	r8[0x8],r9
800050d6:	ee f8 ff f4 	ld.w	r8,r7[-12]
800050da:	70 09       	ld.w	r9,r8[0x0]
800050dc:	ee f8 ff f0 	ld.w	r8,r7[-16]
800050e0:	f0 ca 00 01 	sub	r10,r8,1
800050e4:	ee f8 ff ec 	ld.w	r8,r7[-20]
800050e8:	f4 08 02 48 	mul	r8,r10,r8
800050ec:	10 09       	add	r9,r8
800050ee:	ee f8 ff f4 	ld.w	r8,r7[-12]
800050f2:	91 39       	st.w	r8[0xc],r9
800050f4:	ee f8 ff f4 	ld.w	r8,r7[-12]
800050f8:	ee f9 ff f0 	ld.w	r9,r7[-16]
800050fc:	91 f9       	st.w	r8[0x3c],r9
800050fe:	ee f8 ff f4 	ld.w	r8,r7[-12]
80005102:	ee f9 ff ec 	ld.w	r9,r7[-20]
80005106:	f1 49 00 40 	st.w	r8[64],r9
8000510a:	ee f8 ff f4 	ld.w	r8,r7[-12]
8000510e:	3f f9       	mov	r9,-1
80005110:	f1 49 00 44 	st.w	r8[68],r9
80005114:	ee f8 ff f4 	ld.w	r8,r7[-12]
80005118:	3f f9       	mov	r9,-1
8000511a:	f1 49 00 48 	st.w	r8[72],r9
8000511e:	ee f8 ff f4 	ld.w	r8,r7[-12]
80005122:	2f 08       	sub	r8,-16
80005124:	10 9c       	mov	r12,r8
80005126:	f0 1f 00 0d 	mcall	80005158 <xQueueCreate+0x110>
8000512a:	ee f8 ff f4 	ld.w	r8,r7[-12]
8000512e:	2d c8       	sub	r8,-36
80005130:	10 9c       	mov	r12,r8
80005132:	f0 1f 00 0a 	mcall	80005158 <xQueueCreate+0x110>
80005136:	ee f8 ff f4 	ld.w	r8,r7[-12]
8000513a:	ef 48 ff fc 	st.w	r7[-4],r8
8000513e:	c0 58       	rjmp	80005148 <xQueueCreate+0x100>
80005140:	ee fc ff f4 	ld.w	r12,r7[-12]
80005144:	f0 1f 00 06 	mcall	8000515c <xQueueCreate+0x114>
80005148:	ee f8 ff fc 	ld.w	r8,r7[-4]
8000514c:	10 9c       	mov	r12,r8
8000514e:	2f bd       	sub	sp,-20
80005150:	e3 cd 80 80 	ldm	sp++,r7,pc
80005154:	80 00       	ld.sh	r0,r0[0x0]
80005156:	4f d4       	lddpc	r4,80005348 <xQueueGenericReceive+0x3c>
80005158:	80 00       	ld.sh	r0,r0[0x0]
8000515a:	48 9c       	lddpc	r12,8000517c <xQueueCreateCountingSemaphore+0x1c>
8000515c:	80 00       	ld.sh	r0,r0[0x0]
8000515e:	50 10       	stdsp	sp[0x4],r0

80005160 <xQueueCreateCountingSemaphore>:
80005160:	eb cd 40 80 	pushm	r7,lr
80005164:	1a 97       	mov	r7,sp
80005166:	20 3d       	sub	sp,12
80005168:	ef 4c ff f8 	st.w	r7[-8],r12
8000516c:	ef 4b ff f4 	st.w	r7[-12],r11
80005170:	30 0b       	mov	r11,0
80005172:	ee fc ff f8 	ld.w	r12,r7[-8]
80005176:	f0 1f 00 0b 	mcall	800051a0 <xQueueCreateCountingSemaphore+0x40>
8000517a:	18 98       	mov	r8,r12
8000517c:	ef 48 ff fc 	st.w	r7[-4],r8
80005180:	ee f8 ff fc 	ld.w	r8,r7[-4]
80005184:	58 08       	cp.w	r8,0
80005186:	c0 60       	breq	80005192 <xQueueCreateCountingSemaphore+0x32>
80005188:	ee f8 ff fc 	ld.w	r8,r7[-4]
8000518c:	ee f9 ff f4 	ld.w	r9,r7[-12]
80005190:	91 e9       	st.w	r8[0x38],r9
80005192:	ee f8 ff fc 	ld.w	r8,r7[-4]
80005196:	10 9c       	mov	r12,r8
80005198:	2f dd       	sub	sp,-12
8000519a:	e3 cd 80 80 	ldm	sp++,r7,pc
8000519e:	00 00       	add	r0,r0
800051a0:	80 00       	ld.sh	r0,r0[0x0]
800051a2:	50 48       	stdsp	sp[0x10],r8

800051a4 <xQueueGenericSend>:
800051a4:	eb cd 40 80 	pushm	r7,lr
800051a8:	1a 97       	mov	r7,sp
800051aa:	20 7d       	sub	sp,28
800051ac:	ef 4c ff f0 	st.w	r7[-16],r12
800051b0:	ef 4b ff ec 	st.w	r7[-20],r11
800051b4:	ef 4a ff e8 	st.w	r7[-24],r10
800051b8:	ef 49 ff e4 	st.w	r7[-28],r9
800051bc:	30 08       	mov	r8,0
800051be:	ef 48 ff fc 	st.w	r7[-4],r8
800051c2:	c0 28       	rjmp	800051c6 <xQueueGenericSend+0x22>
800051c4:	d7 03       	nop
800051c6:	f0 1f 00 47 	mcall	800052e0 <xQueueGenericSend+0x13c>
800051ca:	ee f8 ff f0 	ld.w	r8,r7[-16]
800051ce:	70 e9       	ld.w	r9,r8[0x38]
800051d0:	ee f8 ff f0 	ld.w	r8,r7[-16]
800051d4:	70 f8       	ld.w	r8,r8[0x3c]
800051d6:	10 39       	cp.w	r9,r8
800051d8:	c1 c2       	brcc	80005210 <xQueueGenericSend+0x6c>
800051da:	ee fa ff e4 	ld.w	r10,r7[-28]
800051de:	ee fb ff ec 	ld.w	r11,r7[-20]
800051e2:	ee fc ff f0 	ld.w	r12,r7[-16]
800051e6:	f0 1f 00 40 	mcall	800052e4 <xQueueGenericSend+0x140>
800051ea:	ee f8 ff f0 	ld.w	r8,r7[-16]
800051ee:	70 98       	ld.w	r8,r8[0x24]
800051f0:	58 08       	cp.w	r8,0
800051f2:	c0 b0       	breq	80005208 <xQueueGenericSend+0x64>
800051f4:	ee f8 ff f0 	ld.w	r8,r7[-16]
800051f8:	2d c8       	sub	r8,-36
800051fa:	10 9c       	mov	r12,r8
800051fc:	f0 1f 00 3b 	mcall	800052e8 <xQueueGenericSend+0x144>
80005200:	18 98       	mov	r8,r12
80005202:	58 18       	cp.w	r8,1
80005204:	c0 21       	brne	80005208 <xQueueGenericSend+0x64>
80005206:	d7 33       	scall
80005208:	f0 1f 00 39 	mcall	800052ec <xQueueGenericSend+0x148>
8000520c:	30 18       	mov	r8,1
8000520e:	c6 58       	rjmp	800052d8 <xQueueGenericSend+0x134>
80005210:	ee f8 ff e8 	ld.w	r8,r7[-24]
80005214:	58 08       	cp.w	r8,0
80005216:	c0 51       	brne	80005220 <xQueueGenericSend+0x7c>
80005218:	f0 1f 00 35 	mcall	800052ec <xQueueGenericSend+0x148>
8000521c:	30 08       	mov	r8,0
8000521e:	c5 d8       	rjmp	800052d8 <xQueueGenericSend+0x134>
80005220:	ee f8 ff fc 	ld.w	r8,r7[-4]
80005224:	58 08       	cp.w	r8,0
80005226:	c0 91       	brne	80005238 <xQueueGenericSend+0x94>
80005228:	ee c8 00 0c 	sub	r8,r7,12
8000522c:	10 9c       	mov	r12,r8
8000522e:	f0 1f 00 31 	mcall	800052f0 <xQueueGenericSend+0x14c>
80005232:	30 18       	mov	r8,1
80005234:	ef 48 ff fc 	st.w	r7[-4],r8
80005238:	f0 1f 00 2d 	mcall	800052ec <xQueueGenericSend+0x148>
8000523c:	f0 1f 00 2e 	mcall	800052f4 <xQueueGenericSend+0x150>
80005240:	f0 1f 00 28 	mcall	800052e0 <xQueueGenericSend+0x13c>
80005244:	ee f8 ff f0 	ld.w	r8,r7[-16]
80005248:	71 18       	ld.w	r8,r8[0x44]
8000524a:	5b f8       	cp.w	r8,-1
8000524c:	c0 61       	brne	80005258 <xQueueGenericSend+0xb4>
8000524e:	ee f8 ff f0 	ld.w	r8,r7[-16]
80005252:	30 09       	mov	r9,0
80005254:	f1 49 00 44 	st.w	r8[68],r9
80005258:	ee f8 ff f0 	ld.w	r8,r7[-16]
8000525c:	71 28       	ld.w	r8,r8[0x48]
8000525e:	5b f8       	cp.w	r8,-1
80005260:	c0 61       	brne	8000526c <xQueueGenericSend+0xc8>
80005262:	ee f8 ff f0 	ld.w	r8,r7[-16]
80005266:	30 09       	mov	r9,0
80005268:	f1 49 00 48 	st.w	r8[72],r9
8000526c:	f0 1f 00 20 	mcall	800052ec <xQueueGenericSend+0x148>
80005270:	ee c9 00 18 	sub	r9,r7,24
80005274:	ee c8 00 0c 	sub	r8,r7,12
80005278:	12 9b       	mov	r11,r9
8000527a:	10 9c       	mov	r12,r8
8000527c:	f0 1f 00 1f 	mcall	800052f8 <xQueueGenericSend+0x154>
80005280:	18 98       	mov	r8,r12
80005282:	58 08       	cp.w	r8,0
80005284:	c2 31       	brne	800052ca <xQueueGenericSend+0x126>
80005286:	ee fc ff f0 	ld.w	r12,r7[-16]
8000528a:	f0 1f 00 1d 	mcall	800052fc <xQueueGenericSend+0x158>
8000528e:	18 98       	mov	r8,r12
80005290:	58 08       	cp.w	r8,0
80005292:	c1 50       	breq	800052bc <xQueueGenericSend+0x118>
80005294:	ee f9 ff e8 	ld.w	r9,r7[-24]
80005298:	ee f8 ff f0 	ld.w	r8,r7[-16]
8000529c:	2f 08       	sub	r8,-16
8000529e:	12 9b       	mov	r11,r9
800052a0:	10 9c       	mov	r12,r8
800052a2:	f0 1f 00 18 	mcall	80005300 <xQueueGenericSend+0x15c>
800052a6:	ee fc ff f0 	ld.w	r12,r7[-16]
800052aa:	f0 1f 00 17 	mcall	80005304 <xQueueGenericSend+0x160>
800052ae:	f0 1f 00 17 	mcall	80005308 <xQueueGenericSend+0x164>
800052b2:	18 98       	mov	r8,r12
800052b4:	58 08       	cp.w	r8,0
800052b6:	c8 71       	brne	800051c4 <xQueueGenericSend+0x20>
800052b8:	d7 33       	scall
800052ba:	c8 6b       	rjmp	800051c6 <xQueueGenericSend+0x22>
800052bc:	ee fc ff f0 	ld.w	r12,r7[-16]
800052c0:	f0 1f 00 11 	mcall	80005304 <xQueueGenericSend+0x160>
800052c4:	f0 1f 00 11 	mcall	80005308 <xQueueGenericSend+0x164>
800052c8:	c7 fb       	rjmp	800051c6 <xQueueGenericSend+0x22>
800052ca:	ee fc ff f0 	ld.w	r12,r7[-16]
800052ce:	f0 1f 00 0e 	mcall	80005304 <xQueueGenericSend+0x160>
800052d2:	f0 1f 00 0e 	mcall	80005308 <xQueueGenericSend+0x164>
800052d6:	30 08       	mov	r8,0
800052d8:	10 9c       	mov	r12,r8
800052da:	2f 9d       	sub	sp,-28
800052dc:	e3 cd 80 80 	ldm	sp++,r7,pc
800052e0:	80 00       	ld.sh	r0,r0[0x0]
800052e2:	4c 2c       	lddpc	r12,800053e8 <xQueueGenericReceive+0xdc>
800052e4:	80 00       	ld.sh	r0,r0[0x0]
800052e6:	54 b8       	stdsp	sp[0x12c],r8
800052e8:	80 00       	ld.sh	r0,r0[0x0]
800052ea:	5d 50       	*unknown*
800052ec:	80 00       	ld.sh	r0,r0[0x0]
800052ee:	4c 48       	lddpc	r8,800053fc <xQueueGenericReceive+0xf0>
800052f0:	80 00       	ld.sh	r0,r0[0x0]
800052f2:	5e 20       	reths	r0
800052f4:	80 00       	ld.sh	r0,r0[0x0]
800052f6:	59 7c       	cp.w	r12,23
800052f8:	80 00       	ld.sh	r0,r0[0x0]
800052fa:	5e 50       	retlt	r0
800052fc:	80 00       	ld.sh	r0,r0[0x0]
800052fe:	57 0c       	stdsp	sp[0x1c0],r12
80005300:	80 00       	ld.sh	r0,r0[0x0]
80005302:	5c d0       	com	r0
80005304:	80 00       	ld.sh	r0,r0[0x0]
80005306:	56 04       	stdsp	sp[0x180],r4
80005308:	80 00       	ld.sh	r0,r0[0x0]
8000530a:	59 98       	cp.w	r8,25

8000530c <xQueueGenericReceive>:
8000530c:	eb cd 40 80 	pushm	r7,lr
80005310:	1a 97       	mov	r7,sp
80005312:	20 8d       	sub	sp,32
80005314:	ef 4c ff ec 	st.w	r7[-20],r12
80005318:	ef 4b ff e8 	st.w	r7[-24],r11
8000531c:	ef 4a ff e4 	st.w	r7[-28],r10
80005320:	ef 49 ff e0 	st.w	r7[-32],r9
80005324:	30 08       	mov	r8,0
80005326:	ef 48 ff f8 	st.w	r7[-8],r8
8000532a:	c0 28       	rjmp	8000532e <xQueueGenericReceive+0x22>
8000532c:	d7 03       	nop
8000532e:	f0 1f 00 58 	mcall	8000548c <xQueueGenericReceive+0x180>
80005332:	ee f8 ff ec 	ld.w	r8,r7[-20]
80005336:	70 e8       	ld.w	r8,r8[0x38]
80005338:	58 08       	cp.w	r8,0
8000533a:	c4 00       	breq	800053ba <xQueueGenericReceive+0xae>
8000533c:	ee f8 ff ec 	ld.w	r8,r7[-20]
80005340:	70 38       	ld.w	r8,r8[0xc]
80005342:	ef 48 ff fc 	st.w	r7[-4],r8
80005346:	ee fb ff e8 	ld.w	r11,r7[-24]
8000534a:	ee fc ff ec 	ld.w	r12,r7[-20]
8000534e:	f0 1f 00 51 	mcall	80005490 <xQueueGenericReceive+0x184>
80005352:	ee f8 ff e0 	ld.w	r8,r7[-32]
80005356:	58 08       	cp.w	r8,0
80005358:	c1 91       	brne	8000538a <xQueueGenericReceive+0x7e>
8000535a:	ee f8 ff ec 	ld.w	r8,r7[-20]
8000535e:	70 e8       	ld.w	r8,r8[0x38]
80005360:	f0 c9 00 01 	sub	r9,r8,1
80005364:	ee f8 ff ec 	ld.w	r8,r7[-20]
80005368:	91 e9       	st.w	r8[0x38],r9
8000536a:	ee f8 ff ec 	ld.w	r8,r7[-20]
8000536e:	70 48       	ld.w	r8,r8[0x10]
80005370:	58 08       	cp.w	r8,0
80005372:	c2 00       	breq	800053b2 <xQueueGenericReceive+0xa6>
80005374:	ee f8 ff ec 	ld.w	r8,r7[-20]
80005378:	2f 08       	sub	r8,-16
8000537a:	10 9c       	mov	r12,r8
8000537c:	f0 1f 00 46 	mcall	80005494 <xQueueGenericReceive+0x188>
80005380:	18 98       	mov	r8,r12
80005382:	58 18       	cp.w	r8,1
80005384:	c1 71       	brne	800053b2 <xQueueGenericReceive+0xa6>
80005386:	d7 33       	scall
80005388:	c1 58       	rjmp	800053b2 <xQueueGenericReceive+0xa6>
8000538a:	ee f8 ff ec 	ld.w	r8,r7[-20]
8000538e:	ee f9 ff fc 	ld.w	r9,r7[-4]
80005392:	91 39       	st.w	r8[0xc],r9
80005394:	ee f8 ff ec 	ld.w	r8,r7[-20]
80005398:	70 98       	ld.w	r8,r8[0x24]
8000539a:	58 08       	cp.w	r8,0
8000539c:	c0 b0       	breq	800053b2 <xQueueGenericReceive+0xa6>
8000539e:	ee f8 ff ec 	ld.w	r8,r7[-20]
800053a2:	2d c8       	sub	r8,-36
800053a4:	10 9c       	mov	r12,r8
800053a6:	f0 1f 00 3c 	mcall	80005494 <xQueueGenericReceive+0x188>
800053aa:	18 98       	mov	r8,r12
800053ac:	58 08       	cp.w	r8,0
800053ae:	c0 20       	breq	800053b2 <xQueueGenericReceive+0xa6>
800053b0:	d7 33       	scall
800053b2:	f0 1f 00 3a 	mcall	80005498 <xQueueGenericReceive+0x18c>
800053b6:	30 18       	mov	r8,1
800053b8:	c6 68       	rjmp	80005484 <xQueueGenericReceive+0x178>
800053ba:	ee f8 ff e4 	ld.w	r8,r7[-28]
800053be:	58 08       	cp.w	r8,0
800053c0:	c0 51       	brne	800053ca <xQueueGenericReceive+0xbe>
800053c2:	f0 1f 00 36 	mcall	80005498 <xQueueGenericReceive+0x18c>
800053c6:	30 08       	mov	r8,0
800053c8:	c5 e8       	rjmp	80005484 <xQueueGenericReceive+0x178>
800053ca:	ee f8 ff f8 	ld.w	r8,r7[-8]
800053ce:	58 08       	cp.w	r8,0
800053d0:	c0 91       	brne	800053e2 <xQueueGenericReceive+0xd6>
800053d2:	ee c8 00 10 	sub	r8,r7,16
800053d6:	10 9c       	mov	r12,r8
800053d8:	f0 1f 00 31 	mcall	8000549c <xQueueGenericReceive+0x190>
800053dc:	30 18       	mov	r8,1
800053de:	ef 48 ff f8 	st.w	r7[-8],r8
800053e2:	f0 1f 00 2e 	mcall	80005498 <xQueueGenericReceive+0x18c>
800053e6:	f0 1f 00 2f 	mcall	800054a0 <xQueueGenericReceive+0x194>
800053ea:	f0 1f 00 29 	mcall	8000548c <xQueueGenericReceive+0x180>
800053ee:	ee f8 ff ec 	ld.w	r8,r7[-20]
800053f2:	71 18       	ld.w	r8,r8[0x44]
800053f4:	5b f8       	cp.w	r8,-1
800053f6:	c0 61       	brne	80005402 <xQueueGenericReceive+0xf6>
800053f8:	ee f8 ff ec 	ld.w	r8,r7[-20]
800053fc:	30 09       	mov	r9,0
800053fe:	f1 49 00 44 	st.w	r8[68],r9
80005402:	ee f8 ff ec 	ld.w	r8,r7[-20]
80005406:	71 28       	ld.w	r8,r8[0x48]
80005408:	5b f8       	cp.w	r8,-1
8000540a:	c0 61       	brne	80005416 <xQueueGenericReceive+0x10a>
8000540c:	ee f8 ff ec 	ld.w	r8,r7[-20]
80005410:	30 09       	mov	r9,0
80005412:	f1 49 00 48 	st.w	r8[72],r9
80005416:	f0 1f 00 21 	mcall	80005498 <xQueueGenericReceive+0x18c>
8000541a:	ee c9 00 1c 	sub	r9,r7,28
8000541e:	ee c8 00 10 	sub	r8,r7,16
80005422:	12 9b       	mov	r11,r9
80005424:	10 9c       	mov	r12,r8
80005426:	f0 1f 00 20 	mcall	800054a4 <xQueueGenericReceive+0x198>
8000542a:	18 98       	mov	r8,r12
8000542c:	58 08       	cp.w	r8,0
8000542e:	c2 41       	brne	80005476 <xQueueGenericReceive+0x16a>
80005430:	ee fc ff ec 	ld.w	r12,r7[-20]
80005434:	f0 1f 00 1d 	mcall	800054a8 <xQueueGenericReceive+0x19c>
80005438:	18 98       	mov	r8,r12
8000543a:	58 08       	cp.w	r8,0
8000543c:	c1 60       	breq	80005468 <xQueueGenericReceive+0x15c>
8000543e:	ee f9 ff e4 	ld.w	r9,r7[-28]
80005442:	ee f8 ff ec 	ld.w	r8,r7[-20]
80005446:	2d c8       	sub	r8,-36
80005448:	12 9b       	mov	r11,r9
8000544a:	10 9c       	mov	r12,r8
8000544c:	f0 1f 00 18 	mcall	800054ac <xQueueGenericReceive+0x1a0>
80005450:	ee fc ff ec 	ld.w	r12,r7[-20]
80005454:	f0 1f 00 17 	mcall	800054b0 <xQueueGenericReceive+0x1a4>
80005458:	f0 1f 00 17 	mcall	800054b4 <xQueueGenericReceive+0x1a8>
8000545c:	18 98       	mov	r8,r12
8000545e:	58 08       	cp.w	r8,0
80005460:	fe 91 ff 66 	brne	8000532c <xQueueGenericReceive+0x20>
80005464:	d7 33       	scall
80005466:	c6 4b       	rjmp	8000532e <xQueueGenericReceive+0x22>
80005468:	ee fc ff ec 	ld.w	r12,r7[-20]
8000546c:	f0 1f 00 11 	mcall	800054b0 <xQueueGenericReceive+0x1a4>
80005470:	f0 1f 00 11 	mcall	800054b4 <xQueueGenericReceive+0x1a8>
80005474:	c5 db       	rjmp	8000532e <xQueueGenericReceive+0x22>
80005476:	ee fc ff ec 	ld.w	r12,r7[-20]
8000547a:	f0 1f 00 0e 	mcall	800054b0 <xQueueGenericReceive+0x1a4>
8000547e:	f0 1f 00 0e 	mcall	800054b4 <xQueueGenericReceive+0x1a8>
80005482:	30 08       	mov	r8,0
80005484:	10 9c       	mov	r12,r8
80005486:	2f 8d       	sub	sp,-32
80005488:	e3 cd 80 80 	ldm	sp++,r7,pc
8000548c:	80 00       	ld.sh	r0,r0[0x0]
8000548e:	4c 2c       	lddpc	r12,80005594 <prvCopyDataToQueue+0xdc>
80005490:	80 00       	ld.sh	r0,r0[0x0]
80005492:	55 98       	stdsp	sp[0x164],r8
80005494:	80 00       	ld.sh	r0,r0[0x0]
80005496:	5d 50       	*unknown*
80005498:	80 00       	ld.sh	r0,r0[0x0]
8000549a:	4c 48       	lddpc	r8,800055a8 <prvCopyDataFromQueue+0x10>
8000549c:	80 00       	ld.sh	r0,r0[0x0]
8000549e:	5e 20       	reths	r0
800054a0:	80 00       	ld.sh	r0,r0[0x0]
800054a2:	59 7c       	cp.w	r12,23
800054a4:	80 00       	ld.sh	r0,r0[0x0]
800054a6:	5e 50       	retlt	r0
800054a8:	80 00       	ld.sh	r0,r0[0x0]
800054aa:	56 d4       	stdsp	sp[0x1b4],r4
800054ac:	80 00       	ld.sh	r0,r0[0x0]
800054ae:	5c d0       	com	r0
800054b0:	80 00       	ld.sh	r0,r0[0x0]
800054b2:	56 04       	stdsp	sp[0x180],r4
800054b4:	80 00       	ld.sh	r0,r0[0x0]
800054b6:	59 98       	cp.w	r8,25

800054b8 <prvCopyDataToQueue>:
800054b8:	eb cd 40 80 	pushm	r7,lr
800054bc:	1a 97       	mov	r7,sp
800054be:	20 3d       	sub	sp,12
800054c0:	ef 4c ff fc 	st.w	r7[-4],r12
800054c4:	ef 4b ff f8 	st.w	r7[-8],r11
800054c8:	ef 4a ff f4 	st.w	r7[-12],r10
800054cc:	ee f8 ff fc 	ld.w	r8,r7[-4]
800054d0:	71 08       	ld.w	r8,r8[0x40]
800054d2:	58 08       	cp.w	r8,0
800054d4:	c5 40       	breq	8000557c <prvCopyDataToQueue+0xc4>
800054d6:	ee f8 ff f4 	ld.w	r8,r7[-12]
800054da:	58 08       	cp.w	r8,0
800054dc:	c2 61       	brne	80005528 <prvCopyDataToQueue+0x70>
800054de:	ee f8 ff fc 	ld.w	r8,r7[-4]
800054e2:	71 09       	ld.w	r9,r8[0x40]
800054e4:	ee f8 ff fc 	ld.w	r8,r7[-4]
800054e8:	70 28       	ld.w	r8,r8[0x8]
800054ea:	12 9a       	mov	r10,r9
800054ec:	ee fb ff f8 	ld.w	r11,r7[-8]
800054f0:	10 9c       	mov	r12,r8
800054f2:	f0 1f 00 29 	mcall	80005594 <prvCopyDataToQueue+0xdc>
800054f6:	ee f8 ff fc 	ld.w	r8,r7[-4]
800054fa:	70 29       	ld.w	r9,r8[0x8]
800054fc:	ee f8 ff fc 	ld.w	r8,r7[-4]
80005500:	71 08       	ld.w	r8,r8[0x40]
80005502:	10 09       	add	r9,r8
80005504:	ee f8 ff fc 	ld.w	r8,r7[-4]
80005508:	91 29       	st.w	r8[0x8],r9
8000550a:	ee f8 ff fc 	ld.w	r8,r7[-4]
8000550e:	70 29       	ld.w	r9,r8[0x8]
80005510:	ee f8 ff fc 	ld.w	r8,r7[-4]
80005514:	70 18       	ld.w	r8,r8[0x4]
80005516:	10 39       	cp.w	r9,r8
80005518:	c3 23       	brcs	8000557c <prvCopyDataToQueue+0xc4>
8000551a:	ee f8 ff fc 	ld.w	r8,r7[-4]
8000551e:	70 09       	ld.w	r9,r8[0x0]
80005520:	ee f8 ff fc 	ld.w	r8,r7[-4]
80005524:	91 29       	st.w	r8[0x8],r9
80005526:	c2 b8       	rjmp	8000557c <prvCopyDataToQueue+0xc4>
80005528:	ee f8 ff fc 	ld.w	r8,r7[-4]
8000552c:	71 09       	ld.w	r9,r8[0x40]
8000552e:	ee f8 ff fc 	ld.w	r8,r7[-4]
80005532:	70 38       	ld.w	r8,r8[0xc]
80005534:	12 9a       	mov	r10,r9
80005536:	ee fb ff f8 	ld.w	r11,r7[-8]
8000553a:	10 9c       	mov	r12,r8
8000553c:	f0 1f 00 16 	mcall	80005594 <prvCopyDataToQueue+0xdc>
80005540:	ee f8 ff fc 	ld.w	r8,r7[-4]
80005544:	70 39       	ld.w	r9,r8[0xc]
80005546:	ee f8 ff fc 	ld.w	r8,r7[-4]
8000554a:	71 08       	ld.w	r8,r8[0x40]
8000554c:	5c 38       	neg	r8
8000554e:	10 09       	add	r9,r8
80005550:	ee f8 ff fc 	ld.w	r8,r7[-4]
80005554:	91 39       	st.w	r8[0xc],r9
80005556:	ee f8 ff fc 	ld.w	r8,r7[-4]
8000555a:	70 39       	ld.w	r9,r8[0xc]
8000555c:	ee f8 ff fc 	ld.w	r8,r7[-4]
80005560:	70 08       	ld.w	r8,r8[0x0]
80005562:	10 39       	cp.w	r9,r8
80005564:	c0 c2       	brcc	8000557c <prvCopyDataToQueue+0xc4>
80005566:	ee f8 ff fc 	ld.w	r8,r7[-4]
8000556a:	70 19       	ld.w	r9,r8[0x4]
8000556c:	ee f8 ff fc 	ld.w	r8,r7[-4]
80005570:	71 08       	ld.w	r8,r8[0x40]
80005572:	5c 38       	neg	r8
80005574:	10 09       	add	r9,r8
80005576:	ee f8 ff fc 	ld.w	r8,r7[-4]
8000557a:	91 39       	st.w	r8[0xc],r9
8000557c:	ee f8 ff fc 	ld.w	r8,r7[-4]
80005580:	70 e8       	ld.w	r8,r8[0x38]
80005582:	f0 c9 ff ff 	sub	r9,r8,-1
80005586:	ee f8 ff fc 	ld.w	r8,r7[-4]
8000558a:	91 e9       	st.w	r8[0x38],r9
8000558c:	2f dd       	sub	sp,-12
8000558e:	e3 cd 80 80 	ldm	sp++,r7,pc
80005592:	00 00       	add	r0,r0
80005594:	80 00       	ld.sh	r0,r0[0x0]
80005596:	69 3c       	ld.w	r12,r4[0x4c]

80005598 <prvCopyDataFromQueue>:
80005598:	eb cd 40 80 	pushm	r7,lr
8000559c:	1a 97       	mov	r7,sp
8000559e:	20 2d       	sub	sp,8
800055a0:	ef 4c ff fc 	st.w	r7[-4],r12
800055a4:	ef 4b ff f8 	st.w	r7[-8],r11
800055a8:	ee f8 ff fc 	ld.w	r8,r7[-4]
800055ac:	70 08       	ld.w	r8,r8[0x0]
800055ae:	58 08       	cp.w	r8,0
800055b0:	c2 50       	breq	800055fa <prvCopyDataFromQueue+0x62>
800055b2:	ee f8 ff fc 	ld.w	r8,r7[-4]
800055b6:	70 39       	ld.w	r9,r8[0xc]
800055b8:	ee f8 ff fc 	ld.w	r8,r7[-4]
800055bc:	71 08       	ld.w	r8,r8[0x40]
800055be:	10 09       	add	r9,r8
800055c0:	ee f8 ff fc 	ld.w	r8,r7[-4]
800055c4:	91 39       	st.w	r8[0xc],r9
800055c6:	ee f8 ff fc 	ld.w	r8,r7[-4]
800055ca:	70 39       	ld.w	r9,r8[0xc]
800055cc:	ee f8 ff fc 	ld.w	r8,r7[-4]
800055d0:	70 18       	ld.w	r8,r8[0x4]
800055d2:	10 39       	cp.w	r9,r8
800055d4:	c0 73       	brcs	800055e2 <prvCopyDataFromQueue+0x4a>
800055d6:	ee f8 ff fc 	ld.w	r8,r7[-4]
800055da:	70 09       	ld.w	r9,r8[0x0]
800055dc:	ee f8 ff fc 	ld.w	r8,r7[-4]
800055e0:	91 39       	st.w	r8[0xc],r9
800055e2:	ee f8 ff fc 	ld.w	r8,r7[-4]
800055e6:	71 09       	ld.w	r9,r8[0x40]
800055e8:	ee f8 ff fc 	ld.w	r8,r7[-4]
800055ec:	70 38       	ld.w	r8,r8[0xc]
800055ee:	12 9a       	mov	r10,r9
800055f0:	10 9b       	mov	r11,r8
800055f2:	ee fc ff f8 	ld.w	r12,r7[-8]
800055f6:	f0 1f 00 03 	mcall	80005600 <prvCopyDataFromQueue+0x68>
800055fa:	2f ed       	sub	sp,-8
800055fc:	e3 cd 80 80 	ldm	sp++,r7,pc
80005600:	80 00       	ld.sh	r0,r0[0x0]
80005602:	69 3c       	ld.w	r12,r4[0x4c]

80005604 <prvUnlockQueue>:
80005604:	eb cd 40 80 	pushm	r7,lr
80005608:	1a 97       	mov	r7,sp
8000560a:	20 1d       	sub	sp,4
8000560c:	ef 4c ff fc 	st.w	r7[-4],r12
80005610:	f0 1f 00 2d 	mcall	800056c4 <prvUnlockQueue+0xc0>
80005614:	c1 a8       	rjmp	80005648 <prvUnlockQueue+0x44>
80005616:	ee f8 ff fc 	ld.w	r8,r7[-4]
8000561a:	70 98       	ld.w	r8,r8[0x24]
8000561c:	58 08       	cp.w	r8,0
8000561e:	c1 c0       	breq	80005656 <prvUnlockQueue+0x52>
80005620:	ee f8 ff fc 	ld.w	r8,r7[-4]
80005624:	2d c8       	sub	r8,-36
80005626:	10 9c       	mov	r12,r8
80005628:	f0 1f 00 28 	mcall	800056c8 <prvUnlockQueue+0xc4>
8000562c:	18 98       	mov	r8,r12
8000562e:	58 08       	cp.w	r8,0
80005630:	c0 30       	breq	80005636 <prvUnlockQueue+0x32>
80005632:	f0 1f 00 27 	mcall	800056cc <prvUnlockQueue+0xc8>
80005636:	ee f8 ff fc 	ld.w	r8,r7[-4]
8000563a:	71 28       	ld.w	r8,r8[0x48]
8000563c:	f0 c9 00 01 	sub	r9,r8,1
80005640:	ee f8 ff fc 	ld.w	r8,r7[-4]
80005644:	f1 49 00 48 	st.w	r8[72],r9
80005648:	ee f8 ff fc 	ld.w	r8,r7[-4]
8000564c:	71 28       	ld.w	r8,r8[0x48]
8000564e:	58 08       	cp.w	r8,0
80005650:	fe 99 ff e3 	brgt	80005616 <prvUnlockQueue+0x12>
80005654:	c0 28       	rjmp	80005658 <prvUnlockQueue+0x54>
80005656:	d7 03       	nop
80005658:	ee f8 ff fc 	ld.w	r8,r7[-4]
8000565c:	3f f9       	mov	r9,-1
8000565e:	f1 49 00 48 	st.w	r8[72],r9
80005662:	f0 1f 00 1c 	mcall	800056d0 <prvUnlockQueue+0xcc>
80005666:	f0 1f 00 18 	mcall	800056c4 <prvUnlockQueue+0xc0>
8000566a:	c1 a8       	rjmp	8000569e <prvUnlockQueue+0x9a>
8000566c:	ee f8 ff fc 	ld.w	r8,r7[-4]
80005670:	70 48       	ld.w	r8,r8[0x10]
80005672:	58 08       	cp.w	r8,0
80005674:	c1 c0       	breq	800056ac <prvUnlockQueue+0xa8>
80005676:	ee f8 ff fc 	ld.w	r8,r7[-4]
8000567a:	2f 08       	sub	r8,-16
8000567c:	10 9c       	mov	r12,r8
8000567e:	f0 1f 00 13 	mcall	800056c8 <prvUnlockQueue+0xc4>
80005682:	18 98       	mov	r8,r12
80005684:	58 08       	cp.w	r8,0
80005686:	c0 30       	breq	8000568c <prvUnlockQueue+0x88>
80005688:	f0 1f 00 11 	mcall	800056cc <prvUnlockQueue+0xc8>
8000568c:	ee f8 ff fc 	ld.w	r8,r7[-4]
80005690:	71 18       	ld.w	r8,r8[0x44]
80005692:	f0 c9 00 01 	sub	r9,r8,1
80005696:	ee f8 ff fc 	ld.w	r8,r7[-4]
8000569a:	f1 49 00 44 	st.w	r8[68],r9
8000569e:	ee f8 ff fc 	ld.w	r8,r7[-4]
800056a2:	71 18       	ld.w	r8,r8[0x44]
800056a4:	58 08       	cp.w	r8,0
800056a6:	fe 99 ff e3 	brgt	8000566c <prvUnlockQueue+0x68>
800056aa:	c0 28       	rjmp	800056ae <prvUnlockQueue+0xaa>
800056ac:	d7 03       	nop
800056ae:	ee f8 ff fc 	ld.w	r8,r7[-4]
800056b2:	3f f9       	mov	r9,-1
800056b4:	f1 49 00 44 	st.w	r8[68],r9
800056b8:	f0 1f 00 06 	mcall	800056d0 <prvUnlockQueue+0xcc>
800056bc:	2f fd       	sub	sp,-4
800056be:	e3 cd 80 80 	ldm	sp++,r7,pc
800056c2:	00 00       	add	r0,r0
800056c4:	80 00       	ld.sh	r0,r0[0x0]
800056c6:	4c 2c       	lddpc	r12,800057cc <xTaskGenericCreate+0x7c>
800056c8:	80 00       	ld.sh	r0,r0[0x0]
800056ca:	5d 50       	*unknown*
800056cc:	80 00       	ld.sh	r0,r0[0x0]
800056ce:	5f 08       	sreq	r8
800056d0:	80 00       	ld.sh	r0,r0[0x0]
800056d2:	4c 48       	lddpc	r8,800057e0 <xTaskGenericCreate+0x90>

800056d4 <prvIsQueueEmpty>:
800056d4:	eb cd 40 80 	pushm	r7,lr
800056d8:	1a 97       	mov	r7,sp
800056da:	20 2d       	sub	sp,8
800056dc:	ef 4c ff f8 	st.w	r7[-8],r12
800056e0:	f0 1f 00 09 	mcall	80005704 <prvIsQueueEmpty+0x30>
800056e4:	ee f8 ff f8 	ld.w	r8,r7[-8]
800056e8:	70 e8       	ld.w	r8,r8[0x38]
800056ea:	58 08       	cp.w	r8,0
800056ec:	5f 08       	sreq	r8
800056ee:	ef 48 ff fc 	st.w	r7[-4],r8
800056f2:	f0 1f 00 06 	mcall	80005708 <prvIsQueueEmpty+0x34>
800056f6:	ee f8 ff fc 	ld.w	r8,r7[-4]
800056fa:	10 9c       	mov	r12,r8
800056fc:	2f ed       	sub	sp,-8
800056fe:	e3 cd 80 80 	ldm	sp++,r7,pc
80005702:	00 00       	add	r0,r0
80005704:	80 00       	ld.sh	r0,r0[0x0]
80005706:	4c 2c       	lddpc	r12,8000580c <xTaskGenericCreate+0xbc>
80005708:	80 00       	ld.sh	r0,r0[0x0]
8000570a:	4c 48       	lddpc	r8,80005818 <xTaskGenericCreate+0xc8>

8000570c <prvIsQueueFull>:
8000570c:	eb cd 40 80 	pushm	r7,lr
80005710:	1a 97       	mov	r7,sp
80005712:	20 2d       	sub	sp,8
80005714:	ef 4c ff f8 	st.w	r7[-8],r12
80005718:	f0 1f 00 0a 	mcall	80005740 <prvIsQueueFull+0x34>
8000571c:	ee f8 ff f8 	ld.w	r8,r7[-8]
80005720:	70 e9       	ld.w	r9,r8[0x38]
80005722:	ee f8 ff f8 	ld.w	r8,r7[-8]
80005726:	70 f8       	ld.w	r8,r8[0x3c]
80005728:	10 39       	cp.w	r9,r8
8000572a:	5f 08       	sreq	r8
8000572c:	ef 48 ff fc 	st.w	r7[-4],r8
80005730:	f0 1f 00 05 	mcall	80005744 <prvIsQueueFull+0x38>
80005734:	ee f8 ff fc 	ld.w	r8,r7[-4]
80005738:	10 9c       	mov	r12,r8
8000573a:	2f ed       	sub	sp,-8
8000573c:	e3 cd 80 80 	ldm	sp++,r7,pc
80005740:	80 00       	ld.sh	r0,r0[0x0]
80005742:	4c 2c       	lddpc	r12,80005848 <xTaskGenericCreate+0xf8>
80005744:	80 00       	ld.sh	r0,r0[0x0]
80005746:	4c 48       	lddpc	r8,80005854 <xTaskGenericCreate+0x104>
80005748:	49 44       	lddpc	r4,80005798 <xTaskGenericCreate+0x48>
8000574a:	4c 45       	lddpc	r5,80005858 <xTaskGenericCreate+0x108>
8000574c:	00 00       	add	r0,r0
	...

80005750 <xTaskGenericCreate>:
80005750:	eb cd 40 c0 	pushm	r6-r7,lr
80005754:	1a 97       	mov	r7,sp
80005756:	20 8d       	sub	sp,32
80005758:	ee c6 ff f4 	sub	r6,r7,-12
8000575c:	ef 4c ff f0 	st.w	r7[-16],r12
80005760:	ef 4b ff ec 	st.w	r7[-20],r11
80005764:	ef 49 ff e4 	st.w	r7[-28],r9
80005768:	ef 48 ff e0 	st.w	r7[-32],r8
8000576c:	14 98       	mov	r8,r10
8000576e:	ef 58 ff e8 	st.h	r7[-24],r8
80005772:	ef 18 ff e8 	ld.uh	r8,r7[-24]
80005776:	6c 1b       	ld.w	r11,r6[0x4]
80005778:	10 9c       	mov	r12,r8
8000577a:	f0 1f 00 5a 	mcall	800058e0 <xTaskGenericCreate+0x190>
8000577e:	18 98       	mov	r8,r12
80005780:	ef 48 ff f8 	st.w	r7[-8],r8
80005784:	ee f8 ff f8 	ld.w	r8,r7[-8]
80005788:	58 08       	cp.w	r8,0
8000578a:	e0 80 00 92 	breq	800058ae <xTaskGenericCreate+0x15e>
8000578e:	ee f8 ff f8 	ld.w	r8,r7[-8]
80005792:	70 c9       	ld.w	r9,r8[0x30]
80005794:	ef 18 ff e8 	ld.uh	r8,r7[-24]
80005798:	20 18       	sub	r8,1
8000579a:	a3 68       	lsl	r8,0x2
8000579c:	f2 08 00 08 	add	r8,r9,r8
800057a0:	ef 48 ff fc 	st.w	r7[-4],r8
800057a4:	ee f8 ff fc 	ld.w	r8,r7[-4]
800057a8:	e0 18 ff fc 	andl	r8,0xfffc
800057ac:	ef 48 ff fc 	st.w	r7[-4],r8
800057b0:	ef 18 ff e8 	ld.uh	r8,r7[-24]
800057b4:	6c 29       	ld.w	r9,r6[0x8]
800057b6:	ee fa ff e0 	ld.w	r10,r7[-32]
800057ba:	ee fb ff ec 	ld.w	r11,r7[-20]
800057be:	ee fc ff f8 	ld.w	r12,r7[-8]
800057c2:	f0 1f 00 49 	mcall	800058e4 <xTaskGenericCreate+0x194>
800057c6:	ee fa ff e4 	ld.w	r10,r7[-28]
800057ca:	ee fb ff f0 	ld.w	r11,r7[-16]
800057ce:	ee fc ff fc 	ld.w	r12,r7[-4]
800057d2:	f0 1f 00 46 	mcall	800058e8 <xTaskGenericCreate+0x198>
800057d6:	18 98       	mov	r8,r12
800057d8:	10 99       	mov	r9,r8
800057da:	ee f8 ff f8 	ld.w	r8,r7[-8]
800057de:	91 09       	st.w	r8[0x0],r9
800057e0:	6c 08       	ld.w	r8,r6[0x0]
800057e2:	58 08       	cp.w	r8,0
800057e4:	c0 50       	breq	800057ee <xTaskGenericCreate+0x9e>
800057e6:	6c 08       	ld.w	r8,r6[0x0]
800057e8:	ee f9 ff f8 	ld.w	r9,r7[-8]
800057ec:	91 09       	st.w	r8[0x0],r9
800057ee:	f0 1f 00 40 	mcall	800058ec <xTaskGenericCreate+0x19c>
800057f2:	4c 08       	lddpc	r8,800058f0 <xTaskGenericCreate+0x1a0>
800057f4:	70 08       	ld.w	r8,r8[0x0]
800057f6:	f0 c9 ff ff 	sub	r9,r8,-1
800057fa:	4b e8       	lddpc	r8,800058f0 <xTaskGenericCreate+0x1a0>
800057fc:	91 09       	st.w	r8[0x0],r9
800057fe:	4b e8       	lddpc	r8,800058f4 <xTaskGenericCreate+0x1a4>
80005800:	70 08       	ld.w	r8,r8[0x0]
80005802:	58 08       	cp.w	r8,0
80005804:	c0 c1       	brne	8000581c <xTaskGenericCreate+0xcc>
80005806:	4b c8       	lddpc	r8,800058f4 <xTaskGenericCreate+0x1a4>
80005808:	ee f9 ff f8 	ld.w	r9,r7[-8]
8000580c:	91 09       	st.w	r8[0x0],r9
8000580e:	4b 98       	lddpc	r8,800058f0 <xTaskGenericCreate+0x1a0>
80005810:	70 08       	ld.w	r8,r8[0x0]
80005812:	58 18       	cp.w	r8,1
80005814:	c1 41       	brne	8000583c <xTaskGenericCreate+0xec>
80005816:	f0 1f 00 39 	mcall	800058f8 <xTaskGenericCreate+0x1a8>
8000581a:	c1 18       	rjmp	8000583c <xTaskGenericCreate+0xec>
8000581c:	4b 88       	lddpc	r8,800058fc <xTaskGenericCreate+0x1ac>
8000581e:	70 08       	ld.w	r8,r8[0x0]
80005820:	58 08       	cp.w	r8,0
80005822:	c0 d1       	brne	8000583c <xTaskGenericCreate+0xec>
80005824:	4b 48       	lddpc	r8,800058f4 <xTaskGenericCreate+0x1a4>
80005826:	70 08       	ld.w	r8,r8[0x0]
80005828:	70 b9       	ld.w	r9,r8[0x2c]
8000582a:	ee f8 ff e0 	ld.w	r8,r7[-32]
8000582e:	10 39       	cp.w	r9,r8
80005830:	e0 8b 00 06 	brhi	8000583c <xTaskGenericCreate+0xec>
80005834:	4b 08       	lddpc	r8,800058f4 <xTaskGenericCreate+0x1a4>
80005836:	ee f9 ff f8 	ld.w	r9,r7[-8]
8000583a:	91 09       	st.w	r8[0x0],r9
8000583c:	ee f8 ff f8 	ld.w	r8,r7[-8]
80005840:	70 b9       	ld.w	r9,r8[0x2c]
80005842:	4b 08       	lddpc	r8,80005900 <xTaskGenericCreate+0x1b0>
80005844:	70 08       	ld.w	r8,r8[0x0]
80005846:	10 39       	cp.w	r9,r8
80005848:	e0 88 00 07 	brls	80005856 <xTaskGenericCreate+0x106>
8000584c:	ee f8 ff f8 	ld.w	r8,r7[-8]
80005850:	70 b9       	ld.w	r9,r8[0x2c]
80005852:	4a c8       	lddpc	r8,80005900 <xTaskGenericCreate+0x1b0>
80005854:	91 09       	st.w	r8[0x0],r9
80005856:	4a c8       	lddpc	r8,80005904 <xTaskGenericCreate+0x1b4>
80005858:	70 08       	ld.w	r8,r8[0x0]
8000585a:	f0 c9 ff ff 	sub	r9,r8,-1
8000585e:	4a a8       	lddpc	r8,80005904 <xTaskGenericCreate+0x1b4>
80005860:	91 09       	st.w	r8[0x0],r9
80005862:	ee f8 ff f8 	ld.w	r8,r7[-8]
80005866:	70 b9       	ld.w	r9,r8[0x2c]
80005868:	4a 88       	lddpc	r8,80005908 <xTaskGenericCreate+0x1b8>
8000586a:	70 08       	ld.w	r8,r8[0x0]
8000586c:	10 39       	cp.w	r9,r8
8000586e:	e0 88 00 07 	brls	8000587c <xTaskGenericCreate+0x12c>
80005872:	ee f8 ff f8 	ld.w	r8,r7[-8]
80005876:	70 b9       	ld.w	r9,r8[0x2c]
80005878:	4a 48       	lddpc	r8,80005908 <xTaskGenericCreate+0x1b8>
8000587a:	91 09       	st.w	r8[0x0],r9
8000587c:	ee f8 ff f8 	ld.w	r8,r7[-8]
80005880:	f0 ca ff fc 	sub	r10,r8,-4
80005884:	ee f8 ff f8 	ld.w	r8,r7[-8]
80005888:	70 b9       	ld.w	r9,r8[0x2c]
8000588a:	12 98       	mov	r8,r9
8000588c:	a3 68       	lsl	r8,0x2
8000588e:	12 08       	add	r8,r9
80005890:	a3 68       	lsl	r8,0x2
80005892:	10 99       	mov	r9,r8
80005894:	49 e8       	lddpc	r8,8000590c <xTaskGenericCreate+0x1bc>
80005896:	f2 08 00 08 	add	r8,r9,r8
8000589a:	14 9b       	mov	r11,r10
8000589c:	10 9c       	mov	r12,r8
8000589e:	f0 1f 00 1d 	mcall	80005910 <xTaskGenericCreate+0x1c0>
800058a2:	30 18       	mov	r8,1
800058a4:	ef 48 ff f4 	st.w	r7[-12],r8
800058a8:	f0 1f 00 1b 	mcall	80005914 <xTaskGenericCreate+0x1c4>
800058ac:	c0 48       	rjmp	800058b4 <xTaskGenericCreate+0x164>
800058ae:	3f f8       	mov	r8,-1
800058b0:	ef 48 ff f4 	st.w	r7[-12],r8
800058b4:	ee f8 ff f4 	ld.w	r8,r7[-12]
800058b8:	58 18       	cp.w	r8,1
800058ba:	c0 d1       	brne	800058d4 <xTaskGenericCreate+0x184>
800058bc:	49 08       	lddpc	r8,800058fc <xTaskGenericCreate+0x1ac>
800058be:	70 08       	ld.w	r8,r8[0x0]
800058c0:	58 08       	cp.w	r8,0
800058c2:	c0 90       	breq	800058d4 <xTaskGenericCreate+0x184>
800058c4:	48 c8       	lddpc	r8,800058f4 <xTaskGenericCreate+0x1a4>
800058c6:	70 08       	ld.w	r8,r8[0x0]
800058c8:	70 b9       	ld.w	r9,r8[0x2c]
800058ca:	ee f8 ff e0 	ld.w	r8,r7[-32]
800058ce:	10 39       	cp.w	r9,r8
800058d0:	c0 22       	brcc	800058d4 <xTaskGenericCreate+0x184>
800058d2:	d7 33       	scall
800058d4:	ee f8 ff f4 	ld.w	r8,r7[-12]
800058d8:	10 9c       	mov	r12,r8
800058da:	2f 8d       	sub	sp,-32
800058dc:	e3 cd 80 c0 	ldm	sp++,r6-r7,pc
800058e0:	80 00       	ld.sh	r0,r0[0x0]
800058e2:	61 90       	ld.w	r0,r0[0x64]
800058e4:	80 00       	ld.sh	r0,r0[0x0]
800058e6:	5f 48       	srge	r8
800058e8:	80 00       	ld.sh	r0,r0[0x0]
800058ea:	4c 74       	lddpc	r4,80005a04 <xTaskResumeAll+0x6c>
800058ec:	80 00       	ld.sh	r0,r0[0x0]
800058ee:	4c 2c       	lddpc	r12,800059f4 <xTaskResumeAll+0x5c>
800058f0:	00 00       	add	r0,r0
800058f2:	07 74       	ld.ub	r4,--r3
800058f4:	00 00       	add	r0,r0
800058f6:	06 60       	and	r0,r3
800058f8:	80 00       	ld.sh	r0,r0[0x0]
800058fa:	5f e4       	srqs	r4
800058fc:	00 00       	add	r0,r0
800058fe:	07 84       	ld.ub	r4,r3[0x0]
80005900:	00 00       	add	r0,r0
80005902:	07 7c       	ld.ub	r12,--r3
80005904:	00 00       	add	r0,r0
80005906:	07 98       	ld.ub	r8,r3[0x1]
80005908:	00 00       	add	r0,r0
8000590a:	07 80       	ld.ub	r0,r3[0x0]
8000590c:	00 00       	add	r0,r0
8000590e:	06 64       	and	r4,r3
80005910:	80 00       	ld.sh	r0,r0[0x0]
80005912:	49 02       	lddpc	r2,80005950 <vTaskStartScheduler+0x38>
80005914:	80 00       	ld.sh	r0,r0[0x0]
80005916:	4c 48       	lddpc	r8,80005a24 <xTaskResumeAll+0x8c>

80005918 <vTaskStartScheduler>:
80005918:	eb cd 40 80 	pushm	r7,lr
8000591c:	1a 97       	mov	r7,sp
8000591e:	20 1d       	sub	sp,4
80005920:	49 1b       	lddpc	r11,80005964 <vTaskStartScheduler+0x4c>
80005922:	30 08       	mov	r8,0
80005924:	1a d8       	st.w	--sp,r8
80005926:	30 08       	mov	r8,0
80005928:	1a d8       	st.w	--sp,r8
8000592a:	30 08       	mov	r8,0
8000592c:	1a d8       	st.w	--sp,r8
8000592e:	30 08       	mov	r8,0
80005930:	30 09       	mov	r9,0
80005932:	e0 6a 01 00 	mov	r10,256
80005936:	48 dc       	lddpc	r12,80005968 <vTaskStartScheduler+0x50>
80005938:	f0 1f 00 0d 	mcall	8000596c <vTaskStartScheduler+0x54>
8000593c:	2f dd       	sub	sp,-12
8000593e:	18 98       	mov	r8,r12
80005940:	ef 48 ff fc 	st.w	r7[-4],r8
80005944:	ee f8 ff fc 	ld.w	r8,r7[-4]
80005948:	58 18       	cp.w	r8,1
8000594a:	c0 a1       	brne	8000595e <vTaskStartScheduler+0x46>
8000594c:	d3 03       	ssrf	0x10
8000594e:	48 98       	lddpc	r8,80005970 <vTaskStartScheduler+0x58>
80005950:	30 19       	mov	r9,1
80005952:	91 09       	st.w	r8[0x0],r9
80005954:	48 88       	lddpc	r8,80005974 <vTaskStartScheduler+0x5c>
80005956:	30 09       	mov	r9,0
80005958:	91 09       	st.w	r8[0x0],r9
8000595a:	f0 1f 00 08 	mcall	80005978 <vTaskStartScheduler+0x60>
8000595e:	2f fd       	sub	sp,-4
80005960:	e3 cd 80 80 	ldm	sp++,r7,pc
80005964:	80 00       	ld.sh	r0,r0[0x0]
80005966:	57 48       	stdsp	sp[0x1d0],r8
80005968:	80 00       	ld.sh	r0,r0[0x0]
8000596a:	5f 1c       	srne	r12
8000596c:	80 00       	ld.sh	r0,r0[0x0]
8000596e:	57 50       	stdsp	sp[0x1d4],r0
80005970:	00 00       	add	r0,r0
80005972:	07 84       	ld.ub	r4,r3[0x0]
80005974:	00 00       	add	r0,r0
80005976:	07 78       	ld.ub	r8,--r3
80005978:	80 00       	ld.sh	r0,r0[0x0]
8000597a:	4e 1c       	lddpc	r12,80005afc <vTaskIncrementTick+0x3c>

8000597c <vTaskSuspendAll>:
8000597c:	eb cd 40 80 	pushm	r7,lr
80005980:	1a 97       	mov	r7,sp
80005982:	48 58       	lddpc	r8,80005994 <vTaskSuspendAll+0x18>
80005984:	70 08       	ld.w	r8,r8[0x0]
80005986:	f0 c9 ff ff 	sub	r9,r8,-1
8000598a:	48 38       	lddpc	r8,80005994 <vTaskSuspendAll+0x18>
8000598c:	91 09       	st.w	r8[0x0],r9
8000598e:	e3 cd 80 80 	ldm	sp++,r7,pc
80005992:	00 00       	add	r0,r0
80005994:	00 00       	add	r0,r0
80005996:	07 88       	ld.ub	r8,r3[0x0]

80005998 <xTaskResumeAll>:
80005998:	eb cd 40 c0 	pushm	r6-r7,lr
8000599c:	1a 97       	mov	r7,sp
8000599e:	20 2d       	sub	sp,8
800059a0:	30 08       	mov	r8,0
800059a2:	ef 48 ff f8 	st.w	r7[-8],r8
800059a6:	f0 1f 00 3a 	mcall	80005a8c <xTaskResumeAll+0xf4>
800059aa:	4b a8       	lddpc	r8,80005a90 <xTaskResumeAll+0xf8>
800059ac:	70 08       	ld.w	r8,r8[0x0]
800059ae:	f0 c9 00 01 	sub	r9,r8,1
800059b2:	4b 88       	lddpc	r8,80005a90 <xTaskResumeAll+0xf8>
800059b4:	91 09       	st.w	r8[0x0],r9
800059b6:	4b 78       	lddpc	r8,80005a90 <xTaskResumeAll+0xf8>
800059b8:	70 08       	ld.w	r8,r8[0x0]
800059ba:	58 08       	cp.w	r8,0
800059bc:	c5 f1       	brne	80005a7a <xTaskResumeAll+0xe2>
800059be:	4b 68       	lddpc	r8,80005a94 <xTaskResumeAll+0xfc>
800059c0:	70 08       	ld.w	r8,r8[0x0]
800059c2:	58 08       	cp.w	r8,0
800059c4:	c5 b0       	breq	80005a7a <xTaskResumeAll+0xe2>
800059c6:	30 08       	mov	r8,0
800059c8:	ef 48 ff fc 	st.w	r7[-4],r8
800059cc:	c3 08       	rjmp	80005a2c <xTaskResumeAll+0x94>
800059ce:	4b 38       	lddpc	r8,80005a98 <xTaskResumeAll+0x100>
800059d0:	70 38       	ld.w	r8,r8[0xc]
800059d2:	70 38       	ld.w	r8,r8[0xc]
800059d4:	10 96       	mov	r6,r8
800059d6:	ec c8 ff e8 	sub	r8,r6,-24
800059da:	10 9c       	mov	r12,r8
800059dc:	f0 1f 00 30 	mcall	80005a9c <xTaskResumeAll+0x104>
800059e0:	ec c8 ff fc 	sub	r8,r6,-4
800059e4:	10 9c       	mov	r12,r8
800059e6:	f0 1f 00 2e 	mcall	80005a9c <xTaskResumeAll+0x104>
800059ea:	6c b9       	ld.w	r9,r6[0x2c]
800059ec:	4a d8       	lddpc	r8,80005aa0 <xTaskResumeAll+0x108>
800059ee:	70 08       	ld.w	r8,r8[0x0]
800059f0:	10 39       	cp.w	r9,r8
800059f2:	e0 88 00 05 	brls	800059fc <xTaskResumeAll+0x64>
800059f6:	6c b9       	ld.w	r9,r6[0x2c]
800059f8:	4a a8       	lddpc	r8,80005aa0 <xTaskResumeAll+0x108>
800059fa:	91 09       	st.w	r8[0x0],r9
800059fc:	ec ca ff fc 	sub	r10,r6,-4
80005a00:	6c b9       	ld.w	r9,r6[0x2c]
80005a02:	12 98       	mov	r8,r9
80005a04:	a3 68       	lsl	r8,0x2
80005a06:	12 08       	add	r8,r9
80005a08:	a3 68       	lsl	r8,0x2
80005a0a:	10 99       	mov	r9,r8
80005a0c:	4a 68       	lddpc	r8,80005aa4 <xTaskResumeAll+0x10c>
80005a0e:	f2 08 00 08 	add	r8,r9,r8
80005a12:	14 9b       	mov	r11,r10
80005a14:	10 9c       	mov	r12,r8
80005a16:	f0 1f 00 25 	mcall	80005aa8 <xTaskResumeAll+0x110>
80005a1a:	6c b9       	ld.w	r9,r6[0x2c]
80005a1c:	4a 48       	lddpc	r8,80005aac <xTaskResumeAll+0x114>
80005a1e:	70 08       	ld.w	r8,r8[0x0]
80005a20:	70 b8       	ld.w	r8,r8[0x2c]
80005a22:	10 39       	cp.w	r9,r8
80005a24:	c0 43       	brcs	80005a2c <xTaskResumeAll+0x94>
80005a26:	30 18       	mov	r8,1
80005a28:	ef 48 ff fc 	st.w	r7[-4],r8
80005a2c:	49 b8       	lddpc	r8,80005a98 <xTaskResumeAll+0x100>
80005a2e:	70 08       	ld.w	r8,r8[0x0]
80005a30:	58 08       	cp.w	r8,0
80005a32:	cc e1       	brne	800059ce <xTaskResumeAll+0x36>
80005a34:	49 f8       	lddpc	r8,80005ab0 <xTaskResumeAll+0x118>
80005a36:	70 08       	ld.w	r8,r8[0x0]
80005a38:	58 08       	cp.w	r8,0
80005a3a:	c1 10       	breq	80005a5c <xTaskResumeAll+0xc4>
80005a3c:	c0 98       	rjmp	80005a4e <xTaskResumeAll+0xb6>
80005a3e:	f0 1f 00 1e 	mcall	80005ab4 <xTaskResumeAll+0x11c>
80005a42:	49 c8       	lddpc	r8,80005ab0 <xTaskResumeAll+0x118>
80005a44:	70 08       	ld.w	r8,r8[0x0]
80005a46:	f0 c9 00 01 	sub	r9,r8,1
80005a4a:	49 a8       	lddpc	r8,80005ab0 <xTaskResumeAll+0x118>
80005a4c:	91 09       	st.w	r8[0x0],r9
80005a4e:	49 98       	lddpc	r8,80005ab0 <xTaskResumeAll+0x118>
80005a50:	70 08       	ld.w	r8,r8[0x0]
80005a52:	58 08       	cp.w	r8,0
80005a54:	cf 51       	brne	80005a3e <xTaskResumeAll+0xa6>
80005a56:	30 18       	mov	r8,1
80005a58:	ef 48 ff fc 	st.w	r7[-4],r8
80005a5c:	ee f8 ff fc 	ld.w	r8,r7[-4]
80005a60:	58 18       	cp.w	r8,1
80005a62:	c0 50       	breq	80005a6c <xTaskResumeAll+0xd4>
80005a64:	49 58       	lddpc	r8,80005ab8 <xTaskResumeAll+0x120>
80005a66:	70 08       	ld.w	r8,r8[0x0]
80005a68:	58 18       	cp.w	r8,1
80005a6a:	c0 81       	brne	80005a7a <xTaskResumeAll+0xe2>
80005a6c:	30 18       	mov	r8,1
80005a6e:	ef 48 ff f8 	st.w	r7[-8],r8
80005a72:	49 28       	lddpc	r8,80005ab8 <xTaskResumeAll+0x120>
80005a74:	30 09       	mov	r9,0
80005a76:	91 09       	st.w	r8[0x0],r9
80005a78:	d7 33       	scall
80005a7a:	f0 1f 00 11 	mcall	80005abc <xTaskResumeAll+0x124>
80005a7e:	ee f8 ff f8 	ld.w	r8,r7[-8]
80005a82:	10 9c       	mov	r12,r8
80005a84:	2f ed       	sub	sp,-8
80005a86:	e3 cd 80 c0 	ldm	sp++,r6-r7,pc
80005a8a:	00 00       	add	r0,r0
80005a8c:	80 00       	ld.sh	r0,r0[0x0]
80005a8e:	4c 2c       	lddpc	r12,80005b94 <vTaskIncrementTick+0xd4>
80005a90:	00 00       	add	r0,r0
80005a92:	07 88       	ld.ub	r8,r3[0x0]
80005a94:	00 00       	add	r0,r0
80005a96:	07 74       	ld.ub	r4,--r3
80005a98:	00 00       	add	r0,r0
80005a9a:	07 34       	ld.ub	r4,r3++
80005a9c:	80 00       	ld.sh	r0,r0[0x0]
80005a9e:	4a 16       	lddpc	r6,80005b20 <vTaskIncrementTick+0x60>
80005aa0:	00 00       	add	r0,r0
80005aa2:	07 80       	ld.ub	r0,r3[0x0]
80005aa4:	00 00       	add	r0,r0
80005aa6:	06 64       	and	r4,r3
80005aa8:	80 00       	ld.sh	r0,r0[0x0]
80005aaa:	49 02       	lddpc	r2,80005ae8 <vTaskIncrementTick+0x28>
80005aac:	00 00       	add	r0,r0
80005aae:	06 60       	and	r0,r3
80005ab0:	00 00       	add	r0,r0
80005ab2:	07 8c       	ld.ub	r12,r3[0x0]
80005ab4:	80 00       	ld.sh	r0,r0[0x0]
80005ab6:	5a c0       	cp.w	r0,-20
80005ab8:	00 00       	add	r0,r0
80005aba:	07 90       	ld.ub	r0,r3[0x1]
80005abc:	80 00       	ld.sh	r0,r0[0x0]
80005abe:	4c 48       	lddpc	r8,80005bcc <vTaskIncrementTick+0x10c>

80005ac0 <vTaskIncrementTick>:
80005ac0:	eb cd 40 80 	pushm	r7,lr
80005ac4:	1a 97       	mov	r7,sp
80005ac6:	20 3d       	sub	sp,12
80005ac8:	4c b8       	lddpc	r8,80005bf4 <vTaskIncrementTick+0x134>
80005aca:	70 08       	ld.w	r8,r8[0x0]
80005acc:	58 08       	cp.w	r8,0
80005ace:	e0 81 00 89 	brne	80005be0 <vTaskIncrementTick+0x120>
80005ad2:	4c a8       	lddpc	r8,80005bf8 <vTaskIncrementTick+0x138>
80005ad4:	70 08       	ld.w	r8,r8[0x0]
80005ad6:	f0 c9 ff ff 	sub	r9,r8,-1
80005ada:	4c 88       	lddpc	r8,80005bf8 <vTaskIncrementTick+0x138>
80005adc:	91 09       	st.w	r8[0x0],r9
80005ade:	4c 78       	lddpc	r8,80005bf8 <vTaskIncrementTick+0x138>
80005ae0:	70 08       	ld.w	r8,r8[0x0]
80005ae2:	58 08       	cp.w	r8,0
80005ae4:	c2 71       	brne	80005b32 <vTaskIncrementTick+0x72>
80005ae6:	4c 68       	lddpc	r8,80005bfc <vTaskIncrementTick+0x13c>
80005ae8:	70 08       	ld.w	r8,r8[0x0]
80005aea:	ef 48 ff f8 	st.w	r7[-8],r8
80005aee:	4c 58       	lddpc	r8,80005c00 <vTaskIncrementTick+0x140>
80005af0:	70 09       	ld.w	r9,r8[0x0]
80005af2:	4c 38       	lddpc	r8,80005bfc <vTaskIncrementTick+0x13c>
80005af4:	91 09       	st.w	r8[0x0],r9
80005af6:	4c 38       	lddpc	r8,80005c00 <vTaskIncrementTick+0x140>
80005af8:	ee f9 ff f8 	ld.w	r9,r7[-8]
80005afc:	91 09       	st.w	r8[0x0],r9
80005afe:	4c 28       	lddpc	r8,80005c04 <vTaskIncrementTick+0x144>
80005b00:	70 08       	ld.w	r8,r8[0x0]
80005b02:	f0 c9 ff ff 	sub	r9,r8,-1
80005b06:	4c 08       	lddpc	r8,80005c04 <vTaskIncrementTick+0x144>
80005b08:	91 09       	st.w	r8[0x0],r9
80005b0a:	4b d8       	lddpc	r8,80005bfc <vTaskIncrementTick+0x13c>
80005b0c:	70 08       	ld.w	r8,r8[0x0]
80005b0e:	70 08       	ld.w	r8,r8[0x0]
80005b10:	58 08       	cp.w	r8,0
80005b12:	c0 51       	brne	80005b1c <vTaskIncrementTick+0x5c>
80005b14:	4b d8       	lddpc	r8,80005c08 <vTaskIncrementTick+0x148>
80005b16:	3f f9       	mov	r9,-1
80005b18:	91 09       	st.w	r8[0x0],r9
80005b1a:	c0 c8       	rjmp	80005b32 <vTaskIncrementTick+0x72>
80005b1c:	4b 88       	lddpc	r8,80005bfc <vTaskIncrementTick+0x13c>
80005b1e:	70 08       	ld.w	r8,r8[0x0]
80005b20:	70 38       	ld.w	r8,r8[0xc]
80005b22:	70 38       	ld.w	r8,r8[0xc]
80005b24:	ef 48 ff f4 	st.w	r7[-12],r8
80005b28:	ee f8 ff f4 	ld.w	r8,r7[-12]
80005b2c:	70 19       	ld.w	r9,r8[0x4]
80005b2e:	4b 78       	lddpc	r8,80005c08 <vTaskIncrementTick+0x148>
80005b30:	91 09       	st.w	r8[0x0],r9
80005b32:	4b 28       	lddpc	r8,80005bf8 <vTaskIncrementTick+0x138>
80005b34:	70 09       	ld.w	r9,r8[0x0]
80005b36:	4b 58       	lddpc	r8,80005c08 <vTaskIncrementTick+0x148>
80005b38:	70 08       	ld.w	r8,r8[0x0]
80005b3a:	10 39       	cp.w	r9,r8
80005b3c:	c5 83       	brcs	80005bec <vTaskIncrementTick+0x12c>
80005b3e:	4b 08       	lddpc	r8,80005bfc <vTaskIncrementTick+0x13c>
80005b40:	70 08       	ld.w	r8,r8[0x0]
80005b42:	70 08       	ld.w	r8,r8[0x0]
80005b44:	58 08       	cp.w	r8,0
80005b46:	c0 51       	brne	80005b50 <vTaskIncrementTick+0x90>
80005b48:	4b 08       	lddpc	r8,80005c08 <vTaskIncrementTick+0x148>
80005b4a:	3f f9       	mov	r9,-1
80005b4c:	91 09       	st.w	r8[0x0],r9
80005b4e:	c4 f8       	rjmp	80005bec <vTaskIncrementTick+0x12c>
80005b50:	4a b8       	lddpc	r8,80005bfc <vTaskIncrementTick+0x13c>
80005b52:	70 08       	ld.w	r8,r8[0x0]
80005b54:	70 38       	ld.w	r8,r8[0xc]
80005b56:	70 38       	ld.w	r8,r8[0xc]
80005b58:	ef 48 ff f4 	st.w	r7[-12],r8
80005b5c:	ee f8 ff f4 	ld.w	r8,r7[-12]
80005b60:	70 18       	ld.w	r8,r8[0x4]
80005b62:	ef 48 ff fc 	st.w	r7[-4],r8
80005b66:	4a 58       	lddpc	r8,80005bf8 <vTaskIncrementTick+0x138>
80005b68:	70 09       	ld.w	r9,r8[0x0]
80005b6a:	ee f8 ff fc 	ld.w	r8,r7[-4]
80005b6e:	10 39       	cp.w	r9,r8
80005b70:	c0 62       	brcc	80005b7c <vTaskIncrementTick+0xbc>
80005b72:	4a 68       	lddpc	r8,80005c08 <vTaskIncrementTick+0x148>
80005b74:	ee f9 ff fc 	ld.w	r9,r7[-4]
80005b78:	91 09       	st.w	r8[0x0],r9
80005b7a:	c3 98       	rjmp	80005bec <vTaskIncrementTick+0x12c>
80005b7c:	ee f8 ff f4 	ld.w	r8,r7[-12]
80005b80:	2f c8       	sub	r8,-4
80005b82:	10 9c       	mov	r12,r8
80005b84:	f0 1f 00 22 	mcall	80005c0c <vTaskIncrementTick+0x14c>
80005b88:	ee f8 ff f4 	ld.w	r8,r7[-12]
80005b8c:	70 a8       	ld.w	r8,r8[0x28]
80005b8e:	58 08       	cp.w	r8,0
80005b90:	c0 70       	breq	80005b9e <vTaskIncrementTick+0xde>
80005b92:	ee f8 ff f4 	ld.w	r8,r7[-12]
80005b96:	2e 88       	sub	r8,-24
80005b98:	10 9c       	mov	r12,r8
80005b9a:	f0 1f 00 1d 	mcall	80005c0c <vTaskIncrementTick+0x14c>
80005b9e:	ee f8 ff f4 	ld.w	r8,r7[-12]
80005ba2:	70 b9       	ld.w	r9,r8[0x2c]
80005ba4:	49 b8       	lddpc	r8,80005c10 <vTaskIncrementTick+0x150>
80005ba6:	70 08       	ld.w	r8,r8[0x0]
80005ba8:	10 39       	cp.w	r9,r8
80005baa:	e0 88 00 07 	brls	80005bb8 <vTaskIncrementTick+0xf8>
80005bae:	ee f8 ff f4 	ld.w	r8,r7[-12]
80005bb2:	70 b9       	ld.w	r9,r8[0x2c]
80005bb4:	49 78       	lddpc	r8,80005c10 <vTaskIncrementTick+0x150>
80005bb6:	91 09       	st.w	r8[0x0],r9
80005bb8:	ee f8 ff f4 	ld.w	r8,r7[-12]
80005bbc:	f0 ca ff fc 	sub	r10,r8,-4
80005bc0:	ee f8 ff f4 	ld.w	r8,r7[-12]
80005bc4:	70 b9       	ld.w	r9,r8[0x2c]
80005bc6:	12 98       	mov	r8,r9
80005bc8:	a3 68       	lsl	r8,0x2
80005bca:	12 08       	add	r8,r9
80005bcc:	a3 68       	lsl	r8,0x2
80005bce:	10 99       	mov	r9,r8
80005bd0:	49 18       	lddpc	r8,80005c14 <vTaskIncrementTick+0x154>
80005bd2:	f2 08 00 08 	add	r8,r9,r8
80005bd6:	14 9b       	mov	r11,r10
80005bd8:	10 9c       	mov	r12,r8
80005bda:	f0 1f 00 10 	mcall	80005c18 <vTaskIncrementTick+0x158>
80005bde:	cb 0b       	rjmp	80005b3e <vTaskIncrementTick+0x7e>
80005be0:	48 f8       	lddpc	r8,80005c1c <vTaskIncrementTick+0x15c>
80005be2:	70 08       	ld.w	r8,r8[0x0]
80005be4:	f0 c9 ff ff 	sub	r9,r8,-1
80005be8:	48 d8       	lddpc	r8,80005c1c <vTaskIncrementTick+0x15c>
80005bea:	91 09       	st.w	r8[0x0],r9
80005bec:	2f dd       	sub	sp,-12
80005bee:	e3 cd 80 80 	ldm	sp++,r7,pc
80005bf2:	00 00       	add	r0,r0
80005bf4:	00 00       	add	r0,r0
80005bf6:	07 88       	ld.ub	r8,r3[0x0]
80005bf8:	00 00       	add	r0,r0
80005bfa:	07 78       	ld.ub	r8,--r3
80005bfc:	00 00       	add	r0,r0
80005bfe:	07 2c       	ld.uh	r12,r3++
80005c00:	00 00       	add	r0,r0
80005c02:	07 30       	ld.ub	r0,r3++
80005c04:	00 00       	add	r0,r0
80005c06:	07 94       	ld.ub	r4,r3[0x1]
80005c08:	00 00       	add	r0,r0
80005c0a:	00 24       	rsub	r4,r0
80005c0c:	80 00       	ld.sh	r0,r0[0x0]
80005c0e:	4a 16       	lddpc	r6,80005c90 <vTaskSwitchContext+0x70>
80005c10:	00 00       	add	r0,r0
80005c12:	07 80       	ld.ub	r0,r3[0x0]
80005c14:	00 00       	add	r0,r0
80005c16:	06 64       	and	r4,r3
80005c18:	80 00       	ld.sh	r0,r0[0x0]
80005c1a:	49 02       	lddpc	r2,80005c58 <vTaskSwitchContext+0x38>
80005c1c:	00 00       	add	r0,r0
80005c1e:	07 8c       	ld.ub	r12,r3[0x0]

80005c20 <vTaskSwitchContext>:
80005c20:	eb cd 40 80 	pushm	r7,lr
80005c24:	1a 97       	mov	r7,sp
80005c26:	20 1d       	sub	sp,4
80005c28:	4a 58       	lddpc	r8,80005cbc <vTaskSwitchContext+0x9c>
80005c2a:	70 08       	ld.w	r8,r8[0x0]
80005c2c:	58 08       	cp.w	r8,0
80005c2e:	c0 c0       	breq	80005c46 <vTaskSwitchContext+0x26>
80005c30:	4a 48       	lddpc	r8,80005cc0 <vTaskSwitchContext+0xa0>
80005c32:	30 19       	mov	r9,1
80005c34:	91 09       	st.w	r8[0x0],r9
80005c36:	c3 f8       	rjmp	80005cb4 <vTaskSwitchContext+0x94>
80005c38:	4a 38       	lddpc	r8,80005cc4 <vTaskSwitchContext+0xa4>
80005c3a:	70 08       	ld.w	r8,r8[0x0]
80005c3c:	f0 c9 00 01 	sub	r9,r8,1
80005c40:	4a 18       	lddpc	r8,80005cc4 <vTaskSwitchContext+0xa4>
80005c42:	91 09       	st.w	r8[0x0],r9
80005c44:	c0 28       	rjmp	80005c48 <vTaskSwitchContext+0x28>
80005c46:	d7 03       	nop
80005c48:	49 f8       	lddpc	r8,80005cc4 <vTaskSwitchContext+0xa4>
80005c4a:	70 09       	ld.w	r9,r8[0x0]
80005c4c:	12 98       	mov	r8,r9
80005c4e:	a3 68       	lsl	r8,0x2
80005c50:	12 08       	add	r8,r9
80005c52:	a3 68       	lsl	r8,0x2
80005c54:	10 99       	mov	r9,r8
80005c56:	49 d8       	lddpc	r8,80005cc8 <vTaskSwitchContext+0xa8>
80005c58:	f2 08 00 08 	add	r8,r9,r8
80005c5c:	70 08       	ld.w	r8,r8[0x0]
80005c5e:	58 08       	cp.w	r8,0
80005c60:	ce c0       	breq	80005c38 <vTaskSwitchContext+0x18>
80005c62:	49 98       	lddpc	r8,80005cc4 <vTaskSwitchContext+0xa4>
80005c64:	70 09       	ld.w	r9,r8[0x0]
80005c66:	12 98       	mov	r8,r9
80005c68:	a3 68       	lsl	r8,0x2
80005c6a:	12 08       	add	r8,r9
80005c6c:	a3 68       	lsl	r8,0x2
80005c6e:	10 99       	mov	r9,r8
80005c70:	49 68       	lddpc	r8,80005cc8 <vTaskSwitchContext+0xa8>
80005c72:	f2 08 00 08 	add	r8,r9,r8
80005c76:	ef 48 ff fc 	st.w	r7[-4],r8
80005c7a:	ee f8 ff fc 	ld.w	r8,r7[-4]
80005c7e:	70 18       	ld.w	r8,r8[0x4]
80005c80:	70 19       	ld.w	r9,r8[0x4]
80005c82:	ee f8 ff fc 	ld.w	r8,r7[-4]
80005c86:	91 19       	st.w	r8[0x4],r9
80005c88:	ee f8 ff fc 	ld.w	r8,r7[-4]
80005c8c:	70 19       	ld.w	r9,r8[0x4]
80005c8e:	ee f8 ff fc 	ld.w	r8,r7[-4]
80005c92:	2f 88       	sub	r8,-8
80005c94:	10 39       	cp.w	r9,r8
80005c96:	c0 81       	brne	80005ca6 <vTaskSwitchContext+0x86>
80005c98:	ee f8 ff fc 	ld.w	r8,r7[-4]
80005c9c:	70 18       	ld.w	r8,r8[0x4]
80005c9e:	70 19       	ld.w	r9,r8[0x4]
80005ca0:	ee f8 ff fc 	ld.w	r8,r7[-4]
80005ca4:	91 19       	st.w	r8[0x4],r9
80005ca6:	ee f8 ff fc 	ld.w	r8,r7[-4]
80005caa:	70 18       	ld.w	r8,r8[0x4]
80005cac:	70 38       	ld.w	r8,r8[0xc]
80005cae:	10 99       	mov	r9,r8
80005cb0:	48 78       	lddpc	r8,80005ccc <vTaskSwitchContext+0xac>
80005cb2:	91 09       	st.w	r8[0x0],r9
80005cb4:	2f fd       	sub	sp,-4
80005cb6:	e3 cd 80 80 	ldm	sp++,r7,pc
80005cba:	00 00       	add	r0,r0
80005cbc:	00 00       	add	r0,r0
80005cbe:	07 88       	ld.ub	r8,r3[0x0]
80005cc0:	00 00       	add	r0,r0
80005cc2:	07 90       	ld.ub	r0,r3[0x1]
80005cc4:	00 00       	add	r0,r0
80005cc6:	07 80       	ld.ub	r0,r3[0x0]
80005cc8:	00 00       	add	r0,r0
80005cca:	06 64       	and	r4,r3
80005ccc:	00 00       	add	r0,r0
80005cce:	06 60       	and	r0,r3

80005cd0 <vTaskPlaceOnEventList>:
80005cd0:	eb cd 40 80 	pushm	r7,lr
80005cd4:	1a 97       	mov	r7,sp
80005cd6:	20 3d       	sub	sp,12
80005cd8:	ef 4c ff f8 	st.w	r7[-8],r12
80005cdc:	ef 4b ff f4 	st.w	r7[-12],r11
80005ce0:	49 58       	lddpc	r8,80005d34 <vTaskPlaceOnEventList+0x64>
80005ce2:	70 08       	ld.w	r8,r8[0x0]
80005ce4:	2e 88       	sub	r8,-24
80005ce6:	10 9b       	mov	r11,r8
80005ce8:	ee fc ff f8 	ld.w	r12,r7[-8]
80005cec:	f0 1f 00 13 	mcall	80005d38 <vTaskPlaceOnEventList+0x68>
80005cf0:	49 18       	lddpc	r8,80005d34 <vTaskPlaceOnEventList+0x64>
80005cf2:	70 08       	ld.w	r8,r8[0x0]
80005cf4:	2f c8       	sub	r8,-4
80005cf6:	10 9c       	mov	r12,r8
80005cf8:	f0 1f 00 11 	mcall	80005d3c <vTaskPlaceOnEventList+0x6c>
80005cfc:	ee f8 ff f4 	ld.w	r8,r7[-12]
80005d00:	5b f8       	cp.w	r8,-1
80005d02:	c0 91       	brne	80005d14 <vTaskPlaceOnEventList+0x44>
80005d04:	48 c8       	lddpc	r8,80005d34 <vTaskPlaceOnEventList+0x64>
80005d06:	70 08       	ld.w	r8,r8[0x0]
80005d08:	2f c8       	sub	r8,-4
80005d0a:	10 9b       	mov	r11,r8
80005d0c:	48 dc       	lddpc	r12,80005d40 <vTaskPlaceOnEventList+0x70>
80005d0e:	f0 1f 00 0e 	mcall	80005d44 <vTaskPlaceOnEventList+0x74>
80005d12:	c0 d8       	rjmp	80005d2c <vTaskPlaceOnEventList+0x5c>
80005d14:	48 d8       	lddpc	r8,80005d48 <vTaskPlaceOnEventList+0x78>
80005d16:	70 09       	ld.w	r9,r8[0x0]
80005d18:	ee f8 ff f4 	ld.w	r8,r7[-12]
80005d1c:	f2 08 00 08 	add	r8,r9,r8
80005d20:	ef 48 ff fc 	st.w	r7[-4],r8
80005d24:	ee fc ff fc 	ld.w	r12,r7[-4]
80005d28:	f0 1f 00 09 	mcall	80005d4c <vTaskPlaceOnEventList+0x7c>
80005d2c:	2f dd       	sub	sp,-12
80005d2e:	e3 cd 80 80 	ldm	sp++,r7,pc
80005d32:	00 00       	add	r0,r0
80005d34:	00 00       	add	r0,r0
80005d36:	06 60       	and	r0,r3
80005d38:	80 00       	ld.sh	r0,r0[0x0]
80005d3a:	49 74       	lddpc	r4,80005d94 <xTaskRemoveFromEventList+0x44>
80005d3c:	80 00       	ld.sh	r0,r0[0x0]
80005d3e:	4a 16       	lddpc	r6,80005dc0 <xTaskRemoveFromEventList+0x70>
80005d40:	00 00       	add	r0,r0
80005d42:	07 60       	ld.uh	r0,--r3
80005d44:	80 00       	ld.sh	r0,r0[0x0]
80005d46:	49 02       	lddpc	r2,80005d84 <xTaskRemoveFromEventList+0x34>
80005d48:	00 00       	add	r0,r0
80005d4a:	07 78       	ld.ub	r8,--r3
80005d4c:	80 00       	ld.sh	r0,r0[0x0]
80005d4e:	61 10       	ld.w	r0,r0[0x44]

80005d50 <xTaskRemoveFromEventList>:
80005d50:	eb cd 40 80 	pushm	r7,lr
80005d54:	1a 97       	mov	r7,sp
80005d56:	20 3d       	sub	sp,12
80005d58:	ef 4c ff f4 	st.w	r7[-12],r12
80005d5c:	ee f8 ff f4 	ld.w	r8,r7[-12]
80005d60:	70 38       	ld.w	r8,r8[0xc]
80005d62:	70 38       	ld.w	r8,r8[0xc]
80005d64:	ef 48 ff f8 	st.w	r7[-8],r8
80005d68:	ee f8 ff f8 	ld.w	r8,r7[-8]
80005d6c:	2e 88       	sub	r8,-24
80005d6e:	10 9c       	mov	r12,r8
80005d70:	f0 1f 00 25 	mcall	80005e04 <xTaskRemoveFromEventList+0xb4>
80005d74:	4a 58       	lddpc	r8,80005e08 <xTaskRemoveFromEventList+0xb8>
80005d76:	70 08       	ld.w	r8,r8[0x0]
80005d78:	58 08       	cp.w	r8,0
80005d7a:	c2 81       	brne	80005dca <xTaskRemoveFromEventList+0x7a>
80005d7c:	ee f8 ff f8 	ld.w	r8,r7[-8]
80005d80:	2f c8       	sub	r8,-4
80005d82:	10 9c       	mov	r12,r8
80005d84:	f0 1f 00 20 	mcall	80005e04 <xTaskRemoveFromEventList+0xb4>
80005d88:	ee f8 ff f8 	ld.w	r8,r7[-8]
80005d8c:	70 b9       	ld.w	r9,r8[0x2c]
80005d8e:	4a 08       	lddpc	r8,80005e0c <xTaskRemoveFromEventList+0xbc>
80005d90:	70 08       	ld.w	r8,r8[0x0]
80005d92:	10 39       	cp.w	r9,r8
80005d94:	e0 88 00 07 	brls	80005da2 <xTaskRemoveFromEventList+0x52>
80005d98:	ee f8 ff f8 	ld.w	r8,r7[-8]
80005d9c:	70 b9       	ld.w	r9,r8[0x2c]
80005d9e:	49 c8       	lddpc	r8,80005e0c <xTaskRemoveFromEventList+0xbc>
80005da0:	91 09       	st.w	r8[0x0],r9
80005da2:	ee f8 ff f8 	ld.w	r8,r7[-8]
80005da6:	f0 ca ff fc 	sub	r10,r8,-4
80005daa:	ee f8 ff f8 	ld.w	r8,r7[-8]
80005dae:	70 b9       	ld.w	r9,r8[0x2c]
80005db0:	12 98       	mov	r8,r9
80005db2:	a3 68       	lsl	r8,0x2
80005db4:	12 08       	add	r8,r9
80005db6:	a3 68       	lsl	r8,0x2
80005db8:	10 99       	mov	r9,r8
80005dba:	49 68       	lddpc	r8,80005e10 <xTaskRemoveFromEventList+0xc0>
80005dbc:	f2 08 00 08 	add	r8,r9,r8
80005dc0:	14 9b       	mov	r11,r10
80005dc2:	10 9c       	mov	r12,r8
80005dc4:	f0 1f 00 14 	mcall	80005e14 <xTaskRemoveFromEventList+0xc4>
80005dc8:	c0 88       	rjmp	80005dd8 <xTaskRemoveFromEventList+0x88>
80005dca:	ee f8 ff f8 	ld.w	r8,r7[-8]
80005dce:	2e 88       	sub	r8,-24
80005dd0:	10 9b       	mov	r11,r8
80005dd2:	49 2c       	lddpc	r12,80005e18 <xTaskRemoveFromEventList+0xc8>
80005dd4:	f0 1f 00 10 	mcall	80005e14 <xTaskRemoveFromEventList+0xc4>
80005dd8:	ee f8 ff f8 	ld.w	r8,r7[-8]
80005ddc:	70 b9       	ld.w	r9,r8[0x2c]
80005dde:	49 08       	lddpc	r8,80005e1c <xTaskRemoveFromEventList+0xcc>
80005de0:	70 08       	ld.w	r8,r8[0x0]
80005de2:	70 b8       	ld.w	r8,r8[0x2c]
80005de4:	10 39       	cp.w	r9,r8
80005de6:	c0 53       	brcs	80005df0 <xTaskRemoveFromEventList+0xa0>
80005de8:	30 18       	mov	r8,1
80005dea:	ef 48 ff fc 	st.w	r7[-4],r8
80005dee:	c0 48       	rjmp	80005df6 <xTaskRemoveFromEventList+0xa6>
80005df0:	30 08       	mov	r8,0
80005df2:	ef 48 ff fc 	st.w	r7[-4],r8
80005df6:	ee f8 ff fc 	ld.w	r8,r7[-4]
80005dfa:	10 9c       	mov	r12,r8
80005dfc:	2f dd       	sub	sp,-12
80005dfe:	e3 cd 80 80 	ldm	sp++,r7,pc
80005e02:	00 00       	add	r0,r0
80005e04:	80 00       	ld.sh	r0,r0[0x0]
80005e06:	4a 16       	lddpc	r6,80005e88 <xTaskCheckForTimeOut+0x38>
80005e08:	00 00       	add	r0,r0
80005e0a:	07 88       	ld.ub	r8,r3[0x0]
80005e0c:	00 00       	add	r0,r0
80005e0e:	07 80       	ld.ub	r0,r3[0x0]
80005e10:	00 00       	add	r0,r0
80005e12:	06 64       	and	r4,r3
80005e14:	80 00       	ld.sh	r0,r0[0x0]
80005e16:	49 02       	lddpc	r2,80005e54 <xTaskCheckForTimeOut+0x4>
80005e18:	00 00       	add	r0,r0
80005e1a:	07 34       	ld.ub	r4,r3++
80005e1c:	00 00       	add	r0,r0
80005e1e:	06 60       	and	r0,r3

80005e20 <vTaskSetTimeOutState>:
80005e20:	eb cd 40 80 	pushm	r7,lr
80005e24:	1a 97       	mov	r7,sp
80005e26:	20 1d       	sub	sp,4
80005e28:	ef 4c ff fc 	st.w	r7[-4],r12
80005e2c:	48 78       	lddpc	r8,80005e48 <vTaskSetTimeOutState+0x28>
80005e2e:	70 09       	ld.w	r9,r8[0x0]
80005e30:	ee f8 ff fc 	ld.w	r8,r7[-4]
80005e34:	91 09       	st.w	r8[0x0],r9
80005e36:	48 68       	lddpc	r8,80005e4c <vTaskSetTimeOutState+0x2c>
80005e38:	70 09       	ld.w	r9,r8[0x0]
80005e3a:	ee f8 ff fc 	ld.w	r8,r7[-4]
80005e3e:	91 19       	st.w	r8[0x4],r9
80005e40:	2f fd       	sub	sp,-4
80005e42:	e3 cd 80 80 	ldm	sp++,r7,pc
80005e46:	00 00       	add	r0,r0
80005e48:	00 00       	add	r0,r0
80005e4a:	07 94       	ld.ub	r4,r3[0x1]
80005e4c:	00 00       	add	r0,r0
80005e4e:	07 78       	ld.ub	r8,--r3

80005e50 <xTaskCheckForTimeOut>:
80005e50:	eb cd 40 80 	pushm	r7,lr
80005e54:	1a 97       	mov	r7,sp
80005e56:	20 3d       	sub	sp,12
80005e58:	ef 4c ff f8 	st.w	r7[-8],r12
80005e5c:	ef 4b ff f4 	st.w	r7[-12],r11
80005e60:	f0 1f 00 25 	mcall	80005ef4 <xTaskCheckForTimeOut+0xa4>
80005e64:	ee f8 ff f4 	ld.w	r8,r7[-12]
80005e68:	70 08       	ld.w	r8,r8[0x0]
80005e6a:	5b f8       	cp.w	r8,-1
80005e6c:	c0 51       	brne	80005e76 <xTaskCheckForTimeOut+0x26>
80005e6e:	30 08       	mov	r8,0
80005e70:	ef 48 ff fc 	st.w	r7[-4],r8
80005e74:	c3 88       	rjmp	80005ee4 <xTaskCheckForTimeOut+0x94>
80005e76:	ee f8 ff f8 	ld.w	r8,r7[-8]
80005e7a:	70 09       	ld.w	r9,r8[0x0]
80005e7c:	49 f8       	lddpc	r8,80005ef8 <xTaskCheckForTimeOut+0xa8>
80005e7e:	70 08       	ld.w	r8,r8[0x0]
80005e80:	10 39       	cp.w	r9,r8
80005e82:	c0 d0       	breq	80005e9c <xTaskCheckForTimeOut+0x4c>
80005e84:	ee f8 ff f8 	ld.w	r8,r7[-8]
80005e88:	70 19       	ld.w	r9,r8[0x4]
80005e8a:	49 d8       	lddpc	r8,80005efc <xTaskCheckForTimeOut+0xac>
80005e8c:	70 08       	ld.w	r8,r8[0x0]
80005e8e:	10 39       	cp.w	r9,r8
80005e90:	e0 8b 00 06 	brhi	80005e9c <xTaskCheckForTimeOut+0x4c>
80005e94:	30 18       	mov	r8,1
80005e96:	ef 48 ff fc 	st.w	r7[-4],r8
80005e9a:	c2 58       	rjmp	80005ee4 <xTaskCheckForTimeOut+0x94>
80005e9c:	49 88       	lddpc	r8,80005efc <xTaskCheckForTimeOut+0xac>
80005e9e:	70 09       	ld.w	r9,r8[0x0]
80005ea0:	ee f8 ff f8 	ld.w	r8,r7[-8]
80005ea4:	70 18       	ld.w	r8,r8[0x4]
80005ea6:	10 19       	sub	r9,r8
80005ea8:	ee f8 ff f4 	ld.w	r8,r7[-12]
80005eac:	70 08       	ld.w	r8,r8[0x0]
80005eae:	10 39       	cp.w	r9,r8
80005eb0:	c1 72       	brcc	80005ede <xTaskCheckForTimeOut+0x8e>
80005eb2:	ee f8 ff f4 	ld.w	r8,r7[-12]
80005eb6:	70 09       	ld.w	r9,r8[0x0]
80005eb8:	ee f8 ff f8 	ld.w	r8,r7[-8]
80005ebc:	70 1a       	ld.w	r10,r8[0x4]
80005ebe:	49 08       	lddpc	r8,80005efc <xTaskCheckForTimeOut+0xac>
80005ec0:	70 08       	ld.w	r8,r8[0x0]
80005ec2:	f4 08 01 08 	sub	r8,r10,r8
80005ec6:	10 09       	add	r9,r8
80005ec8:	ee f8 ff f4 	ld.w	r8,r7[-12]
80005ecc:	91 09       	st.w	r8[0x0],r9
80005ece:	ee fc ff f8 	ld.w	r12,r7[-8]
80005ed2:	f0 1f 00 0c 	mcall	80005f00 <xTaskCheckForTimeOut+0xb0>
80005ed6:	30 08       	mov	r8,0
80005ed8:	ef 48 ff fc 	st.w	r7[-4],r8
80005edc:	c0 48       	rjmp	80005ee4 <xTaskCheckForTimeOut+0x94>
80005ede:	30 18       	mov	r8,1
80005ee0:	ef 48 ff fc 	st.w	r7[-4],r8
80005ee4:	f0 1f 00 08 	mcall	80005f04 <xTaskCheckForTimeOut+0xb4>
80005ee8:	ee f8 ff fc 	ld.w	r8,r7[-4]
80005eec:	10 9c       	mov	r12,r8
80005eee:	2f dd       	sub	sp,-12
80005ef0:	e3 cd 80 80 	ldm	sp++,r7,pc
80005ef4:	80 00       	ld.sh	r0,r0[0x0]
80005ef6:	4c 2c       	lddpc	r12,80005ffc <prvInitialiseTaskLists+0x18>
80005ef8:	00 00       	add	r0,r0
80005efa:	07 94       	ld.ub	r4,r3[0x1]
80005efc:	00 00       	add	r0,r0
80005efe:	07 78       	ld.ub	r8,--r3
80005f00:	80 00       	ld.sh	r0,r0[0x0]
80005f02:	5e 20       	reths	r0
80005f04:	80 00       	ld.sh	r0,r0[0x0]
80005f06:	4c 48       	lddpc	r8,80006014 <prvInitialiseTaskLists+0x30>

80005f08 <vTaskMissedYield>:
80005f08:	eb cd 40 80 	pushm	r7,lr
80005f0c:	1a 97       	mov	r7,sp
80005f0e:	48 38       	lddpc	r8,80005f18 <vTaskMissedYield+0x10>
80005f10:	30 19       	mov	r9,1
80005f12:	91 09       	st.w	r8[0x0],r9
80005f14:	e3 cd 80 80 	ldm	sp++,r7,pc
80005f18:	00 00       	add	r0,r0
80005f1a:	07 90       	ld.ub	r0,r3[0x1]

80005f1c <prvIdleTask>:
80005f1c:	eb cd 40 80 	pushm	r7,lr
80005f20:	1a 97       	mov	r7,sp
80005f22:	20 1d       	sub	sp,4
80005f24:	ef 4c ff fc 	st.w	r7[-4],r12
80005f28:	c0 28       	rjmp	80005f2c <prvIdleTask+0x10>
80005f2a:	d7 03       	nop
80005f2c:	f0 1f 00 05 	mcall	80005f40 <prvIdleTask+0x24>
80005f30:	48 58       	lddpc	r8,80005f44 <prvIdleTask+0x28>
80005f32:	70 08       	ld.w	r8,r8[0x0]
80005f34:	58 18       	cp.w	r8,1
80005f36:	fe 98 ff fa 	brls	80005f2a <prvIdleTask+0xe>
80005f3a:	d7 33       	scall
80005f3c:	cf 8b       	rjmp	80005f2c <prvIdleTask+0x10>
80005f3e:	00 00       	add	r0,r0
80005f40:	80 00       	ld.sh	r0,r0[0x0]
80005f42:	60 78       	ld.w	r8,r0[0x1c]
80005f44:	00 00       	add	r0,r0
80005f46:	06 64       	and	r4,r3

80005f48 <prvInitialiseTCBVariables>:
80005f48:	eb cd 40 80 	pushm	r7,lr
80005f4c:	1a 97       	mov	r7,sp
80005f4e:	20 5d       	sub	sp,20
80005f50:	ef 4c ff fc 	st.w	r7[-4],r12
80005f54:	ef 4b ff f8 	st.w	r7[-8],r11
80005f58:	ef 4a ff f4 	st.w	r7[-12],r10
80005f5c:	ef 49 ff f0 	st.w	r7[-16],r9
80005f60:	ef 58 ff ec 	st.h	r7[-20],r8
80005f64:	ee f9 ff f8 	ld.w	r9,r7[-8]
80005f68:	ee f8 ff fc 	ld.w	r8,r7[-4]
80005f6c:	2c c8       	sub	r8,-52
80005f6e:	31 0a       	mov	r10,16
80005f70:	12 9b       	mov	r11,r9
80005f72:	10 9c       	mov	r12,r8
80005f74:	f0 1f 00 1a 	mcall	80005fdc <prvInitialiseTCBVariables+0x94>
80005f78:	ee f9 ff fc 	ld.w	r9,r7[-4]
80005f7c:	30 08       	mov	r8,0
80005f7e:	f3 68 00 43 	st.b	r9[67],r8
80005f82:	ee f8 ff f4 	ld.w	r8,r7[-12]
80005f86:	58 78       	cp.w	r8,7
80005f88:	e0 88 00 05 	brls	80005f92 <prvInitialiseTCBVariables+0x4a>
80005f8c:	30 78       	mov	r8,7
80005f8e:	ef 48 ff f4 	st.w	r7[-12],r8
80005f92:	ee f8 ff fc 	ld.w	r8,r7[-4]
80005f96:	ee f9 ff f4 	ld.w	r9,r7[-12]
80005f9a:	91 b9       	st.w	r8[0x2c],r9
80005f9c:	ee f8 ff fc 	ld.w	r8,r7[-4]
80005fa0:	2f c8       	sub	r8,-4
80005fa2:	10 9c       	mov	r12,r8
80005fa4:	f0 1f 00 0f 	mcall	80005fe0 <prvInitialiseTCBVariables+0x98>
80005fa8:	ee f8 ff fc 	ld.w	r8,r7[-4]
80005fac:	2e 88       	sub	r8,-24
80005fae:	10 9c       	mov	r12,r8
80005fb0:	f0 1f 00 0c 	mcall	80005fe0 <prvInitialiseTCBVariables+0x98>
80005fb4:	ee f8 ff fc 	ld.w	r8,r7[-4]
80005fb8:	ee f9 ff fc 	ld.w	r9,r7[-4]
80005fbc:	91 49       	st.w	r8[0x10],r9
80005fbe:	ee f8 ff f4 	ld.w	r8,r7[-12]
80005fc2:	f0 09 11 08 	rsub	r9,r8,8
80005fc6:	ee f8 ff fc 	ld.w	r8,r7[-4]
80005fca:	91 69       	st.w	r8[0x18],r9
80005fcc:	ee f8 ff fc 	ld.w	r8,r7[-4]
80005fd0:	ee f9 ff fc 	ld.w	r9,r7[-4]
80005fd4:	91 99       	st.w	r8[0x24],r9
80005fd6:	2f bd       	sub	sp,-20
80005fd8:	e3 cd 80 80 	ldm	sp++,r7,pc
80005fdc:	80 00       	ld.sh	r0,r0[0x0]
80005fde:	6d 74       	ld.w	r4,r6[0x5c]
80005fe0:	80 00       	ld.sh	r0,r0[0x0]
80005fe2:	48 e8       	lddpc	r8,80006018 <prvInitialiseTaskLists+0x34>

80005fe4 <prvInitialiseTaskLists>:
80005fe4:	eb cd 40 80 	pushm	r7,lr
80005fe8:	1a 97       	mov	r7,sp
80005fea:	20 1d       	sub	sp,4
80005fec:	30 08       	mov	r8,0
80005fee:	ef 48 ff fc 	st.w	r7[-4],r8
80005ff2:	c1 38       	rjmp	80006018 <prvInitialiseTaskLists+0x34>
80005ff4:	ee f9 ff fc 	ld.w	r9,r7[-4]
80005ff8:	12 98       	mov	r8,r9
80005ffa:	a3 68       	lsl	r8,0x2
80005ffc:	12 08       	add	r8,r9
80005ffe:	a3 68       	lsl	r8,0x2
80006000:	10 99       	mov	r9,r8
80006002:	49 58       	lddpc	r8,80006054 <prvInitialiseTaskLists+0x70>
80006004:	f2 08 00 08 	add	r8,r9,r8
80006008:	10 9c       	mov	r12,r8
8000600a:	f0 1f 00 14 	mcall	80006058 <prvInitialiseTaskLists+0x74>
8000600e:	ee f8 ff fc 	ld.w	r8,r7[-4]
80006012:	2f f8       	sub	r8,-1
80006014:	ef 48 ff fc 	st.w	r7[-4],r8
80006018:	ee f8 ff fc 	ld.w	r8,r7[-4]
8000601c:	58 78       	cp.w	r8,7
8000601e:	fe 98 ff eb 	brls	80005ff4 <prvInitialiseTaskLists+0x10>
80006022:	48 fc       	lddpc	r12,8000605c <prvInitialiseTaskLists+0x78>
80006024:	f0 1f 00 0d 	mcall	80006058 <prvInitialiseTaskLists+0x74>
80006028:	48 ec       	lddpc	r12,80006060 <prvInitialiseTaskLists+0x7c>
8000602a:	f0 1f 00 0c 	mcall	80006058 <prvInitialiseTaskLists+0x74>
8000602e:	48 ec       	lddpc	r12,80006064 <prvInitialiseTaskLists+0x80>
80006030:	f0 1f 00 0a 	mcall	80006058 <prvInitialiseTaskLists+0x74>
80006034:	48 dc       	lddpc	r12,80006068 <prvInitialiseTaskLists+0x84>
80006036:	f0 1f 00 09 	mcall	80006058 <prvInitialiseTaskLists+0x74>
8000603a:	48 dc       	lddpc	r12,8000606c <prvInitialiseTaskLists+0x88>
8000603c:	f0 1f 00 07 	mcall	80006058 <prvInitialiseTaskLists+0x74>
80006040:	48 c8       	lddpc	r8,80006070 <prvInitialiseTaskLists+0x8c>
80006042:	48 79       	lddpc	r9,8000605c <prvInitialiseTaskLists+0x78>
80006044:	91 09       	st.w	r8[0x0],r9
80006046:	48 c8       	lddpc	r8,80006074 <prvInitialiseTaskLists+0x90>
80006048:	48 69       	lddpc	r9,80006060 <prvInitialiseTaskLists+0x7c>
8000604a:	91 09       	st.w	r8[0x0],r9
8000604c:	2f fd       	sub	sp,-4
8000604e:	e3 cd 80 80 	ldm	sp++,r7,pc
80006052:	00 00       	add	r0,r0
80006054:	00 00       	add	r0,r0
80006056:	06 64       	and	r4,r3
80006058:	80 00       	ld.sh	r0,r0[0x0]
8000605a:	48 9c       	lddpc	r12,8000607c <prvCheckTasksWaitingTermination+0x4>
8000605c:	00 00       	add	r0,r0
8000605e:	07 04       	ld.w	r4,r3++
80006060:	00 00       	add	r0,r0
80006062:	07 18       	ld.sh	r8,r3++
80006064:	00 00       	add	r0,r0
80006066:	07 34       	ld.ub	r4,r3++
80006068:	00 00       	add	r0,r0
8000606a:	07 48       	ld.w	r8,--r3
8000606c:	00 00       	add	r0,r0
8000606e:	07 60       	ld.uh	r0,--r3
80006070:	00 00       	add	r0,r0
80006072:	07 2c       	ld.uh	r12,r3++
80006074:	00 00       	add	r0,r0
80006076:	07 30       	ld.ub	r0,r3++

80006078 <prvCheckTasksWaitingTermination>:
80006078:	eb cd 40 80 	pushm	r7,lr
8000607c:	1a 97       	mov	r7,sp
8000607e:	20 2d       	sub	sp,8
80006080:	49 b8       	lddpc	r8,800060ec <prvCheckTasksWaitingTermination+0x74>
80006082:	70 08       	ld.w	r8,r8[0x0]
80006084:	58 08       	cp.w	r8,0
80006086:	c2 f0       	breq	800060e4 <prvCheckTasksWaitingTermination+0x6c>
80006088:	f0 1f 00 1a 	mcall	800060f0 <prvCheckTasksWaitingTermination+0x78>
8000608c:	49 a8       	lddpc	r8,800060f4 <prvCheckTasksWaitingTermination+0x7c>
8000608e:	70 08       	ld.w	r8,r8[0x0]
80006090:	58 08       	cp.w	r8,0
80006092:	5f 08       	sreq	r8
80006094:	ef 48 ff f8 	st.w	r7[-8],r8
80006098:	f0 1f 00 18 	mcall	800060f8 <prvCheckTasksWaitingTermination+0x80>
8000609c:	ee f8 ff f8 	ld.w	r8,r7[-8]
800060a0:	58 08       	cp.w	r8,0
800060a2:	c2 11       	brne	800060e4 <prvCheckTasksWaitingTermination+0x6c>
800060a4:	f0 1f 00 16 	mcall	800060fc <prvCheckTasksWaitingTermination+0x84>
800060a8:	49 38       	lddpc	r8,800060f4 <prvCheckTasksWaitingTermination+0x7c>
800060aa:	2f 88       	sub	r8,-8
800060ac:	70 18       	ld.w	r8,r8[0x4]
800060ae:	70 38       	ld.w	r8,r8[0xc]
800060b0:	ef 48 ff fc 	st.w	r7[-4],r8
800060b4:	ee f8 ff fc 	ld.w	r8,r7[-4]
800060b8:	2f c8       	sub	r8,-4
800060ba:	10 9c       	mov	r12,r8
800060bc:	f0 1f 00 11 	mcall	80006100 <prvCheckTasksWaitingTermination+0x88>
800060c0:	49 18       	lddpc	r8,80006104 <prvCheckTasksWaitingTermination+0x8c>
800060c2:	70 08       	ld.w	r8,r8[0x0]
800060c4:	f0 c9 00 01 	sub	r9,r8,1
800060c8:	48 f8       	lddpc	r8,80006104 <prvCheckTasksWaitingTermination+0x8c>
800060ca:	91 09       	st.w	r8[0x0],r9
800060cc:	48 88       	lddpc	r8,800060ec <prvCheckTasksWaitingTermination+0x74>
800060ce:	70 08       	ld.w	r8,r8[0x0]
800060d0:	f0 c9 00 01 	sub	r9,r8,1
800060d4:	48 68       	lddpc	r8,800060ec <prvCheckTasksWaitingTermination+0x74>
800060d6:	91 09       	st.w	r8[0x0],r9
800060d8:	f0 1f 00 0c 	mcall	80006108 <prvCheckTasksWaitingTermination+0x90>
800060dc:	ee fc ff fc 	ld.w	r12,r7[-4]
800060e0:	f0 1f 00 0b 	mcall	8000610c <prvCheckTasksWaitingTermination+0x94>
800060e4:	2f ed       	sub	sp,-8
800060e6:	e3 cd 80 80 	ldm	sp++,r7,pc
800060ea:	00 00       	add	r0,r0
800060ec:	00 00       	add	r0,r0
800060ee:	07 5c       	ld.sh	r12,--r3
800060f0:	80 00       	ld.sh	r0,r0[0x0]
800060f2:	59 7c       	cp.w	r12,23
800060f4:	00 00       	add	r0,r0
800060f6:	07 48       	ld.w	r8,--r3
800060f8:	80 00       	ld.sh	r0,r0[0x0]
800060fa:	59 98       	cp.w	r8,25
800060fc:	80 00       	ld.sh	r0,r0[0x0]
800060fe:	4c 2c       	lddpc	r12,80006204 <prvAllocateTCBAndStack+0x74>
80006100:	80 00       	ld.sh	r0,r0[0x0]
80006102:	4a 16       	lddpc	r6,80006184 <prvAddCurrentTaskToDelayedList+0x74>
80006104:	00 00       	add	r0,r0
80006106:	07 74       	ld.ub	r4,--r3
80006108:	80 00       	ld.sh	r0,r0[0x0]
8000610a:	4c 48       	lddpc	r8,80006218 <prvAllocateTCBAndStack+0x88>
8000610c:	80 00       	ld.sh	r0,r0[0x0]
8000610e:	62 24       	ld.w	r4,r1[0x8]

80006110 <prvAddCurrentTaskToDelayedList>:
80006110:	eb cd 40 80 	pushm	r7,lr
80006114:	1a 97       	mov	r7,sp
80006116:	20 1d       	sub	sp,4
80006118:	ef 4c ff fc 	st.w	r7[-4],r12
8000611c:	49 78       	lddpc	r8,80006178 <prvAddCurrentTaskToDelayedList+0x68>
8000611e:	70 08       	ld.w	r8,r8[0x0]
80006120:	ee f9 ff fc 	ld.w	r9,r7[-4]
80006124:	91 19       	st.w	r8[0x4],r9
80006126:	49 68       	lddpc	r8,8000617c <prvAddCurrentTaskToDelayedList+0x6c>
80006128:	70 08       	ld.w	r8,r8[0x0]
8000612a:	ee f9 ff fc 	ld.w	r9,r7[-4]
8000612e:	10 39       	cp.w	r9,r8
80006130:	c0 c2       	brcc	80006148 <prvAddCurrentTaskToDelayedList+0x38>
80006132:	49 28       	lddpc	r8,80006178 <prvAddCurrentTaskToDelayedList+0x68>
80006134:	70 08       	ld.w	r8,r8[0x0]
80006136:	f0 c9 ff fc 	sub	r9,r8,-4
8000613a:	49 28       	lddpc	r8,80006180 <prvAddCurrentTaskToDelayedList+0x70>
8000613c:	70 08       	ld.w	r8,r8[0x0]
8000613e:	12 9b       	mov	r11,r9
80006140:	10 9c       	mov	r12,r8
80006142:	f0 1f 00 11 	mcall	80006184 <prvAddCurrentTaskToDelayedList+0x74>
80006146:	c1 58       	rjmp	80006170 <prvAddCurrentTaskToDelayedList+0x60>
80006148:	48 c8       	lddpc	r8,80006178 <prvAddCurrentTaskToDelayedList+0x68>
8000614a:	70 08       	ld.w	r8,r8[0x0]
8000614c:	f0 c9 ff fc 	sub	r9,r8,-4
80006150:	48 e8       	lddpc	r8,80006188 <prvAddCurrentTaskToDelayedList+0x78>
80006152:	70 08       	ld.w	r8,r8[0x0]
80006154:	12 9b       	mov	r11,r9
80006156:	10 9c       	mov	r12,r8
80006158:	f0 1f 00 0b 	mcall	80006184 <prvAddCurrentTaskToDelayedList+0x74>
8000615c:	48 c8       	lddpc	r8,8000618c <prvAddCurrentTaskToDelayedList+0x7c>
8000615e:	70 08       	ld.w	r8,r8[0x0]
80006160:	ee f9 ff fc 	ld.w	r9,r7[-4]
80006164:	10 39       	cp.w	r9,r8
80006166:	c0 52       	brcc	80006170 <prvAddCurrentTaskToDelayedList+0x60>
80006168:	48 98       	lddpc	r8,8000618c <prvAddCurrentTaskToDelayedList+0x7c>
8000616a:	ee f9 ff fc 	ld.w	r9,r7[-4]
8000616e:	91 09       	st.w	r8[0x0],r9
80006170:	2f fd       	sub	sp,-4
80006172:	e3 cd 80 80 	ldm	sp++,r7,pc
80006176:	00 00       	add	r0,r0
80006178:	00 00       	add	r0,r0
8000617a:	06 60       	and	r0,r3
8000617c:	00 00       	add	r0,r0
8000617e:	07 78       	ld.ub	r8,--r3
80006180:	00 00       	add	r0,r0
80006182:	07 30       	ld.ub	r0,r3++
80006184:	80 00       	ld.sh	r0,r0[0x0]
80006186:	49 74       	lddpc	r4,800061e0 <prvAllocateTCBAndStack+0x50>
80006188:	00 00       	add	r0,r0
8000618a:	07 2c       	ld.uh	r12,r3++
8000618c:	00 00       	add	r0,r0
8000618e:	00 24       	rsub	r4,r0

80006190 <prvAllocateTCBAndStack>:
80006190:	eb cd 40 80 	pushm	r7,lr
80006194:	1a 97       	mov	r7,sp
80006196:	20 3d       	sub	sp,12
80006198:	18 98       	mov	r8,r12
8000619a:	ef 4b ff f4 	st.w	r7[-12],r11
8000619e:	ef 58 ff f8 	st.h	r7[-8],r8
800061a2:	34 4c       	mov	r12,68
800061a4:	f0 1f 00 1d 	mcall	80006218 <prvAllocateTCBAndStack+0x88>
800061a8:	18 98       	mov	r8,r12
800061aa:	ef 48 ff fc 	st.w	r7[-4],r8
800061ae:	ee f8 ff fc 	ld.w	r8,r7[-4]
800061b2:	58 08       	cp.w	r8,0
800061b4:	c2 c0       	breq	8000620c <prvAllocateTCBAndStack+0x7c>
800061b6:	ee f8 ff f4 	ld.w	r8,r7[-12]
800061ba:	58 08       	cp.w	r8,0
800061bc:	c0 91       	brne	800061ce <prvAllocateTCBAndStack+0x3e>
800061be:	ef 18 ff f8 	ld.uh	r8,r7[-8]
800061c2:	a3 68       	lsl	r8,0x2
800061c4:	10 9c       	mov	r12,r8
800061c6:	f0 1f 00 15 	mcall	80006218 <prvAllocateTCBAndStack+0x88>
800061ca:	18 98       	mov	r8,r12
800061cc:	c0 38       	rjmp	800061d2 <prvAllocateTCBAndStack+0x42>
800061ce:	ee f8 ff f4 	ld.w	r8,r7[-12]
800061d2:	ee f9 ff fc 	ld.w	r9,r7[-4]
800061d6:	93 c8       	st.w	r9[0x30],r8
800061d8:	ee f8 ff fc 	ld.w	r8,r7[-4]
800061dc:	70 c8       	ld.w	r8,r8[0x30]
800061de:	58 08       	cp.w	r8,0
800061e0:	c0 91       	brne	800061f2 <prvAllocateTCBAndStack+0x62>
800061e2:	ee fc ff fc 	ld.w	r12,r7[-4]
800061e6:	f0 1f 00 0e 	mcall	8000621c <prvAllocateTCBAndStack+0x8c>
800061ea:	30 08       	mov	r8,0
800061ec:	ef 48 ff fc 	st.w	r7[-4],r8
800061f0:	c0 e8       	rjmp	8000620c <prvAllocateTCBAndStack+0x7c>
800061f2:	ef 18 ff f8 	ld.uh	r8,r7[-8]
800061f6:	f0 09 15 02 	lsl	r9,r8,0x2
800061fa:	ee f8 ff fc 	ld.w	r8,r7[-4]
800061fe:	70 c8       	ld.w	r8,r8[0x30]
80006200:	12 9a       	mov	r10,r9
80006202:	e0 6b 00 a5 	mov	r11,165
80006206:	10 9c       	mov	r12,r8
80006208:	f0 1f 00 06 	mcall	80006220 <prvAllocateTCBAndStack+0x90>
8000620c:	ee f8 ff fc 	ld.w	r8,r7[-4]
80006210:	10 9c       	mov	r12,r8
80006212:	2f dd       	sub	sp,-12
80006214:	e3 cd 80 80 	ldm	sp++,r7,pc
80006218:	80 00       	ld.sh	r0,r0[0x0]
8000621a:	4f d4       	lddpc	r4,8000640c <__avr32_udiv64+0x1bc>
8000621c:	80 00       	ld.sh	r0,r0[0x0]
8000621e:	50 10       	stdsp	sp[0x4],r0
80006220:	80 00       	ld.sh	r0,r0[0x0]
80006222:	6a 84       	ld.w	r4,r5[0x20]

80006224 <prvDeleteTCB>:
80006224:	eb cd 40 80 	pushm	r7,lr
80006228:	1a 97       	mov	r7,sp
8000622a:	20 1d       	sub	sp,4
8000622c:	ef 4c ff fc 	st.w	r7[-4],r12
80006230:	ee f8 ff fc 	ld.w	r8,r7[-4]
80006234:	70 c8       	ld.w	r8,r8[0x30]
80006236:	10 9c       	mov	r12,r8
80006238:	f0 1f 00 05 	mcall	8000624c <prvDeleteTCB+0x28>
8000623c:	ee fc ff fc 	ld.w	r12,r7[-4]
80006240:	f0 1f 00 03 	mcall	8000624c <prvDeleteTCB+0x28>
80006244:	2f fd       	sub	sp,-4
80006246:	e3 cd 80 80 	ldm	sp++,r7,pc
8000624a:	00 00       	add	r0,r0
8000624c:	80 00       	ld.sh	r0,r0[0x0]
8000624e:	50 10       	stdsp	sp[0x4],r0

80006250 <__avr32_udiv64>:
80006250:	d4 31       	pushm	r0-r7,lr
80006252:	1a 97       	mov	r7,sp
80006254:	20 3d       	sub	sp,12
80006256:	10 9c       	mov	r12,r8
80006258:	12 9e       	mov	lr,r9
8000625a:	14 93       	mov	r3,r10
8000625c:	58 09       	cp.w	r9,0
8000625e:	e0 81 00 bd 	brne	800063d8 <__avr32_udiv64+0x188>
80006262:	16 38       	cp.w	r8,r11
80006264:	e0 88 00 40 	brls	800062e4 <__avr32_udiv64+0x94>
80006268:	f0 08 12 00 	clz	r8,r8
8000626c:	c0 d0       	breq	80006286 <__avr32_udiv64+0x36>
8000626e:	f6 08 09 4b 	lsl	r11,r11,r8
80006272:	f0 09 11 20 	rsub	r9,r8,32
80006276:	f8 08 09 4c 	lsl	r12,r12,r8
8000627a:	f4 09 0a 49 	lsr	r9,r10,r9
8000627e:	f4 08 09 43 	lsl	r3,r10,r8
80006282:	f3 eb 10 0b 	or	r11,r9,r11
80006286:	f8 0e 16 10 	lsr	lr,r12,0x10
8000628a:	f5 dc c0 10 	bfextu	r10,r12,0x0,0x10
8000628e:	f6 0e 0d 00 	divu	r0,r11,lr
80006292:	e6 0b 16 10 	lsr	r11,r3,0x10
80006296:	00 99       	mov	r9,r0
80006298:	f7 e1 11 0b 	or	r11,r11,r1<<0x10
8000629c:	e0 0a 02 48 	mul	r8,r0,r10
800062a0:	10 3b       	cp.w	r11,r8
800062a2:	c0 a2       	brcc	800062b6 <__avr32_udiv64+0x66>
800062a4:	20 19       	sub	r9,1
800062a6:	18 0b       	add	r11,r12
800062a8:	18 3b       	cp.w	r11,r12
800062aa:	c0 63       	brcs	800062b6 <__avr32_udiv64+0x66>
800062ac:	10 3b       	cp.w	r11,r8
800062ae:	f7 b9 03 01 	sublo	r9,1
800062b2:	f7 dc e3 0b 	addcs	r11,r11,r12
800062b6:	f6 08 01 01 	sub	r1,r11,r8
800062ba:	e7 d3 c0 10 	bfextu	r3,r3,0x0,0x10
800062be:	e2 0e 0d 00 	divu	r0,r1,lr
800062c2:	e7 e1 11 03 	or	r3,r3,r1<<0x10
800062c6:	00 98       	mov	r8,r0
800062c8:	e0 0a 02 4a 	mul	r10,r0,r10
800062cc:	14 33       	cp.w	r3,r10
800062ce:	c0 82       	brcc	800062de <__avr32_udiv64+0x8e>
800062d0:	20 18       	sub	r8,1
800062d2:	18 03       	add	r3,r12
800062d4:	18 33       	cp.w	r3,r12
800062d6:	c0 43       	brcs	800062de <__avr32_udiv64+0x8e>
800062d8:	14 33       	cp.w	r3,r10
800062da:	f7 b8 03 01 	sublo	r8,1
800062de:	f1 e9 11 08 	or	r8,r8,r9<<0x10
800062e2:	cd f8       	rjmp	800064a0 <__avr32_udiv64+0x250>
800062e4:	58 08       	cp.w	r8,0
800062e6:	c0 51       	brne	800062f0 <__avr32_udiv64+0xa0>
800062e8:	30 19       	mov	r9,1
800062ea:	f2 08 0d 08 	divu	r8,r9,r8
800062ee:	10 9c       	mov	r12,r8
800062f0:	f8 06 12 00 	clz	r6,r12
800062f4:	c0 41       	brne	800062fc <__avr32_udiv64+0xac>
800062f6:	18 1b       	sub	r11,r12
800062f8:	30 19       	mov	r9,1
800062fa:	c4 08       	rjmp	8000637a <__avr32_udiv64+0x12a>
800062fc:	ec 01 11 20 	rsub	r1,r6,32
80006300:	f4 01 0a 49 	lsr	r9,r10,r1
80006304:	f8 06 09 4c 	lsl	r12,r12,r6
80006308:	f6 06 09 48 	lsl	r8,r11,r6
8000630c:	f6 01 0a 41 	lsr	r1,r11,r1
80006310:	f3 e8 10 08 	or	r8,r9,r8
80006314:	f8 03 16 10 	lsr	r3,r12,0x10
80006318:	eb dc c0 10 	bfextu	r5,r12,0x0,0x10
8000631c:	e2 03 0d 00 	divu	r0,r1,r3
80006320:	f0 0b 16 10 	lsr	r11,r8,0x10
80006324:	00 9e       	mov	lr,r0
80006326:	f7 e1 11 0b 	or	r11,r11,r1<<0x10
8000632a:	e0 05 02 49 	mul	r9,r0,r5
8000632e:	12 3b       	cp.w	r11,r9
80006330:	c0 a2       	brcc	80006344 <__avr32_udiv64+0xf4>
80006332:	20 1e       	sub	lr,1
80006334:	18 0b       	add	r11,r12
80006336:	18 3b       	cp.w	r11,r12
80006338:	c0 63       	brcs	80006344 <__avr32_udiv64+0xf4>
8000633a:	12 3b       	cp.w	r11,r9
8000633c:	f7 be 03 01 	sublo	lr,1
80006340:	f7 dc e3 0b 	addcs	r11,r11,r12
80006344:	12 1b       	sub	r11,r9
80006346:	f1 d8 c0 10 	bfextu	r8,r8,0x0,0x10
8000634a:	f6 03 0d 02 	divu	r2,r11,r3
8000634e:	f1 e3 11 08 	or	r8,r8,r3<<0x10
80006352:	04 99       	mov	r9,r2
80006354:	e4 05 02 4b 	mul	r11,r2,r5
80006358:	16 38       	cp.w	r8,r11
8000635a:	c0 a2       	brcc	8000636e <__avr32_udiv64+0x11e>
8000635c:	20 19       	sub	r9,1
8000635e:	18 08       	add	r8,r12
80006360:	18 38       	cp.w	r8,r12
80006362:	c0 63       	brcs	8000636e <__avr32_udiv64+0x11e>
80006364:	16 38       	cp.w	r8,r11
80006366:	f7 b9 03 01 	sublo	r9,1
8000636a:	f1 dc e3 08 	addcs	r8,r8,r12
8000636e:	f4 06 09 43 	lsl	r3,r10,r6
80006372:	f0 0b 01 0b 	sub	r11,r8,r11
80006376:	f3 ee 11 09 	or	r9,r9,lr<<0x10
8000637a:	f8 06 16 10 	lsr	r6,r12,0x10
8000637e:	fd dc c0 10 	bfextu	lr,r12,0x0,0x10
80006382:	f6 06 0d 00 	divu	r0,r11,r6
80006386:	e6 0b 16 10 	lsr	r11,r3,0x10
8000638a:	00 9a       	mov	r10,r0
8000638c:	f7 e1 11 0b 	or	r11,r11,r1<<0x10
80006390:	e0 0e 02 48 	mul	r8,r0,lr
80006394:	10 3b       	cp.w	r11,r8
80006396:	c0 a2       	brcc	800063aa <__avr32_udiv64+0x15a>
80006398:	20 1a       	sub	r10,1
8000639a:	18 0b       	add	r11,r12
8000639c:	18 3b       	cp.w	r11,r12
8000639e:	c0 63       	brcs	800063aa <__avr32_udiv64+0x15a>
800063a0:	10 3b       	cp.w	r11,r8
800063a2:	f7 ba 03 01 	sublo	r10,1
800063a6:	f7 dc e3 0b 	addcs	r11,r11,r12
800063aa:	f6 08 01 01 	sub	r1,r11,r8
800063ae:	e7 d3 c0 10 	bfextu	r3,r3,0x0,0x10
800063b2:	e2 06 0d 00 	divu	r0,r1,r6
800063b6:	e7 e1 11 03 	or	r3,r3,r1<<0x10
800063ba:	00 98       	mov	r8,r0
800063bc:	e0 0e 02 4b 	mul	r11,r0,lr
800063c0:	16 33       	cp.w	r3,r11
800063c2:	c0 82       	brcc	800063d2 <__avr32_udiv64+0x182>
800063c4:	20 18       	sub	r8,1
800063c6:	18 03       	add	r3,r12
800063c8:	18 33       	cp.w	r3,r12
800063ca:	c0 43       	brcs	800063d2 <__avr32_udiv64+0x182>
800063cc:	16 33       	cp.w	r3,r11
800063ce:	f7 b8 03 01 	sublo	r8,1
800063d2:	f1 ea 11 08 	or	r8,r8,r10<<0x10
800063d6:	c6 98       	rjmp	800064a8 <__avr32_udiv64+0x258>
800063d8:	16 39       	cp.w	r9,r11
800063da:	e0 8b 00 65 	brhi	800064a4 <__avr32_udiv64+0x254>
800063de:	f2 09 12 00 	clz	r9,r9
800063e2:	c0 b1       	brne	800063f8 <__avr32_udiv64+0x1a8>
800063e4:	10 3a       	cp.w	r10,r8
800063e6:	5f 2a       	srhs	r10
800063e8:	1c 3b       	cp.w	r11,lr
800063ea:	5f b8       	srhi	r8
800063ec:	10 4a       	or	r10,r8
800063ee:	f2 0a 18 00 	cp.b	r10,r9
800063f2:	c5 90       	breq	800064a4 <__avr32_udiv64+0x254>
800063f4:	30 18       	mov	r8,1
800063f6:	c5 98       	rjmp	800064a8 <__avr32_udiv64+0x258>
800063f8:	f0 09 09 46 	lsl	r6,r8,r9
800063fc:	f2 03 11 20 	rsub	r3,r9,32
80006400:	fc 09 09 4e 	lsl	lr,lr,r9
80006404:	f0 03 0a 48 	lsr	r8,r8,r3
80006408:	f6 09 09 4c 	lsl	r12,r11,r9
8000640c:	f4 03 0a 42 	lsr	r2,r10,r3
80006410:	ef 46 ff f4 	st.w	r7[-12],r6
80006414:	f6 03 0a 43 	lsr	r3,r11,r3
80006418:	18 42       	or	r2,r12
8000641a:	f1 ee 10 0c 	or	r12,r8,lr
8000641e:	f8 01 16 10 	lsr	r1,r12,0x10
80006422:	ed dc c0 10 	bfextu	r6,r12,0x0,0x10
80006426:	e6 01 0d 04 	divu	r4,r3,r1
8000642a:	e4 03 16 10 	lsr	r3,r2,0x10
8000642e:	08 9e       	mov	lr,r4
80006430:	e7 e5 11 03 	or	r3,r3,r5<<0x10
80006434:	e8 06 02 48 	mul	r8,r4,r6
80006438:	10 33       	cp.w	r3,r8
8000643a:	c0 a2       	brcc	8000644e <__avr32_udiv64+0x1fe>
8000643c:	20 1e       	sub	lr,1
8000643e:	18 03       	add	r3,r12
80006440:	18 33       	cp.w	r3,r12
80006442:	c0 63       	brcs	8000644e <__avr32_udiv64+0x1fe>
80006444:	10 33       	cp.w	r3,r8
80006446:	f7 be 03 01 	sublo	lr,1
8000644a:	e7 dc e3 03 	addcs	r3,r3,r12
8000644e:	10 13       	sub	r3,r8
80006450:	f7 d2 c0 10 	bfextu	r11,r2,0x0,0x10
80006454:	e6 01 0d 00 	divu	r0,r3,r1
80006458:	f7 e1 11 0b 	or	r11,r11,r1<<0x10
8000645c:	00 98       	mov	r8,r0
8000645e:	e0 06 02 46 	mul	r6,r0,r6
80006462:	0c 3b       	cp.w	r11,r6
80006464:	c0 a2       	brcc	80006478 <__avr32_udiv64+0x228>
80006466:	20 18       	sub	r8,1
80006468:	18 0b       	add	r11,r12
8000646a:	18 3b       	cp.w	r11,r12
8000646c:	c0 63       	brcs	80006478 <__avr32_udiv64+0x228>
8000646e:	0c 3b       	cp.w	r11,r6
80006470:	f7 dc e3 0b 	addcs	r11,r11,r12
80006474:	f7 b8 03 01 	sublo	r8,1
80006478:	f1 ee 11 08 	or	r8,r8,lr<<0x10
8000647c:	ee f4 ff f4 	ld.w	r4,r7[-12]
80006480:	0c 1b       	sub	r11,r6
80006482:	f0 04 06 42 	mulu.d	r2,r8,r4
80006486:	06 95       	mov	r5,r3
80006488:	16 35       	cp.w	r5,r11
8000648a:	e0 8b 00 0a 	brhi	8000649e <__avr32_udiv64+0x24e>
8000648e:	5f 0b       	sreq	r11
80006490:	f4 09 09 49 	lsl	r9,r10,r9
80006494:	12 32       	cp.w	r2,r9
80006496:	5f b9       	srhi	r9
80006498:	f7 e9 00 09 	and	r9,r11,r9
8000649c:	c0 60       	breq	800064a8 <__avr32_udiv64+0x258>
8000649e:	20 18       	sub	r8,1
800064a0:	30 09       	mov	r9,0
800064a2:	c0 38       	rjmp	800064a8 <__avr32_udiv64+0x258>
800064a4:	30 09       	mov	r9,0
800064a6:	12 98       	mov	r8,r9
800064a8:	10 9a       	mov	r10,r8
800064aa:	12 93       	mov	r3,r9
800064ac:	10 92       	mov	r2,r8
800064ae:	12 9b       	mov	r11,r9
800064b0:	2f dd       	sub	sp,-12
800064b2:	d8 32       	popm	r0-r7,pc

800064b4 <atexit>:
800064b4:	d4 01       	pushm	lr
800064b6:	30 09       	mov	r9,0
800064b8:	18 9b       	mov	r11,r12
800064ba:	12 9a       	mov	r10,r9
800064bc:	12 9c       	mov	r12,r9
800064be:	e0 a0 05 01 	rcall	80006ec0 <__register_exitproc>
800064c2:	d8 02       	popm	pc

800064c4 <exit>:
800064c4:	d4 21       	pushm	r4-r7,lr
800064c6:	30 0b       	mov	r11,0
800064c8:	18 97       	mov	r7,r12
800064ca:	e0 a0 05 4d 	rcall	80006f64 <__call_exitprocs>
800064ce:	fe c8 a3 9a 	sub	r8,pc,-23654
800064d2:	70 0c       	ld.w	r12,r8[0x0]
800064d4:	78 a8       	ld.w	r8,r12[0x28]
800064d6:	58 08       	cp.w	r8,0
800064d8:	c0 20       	breq	800064dc <exit+0x18>
800064da:	5d 18       	icall	r8
800064dc:	0e 9c       	mov	r12,r7
800064de:	e0 a0 04 60 	rcall	80006d9e <_exit>
800064e2:	d7 03       	nop

800064e4 <free>:
800064e4:	d4 01       	pushm	lr
800064e6:	e0 68 01 18 	mov	r8,280
800064ea:	18 9b       	mov	r11,r12
800064ec:	70 0c       	ld.w	r12,r8[0x0]
800064ee:	e0 a0 06 93 	rcall	80007214 <_free_r>
800064f2:	d8 02       	popm	pc

800064f4 <malloc>:
800064f4:	d4 01       	pushm	lr
800064f6:	e0 68 01 18 	mov	r8,280
800064fa:	18 9b       	mov	r11,r12
800064fc:	70 0c       	ld.w	r12,r8[0x0]
800064fe:	c0 3c       	rcall	80006504 <_malloc_r>
80006500:	d8 02       	popm	pc
80006502:	d7 03       	nop

80006504 <_malloc_r>:
80006504:	d4 31       	pushm	r0-r7,lr
80006506:	f6 c8 ff f5 	sub	r8,r11,-11
8000650a:	18 95       	mov	r5,r12
8000650c:	10 97       	mov	r7,r8
8000650e:	e0 17 ff f8 	andl	r7,0xfff8
80006512:	59 68       	cp.w	r8,22
80006514:	f9 b7 08 10 	movls	r7,16
80006518:	16 37       	cp.w	r7,r11
8000651a:	5f 38       	srlo	r8
8000651c:	f1 e7 13 f8 	or	r8,r8,r7>>0x1f
80006520:	c0 50       	breq	8000652a <_malloc_r+0x26>
80006522:	30 c8       	mov	r8,12
80006524:	99 38       	st.w	r12[0xc],r8
80006526:	e0 8f 01 fa 	bral	8000691a <_malloc_r+0x416>
8000652a:	fe b0 f2 d7 	rcall	80004ad8 <__malloc_lock>
8000652e:	e0 47 01 f7 	cp.w	r7,503
80006532:	e0 8b 00 1d 	brhi	8000656c <_malloc_r+0x68>
80006536:	ee 03 16 03 	lsr	r3,r7,0x3
8000653a:	e0 68 01 1c 	mov	r8,284
8000653e:	f0 03 00 38 	add	r8,r8,r3<<0x3
80006542:	70 36       	ld.w	r6,r8[0xc]
80006544:	10 36       	cp.w	r6,r8
80006546:	c0 61       	brne	80006552 <_malloc_r+0x4e>
80006548:	ec c8 ff f8 	sub	r8,r6,-8
8000654c:	70 36       	ld.w	r6,r8[0xc]
8000654e:	10 36       	cp.w	r6,r8
80006550:	c0 c0       	breq	80006568 <_malloc_r+0x64>
80006552:	6c 18       	ld.w	r8,r6[0x4]
80006554:	e0 18 ff fc 	andl	r8,0xfffc
80006558:	6c 3a       	ld.w	r10,r6[0xc]
8000655a:	ec 08 00 09 	add	r9,r6,r8
8000655e:	0a 9c       	mov	r12,r5
80006560:	6c 28       	ld.w	r8,r6[0x8]
80006562:	95 28       	st.w	r10[0x8],r8
80006564:	91 3a       	st.w	r8[0xc],r10
80006566:	c4 78       	rjmp	800065f4 <_malloc_r+0xf0>
80006568:	2f e3       	sub	r3,-2
8000656a:	c4 d8       	rjmp	80006604 <_malloc_r+0x100>
8000656c:	ee 03 16 09 	lsr	r3,r7,0x9
80006570:	c0 41       	brne	80006578 <_malloc_r+0x74>
80006572:	ee 03 16 03 	lsr	r3,r7,0x3
80006576:	c2 68       	rjmp	800065c2 <_malloc_r+0xbe>
80006578:	58 43       	cp.w	r3,4
8000657a:	e0 8b 00 06 	brhi	80006586 <_malloc_r+0x82>
8000657e:	ee 03 16 06 	lsr	r3,r7,0x6
80006582:	2c 83       	sub	r3,-56
80006584:	c1 f8       	rjmp	800065c2 <_malloc_r+0xbe>
80006586:	59 43       	cp.w	r3,20
80006588:	e0 8b 00 04 	brhi	80006590 <_malloc_r+0x8c>
8000658c:	2a 53       	sub	r3,-91
8000658e:	c1 a8       	rjmp	800065c2 <_malloc_r+0xbe>
80006590:	e0 43 00 54 	cp.w	r3,84
80006594:	e0 8b 00 06 	brhi	800065a0 <_malloc_r+0x9c>
80006598:	ee 03 16 0c 	lsr	r3,r7,0xc
8000659c:	29 23       	sub	r3,-110
8000659e:	c1 28       	rjmp	800065c2 <_malloc_r+0xbe>
800065a0:	e0 43 01 54 	cp.w	r3,340
800065a4:	e0 8b 00 06 	brhi	800065b0 <_malloc_r+0xac>
800065a8:	ee 03 16 0f 	lsr	r3,r7,0xf
800065ac:	28 93       	sub	r3,-119
800065ae:	c0 a8       	rjmp	800065c2 <_malloc_r+0xbe>
800065b0:	e0 43 05 54 	cp.w	r3,1364
800065b4:	e0 88 00 04 	brls	800065bc <_malloc_r+0xb8>
800065b8:	37 e3       	mov	r3,126
800065ba:	c0 48       	rjmp	800065c2 <_malloc_r+0xbe>
800065bc:	ee 03 16 12 	lsr	r3,r7,0x12
800065c0:	28 43       	sub	r3,-124
800065c2:	e0 6a 01 1c 	mov	r10,284
800065c6:	f4 03 00 3a 	add	r10,r10,r3<<0x3
800065ca:	74 36       	ld.w	r6,r10[0xc]
800065cc:	c1 98       	rjmp	800065fe <_malloc_r+0xfa>
800065ce:	6c 19       	ld.w	r9,r6[0x4]
800065d0:	e0 19 ff fc 	andl	r9,0xfffc
800065d4:	f2 07 01 0b 	sub	r11,r9,r7
800065d8:	58 fb       	cp.w	r11,15
800065da:	e0 8a 00 04 	brle	800065e2 <_malloc_r+0xde>
800065de:	20 13       	sub	r3,1
800065e0:	c1 18       	rjmp	80006602 <_malloc_r+0xfe>
800065e2:	6c 38       	ld.w	r8,r6[0xc]
800065e4:	58 0b       	cp.w	r11,0
800065e6:	c0 b5       	brlt	800065fc <_malloc_r+0xf8>
800065e8:	6c 2a       	ld.w	r10,r6[0x8]
800065ea:	ec 09 00 09 	add	r9,r6,r9
800065ee:	0a 9c       	mov	r12,r5
800065f0:	91 2a       	st.w	r8[0x8],r10
800065f2:	95 38       	st.w	r10[0xc],r8
800065f4:	72 18       	ld.w	r8,r9[0x4]
800065f6:	a1 a8       	sbr	r8,0x0
800065f8:	93 18       	st.w	r9[0x4],r8
800065fa:	cb c8       	rjmp	80006772 <_malloc_r+0x26e>
800065fc:	10 96       	mov	r6,r8
800065fe:	14 36       	cp.w	r6,r10
80006600:	ce 71       	brne	800065ce <_malloc_r+0xca>
80006602:	2f f3       	sub	r3,-1
80006604:	e0 6a 01 1c 	mov	r10,284
80006608:	f4 cc ff f8 	sub	r12,r10,-8
8000660c:	78 26       	ld.w	r6,r12[0x8]
8000660e:	18 36       	cp.w	r6,r12
80006610:	c6 c0       	breq	800066e8 <_malloc_r+0x1e4>
80006612:	6c 19       	ld.w	r9,r6[0x4]
80006614:	e0 19 ff fc 	andl	r9,0xfffc
80006618:	f2 07 01 08 	sub	r8,r9,r7
8000661c:	58 f8       	cp.w	r8,15
8000661e:	e0 89 00 8f 	brgt	8000673c <_malloc_r+0x238>
80006622:	99 3c       	st.w	r12[0xc],r12
80006624:	99 2c       	st.w	r12[0x8],r12
80006626:	58 08       	cp.w	r8,0
80006628:	c0 55       	brlt	80006632 <_malloc_r+0x12e>
8000662a:	ec 09 00 09 	add	r9,r6,r9
8000662e:	0a 9c       	mov	r12,r5
80006630:	ce 2b       	rjmp	800065f4 <_malloc_r+0xf0>
80006632:	e0 49 01 ff 	cp.w	r9,511
80006636:	e0 8b 00 13 	brhi	8000665c <_malloc_r+0x158>
8000663a:	a3 99       	lsr	r9,0x3
8000663c:	f4 09 00 38 	add	r8,r10,r9<<0x3
80006640:	70 2b       	ld.w	r11,r8[0x8]
80006642:	8d 38       	st.w	r6[0xc],r8
80006644:	8d 2b       	st.w	r6[0x8],r11
80006646:	97 36       	st.w	r11[0xc],r6
80006648:	91 26       	st.w	r8[0x8],r6
8000664a:	a3 49       	asr	r9,0x2
8000664c:	74 18       	ld.w	r8,r10[0x4]
8000664e:	30 1b       	mov	r11,1
80006650:	f6 09 09 49 	lsl	r9,r11,r9
80006654:	f1 e9 10 09 	or	r9,r8,r9
80006658:	95 19       	st.w	r10[0x4],r9
8000665a:	c4 78       	rjmp	800066e8 <_malloc_r+0x1e4>
8000665c:	f2 0a 16 09 	lsr	r10,r9,0x9
80006660:	58 4a       	cp.w	r10,4
80006662:	e0 8b 00 07 	brhi	80006670 <_malloc_r+0x16c>
80006666:	f2 0a 16 06 	lsr	r10,r9,0x6
8000666a:	2c 8a       	sub	r10,-56
8000666c:	c2 08       	rjmp	800066ac <_malloc_r+0x1a8>
8000666e:	d7 03       	nop
80006670:	59 4a       	cp.w	r10,20
80006672:	e0 8b 00 04 	brhi	8000667a <_malloc_r+0x176>
80006676:	2a 5a       	sub	r10,-91
80006678:	c1 a8       	rjmp	800066ac <_malloc_r+0x1a8>
8000667a:	e0 4a 00 54 	cp.w	r10,84
8000667e:	e0 8b 00 06 	brhi	8000668a <_malloc_r+0x186>
80006682:	f2 0a 16 0c 	lsr	r10,r9,0xc
80006686:	29 2a       	sub	r10,-110
80006688:	c1 28       	rjmp	800066ac <_malloc_r+0x1a8>
8000668a:	e0 4a 01 54 	cp.w	r10,340
8000668e:	e0 8b 00 06 	brhi	8000669a <_malloc_r+0x196>
80006692:	f2 0a 16 0f 	lsr	r10,r9,0xf
80006696:	28 9a       	sub	r10,-119
80006698:	c0 a8       	rjmp	800066ac <_malloc_r+0x1a8>
8000669a:	e0 4a 05 54 	cp.w	r10,1364
8000669e:	e0 88 00 04 	brls	800066a6 <_malloc_r+0x1a2>
800066a2:	37 ea       	mov	r10,126
800066a4:	c0 48       	rjmp	800066ac <_malloc_r+0x1a8>
800066a6:	f2 0a 16 12 	lsr	r10,r9,0x12
800066aa:	28 4a       	sub	r10,-124
800066ac:	e0 6b 01 1c 	mov	r11,284
800066b0:	f6 0a 00 34 	add	r4,r11,r10<<0x3
800066b4:	68 28       	ld.w	r8,r4[0x8]
800066b6:	08 38       	cp.w	r8,r4
800066b8:	c0 e1       	brne	800066d4 <_malloc_r+0x1d0>
800066ba:	76 19       	ld.w	r9,r11[0x4]
800066bc:	a3 4a       	asr	r10,0x2
800066be:	30 1e       	mov	lr,1
800066c0:	fc 0a 09 4a 	lsl	r10,lr,r10
800066c4:	f3 ea 10 0a 	or	r10,r9,r10
800066c8:	10 99       	mov	r9,r8
800066ca:	97 1a       	st.w	r11[0x4],r10
800066cc:	c0 a8       	rjmp	800066e0 <_malloc_r+0x1dc>
800066ce:	70 28       	ld.w	r8,r8[0x8]
800066d0:	08 38       	cp.w	r8,r4
800066d2:	c0 60       	breq	800066de <_malloc_r+0x1da>
800066d4:	70 1a       	ld.w	r10,r8[0x4]
800066d6:	e0 1a ff fc 	andl	r10,0xfffc
800066da:	14 39       	cp.w	r9,r10
800066dc:	cf 93       	brcs	800066ce <_malloc_r+0x1ca>
800066de:	70 39       	ld.w	r9,r8[0xc]
800066e0:	8d 39       	st.w	r6[0xc],r9
800066e2:	8d 28       	st.w	r6[0x8],r8
800066e4:	91 36       	st.w	r8[0xc],r6
800066e6:	93 26       	st.w	r9[0x8],r6
800066e8:	e6 08 14 02 	asr	r8,r3,0x2
800066ec:	30 1b       	mov	r11,1
800066ee:	e0 64 01 1c 	mov	r4,284
800066f2:	f6 08 09 4b 	lsl	r11,r11,r8
800066f6:	68 18       	ld.w	r8,r4[0x4]
800066f8:	10 3b       	cp.w	r11,r8
800066fa:	e0 8b 00 6b 	brhi	800067d0 <_malloc_r+0x2cc>
800066fe:	f7 e8 00 09 	and	r9,r11,r8
80006702:	c0 b1       	brne	80006718 <_malloc_r+0x214>
80006704:	e0 13 ff fc 	andl	r3,0xfffc
80006708:	a1 7b       	lsl	r11,0x1
8000670a:	2f c3       	sub	r3,-4
8000670c:	c0 38       	rjmp	80006712 <_malloc_r+0x20e>
8000670e:	2f c3       	sub	r3,-4
80006710:	a1 7b       	lsl	r11,0x1
80006712:	f7 e8 00 09 	and	r9,r11,r8
80006716:	cf c0       	breq	8000670e <_malloc_r+0x20a>
80006718:	e8 03 00 3e 	add	lr,r4,r3<<0x3
8000671c:	06 92       	mov	r2,r3
8000671e:	1c 91       	mov	r1,lr
80006720:	62 36       	ld.w	r6,r1[0xc]
80006722:	c2 e8       	rjmp	8000677e <_malloc_r+0x27a>
80006724:	6c 1a       	ld.w	r10,r6[0x4]
80006726:	e0 1a ff fc 	andl	r10,0xfffc
8000672a:	f4 07 01 08 	sub	r8,r10,r7
8000672e:	58 f8       	cp.w	r8,15
80006730:	e0 8a 00 15 	brle	8000675a <_malloc_r+0x256>
80006734:	6c 3a       	ld.w	r10,r6[0xc]
80006736:	6c 29       	ld.w	r9,r6[0x8]
80006738:	95 29       	st.w	r10[0x8],r9
8000673a:	93 3a       	st.w	r9[0xc],r10
8000673c:	0e 99       	mov	r9,r7
8000673e:	ec 07 00 07 	add	r7,r6,r7
80006742:	a1 a9       	sbr	r9,0x0
80006744:	99 37       	st.w	r12[0xc],r7
80006746:	99 27       	st.w	r12[0x8],r7
80006748:	8d 19       	st.w	r6[0x4],r9
8000674a:	ee 08 09 08 	st.w	r7[r8],r8
8000674e:	8f 2c       	st.w	r7[0x8],r12
80006750:	8f 3c       	st.w	r7[0xc],r12
80006752:	a1 a8       	sbr	r8,0x0
80006754:	0a 9c       	mov	r12,r5
80006756:	8f 18       	st.w	r7[0x4],r8
80006758:	c0 d8       	rjmp	80006772 <_malloc_r+0x26e>
8000675a:	6c 39       	ld.w	r9,r6[0xc]
8000675c:	58 08       	cp.w	r8,0
8000675e:	c0 f5       	brlt	8000677c <_malloc_r+0x278>
80006760:	ec 0a 00 0a 	add	r10,r6,r10
80006764:	74 18       	ld.w	r8,r10[0x4]
80006766:	a1 a8       	sbr	r8,0x0
80006768:	0a 9c       	mov	r12,r5
8000676a:	95 18       	st.w	r10[0x4],r8
8000676c:	6c 28       	ld.w	r8,r6[0x8]
8000676e:	93 28       	st.w	r9[0x8],r8
80006770:	91 39       	st.w	r8[0xc],r9
80006772:	fe b0 f1 c1 	rcall	80004af4 <__malloc_unlock>
80006776:	ec cc ff f8 	sub	r12,r6,-8
8000677a:	d8 32       	popm	r0-r7,pc
8000677c:	12 96       	mov	r6,r9
8000677e:	02 36       	cp.w	r6,r1
80006780:	cd 21       	brne	80006724 <_malloc_r+0x220>
80006782:	2f f2       	sub	r2,-1
80006784:	f1 d2 c0 02 	bfextu	r8,r2,0x0,0x2
80006788:	c0 30       	breq	8000678e <_malloc_r+0x28a>
8000678a:	2f 81       	sub	r1,-8
8000678c:	cc ab       	rjmp	80006720 <_malloc_r+0x21c>
8000678e:	1c 98       	mov	r8,lr
80006790:	f3 d3 c0 02 	bfextu	r9,r3,0x0,0x2
80006794:	c0 81       	brne	800067a4 <_malloc_r+0x2a0>
80006796:	68 19       	ld.w	r9,r4[0x4]
80006798:	f6 08 11 ff 	rsub	r8,r11,-1
8000679c:	f3 e8 00 08 	and	r8,r9,r8
800067a0:	89 18       	st.w	r4[0x4],r8
800067a2:	c0 78       	rjmp	800067b0 <_malloc_r+0x2ac>
800067a4:	f0 c9 00 08 	sub	r9,r8,8
800067a8:	20 13       	sub	r3,1
800067aa:	70 08       	ld.w	r8,r8[0x0]
800067ac:	12 38       	cp.w	r8,r9
800067ae:	cf 10       	breq	80006790 <_malloc_r+0x28c>
800067b0:	a1 7b       	lsl	r11,0x1
800067b2:	68 18       	ld.w	r8,r4[0x4]
800067b4:	10 3b       	cp.w	r11,r8
800067b6:	e0 8b 00 0d 	brhi	800067d0 <_malloc_r+0x2cc>
800067ba:	58 0b       	cp.w	r11,0
800067bc:	c0 a0       	breq	800067d0 <_malloc_r+0x2cc>
800067be:	04 93       	mov	r3,r2
800067c0:	c0 38       	rjmp	800067c6 <_malloc_r+0x2c2>
800067c2:	2f c3       	sub	r3,-4
800067c4:	a1 7b       	lsl	r11,0x1
800067c6:	f7 e8 00 09 	and	r9,r11,r8
800067ca:	ca 71       	brne	80006718 <_malloc_r+0x214>
800067cc:	cf bb       	rjmp	800067c2 <_malloc_r+0x2be>
800067ce:	d7 03       	nop
800067d0:	68 23       	ld.w	r3,r4[0x8]
800067d2:	66 12       	ld.w	r2,r3[0x4]
800067d4:	e0 12 ff fc 	andl	r2,0xfffc
800067d8:	0e 32       	cp.w	r2,r7
800067da:	5f 39       	srlo	r9
800067dc:	e4 07 01 08 	sub	r8,r2,r7
800067e0:	58 f8       	cp.w	r8,15
800067e2:	5f aa       	srle	r10
800067e4:	f5 e9 10 09 	or	r9,r10,r9
800067e8:	e0 80 00 9a 	breq	8000691c <_malloc_r+0x418>
800067ec:	e0 68 07 a4 	mov	r8,1956
800067f0:	70 01       	ld.w	r1,r8[0x0]
800067f2:	e0 68 05 28 	mov	r8,1320
800067f6:	2f 01       	sub	r1,-16
800067f8:	70 08       	ld.w	r8,r8[0x0]
800067fa:	0e 01       	add	r1,r7
800067fc:	5b f8       	cp.w	r8,-1
800067fe:	c0 40       	breq	80006806 <_malloc_r+0x302>
80006800:	28 11       	sub	r1,-127
80006802:	e0 11 ff 80 	andl	r1,0xff80
80006806:	02 9b       	mov	r11,r1
80006808:	0a 9c       	mov	r12,r5
8000680a:	e0 a0 02 a5 	rcall	80006d54 <_sbrk_r>
8000680e:	18 96       	mov	r6,r12
80006810:	5b fc       	cp.w	r12,-1
80006812:	c7 50       	breq	800068fc <_malloc_r+0x3f8>
80006814:	e6 02 00 08 	add	r8,r3,r2
80006818:	10 3c       	cp.w	r12,r8
8000681a:	c0 32       	brcc	80006820 <_malloc_r+0x31c>
8000681c:	08 33       	cp.w	r3,r4
8000681e:	c6 f1       	brne	800068fc <_malloc_r+0x3f8>
80006820:	e0 6a 07 a8 	mov	r10,1960
80006824:	74 09       	ld.w	r9,r10[0x0]
80006826:	e2 09 00 09 	add	r9,r1,r9
8000682a:	95 09       	st.w	r10[0x0],r9
8000682c:	10 36       	cp.w	r6,r8
8000682e:	c0 a1       	brne	80006842 <_malloc_r+0x33e>
80006830:	f5 d6 c0 07 	bfextu	r10,r6,0x0,0x7
80006834:	c0 71       	brne	80006842 <_malloc_r+0x33e>
80006836:	e2 02 00 02 	add	r2,r1,r2
8000683a:	68 28       	ld.w	r8,r4[0x8]
8000683c:	a1 a2       	sbr	r2,0x0
8000683e:	91 12       	st.w	r8[0x4],r2
80006840:	c4 f8       	rjmp	800068de <_malloc_r+0x3da>
80006842:	e0 6a 05 28 	mov	r10,1320
80006846:	74 0b       	ld.w	r11,r10[0x0]
80006848:	5b fb       	cp.w	r11,-1
8000684a:	c0 31       	brne	80006850 <_malloc_r+0x34c>
8000684c:	95 06       	st.w	r10[0x0],r6
8000684e:	c0 78       	rjmp	8000685c <_malloc_r+0x358>
80006850:	ec 09 00 09 	add	r9,r6,r9
80006854:	e0 6a 07 a8 	mov	r10,1960
80006858:	10 19       	sub	r9,r8
8000685a:	95 09       	st.w	r10[0x0],r9
8000685c:	f1 d6 c0 03 	bfextu	r8,r6,0x0,0x3
80006860:	f0 09 11 08 	rsub	r9,r8,8
80006864:	58 08       	cp.w	r8,0
80006866:	f2 08 17 10 	movne	r8,r9
8000686a:	ed d8 e1 06 	addne	r6,r6,r8
8000686e:	28 08       	sub	r8,-128
80006870:	ec 01 00 01 	add	r1,r6,r1
80006874:	0a 9c       	mov	r12,r5
80006876:	e3 d1 c0 07 	bfextu	r1,r1,0x0,0x7
8000687a:	f0 01 01 01 	sub	r1,r8,r1
8000687e:	02 9b       	mov	r11,r1
80006880:	e0 a0 02 6a 	rcall	80006d54 <_sbrk_r>
80006884:	e0 68 07 a8 	mov	r8,1960
80006888:	5b fc       	cp.w	r12,-1
8000688a:	ec 0c 17 00 	moveq	r12,r6
8000688e:	f9 b1 00 00 	moveq	r1,0
80006892:	70 09       	ld.w	r9,r8[0x0]
80006894:	0c 1c       	sub	r12,r6
80006896:	89 26       	st.w	r4[0x8],r6
80006898:	02 0c       	add	r12,r1
8000689a:	12 01       	add	r1,r9
8000689c:	a1 ac       	sbr	r12,0x0
8000689e:	91 01       	st.w	r8[0x0],r1
800068a0:	8d 1c       	st.w	r6[0x4],r12
800068a2:	08 33       	cp.w	r3,r4
800068a4:	c1 d0       	breq	800068de <_malloc_r+0x3da>
800068a6:	58 f2       	cp.w	r2,15
800068a8:	e0 8b 00 05 	brhi	800068b2 <_malloc_r+0x3ae>
800068ac:	30 18       	mov	r8,1
800068ae:	8d 18       	st.w	r6[0x4],r8
800068b0:	c2 68       	rjmp	800068fc <_malloc_r+0x3f8>
800068b2:	30 59       	mov	r9,5
800068b4:	20 c2       	sub	r2,12
800068b6:	e0 12 ff f8 	andl	r2,0xfff8
800068ba:	e6 02 00 08 	add	r8,r3,r2
800068be:	91 29       	st.w	r8[0x8],r9
800068c0:	91 19       	st.w	r8[0x4],r9
800068c2:	66 18       	ld.w	r8,r3[0x4]
800068c4:	f1 d8 c0 01 	bfextu	r8,r8,0x0,0x1
800068c8:	e5 e8 10 08 	or	r8,r2,r8
800068cc:	87 18       	st.w	r3[0x4],r8
800068ce:	58 f2       	cp.w	r2,15
800068d0:	e0 88 00 07 	brls	800068de <_malloc_r+0x3da>
800068d4:	e6 cb ff f8 	sub	r11,r3,-8
800068d8:	0a 9c       	mov	r12,r5
800068da:	e0 a0 04 9d 	rcall	80007214 <_free_r>
800068de:	e0 69 07 a0 	mov	r9,1952
800068e2:	72 0a       	ld.w	r10,r9[0x0]
800068e4:	e0 68 07 a8 	mov	r8,1960
800068e8:	70 08       	ld.w	r8,r8[0x0]
800068ea:	14 38       	cp.w	r8,r10
800068ec:	f3 f8 ba 00 	st.whi	r9[0x0],r8
800068f0:	e0 69 07 9c 	mov	r9,1948
800068f4:	72 0a       	ld.w	r10,r9[0x0]
800068f6:	14 38       	cp.w	r8,r10
800068f8:	f3 f8 ba 00 	st.whi	r9[0x0],r8
800068fc:	68 28       	ld.w	r8,r4[0x8]
800068fe:	70 18       	ld.w	r8,r8[0x4]
80006900:	e0 18 ff fc 	andl	r8,0xfffc
80006904:	0e 38       	cp.w	r8,r7
80006906:	5f 39       	srlo	r9
80006908:	0e 18       	sub	r8,r7
8000690a:	58 f8       	cp.w	r8,15
8000690c:	5f aa       	srle	r10
8000690e:	f5 e9 10 09 	or	r9,r10,r9
80006912:	c0 50       	breq	8000691c <_malloc_r+0x418>
80006914:	0a 9c       	mov	r12,r5
80006916:	fe b0 f0 ef 	rcall	80004af4 <__malloc_unlock>
8000691a:	d8 3a       	popm	r0-r7,pc,r12=0
8000691c:	68 26       	ld.w	r6,r4[0x8]
8000691e:	a1 a8       	sbr	r8,0x0
80006920:	0e 99       	mov	r9,r7
80006922:	a1 a9       	sbr	r9,0x0
80006924:	8d 19       	st.w	r6[0x4],r9
80006926:	ec 07 00 07 	add	r7,r6,r7
8000692a:	0a 9c       	mov	r12,r5
8000692c:	89 27       	st.w	r4[0x8],r7
8000692e:	8f 18       	st.w	r7[0x4],r8
80006930:	fe b0 f0 e2 	rcall	80004af4 <__malloc_unlock>
80006934:	ec cc ff f8 	sub	r12,r6,-8
80006938:	d8 32       	popm	r0-r7,pc
8000693a:	d7 03       	nop

8000693c <memcpy>:
8000693c:	58 8a       	cp.w	r10,8
8000693e:	c2 f5       	brlt	8000699c <memcpy+0x60>
80006940:	f9 eb 10 09 	or	r9,r12,r11
80006944:	e2 19 00 03 	andl	r9,0x3,COH
80006948:	e0 81 00 97 	brne	80006a76 <memcpy+0x13a>
8000694c:	e0 4a 00 20 	cp.w	r10,32
80006950:	c3 b4       	brge	800069c6 <memcpy+0x8a>
80006952:	f4 08 14 02 	asr	r8,r10,0x2
80006956:	f0 09 11 08 	rsub	r9,r8,8
8000695a:	fe 09 00 2f 	add	pc,pc,r9<<0x2
8000695e:	76 69       	ld.w	r9,r11[0x18]
80006960:	99 69       	st.w	r12[0x18],r9
80006962:	76 59       	ld.w	r9,r11[0x14]
80006964:	99 59       	st.w	r12[0x14],r9
80006966:	76 49       	ld.w	r9,r11[0x10]
80006968:	99 49       	st.w	r12[0x10],r9
8000696a:	76 39       	ld.w	r9,r11[0xc]
8000696c:	99 39       	st.w	r12[0xc],r9
8000696e:	76 29       	ld.w	r9,r11[0x8]
80006970:	99 29       	st.w	r12[0x8],r9
80006972:	76 19       	ld.w	r9,r11[0x4]
80006974:	99 19       	st.w	r12[0x4],r9
80006976:	76 09       	ld.w	r9,r11[0x0]
80006978:	99 09       	st.w	r12[0x0],r9
8000697a:	f6 08 00 2b 	add	r11,r11,r8<<0x2
8000697e:	f8 08 00 28 	add	r8,r12,r8<<0x2
80006982:	e0 1a 00 03 	andl	r10,0x3
80006986:	f4 0a 11 04 	rsub	r10,r10,4
8000698a:	fe 0a 00 2f 	add	pc,pc,r10<<0x2
8000698e:	17 a9       	ld.ub	r9,r11[0x2]
80006990:	b0 a9       	st.b	r8[0x2],r9
80006992:	17 99       	ld.ub	r9,r11[0x1]
80006994:	b0 99       	st.b	r8[0x1],r9
80006996:	17 89       	ld.ub	r9,r11[0x0]
80006998:	b0 89       	st.b	r8[0x0],r9
8000699a:	5e fc       	retal	r12
8000699c:	f4 0a 11 09 	rsub	r10,r10,9
800069a0:	fe 0a 00 2f 	add	pc,pc,r10<<0x2
800069a4:	17 f9       	ld.ub	r9,r11[0x7]
800069a6:	b8 f9       	st.b	r12[0x7],r9
800069a8:	17 e9       	ld.ub	r9,r11[0x6]
800069aa:	b8 e9       	st.b	r12[0x6],r9
800069ac:	17 d9       	ld.ub	r9,r11[0x5]
800069ae:	b8 d9       	st.b	r12[0x5],r9
800069b0:	17 c9       	ld.ub	r9,r11[0x4]
800069b2:	b8 c9       	st.b	r12[0x4],r9
800069b4:	17 b9       	ld.ub	r9,r11[0x3]
800069b6:	b8 b9       	st.b	r12[0x3],r9
800069b8:	17 a9       	ld.ub	r9,r11[0x2]
800069ba:	b8 a9       	st.b	r12[0x2],r9
800069bc:	17 99       	ld.ub	r9,r11[0x1]
800069be:	b8 99       	st.b	r12[0x1],r9
800069c0:	17 89       	ld.ub	r9,r11[0x0]
800069c2:	b8 89       	st.b	r12[0x0],r9
800069c4:	5e fc       	retal	r12
800069c6:	eb cd 40 c0 	pushm	r6-r7,lr
800069ca:	18 99       	mov	r9,r12
800069cc:	22 0a       	sub	r10,32
800069ce:	b7 07       	ld.d	r6,r11++
800069d0:	b3 26       	st.d	r9++,r6
800069d2:	b7 07       	ld.d	r6,r11++
800069d4:	b3 26       	st.d	r9++,r6
800069d6:	b7 07       	ld.d	r6,r11++
800069d8:	b3 26       	st.d	r9++,r6
800069da:	b7 07       	ld.d	r6,r11++
800069dc:	b3 26       	st.d	r9++,r6
800069de:	22 0a       	sub	r10,32
800069e0:	cf 74       	brge	800069ce <memcpy+0x92>
800069e2:	2f 0a       	sub	r10,-16
800069e4:	c0 65       	brlt	800069f0 <memcpy+0xb4>
800069e6:	b7 07       	ld.d	r6,r11++
800069e8:	b3 26       	st.d	r9++,r6
800069ea:	b7 07       	ld.d	r6,r11++
800069ec:	b3 26       	st.d	r9++,r6
800069ee:	21 0a       	sub	r10,16
800069f0:	5c 3a       	neg	r10
800069f2:	fe 0a 00 3f 	add	pc,pc,r10<<0x3
800069f6:	d7 03       	nop
800069f8:	d7 03       	nop
800069fa:	f7 36 00 0e 	ld.ub	r6,r11[14]
800069fe:	f3 66 00 0e 	st.b	r9[14],r6
80006a02:	f7 36 00 0d 	ld.ub	r6,r11[13]
80006a06:	f3 66 00 0d 	st.b	r9[13],r6
80006a0a:	f7 36 00 0c 	ld.ub	r6,r11[12]
80006a0e:	f3 66 00 0c 	st.b	r9[12],r6
80006a12:	f7 36 00 0b 	ld.ub	r6,r11[11]
80006a16:	f3 66 00 0b 	st.b	r9[11],r6
80006a1a:	f7 36 00 0a 	ld.ub	r6,r11[10]
80006a1e:	f3 66 00 0a 	st.b	r9[10],r6
80006a22:	f7 36 00 09 	ld.ub	r6,r11[9]
80006a26:	f3 66 00 09 	st.b	r9[9],r6
80006a2a:	f7 36 00 08 	ld.ub	r6,r11[8]
80006a2e:	f3 66 00 08 	st.b	r9[8],r6
80006a32:	f7 36 00 07 	ld.ub	r6,r11[7]
80006a36:	f3 66 00 07 	st.b	r9[7],r6
80006a3a:	f7 36 00 06 	ld.ub	r6,r11[6]
80006a3e:	f3 66 00 06 	st.b	r9[6],r6
80006a42:	f7 36 00 05 	ld.ub	r6,r11[5]
80006a46:	f3 66 00 05 	st.b	r9[5],r6
80006a4a:	f7 36 00 04 	ld.ub	r6,r11[4]
80006a4e:	f3 66 00 04 	st.b	r9[4],r6
80006a52:	f7 36 00 03 	ld.ub	r6,r11[3]
80006a56:	f3 66 00 03 	st.b	r9[3],r6
80006a5a:	f7 36 00 02 	ld.ub	r6,r11[2]
80006a5e:	f3 66 00 02 	st.b	r9[2],r6
80006a62:	f7 36 00 01 	ld.ub	r6,r11[1]
80006a66:	f3 66 00 01 	st.b	r9[1],r6
80006a6a:	f7 36 00 00 	ld.ub	r6,r11[0]
80006a6e:	f3 66 00 00 	st.b	r9[0],r6
80006a72:	e3 cd 80 c0 	ldm	sp++,r6-r7,pc
80006a76:	20 1a       	sub	r10,1
80006a78:	f6 0a 07 09 	ld.ub	r9,r11[r10]
80006a7c:	f8 0a 0b 09 	st.b	r12[r10],r9
80006a80:	cf b1       	brne	80006a76 <memcpy+0x13a>
80006a82:	5e fc       	retal	r12

80006a84 <memset>:
80006a84:	18 98       	mov	r8,r12
80006a86:	c0 38       	rjmp	80006a8c <memset+0x8>
80006a88:	10 cb       	st.b	r8++,r11
80006a8a:	20 1a       	sub	r10,1
80006a8c:	58 0a       	cp.w	r10,0
80006a8e:	cf d1       	brne	80006a88 <memset+0x4>
80006a90:	5e fc       	retal	r12
80006a92:	d7 03       	nop

80006a94 <_realloc_r>:
80006a94:	d4 31       	pushm	r0-r7,lr
80006a96:	20 1d       	sub	sp,4
80006a98:	16 94       	mov	r4,r11
80006a9a:	18 92       	mov	r2,r12
80006a9c:	14 9b       	mov	r11,r10
80006a9e:	58 04       	cp.w	r4,0
80006aa0:	c0 51       	brne	80006aaa <_realloc_r+0x16>
80006aa2:	fe b0 fd 31 	rcall	80006504 <_malloc_r>
80006aa6:	18 95       	mov	r5,r12
80006aa8:	c5 39       	rjmp	80006d4e <_realloc_r+0x2ba>
80006aaa:	50 0a       	stdsp	sp[0x0],r10
80006aac:	fe b0 f0 16 	rcall	80004ad8 <__malloc_lock>
80006ab0:	40 0b       	lddsp	r11,sp[0x0]
80006ab2:	f6 c8 ff f5 	sub	r8,r11,-11
80006ab6:	e8 c1 00 08 	sub	r1,r4,8
80006aba:	10 96       	mov	r6,r8
80006abc:	62 1c       	ld.w	r12,r1[0x4]
80006abe:	e0 16 ff f8 	andl	r6,0xfff8
80006ac2:	59 68       	cp.w	r8,22
80006ac4:	f9 b6 08 10 	movls	r6,16
80006ac8:	16 36       	cp.w	r6,r11
80006aca:	5f 38       	srlo	r8
80006acc:	f1 e6 13 f8 	or	r8,r8,r6>>0x1f
80006ad0:	c0 50       	breq	80006ada <_realloc_r+0x46>
80006ad2:	30 c8       	mov	r8,12
80006ad4:	30 05       	mov	r5,0
80006ad6:	85 38       	st.w	r2[0xc],r8
80006ad8:	c3 b9       	rjmp	80006d4e <_realloc_r+0x2ba>
80006ada:	18 90       	mov	r0,r12
80006adc:	e0 10 ff fc 	andl	r0,0xfffc
80006ae0:	0c 30       	cp.w	r0,r6
80006ae2:	e0 84 01 0b 	brge	80006cf8 <_realloc_r+0x264>
80006ae6:	e0 68 01 1c 	mov	r8,284
80006aea:	e2 00 00 09 	add	r9,r1,r0
80006aee:	70 25       	ld.w	r5,r8[0x8]
80006af0:	0a 39       	cp.w	r9,r5
80006af2:	c0 90       	breq	80006b04 <_realloc_r+0x70>
80006af4:	72 1a       	ld.w	r10,r9[0x4]
80006af6:	a1 ca       	cbr	r10,0x0
80006af8:	f2 0a 00 0a 	add	r10,r9,r10
80006afc:	74 1a       	ld.w	r10,r10[0x4]
80006afe:	ed ba 00 00 	bld	r10,0x0
80006b02:	c2 20       	breq	80006b46 <_realloc_r+0xb2>
80006b04:	72 1a       	ld.w	r10,r9[0x4]
80006b06:	e0 1a ff fc 	andl	r10,0xfffc
80006b0a:	f4 00 00 03 	add	r3,r10,r0
80006b0e:	0a 39       	cp.w	r9,r5
80006b10:	c1 31       	brne	80006b36 <_realloc_r+0xa2>
80006b12:	ec c7 ff f0 	sub	r7,r6,-16
80006b16:	0e 33       	cp.w	r3,r7
80006b18:	c1 95       	brlt	80006b4a <_realloc_r+0xb6>
80006b1a:	e2 06 00 09 	add	r9,r1,r6
80006b1e:	0c 13       	sub	r3,r6
80006b20:	a1 a3       	sbr	r3,0x0
80006b22:	93 13       	st.w	r9[0x4],r3
80006b24:	91 29       	st.w	r8[0x8],r9
80006b26:	04 9c       	mov	r12,r2
80006b28:	62 18       	ld.w	r8,r1[0x4]
80006b2a:	08 95       	mov	r5,r4
80006b2c:	f1 d8 c0 01 	bfextu	r8,r8,0x0,0x1
80006b30:	10 46       	or	r6,r8
80006b32:	83 16       	st.w	r1[0x4],r6
80006b34:	c0 b9       	rjmp	80006d4a <_realloc_r+0x2b6>
80006b36:	0c 33       	cp.w	r3,r6
80006b38:	c0 95       	brlt	80006b4a <_realloc_r+0xb6>
80006b3a:	72 28       	ld.w	r8,r9[0x8]
80006b3c:	02 97       	mov	r7,r1
80006b3e:	72 39       	ld.w	r9,r9[0xc]
80006b40:	93 28       	st.w	r9[0x8],r8
80006b42:	91 39       	st.w	r8[0xc],r9
80006b44:	cd c8       	rjmp	80006cfc <_realloc_r+0x268>
80006b46:	30 0a       	mov	r10,0
80006b48:	14 99       	mov	r9,r10
80006b4a:	ed bc 00 00 	bld	r12,0x0
80006b4e:	e0 80 00 95 	breq	80006c78 <_realloc_r+0x1e4>
80006b52:	62 07       	ld.w	r7,r1[0x0]
80006b54:	e2 07 01 07 	sub	r7,r1,r7
80006b58:	6e 1c       	ld.w	r12,r7[0x4]
80006b5a:	e0 1c ff fc 	andl	r12,0xfffc
80006b5e:	58 09       	cp.w	r9,0
80006b60:	c5 60       	breq	80006c0c <_realloc_r+0x178>
80006b62:	f8 00 00 03 	add	r3,r12,r0
80006b66:	0a 39       	cp.w	r9,r5
80006b68:	c4 81       	brne	80006bf8 <_realloc_r+0x164>
80006b6a:	14 03       	add	r3,r10
80006b6c:	ec c9 ff f0 	sub	r9,r6,-16
80006b70:	12 33       	cp.w	r3,r9
80006b72:	c4 d5       	brlt	80006c0c <_realloc_r+0x178>
80006b74:	6e 3a       	ld.w	r10,r7[0xc]
80006b76:	6e 29       	ld.w	r9,r7[0x8]
80006b78:	95 29       	st.w	r10[0x8],r9
80006b7a:	93 3a       	st.w	r9[0xc],r10
80006b7c:	ee c5 ff f8 	sub	r5,r7,-8
80006b80:	e0 ca 00 04 	sub	r10,r0,4
80006b84:	e0 4a 00 24 	cp.w	r10,36
80006b88:	e0 8b 00 25 	brhi	80006bd2 <_realloc_r+0x13e>
80006b8c:	0a 99       	mov	r9,r5
80006b8e:	59 3a       	cp.w	r10,19
80006b90:	e0 88 00 1a 	brls	80006bc4 <_realloc_r+0x130>
80006b94:	09 09       	ld.w	r9,r4++
80006b96:	8b 09       	st.w	r5[0x0],r9
80006b98:	09 09       	ld.w	r9,r4++
80006b9a:	8f 39       	st.w	r7[0xc],r9
80006b9c:	ee c9 ff f0 	sub	r9,r7,-16
80006ba0:	59 ba       	cp.w	r10,27
80006ba2:	e0 88 00 11 	brls	80006bc4 <_realloc_r+0x130>
80006ba6:	09 0b       	ld.w	r11,r4++
80006ba8:	93 0b       	st.w	r9[0x0],r11
80006baa:	09 09       	ld.w	r9,r4++
80006bac:	8f 59       	st.w	r7[0x14],r9
80006bae:	ee c9 ff e8 	sub	r9,r7,-24
80006bb2:	e0 4a 00 24 	cp.w	r10,36
80006bb6:	c0 71       	brne	80006bc4 <_realloc_r+0x130>
80006bb8:	09 0a       	ld.w	r10,r4++
80006bba:	93 0a       	st.w	r9[0x0],r10
80006bbc:	ee c9 ff e0 	sub	r9,r7,-32
80006bc0:	09 0a       	ld.w	r10,r4++
80006bc2:	8f 7a       	st.w	r7[0x1c],r10
80006bc4:	09 0a       	ld.w	r10,r4++
80006bc6:	12 aa       	st.w	r9++,r10
80006bc8:	68 0a       	ld.w	r10,r4[0x0]
80006bca:	93 0a       	st.w	r9[0x0],r10
80006bcc:	68 1a       	ld.w	r10,r4[0x4]
80006bce:	93 1a       	st.w	r9[0x4],r10
80006bd0:	c0 78       	rjmp	80006bde <_realloc_r+0x14a>
80006bd2:	50 08       	stdsp	sp[0x0],r8
80006bd4:	08 9b       	mov	r11,r4
80006bd6:	0a 9c       	mov	r12,r5
80006bd8:	e0 a0 04 08 	rcall	800073e8 <memmove>
80006bdc:	40 08       	lddsp	r8,sp[0x0]
80006bde:	ee 06 00 09 	add	r9,r7,r6
80006be2:	0c 13       	sub	r3,r6
80006be4:	a1 a3       	sbr	r3,0x0
80006be6:	93 13       	st.w	r9[0x4],r3
80006be8:	91 29       	st.w	r8[0x8],r9
80006bea:	04 9c       	mov	r12,r2
80006bec:	6e 18       	ld.w	r8,r7[0x4]
80006bee:	f1 d8 c0 01 	bfextu	r8,r8,0x0,0x1
80006bf2:	10 46       	or	r6,r8
80006bf4:	8f 16       	st.w	r7[0x4],r6
80006bf6:	ca a8       	rjmp	80006d4a <_realloc_r+0x2b6>
80006bf8:	14 03       	add	r3,r10
80006bfa:	0c 33       	cp.w	r3,r6
80006bfc:	c0 85       	brlt	80006c0c <_realloc_r+0x178>
80006bfe:	72 28       	ld.w	r8,r9[0x8]
80006c00:	72 39       	ld.w	r9,r9[0xc]
80006c02:	93 28       	st.w	r9[0x8],r8
80006c04:	91 39       	st.w	r8[0xc],r9
80006c06:	6e 28       	ld.w	r8,r7[0x8]
80006c08:	6e 39       	ld.w	r9,r7[0xc]
80006c0a:	c0 78       	rjmp	80006c18 <_realloc_r+0x184>
80006c0c:	f8 00 00 03 	add	r3,r12,r0
80006c10:	0c 33       	cp.w	r3,r6
80006c12:	c3 35       	brlt	80006c78 <_realloc_r+0x1e4>
80006c14:	6e 39       	ld.w	r9,r7[0xc]
80006c16:	6e 28       	ld.w	r8,r7[0x8]
80006c18:	93 28       	st.w	r9[0x8],r8
80006c1a:	91 39       	st.w	r8[0xc],r9
80006c1c:	e0 ca 00 04 	sub	r10,r0,4
80006c20:	ee cc ff f8 	sub	r12,r7,-8
80006c24:	e0 4a 00 24 	cp.w	r10,36
80006c28:	e0 8b 00 24 	brhi	80006c70 <_realloc_r+0x1dc>
80006c2c:	59 3a       	cp.w	r10,19
80006c2e:	e0 88 00 1a 	brls	80006c62 <_realloc_r+0x1ce>
80006c32:	09 08       	ld.w	r8,r4++
80006c34:	99 08       	st.w	r12[0x0],r8
80006c36:	09 08       	ld.w	r8,r4++
80006c38:	8f 38       	st.w	r7[0xc],r8
80006c3a:	ee cc ff f0 	sub	r12,r7,-16
80006c3e:	59 ba       	cp.w	r10,27
80006c40:	e0 88 00 11 	brls	80006c62 <_realloc_r+0x1ce>
80006c44:	09 08       	ld.w	r8,r4++
80006c46:	99 08       	st.w	r12[0x0],r8
80006c48:	09 08       	ld.w	r8,r4++
80006c4a:	8f 58       	st.w	r7[0x14],r8
80006c4c:	ee cc ff e8 	sub	r12,r7,-24
80006c50:	e0 4a 00 24 	cp.w	r10,36
80006c54:	c0 71       	brne	80006c62 <_realloc_r+0x1ce>
80006c56:	09 08       	ld.w	r8,r4++
80006c58:	99 08       	st.w	r12[0x0],r8
80006c5a:	ee cc ff e0 	sub	r12,r7,-32
80006c5e:	09 08       	ld.w	r8,r4++
80006c60:	8f 78       	st.w	r7[0x1c],r8
80006c62:	09 08       	ld.w	r8,r4++
80006c64:	18 a8       	st.w	r12++,r8
80006c66:	68 08       	ld.w	r8,r4[0x0]
80006c68:	99 08       	st.w	r12[0x0],r8
80006c6a:	68 18       	ld.w	r8,r4[0x4]
80006c6c:	99 18       	st.w	r12[0x4],r8
80006c6e:	c4 78       	rjmp	80006cfc <_realloc_r+0x268>
80006c70:	08 9b       	mov	r11,r4
80006c72:	e0 a0 03 bb 	rcall	800073e8 <memmove>
80006c76:	c4 38       	rjmp	80006cfc <_realloc_r+0x268>
80006c78:	04 9c       	mov	r12,r2
80006c7a:	fe b0 fc 45 	rcall	80006504 <_malloc_r>
80006c7e:	18 95       	mov	r5,r12
80006c80:	c3 a0       	breq	80006cf4 <_realloc_r+0x260>
80006c82:	62 18       	ld.w	r8,r1[0x4]
80006c84:	f8 c9 00 08 	sub	r9,r12,8
80006c88:	a1 c8       	cbr	r8,0x0
80006c8a:	e2 08 00 08 	add	r8,r1,r8
80006c8e:	10 39       	cp.w	r9,r8
80006c90:	c0 71       	brne	80006c9e <_realloc_r+0x20a>
80006c92:	72 13       	ld.w	r3,r9[0x4]
80006c94:	02 97       	mov	r7,r1
80006c96:	e0 13 ff fc 	andl	r3,0xfffc
80006c9a:	00 03       	add	r3,r0
80006c9c:	c3 08       	rjmp	80006cfc <_realloc_r+0x268>
80006c9e:	e0 ca 00 04 	sub	r10,r0,4
80006ca2:	e0 4a 00 24 	cp.w	r10,36
80006ca6:	e0 8b 00 20 	brhi	80006ce6 <_realloc_r+0x252>
80006caa:	08 99       	mov	r9,r4
80006cac:	18 98       	mov	r8,r12
80006cae:	59 3a       	cp.w	r10,19
80006cb0:	e0 88 00 14 	brls	80006cd8 <_realloc_r+0x244>
80006cb4:	13 0b       	ld.w	r11,r9++
80006cb6:	10 ab       	st.w	r8++,r11
80006cb8:	13 0b       	ld.w	r11,r9++
80006cba:	10 ab       	st.w	r8++,r11
80006cbc:	59 ba       	cp.w	r10,27
80006cbe:	e0 88 00 0d 	brls	80006cd8 <_realloc_r+0x244>
80006cc2:	13 0b       	ld.w	r11,r9++
80006cc4:	10 ab       	st.w	r8++,r11
80006cc6:	13 0b       	ld.w	r11,r9++
80006cc8:	10 ab       	st.w	r8++,r11
80006cca:	e0 4a 00 24 	cp.w	r10,36
80006cce:	c0 51       	brne	80006cd8 <_realloc_r+0x244>
80006cd0:	13 0a       	ld.w	r10,r9++
80006cd2:	10 aa       	st.w	r8++,r10
80006cd4:	13 0a       	ld.w	r10,r9++
80006cd6:	10 aa       	st.w	r8++,r10
80006cd8:	13 0a       	ld.w	r10,r9++
80006cda:	10 aa       	st.w	r8++,r10
80006cdc:	72 0a       	ld.w	r10,r9[0x0]
80006cde:	91 0a       	st.w	r8[0x0],r10
80006ce0:	72 19       	ld.w	r9,r9[0x4]
80006ce2:	91 19       	st.w	r8[0x4],r9
80006ce4:	c0 48       	rjmp	80006cec <_realloc_r+0x258>
80006ce6:	08 9b       	mov	r11,r4
80006ce8:	e0 a0 03 80 	rcall	800073e8 <memmove>
80006cec:	08 9b       	mov	r11,r4
80006cee:	04 9c       	mov	r12,r2
80006cf0:	e0 a0 02 92 	rcall	80007214 <_free_r>
80006cf4:	04 9c       	mov	r12,r2
80006cf6:	c2 a8       	rjmp	80006d4a <_realloc_r+0x2b6>
80006cf8:	00 93       	mov	r3,r0
80006cfa:	02 97       	mov	r7,r1
80006cfc:	e6 06 01 09 	sub	r9,r3,r6
80006d00:	6e 18       	ld.w	r8,r7[0x4]
80006d02:	58 f9       	cp.w	r9,15
80006d04:	e0 88 00 16 	brls	80006d30 <_realloc_r+0x29c>
80006d08:	f1 d8 c0 01 	bfextu	r8,r8,0x0,0x1
80006d0c:	ed e8 10 08 	or	r8,r6,r8
80006d10:	8f 18       	st.w	r7[0x4],r8
80006d12:	12 98       	mov	r8,r9
80006d14:	a1 a8       	sbr	r8,0x0
80006d16:	ee 06 00 0b 	add	r11,r7,r6
80006d1a:	f6 09 00 09 	add	r9,r11,r9
80006d1e:	97 18       	st.w	r11[0x4],r8
80006d20:	72 18       	ld.w	r8,r9[0x4]
80006d22:	a1 a8       	sbr	r8,0x0
80006d24:	2f 8b       	sub	r11,-8
80006d26:	93 18       	st.w	r9[0x4],r8
80006d28:	04 9c       	mov	r12,r2
80006d2a:	e0 a0 02 75 	rcall	80007214 <_free_r>
80006d2e:	c0 b8       	rjmp	80006d44 <_realloc_r+0x2b0>
80006d30:	f1 d8 c0 01 	bfextu	r8,r8,0x0,0x1
80006d34:	e7 e8 10 08 	or	r8,r3,r8
80006d38:	8f 18       	st.w	r7[0x4],r8
80006d3a:	ee 03 00 03 	add	r3,r7,r3
80006d3e:	66 18       	ld.w	r8,r3[0x4]
80006d40:	a1 a8       	sbr	r8,0x0
80006d42:	87 18       	st.w	r3[0x4],r8
80006d44:	04 9c       	mov	r12,r2
80006d46:	ee c5 ff f8 	sub	r5,r7,-8
80006d4a:	fe b0 ee d5 	rcall	80004af4 <__malloc_unlock>
80006d4e:	0a 9c       	mov	r12,r5
80006d50:	2f fd       	sub	sp,-4
80006d52:	d8 32       	popm	r0-r7,pc

80006d54 <_sbrk_r>:
80006d54:	d4 21       	pushm	r4-r7,lr
80006d56:	30 08       	mov	r8,0
80006d58:	18 97       	mov	r7,r12
80006d5a:	e0 66 08 24 	mov	r6,2084
80006d5e:	16 9c       	mov	r12,r11
80006d60:	8d 08       	st.w	r6[0x0],r8
80006d62:	c7 1c       	rcall	80006e44 <_sbrk>
80006d64:	5b fc       	cp.w	r12,-1
80006d66:	c0 51       	brne	80006d70 <_sbrk_r+0x1c>
80006d68:	6c 08       	ld.w	r8,r6[0x0]
80006d6a:	58 08       	cp.w	r8,0
80006d6c:	ef f8 1a 03 	st.wne	r7[0xc],r8
80006d70:	d8 22       	popm	r4-r7,pc
80006d72:	d7 03       	nop

80006d74 <strncpy>:
80006d74:	30 08       	mov	r8,0
80006d76:	10 3a       	cp.w	r10,r8
80006d78:	5e 0c       	reteq	r12
80006d7a:	f6 08 07 09 	ld.ub	r9,r11[r8]
80006d7e:	f8 08 0b 09 	st.b	r12[r8],r9
80006d82:	2f f8       	sub	r8,-1
80006d84:	58 09       	cp.w	r9,0
80006d86:	cf 81       	brne	80006d76 <strncpy+0x2>
80006d88:	10 3a       	cp.w	r10,r8
80006d8a:	5e 0c       	reteq	r12
80006d8c:	f8 08 0b 09 	st.b	r12[r8],r9
80006d90:	2f f8       	sub	r8,-1
80006d92:	cf bb       	rjmp	80006d88 <strncpy+0x14>

80006d94 <_init_argv>:
80006d94:	30 e8       	mov	r8,14
80006d96:	d6 73       	breakpoint
80006d98:	3f fc       	mov	r12,-1
80006d9a:	35 8b       	mov	r11,88
80006d9c:	5e fc       	retal	r12

80006d9e <_exit>:
80006d9e:	30 d8       	mov	r8,13
80006da0:	d6 73       	breakpoint
80006da2:	3f fc       	mov	r12,-1
80006da4:	35 8b       	mov	r11,88
80006da6:	c0 08       	rjmp	80006da6 <_exit+0x8>

80006da8 <_close>:
80006da8:	30 28       	mov	r8,2
80006daa:	d6 73       	breakpoint
80006dac:	3f fc       	mov	r12,-1
80006dae:	35 8b       	mov	r11,88
80006db0:	58 0c       	cp.w	r12,0
80006db2:	5e 4c       	retge	r12
80006db4:	e0 6a 08 24 	mov	r10,2084
80006db8:	95 0b       	st.w	r10[0x0],r11
80006dba:	5e fc       	retal	r12

80006dbc <_lseek>:
80006dbc:	30 58       	mov	r8,5
80006dbe:	d6 73       	breakpoint
80006dc0:	3f fc       	mov	r12,-1
80006dc2:	35 8b       	mov	r11,88
80006dc4:	58 0c       	cp.w	r12,0
80006dc6:	5e 4c       	retge	r12
80006dc8:	e0 6a 08 24 	mov	r10,2084
80006dcc:	95 0b       	st.w	r10[0x0],r11
80006dce:	5e fc       	retal	r12

80006dd0 <isatty>:
80006dd0:	30 b8       	mov	r8,11
80006dd2:	d6 73       	breakpoint
80006dd4:	3f fc       	mov	r12,-1
80006dd6:	35 8b       	mov	r11,88
80006dd8:	58 0c       	cp.w	r12,0
80006dda:	5e 4c       	retge	r12
80006ddc:	e0 6a 08 24 	mov	r10,2084
80006de0:	95 0b       	st.w	r10[0x0],r11
80006de2:	5e fc       	retal	r12

80006de4 <_fstat_host>:
80006de4:	30 98       	mov	r8,9
80006de6:	d6 73       	breakpoint
80006de8:	3f fc       	mov	r12,-1
80006dea:	35 8b       	mov	r11,88
80006dec:	58 0c       	cp.w	r12,0
80006dee:	5e 4c       	retge	r12
80006df0:	e0 6a 08 24 	mov	r10,2084
80006df4:	95 0b       	st.w	r10[0x0],r11
80006df6:	5e fc       	retal	r12

80006df8 <_fstat>:
80006df8:	d4 21       	pushm	r4-r7,lr
80006dfa:	21 0d       	sub	sp,64
80006dfc:	16 97       	mov	r7,r11
80006dfe:	1a 9b       	mov	r11,sp
80006e00:	cf 2f       	rcall	80006de4 <_fstat_host>
80006e02:	c0 34       	brge	80006e08 <_fstat+0x10>
80006e04:	3f fc       	mov	r12,-1
80006e06:	c1 c8       	rjmp	80006e3e <_fstat+0x46>
80006e08:	40 08       	lddsp	r8,sp[0x0]
80006e0a:	ae 08       	st.h	r7[0x0],r8
80006e0c:	40 18       	lddsp	r8,sp[0x4]
80006e0e:	ae 18       	st.h	r7[0x2],r8
80006e10:	40 28       	lddsp	r8,sp[0x8]
80006e12:	8f 18       	st.w	r7[0x4],r8
80006e14:	40 38       	lddsp	r8,sp[0xc]
80006e16:	ae 48       	st.h	r7[0x8],r8
80006e18:	40 48       	lddsp	r8,sp[0x10]
80006e1a:	ae 58       	st.h	r7[0xa],r8
80006e1c:	40 58       	lddsp	r8,sp[0x14]
80006e1e:	ae 68       	st.h	r7[0xc],r8
80006e20:	40 68       	lddsp	r8,sp[0x18]
80006e22:	ae 78       	st.h	r7[0xe],r8
80006e24:	40 88       	lddsp	r8,sp[0x20]
80006e26:	8f 48       	st.w	r7[0x10],r8
80006e28:	40 a8       	lddsp	r8,sp[0x28]
80006e2a:	8f b8       	st.w	r7[0x2c],r8
80006e2c:	40 c8       	lddsp	r8,sp[0x30]
80006e2e:	8f c8       	st.w	r7[0x30],r8
80006e30:	40 d8       	lddsp	r8,sp[0x34]
80006e32:	8f 58       	st.w	r7[0x14],r8
80006e34:	40 e8       	lddsp	r8,sp[0x38]
80006e36:	30 0c       	mov	r12,0
80006e38:	8f 78       	st.w	r7[0x1c],r8
80006e3a:	40 f8       	lddsp	r8,sp[0x3c]
80006e3c:	8f 98       	st.w	r7[0x24],r8
80006e3e:	2f 0d       	sub	sp,-64
80006e40:	d8 22       	popm	r4-r7,pc
80006e42:	d7 03       	nop

80006e44 <_sbrk>:
80006e44:	d4 01       	pushm	lr
80006e46:	e0 68 07 d0 	mov	r8,2000
80006e4a:	70 09       	ld.w	r9,r8[0x0]
80006e4c:	58 09       	cp.w	r9,0
80006e4e:	c0 41       	brne	80006e56 <_sbrk+0x12>
80006e50:	e0 69 08 28 	mov	r9,2088
80006e54:	91 09       	st.w	r8[0x0],r9
80006e56:	e0 69 07 d0 	mov	r9,2000
80006e5a:	e0 6a f0 00 	mov	r10,61440
80006e5e:	72 08       	ld.w	r8,r9[0x0]
80006e60:	f0 0c 00 0c 	add	r12,r8,r12
80006e64:	14 3c       	cp.w	r12,r10
80006e66:	e0 8b 00 04 	brhi	80006e6e <_sbrk+0x2a>
80006e6a:	93 0c       	st.w	r9[0x0],r12
80006e6c:	c0 58       	rjmp	80006e76 <_sbrk+0x32>
80006e6e:	ce 1c       	rcall	80007030 <__errno>
80006e70:	30 c8       	mov	r8,12
80006e72:	99 08       	st.w	r12[0x0],r8
80006e74:	3f f8       	mov	r8,-1
80006e76:	10 9c       	mov	r12,r8
80006e78:	d8 02       	popm	pc
80006e7a:	d7 03       	nop

80006e7c <_vsprintf_r>:
80006e7c:	d4 01       	pushm	lr
80006e7e:	21 7d       	sub	sp,92
80006e80:	e0 68 ff ff 	mov	r8,65535
80006e84:	ea 18 7f ff 	orh	r8,0x7fff
80006e88:	50 58       	stdsp	sp[0x14],r8
80006e8a:	50 28       	stdsp	sp[0x8],r8
80006e8c:	e0 68 02 08 	mov	r8,520
80006e90:	ba 68       	st.h	sp[0xc],r8
80006e92:	3f f8       	mov	r8,-1
80006e94:	50 4b       	stdsp	sp[0x10],r11
80006e96:	50 0b       	stdsp	sp[0x0],r11
80006e98:	ba 78       	st.h	sp[0xe],r8
80006e9a:	1a 9b       	mov	r11,sp
80006e9c:	e0 a0 04 9e 	rcall	800077d8 <_vfprintf_r>
80006ea0:	30 09       	mov	r9,0
80006ea2:	40 08       	lddsp	r8,sp[0x0]
80006ea4:	b0 89       	st.b	r8[0x0],r9
80006ea6:	2e 9d       	sub	sp,-92
80006ea8:	d8 02       	popm	pc
80006eaa:	d7 03       	nop

80006eac <vsprintf>:
80006eac:	d4 01       	pushm	lr
80006eae:	e0 68 01 18 	mov	r8,280
80006eb2:	14 99       	mov	r9,r10
80006eb4:	16 9a       	mov	r10,r11
80006eb6:	18 9b       	mov	r11,r12
80006eb8:	70 0c       	ld.w	r12,r8[0x0]
80006eba:	ce 1f       	rcall	80006e7c <_vsprintf_r>
80006ebc:	d8 02       	popm	pc
80006ebe:	d7 03       	nop

80006ec0 <__register_exitproc>:
80006ec0:	d4 31       	pushm	r0-r7,lr
80006ec2:	fe c8 ad 8e 	sub	r8,pc,-21106
80006ec6:	70 03       	ld.w	r3,r8[0x0]
80006ec8:	67 24       	ld.w	r4,r3[0x48]
80006eca:	e6 c8 ff b4 	sub	r8,r3,-76
80006ece:	58 04       	cp.w	r4,0
80006ed0:	f0 04 17 00 	moveq	r4,r8
80006ed4:	e7 f4 0a 12 	st.weq	r3[0x48],r4
80006ed8:	18 97       	mov	r7,r12
80006eda:	16 96       	mov	r6,r11
80006edc:	14 95       	mov	r5,r10
80006ede:	12 92       	mov	r2,r9
80006ee0:	68 18       	ld.w	r8,r4[0x4]
80006ee2:	59 f8       	cp.w	r8,31
80006ee4:	e0 8a 00 0e 	brle	80006f00 <__register_exitproc+0x40>
80006ee8:	e0 6c 00 8c 	mov	r12,140
80006eec:	fe b0 fb 04 	rcall	800064f4 <malloc>
80006ef0:	18 94       	mov	r4,r12
80006ef2:	c3 80       	breq	80006f62 <__register_exitproc+0xa2>
80006ef4:	67 28       	ld.w	r8,r3[0x48]
80006ef6:	99 08       	st.w	r12[0x0],r8
80006ef8:	e7 4c 00 48 	st.w	r3[72],r12
80006efc:	30 08       	mov	r8,0
80006efe:	99 18       	st.w	r12[0x4],r8
80006f00:	58 07       	cp.w	r7,0
80006f02:	c2 70       	breq	80006f50 <__register_exitproc+0x90>
80006f04:	e8 fc 00 88 	ld.w	r12,r4[136]
80006f08:	58 0c       	cp.w	r12,0
80006f0a:	c0 d1       	brne	80006f24 <__register_exitproc+0x64>
80006f0c:	e0 6c 01 08 	mov	r12,264
80006f10:	fe b0 fa f2 	rcall	800064f4 <malloc>
80006f14:	c2 70       	breq	80006f62 <__register_exitproc+0xa2>
80006f16:	30 08       	mov	r8,0
80006f18:	e9 4c 00 88 	st.w	r4[136],r12
80006f1c:	f9 48 01 04 	st.w	r12[260],r8
80006f20:	f9 48 01 00 	st.w	r12[256],r8
80006f24:	68 18       	ld.w	r8,r4[0x4]
80006f26:	f0 c9 ff e0 	sub	r9,r8,-32
80006f2a:	f8 08 09 25 	st.w	r12[r8<<0x2],r5
80006f2e:	f8 09 09 22 	st.w	r12[r9<<0x2],r2
80006f32:	30 1a       	mov	r10,1
80006f34:	f8 f9 01 00 	ld.w	r9,r12[256]
80006f38:	f4 08 09 48 	lsl	r8,r10,r8
80006f3c:	10 49       	or	r9,r8
80006f3e:	f9 49 01 00 	st.w	r12[256],r9
80006f42:	58 27       	cp.w	r7,2
80006f44:	f9 f9 00 41 	ld.weq	r9,r12[0x104]
80006f48:	f3 d8 e0 38 	oreq	r8,r9,r8
80006f4c:	f9 f8 0a 41 	st.weq	r12[0x104],r8
80006f50:	68 18       	ld.w	r8,r4[0x4]
80006f52:	30 0c       	mov	r12,0
80006f54:	f0 c9 ff ff 	sub	r9,r8,-1
80006f58:	2f e8       	sub	r8,-2
80006f5a:	89 19       	st.w	r4[0x4],r9
80006f5c:	e8 08 09 26 	st.w	r4[r8<<0x2],r6
80006f60:	d8 32       	popm	r0-r7,pc
80006f62:	dc 3a       	popm	r0-r7,pc,r12=-1

80006f64 <__call_exitprocs>:
80006f64:	d4 31       	pushm	r0-r7,lr
80006f66:	20 3d       	sub	sp,12
80006f68:	fe c8 ae 34 	sub	r8,pc,-20940
80006f6c:	50 2c       	stdsp	sp[0x8],r12
80006f6e:	70 08       	ld.w	r8,r8[0x0]
80006f70:	16 91       	mov	r1,r11
80006f72:	50 08       	stdsp	sp[0x0],r8
80006f74:	2b 88       	sub	r8,-72
80006f76:	50 18       	stdsp	sp[0x4],r8
80006f78:	40 0a       	lddsp	r10,sp[0x0]
80006f7a:	40 14       	lddsp	r4,sp[0x4]
80006f7c:	75 27       	ld.w	r7,r10[0x48]
80006f7e:	c5 58       	rjmp	80007028 <__call_exitprocs+0xc4>
80006f80:	6e 15       	ld.w	r5,r7[0x4]
80006f82:	ee f6 00 88 	ld.w	r6,r7[136]
80006f86:	ea c2 ff ff 	sub	r2,r5,-1
80006f8a:	20 15       	sub	r5,1
80006f8c:	ee 02 00 22 	add	r2,r7,r2<<0x2
80006f90:	ec 05 00 23 	add	r3,r6,r5<<0x2
80006f94:	c3 58       	rjmp	80006ffe <__call_exitprocs+0x9a>
80006f96:	58 01       	cp.w	r1,0
80006f98:	c0 70       	breq	80006fa6 <__call_exitprocs+0x42>
80006f9a:	58 06       	cp.w	r6,0
80006f9c:	c2 e0       	breq	80006ff8 <__call_exitprocs+0x94>
80006f9e:	e6 f8 00 80 	ld.w	r8,r3[128]
80006fa2:	02 38       	cp.w	r8,r1
80006fa4:	c2 a1       	brne	80006ff8 <__call_exitprocs+0x94>
80006fa6:	6e 19       	ld.w	r9,r7[0x4]
80006fa8:	64 08       	ld.w	r8,r2[0x0]
80006faa:	20 19       	sub	r9,1
80006fac:	12 35       	cp.w	r5,r9
80006fae:	ef f5 0a 01 	st.weq	r7[0x4],r5
80006fb2:	f9 b9 01 00 	movne	r9,0
80006fb6:	e5 f9 1a 00 	st.wne	r2[0x0],r9
80006fba:	58 08       	cp.w	r8,0
80006fbc:	c1 e0       	breq	80006ff8 <__call_exitprocs+0x94>
80006fbe:	6e 10       	ld.w	r0,r7[0x4]
80006fc0:	58 06       	cp.w	r6,0
80006fc2:	c0 90       	breq	80006fd4 <__call_exitprocs+0x70>
80006fc4:	30 1a       	mov	r10,1
80006fc6:	f4 05 09 49 	lsl	r9,r10,r5
80006fca:	ec fa 01 00 	ld.w	r10,r6[256]
80006fce:	f3 ea 00 0a 	and	r10,r9,r10
80006fd2:	c0 31       	brne	80006fd8 <__call_exitprocs+0x74>
80006fd4:	5d 18       	icall	r8
80006fd6:	c0 b8       	rjmp	80006fec <__call_exitprocs+0x88>
80006fd8:	ec fa 01 04 	ld.w	r10,r6[260]
80006fdc:	66 0b       	ld.w	r11,r3[0x0]
80006fde:	14 69       	and	r9,r10
80006fe0:	c0 41       	brne	80006fe8 <__call_exitprocs+0x84>
80006fe2:	40 2c       	lddsp	r12,sp[0x8]
80006fe4:	5d 18       	icall	r8
80006fe6:	c0 38       	rjmp	80006fec <__call_exitprocs+0x88>
80006fe8:	16 9c       	mov	r12,r11
80006fea:	5d 18       	icall	r8
80006fec:	6e 18       	ld.w	r8,r7[0x4]
80006fee:	10 30       	cp.w	r0,r8
80006ff0:	cc 41       	brne	80006f78 <__call_exitprocs+0x14>
80006ff2:	68 08       	ld.w	r8,r4[0x0]
80006ff4:	0e 38       	cp.w	r8,r7
80006ff6:	cc 11       	brne	80006f78 <__call_exitprocs+0x14>
80006ff8:	20 15       	sub	r5,1
80006ffa:	20 43       	sub	r3,4
80006ffc:	20 42       	sub	r2,4
80006ffe:	58 05       	cp.w	r5,0
80007000:	cc b4       	brge	80006f96 <__call_exitprocs+0x32>
80007002:	6e 18       	ld.w	r8,r7[0x4]
80007004:	58 08       	cp.w	r8,0
80007006:	c0 f1       	brne	80007024 <__call_exitprocs+0xc0>
80007008:	6e 08       	ld.w	r8,r7[0x0]
8000700a:	58 08       	cp.w	r8,0
8000700c:	c0 c0       	breq	80007024 <__call_exitprocs+0xc0>
8000700e:	89 08       	st.w	r4[0x0],r8
80007010:	58 06       	cp.w	r6,0
80007012:	c0 40       	breq	8000701a <__call_exitprocs+0xb6>
80007014:	0c 9c       	mov	r12,r6
80007016:	fe b0 fa 67 	rcall	800064e4 <free>
8000701a:	0e 9c       	mov	r12,r7
8000701c:	fe b0 fa 64 	rcall	800064e4 <free>
80007020:	68 07       	ld.w	r7,r4[0x0]
80007022:	c0 38       	rjmp	80007028 <__call_exitprocs+0xc4>
80007024:	0e 94       	mov	r4,r7
80007026:	6e 07       	ld.w	r7,r7[0x0]
80007028:	58 07       	cp.w	r7,0
8000702a:	ca b1       	brne	80006f80 <__call_exitprocs+0x1c>
8000702c:	2f dd       	sub	sp,-12
8000702e:	d8 32       	popm	r0-r7,pc

80007030 <__errno>:
80007030:	e0 68 01 18 	mov	r8,280
80007034:	70 0c       	ld.w	r12,r8[0x0]
80007036:	2f 4c       	sub	r12,-12
80007038:	5e fc       	retal	r12
8000703a:	d7 03       	nop

8000703c <__sfp_lock_acquire>:
8000703c:	5e fc       	retal	r12

8000703e <__sfp_lock_release>:
8000703e:	5e fc       	retal	r12

80007040 <_cleanup_r>:
80007040:	d4 01       	pushm	lr
80007042:	fe cb ca 82 	sub	r11,pc,-13694
80007046:	ca dd       	rcall	800073a0 <_fwalk>
80007048:	d8 02       	popm	pc
8000704a:	d7 03       	nop

8000704c <__sfmoreglue>:
8000704c:	d4 21       	pushm	r4-r7,lr
8000704e:	16 95       	mov	r5,r11
80007050:	f6 06 10 5c 	mul	r6,r11,92
80007054:	ec cb ff f4 	sub	r11,r6,-12
80007058:	fe b0 fa 56 	rcall	80006504 <_malloc_r>
8000705c:	18 97       	mov	r7,r12
8000705e:	c0 90       	breq	80007070 <__sfmoreglue+0x24>
80007060:	99 15       	st.w	r12[0x4],r5
80007062:	30 0b       	mov	r11,0
80007064:	2f 4c       	sub	r12,-12
80007066:	0c 9a       	mov	r10,r6
80007068:	8f 2c       	st.w	r7[0x8],r12
8000706a:	8f 0b       	st.w	r7[0x0],r11
8000706c:	fe b0 fd 0c 	rcall	80006a84 <memset>
80007070:	0e 9c       	mov	r12,r7
80007072:	d8 22       	popm	r4-r7,pc

80007074 <__sfp>:
80007074:	d4 21       	pushm	r4-r7,lr
80007076:	fe c8 af 42 	sub	r8,pc,-20670
8000707a:	18 96       	mov	r6,r12
8000707c:	70 07       	ld.w	r7,r8[0x0]
8000707e:	6e 68       	ld.w	r8,r7[0x18]
80007080:	58 08       	cp.w	r8,0
80007082:	c0 31       	brne	80007088 <__sfp+0x14>
80007084:	0e 9c       	mov	r12,r7
80007086:	c2 dc       	rcall	800070e0 <__sinit>
80007088:	ee c7 ff 28 	sub	r7,r7,-216
8000708c:	30 05       	mov	r5,0
8000708e:	6e 2c       	ld.w	r12,r7[0x8]
80007090:	6e 18       	ld.w	r8,r7[0x4]
80007092:	c0 68       	rjmp	8000709e <__sfp+0x2a>
80007094:	98 69       	ld.sh	r9,r12[0xc]
80007096:	ea 09 19 00 	cp.h	r9,r5
8000709a:	c1 10       	breq	800070bc <__sfp+0x48>
8000709c:	2a 4c       	sub	r12,-92
8000709e:	20 18       	sub	r8,1
800070a0:	cf a7       	brpl	80007094 <__sfp+0x20>
800070a2:	6e 08       	ld.w	r8,r7[0x0]
800070a4:	58 08       	cp.w	r8,0
800070a6:	c0 61       	brne	800070b2 <__sfp+0x3e>
800070a8:	30 4b       	mov	r11,4
800070aa:	0c 9c       	mov	r12,r6
800070ac:	cd 0f       	rcall	8000704c <__sfmoreglue>
800070ae:	8f 0c       	st.w	r7[0x0],r12
800070b0:	c0 30       	breq	800070b6 <__sfp+0x42>
800070b2:	6e 07       	ld.w	r7,r7[0x0]
800070b4:	ce db       	rjmp	8000708e <__sfp+0x1a>
800070b6:	30 c8       	mov	r8,12
800070b8:	8d 38       	st.w	r6[0xc],r8
800070ba:	d8 22       	popm	r4-r7,pc
800070bc:	30 08       	mov	r8,0
800070be:	f9 48 00 4c 	st.w	r12[76],r8
800070c2:	99 08       	st.w	r12[0x0],r8
800070c4:	99 28       	st.w	r12[0x8],r8
800070c6:	99 18       	st.w	r12[0x4],r8
800070c8:	99 48       	st.w	r12[0x10],r8
800070ca:	99 58       	st.w	r12[0x14],r8
800070cc:	99 68       	st.w	r12[0x18],r8
800070ce:	99 d8       	st.w	r12[0x34],r8
800070d0:	99 e8       	st.w	r12[0x38],r8
800070d2:	f9 48 00 48 	st.w	r12[72],r8
800070d6:	3f f8       	mov	r8,-1
800070d8:	b8 78       	st.h	r12[0xe],r8
800070da:	30 18       	mov	r8,1
800070dc:	b8 68       	st.h	r12[0xc],r8
800070de:	d8 22       	popm	r4-r7,pc

800070e0 <__sinit>:
800070e0:	d4 21       	pushm	r4-r7,lr
800070e2:	18 96       	mov	r6,r12
800070e4:	78 67       	ld.w	r7,r12[0x18]
800070e6:	58 07       	cp.w	r7,0
800070e8:	c4 91       	brne	8000717a <__sinit+0x9a>
800070ea:	fe c8 00 aa 	sub	r8,pc,170
800070ee:	30 15       	mov	r5,1
800070f0:	99 a8       	st.w	r12[0x28],r8
800070f2:	f9 47 00 d8 	st.w	r12[216],r7
800070f6:	f9 47 00 dc 	st.w	r12[220],r7
800070fa:	f9 47 00 e0 	st.w	r12[224],r7
800070fe:	99 65       	st.w	r12[0x18],r5
80007100:	cb af       	rcall	80007074 <__sfp>
80007102:	8d 0c       	st.w	r6[0x0],r12
80007104:	0c 9c       	mov	r12,r6
80007106:	cb 7f       	rcall	80007074 <__sfp>
80007108:	8d 1c       	st.w	r6[0x4],r12
8000710a:	0c 9c       	mov	r12,r6
8000710c:	cb 4f       	rcall	80007074 <__sfp>
8000710e:	6c 09       	ld.w	r9,r6[0x0]
80007110:	30 48       	mov	r8,4
80007112:	93 07       	st.w	r9[0x0],r7
80007114:	b2 68       	st.h	r9[0xc],r8
80007116:	93 17       	st.w	r9[0x4],r7
80007118:	93 27       	st.w	r9[0x8],r7
8000711a:	6c 18       	ld.w	r8,r6[0x4]
8000711c:	b2 77       	st.h	r9[0xe],r7
8000711e:	93 47       	st.w	r9[0x10],r7
80007120:	93 57       	st.w	r9[0x14],r7
80007122:	93 67       	st.w	r9[0x18],r7
80007124:	93 89       	st.w	r9[0x20],r9
80007126:	91 07       	st.w	r8[0x0],r7
80007128:	91 17       	st.w	r8[0x4],r7
8000712a:	91 27       	st.w	r8[0x8],r7
8000712c:	fe ce fc a4 	sub	lr,pc,-860
80007130:	fe cb fc d8 	sub	r11,pc,-808
80007134:	93 9e       	st.w	r9[0x24],lr
80007136:	93 ab       	st.w	r9[0x28],r11
80007138:	fe ca fd 04 	sub	r10,pc,-764
8000713c:	fe c4 fd 14 	sub	r4,pc,-748
80007140:	93 ba       	st.w	r9[0x2c],r10
80007142:	93 c4       	st.w	r9[0x30],r4
80007144:	30 99       	mov	r9,9
80007146:	b0 69       	st.h	r8[0xc],r9
80007148:	b0 75       	st.h	r8[0xe],r5
8000714a:	91 c4       	st.w	r8[0x30],r4
8000714c:	91 47       	st.w	r8[0x10],r7
8000714e:	91 57       	st.w	r8[0x14],r7
80007150:	91 67       	st.w	r8[0x18],r7
80007152:	91 88       	st.w	r8[0x20],r8
80007154:	91 9e       	st.w	r8[0x24],lr
80007156:	91 ab       	st.w	r8[0x28],r11
80007158:	91 ba       	st.w	r8[0x2c],r10
8000715a:	8d 2c       	st.w	r6[0x8],r12
8000715c:	31 28       	mov	r8,18
8000715e:	99 07       	st.w	r12[0x0],r7
80007160:	b8 68       	st.h	r12[0xc],r8
80007162:	99 17       	st.w	r12[0x4],r7
80007164:	99 27       	st.w	r12[0x8],r7
80007166:	30 28       	mov	r8,2
80007168:	b8 78       	st.h	r12[0xe],r8
8000716a:	99 c4       	st.w	r12[0x30],r4
8000716c:	99 67       	st.w	r12[0x18],r7
8000716e:	99 9e       	st.w	r12[0x24],lr
80007170:	99 ab       	st.w	r12[0x28],r11
80007172:	99 ba       	st.w	r12[0x2c],r10
80007174:	99 47       	st.w	r12[0x10],r7
80007176:	99 57       	st.w	r12[0x14],r7
80007178:	99 8c       	st.w	r12[0x20],r12
8000717a:	d8 22       	popm	r4-r7,pc

8000717c <_malloc_trim_r>:
8000717c:	d4 21       	pushm	r4-r7,lr
8000717e:	16 95       	mov	r5,r11
80007180:	18 97       	mov	r7,r12
80007182:	fe b0 ec ab 	rcall	80004ad8 <__malloc_lock>
80007186:	e0 64 01 1c 	mov	r4,284
8000718a:	68 28       	ld.w	r8,r4[0x8]
8000718c:	70 16       	ld.w	r6,r8[0x4]
8000718e:	e0 16 ff fc 	andl	r6,0xfffc
80007192:	ec c8 ff 91 	sub	r8,r6,-111
80007196:	f0 05 01 05 	sub	r5,r8,r5
8000719a:	e0 15 ff 80 	andl	r5,0xff80
8000719e:	ea c5 00 80 	sub	r5,r5,128
800071a2:	e0 45 00 7f 	cp.w	r5,127
800071a6:	e0 8a 00 25 	brle	800071f0 <_malloc_trim_r+0x74>
800071aa:	30 0b       	mov	r11,0
800071ac:	0e 9c       	mov	r12,r7
800071ae:	fe b0 fd d3 	rcall	80006d54 <_sbrk_r>
800071b2:	68 28       	ld.w	r8,r4[0x8]
800071b4:	0c 08       	add	r8,r6
800071b6:	10 3c       	cp.w	r12,r8
800071b8:	c1 c1       	brne	800071f0 <_malloc_trim_r+0x74>
800071ba:	ea 0b 11 00 	rsub	r11,r5,0
800071be:	0e 9c       	mov	r12,r7
800071c0:	fe b0 fd ca 	rcall	80006d54 <_sbrk_r>
800071c4:	5b fc       	cp.w	r12,-1
800071c6:	c1 91       	brne	800071f8 <_malloc_trim_r+0x7c>
800071c8:	30 0b       	mov	r11,0
800071ca:	0e 9c       	mov	r12,r7
800071cc:	fe b0 fd c4 	rcall	80006d54 <_sbrk_r>
800071d0:	68 28       	ld.w	r8,r4[0x8]
800071d2:	f8 08 01 09 	sub	r9,r12,r8
800071d6:	58 f9       	cp.w	r9,15
800071d8:	e0 8a 00 0c 	brle	800071f0 <_malloc_trim_r+0x74>
800071dc:	a1 a9       	sbr	r9,0x0
800071de:	91 19       	st.w	r8[0x4],r9
800071e0:	e0 68 05 28 	mov	r8,1320
800071e4:	70 09       	ld.w	r9,r8[0x0]
800071e6:	e0 68 07 a8 	mov	r8,1960
800071ea:	f8 09 01 09 	sub	r9,r12,r9
800071ee:	91 09       	st.w	r8[0x0],r9
800071f0:	0e 9c       	mov	r12,r7
800071f2:	fe b0 ec 81 	rcall	80004af4 <__malloc_unlock>
800071f6:	d8 2a       	popm	r4-r7,pc,r12=0
800071f8:	68 28       	ld.w	r8,r4[0x8]
800071fa:	0a 16       	sub	r6,r5
800071fc:	a1 a6       	sbr	r6,0x0
800071fe:	91 16       	st.w	r8[0x4],r6
80007200:	e0 68 07 a8 	mov	r8,1960
80007204:	70 09       	ld.w	r9,r8[0x0]
80007206:	0a 19       	sub	r9,r5
80007208:	0e 9c       	mov	r12,r7
8000720a:	91 09       	st.w	r8[0x0],r9
8000720c:	fe b0 ec 74 	rcall	80004af4 <__malloc_unlock>
80007210:	da 2a       	popm	r4-r7,pc,r12=1
80007212:	d7 03       	nop

80007214 <_free_r>:
80007214:	d4 21       	pushm	r4-r7,lr
80007216:	16 96       	mov	r6,r11
80007218:	18 97       	mov	r7,r12
8000721a:	58 0b       	cp.w	r11,0
8000721c:	e0 80 00 c0 	breq	8000739c <_free_r+0x188>
80007220:	fe b0 ec 5c 	rcall	80004ad8 <__malloc_lock>
80007224:	20 86       	sub	r6,8
80007226:	e0 6a 01 1c 	mov	r10,284
8000722a:	6c 18       	ld.w	r8,r6[0x4]
8000722c:	74 2e       	ld.w	lr,r10[0x8]
8000722e:	f9 d8 c0 01 	bfextu	r12,r8,0x0,0x1
80007232:	a1 c8       	cbr	r8,0x0
80007234:	ec 08 00 09 	add	r9,r6,r8
80007238:	72 1b       	ld.w	r11,r9[0x4]
8000723a:	e0 1b ff fc 	andl	r11,0xfffc
8000723e:	1c 39       	cp.w	r9,lr
80007240:	c1 e1       	brne	8000727c <_free_r+0x68>
80007242:	f6 08 00 08 	add	r8,r11,r8
80007246:	58 0c       	cp.w	r12,0
80007248:	c0 81       	brne	80007258 <_free_r+0x44>
8000724a:	6c 09       	ld.w	r9,r6[0x0]
8000724c:	12 16       	sub	r6,r9
8000724e:	12 08       	add	r8,r9
80007250:	6c 3b       	ld.w	r11,r6[0xc]
80007252:	6c 29       	ld.w	r9,r6[0x8]
80007254:	97 29       	st.w	r11[0x8],r9
80007256:	93 3b       	st.w	r9[0xc],r11
80007258:	10 99       	mov	r9,r8
8000725a:	95 26       	st.w	r10[0x8],r6
8000725c:	a1 a9       	sbr	r9,0x0
8000725e:	8d 19       	st.w	r6[0x4],r9
80007260:	e0 69 05 24 	mov	r9,1316
80007264:	72 09       	ld.w	r9,r9[0x0]
80007266:	12 38       	cp.w	r8,r9
80007268:	c0 63       	brcs	80007274 <_free_r+0x60>
8000726a:	e0 68 07 a4 	mov	r8,1956
8000726e:	0e 9c       	mov	r12,r7
80007270:	70 0b       	ld.w	r11,r8[0x0]
80007272:	c8 5f       	rcall	8000717c <_malloc_trim_r>
80007274:	0e 9c       	mov	r12,r7
80007276:	fe b0 ec 3f 	rcall	80004af4 <__malloc_unlock>
8000727a:	d8 22       	popm	r4-r7,pc
8000727c:	93 1b       	st.w	r9[0x4],r11
8000727e:	58 0c       	cp.w	r12,0
80007280:	c0 30       	breq	80007286 <_free_r+0x72>
80007282:	30 0c       	mov	r12,0
80007284:	c1 08       	rjmp	800072a4 <_free_r+0x90>
80007286:	6c 0e       	ld.w	lr,r6[0x0]
80007288:	f4 c5 ff f8 	sub	r5,r10,-8
8000728c:	1c 16       	sub	r6,lr
8000728e:	1c 08       	add	r8,lr
80007290:	6c 2e       	ld.w	lr,r6[0x8]
80007292:	0a 3e       	cp.w	lr,r5
80007294:	f9 bc 00 01 	moveq	r12,1
80007298:	ed f5 10 03 	ld.wne	r5,r6[0xc]
8000729c:	eb fe 1a 02 	st.wne	r5[0x8],lr
800072a0:	fd f5 1a 03 	st.wne	lr[0xc],r5
800072a4:	f2 0b 00 0e 	add	lr,r9,r11
800072a8:	7c 1e       	ld.w	lr,lr[0x4]
800072aa:	ed be 00 00 	bld	lr,0x0
800072ae:	c1 40       	breq	800072d6 <_free_r+0xc2>
800072b0:	16 08       	add	r8,r11
800072b2:	58 0c       	cp.w	r12,0
800072b4:	c0 d1       	brne	800072ce <_free_r+0xba>
800072b6:	e0 6e 01 1c 	mov	lr,284
800072ba:	72 2b       	ld.w	r11,r9[0x8]
800072bc:	2f 8e       	sub	lr,-8
800072be:	1c 3b       	cp.w	r11,lr
800072c0:	c0 71       	brne	800072ce <_free_r+0xba>
800072c2:	97 36       	st.w	r11[0xc],r6
800072c4:	97 26       	st.w	r11[0x8],r6
800072c6:	8d 2b       	st.w	r6[0x8],r11
800072c8:	8d 3b       	st.w	r6[0xc],r11
800072ca:	30 1c       	mov	r12,1
800072cc:	c0 58       	rjmp	800072d6 <_free_r+0xc2>
800072ce:	72 2b       	ld.w	r11,r9[0x8]
800072d0:	72 39       	ld.w	r9,r9[0xc]
800072d2:	93 2b       	st.w	r9[0x8],r11
800072d4:	97 39       	st.w	r11[0xc],r9
800072d6:	10 99       	mov	r9,r8
800072d8:	ec 08 09 08 	st.w	r6[r8],r8
800072dc:	a1 a9       	sbr	r9,0x0
800072de:	8d 19       	st.w	r6[0x4],r9
800072e0:	58 0c       	cp.w	r12,0
800072e2:	c5 a1       	brne	80007396 <_free_r+0x182>
800072e4:	e0 48 01 ff 	cp.w	r8,511
800072e8:	e0 8b 00 13 	brhi	8000730e <_free_r+0xfa>
800072ec:	a3 98       	lsr	r8,0x3
800072ee:	f4 08 00 39 	add	r9,r10,r8<<0x3
800072f2:	72 2b       	ld.w	r11,r9[0x8]
800072f4:	8d 39       	st.w	r6[0xc],r9
800072f6:	8d 2b       	st.w	r6[0x8],r11
800072f8:	97 36       	st.w	r11[0xc],r6
800072fa:	93 26       	st.w	r9[0x8],r6
800072fc:	a3 48       	asr	r8,0x2
800072fe:	74 19       	ld.w	r9,r10[0x4]
80007300:	30 1b       	mov	r11,1
80007302:	f6 08 09 48 	lsl	r8,r11,r8
80007306:	f3 e8 10 08 	or	r8,r9,r8
8000730a:	95 18       	st.w	r10[0x4],r8
8000730c:	c4 58       	rjmp	80007396 <_free_r+0x182>
8000730e:	f0 0b 16 09 	lsr	r11,r8,0x9
80007312:	58 4b       	cp.w	r11,4
80007314:	e0 8b 00 06 	brhi	80007320 <_free_r+0x10c>
80007318:	f0 0b 16 06 	lsr	r11,r8,0x6
8000731c:	2c 8b       	sub	r11,-56
8000731e:	c2 08       	rjmp	8000735e <_free_r+0x14a>
80007320:	59 4b       	cp.w	r11,20
80007322:	e0 8b 00 04 	brhi	8000732a <_free_r+0x116>
80007326:	2a 5b       	sub	r11,-91
80007328:	c1 b8       	rjmp	8000735e <_free_r+0x14a>
8000732a:	e0 4b 00 54 	cp.w	r11,84
8000732e:	e0 8b 00 06 	brhi	8000733a <_free_r+0x126>
80007332:	f0 0b 16 0c 	lsr	r11,r8,0xc
80007336:	29 2b       	sub	r11,-110
80007338:	c1 38       	rjmp	8000735e <_free_r+0x14a>
8000733a:	e0 4b 01 54 	cp.w	r11,340
8000733e:	e0 8b 00 06 	brhi	8000734a <_free_r+0x136>
80007342:	f0 0b 16 0f 	lsr	r11,r8,0xf
80007346:	28 9b       	sub	r11,-119
80007348:	c0 b8       	rjmp	8000735e <_free_r+0x14a>
8000734a:	e0 4b 05 54 	cp.w	r11,1364
8000734e:	e0 88 00 05 	brls	80007358 <_free_r+0x144>
80007352:	37 eb       	mov	r11,126
80007354:	c0 58       	rjmp	8000735e <_free_r+0x14a>
80007356:	d7 03       	nop
80007358:	f0 0b 16 12 	lsr	r11,r8,0x12
8000735c:	28 4b       	sub	r11,-124
8000735e:	f4 0b 00 3c 	add	r12,r10,r11<<0x3
80007362:	78 29       	ld.w	r9,r12[0x8]
80007364:	18 39       	cp.w	r9,r12
80007366:	c0 e1       	brne	80007382 <_free_r+0x16e>
80007368:	74 18       	ld.w	r8,r10[0x4]
8000736a:	a3 4b       	asr	r11,0x2
8000736c:	30 1c       	mov	r12,1
8000736e:	f8 0b 09 4b 	lsl	r11,r12,r11
80007372:	f1 eb 10 0b 	or	r11,r8,r11
80007376:	12 98       	mov	r8,r9
80007378:	95 1b       	st.w	r10[0x4],r11
8000737a:	c0 a8       	rjmp	8000738e <_free_r+0x17a>
8000737c:	72 29       	ld.w	r9,r9[0x8]
8000737e:	18 39       	cp.w	r9,r12
80007380:	c0 60       	breq	8000738c <_free_r+0x178>
80007382:	72 1a       	ld.w	r10,r9[0x4]
80007384:	e0 1a ff fc 	andl	r10,0xfffc
80007388:	14 38       	cp.w	r8,r10
8000738a:	cf 93       	brcs	8000737c <_free_r+0x168>
8000738c:	72 38       	ld.w	r8,r9[0xc]
8000738e:	8d 38       	st.w	r6[0xc],r8
80007390:	8d 29       	st.w	r6[0x8],r9
80007392:	93 36       	st.w	r9[0xc],r6
80007394:	91 26       	st.w	r8[0x8],r6
80007396:	0e 9c       	mov	r12,r7
80007398:	fe b0 eb ae 	rcall	80004af4 <__malloc_unlock>
8000739c:	d8 22       	popm	r4-r7,pc
8000739e:	d7 03       	nop

800073a0 <_fwalk>:
800073a0:	d4 31       	pushm	r0-r7,lr
800073a2:	30 05       	mov	r5,0
800073a4:	16 91       	mov	r1,r11
800073a6:	f8 c7 ff 28 	sub	r7,r12,-216
800073aa:	0a 92       	mov	r2,r5
800073ac:	c4 8e       	rcall	8000703c <__sfp_lock_acquire>
800073ae:	3f f3       	mov	r3,-1
800073b0:	c1 68       	rjmp	800073dc <_fwalk+0x3c>
800073b2:	6e 26       	ld.w	r6,r7[0x8]
800073b4:	6e 14       	ld.w	r4,r7[0x4]
800073b6:	2f 46       	sub	r6,-12
800073b8:	c0 c8       	rjmp	800073d0 <_fwalk+0x30>
800073ba:	8c 08       	ld.sh	r8,r6[0x0]
800073bc:	e4 08 19 00 	cp.h	r8,r2
800073c0:	c0 70       	breq	800073ce <_fwalk+0x2e>
800073c2:	8c 18       	ld.sh	r8,r6[0x2]
800073c4:	e6 08 19 00 	cp.h	r8,r3
800073c8:	c0 30       	breq	800073ce <_fwalk+0x2e>
800073ca:	5d 11       	icall	r1
800073cc:	18 45       	or	r5,r12
800073ce:	2a 46       	sub	r6,-92
800073d0:	20 14       	sub	r4,1
800073d2:	ec cc 00 0c 	sub	r12,r6,12
800073d6:	58 04       	cp.w	r4,0
800073d8:	cf 14       	brge	800073ba <_fwalk+0x1a>
800073da:	6e 07       	ld.w	r7,r7[0x0]
800073dc:	58 07       	cp.w	r7,0
800073de:	ce a1       	brne	800073b2 <_fwalk+0x12>
800073e0:	c2 fe       	rcall	8000703e <__sfp_lock_release>
800073e2:	0a 9c       	mov	r12,r5
800073e4:	d8 32       	popm	r0-r7,pc
800073e6:	d7 03       	nop

800073e8 <memmove>:
800073e8:	d4 01       	pushm	lr
800073ea:	18 3b       	cp.w	r11,r12
800073ec:	c1 92       	brcc	8000741e <memmove+0x36>
800073ee:	f6 0a 00 09 	add	r9,r11,r10
800073f2:	12 3c       	cp.w	r12,r9
800073f4:	c1 52       	brcc	8000741e <memmove+0x36>
800073f6:	f8 0a 00 0b 	add	r11,r12,r10
800073fa:	30 08       	mov	r8,0
800073fc:	c0 68       	rjmp	80007408 <memmove+0x20>
800073fe:	f2 08 07 0e 	ld.ub	lr,r9[r8]
80007402:	20 1a       	sub	r10,1
80007404:	f6 08 0b 0e 	st.b	r11[r8],lr
80007408:	20 18       	sub	r8,1
8000740a:	58 0a       	cp.w	r10,0
8000740c:	cf 91       	brne	800073fe <memmove+0x16>
8000740e:	d8 02       	popm	pc
80007410:	f6 08 07 09 	ld.ub	r9,r11[r8]
80007414:	20 1a       	sub	r10,1
80007416:	f8 08 0b 09 	st.b	r12[r8],r9
8000741a:	2f f8       	sub	r8,-1
8000741c:	c0 28       	rjmp	80007420 <memmove+0x38>
8000741e:	30 08       	mov	r8,0
80007420:	58 0a       	cp.w	r10,0
80007422:	cf 71       	brne	80007410 <memmove+0x28>
80007424:	d8 02       	popm	pc
80007426:	d7 03       	nop

80007428 <__sclose>:
80007428:	d4 01       	pushm	lr
8000742a:	96 7b       	ld.sh	r11,r11[0xe]
8000742c:	e0 a0 11 e2 	rcall	800097f0 <_close_r>
80007430:	d8 02       	popm	pc
80007432:	d7 03       	nop

80007434 <__sseek>:
80007434:	d4 21       	pushm	r4-r7,lr
80007436:	16 97       	mov	r7,r11
80007438:	96 7b       	ld.sh	r11,r11[0xe]
8000743a:	e0 a0 1a a5 	rcall	8000a984 <_lseek_r>
8000743e:	8e 68       	ld.sh	r8,r7[0xc]
80007440:	10 99       	mov	r9,r8
80007442:	ad c8       	cbr	r8,0xc
80007444:	ad a9       	sbr	r9,0xc
80007446:	5b fc       	cp.w	r12,-1
80007448:	ef f8 0c 06 	st.heq	r7[0xc],r8
8000744c:	ef f9 1c 06 	st.hne	r7[0xc],r9
80007450:	ef fc 1a 15 	st.wne	r7[0x54],r12
80007454:	d8 22       	popm	r4-r7,pc
80007456:	d7 03       	nop

80007458 <__swrite>:
80007458:	d4 21       	pushm	r4-r7,lr
8000745a:	96 68       	ld.sh	r8,r11[0xc]
8000745c:	16 97       	mov	r7,r11
8000745e:	14 95       	mov	r5,r10
80007460:	12 94       	mov	r4,r9
80007462:	e2 18 01 00 	andl	r8,0x100,COH
80007466:	18 96       	mov	r6,r12
80007468:	c0 60       	breq	80007474 <__swrite+0x1c>
8000746a:	30 29       	mov	r9,2
8000746c:	30 0a       	mov	r10,0
8000746e:	96 7b       	ld.sh	r11,r11[0xe]
80007470:	e0 a0 1a 8a 	rcall	8000a984 <_lseek_r>
80007474:	8e 68       	ld.sh	r8,r7[0xc]
80007476:	ad c8       	cbr	r8,0xc
80007478:	08 99       	mov	r9,r4
8000747a:	0a 9a       	mov	r10,r5
8000747c:	8e 7b       	ld.sh	r11,r7[0xe]
8000747e:	0c 9c       	mov	r12,r6
80007480:	ae 68       	st.h	r7[0xc],r8
80007482:	e0 a0 11 35 	rcall	800096ec <_write_r>
80007486:	d8 22       	popm	r4-r7,pc

80007488 <__sread>:
80007488:	d4 21       	pushm	r4-r7,lr
8000748a:	16 97       	mov	r7,r11
8000748c:	96 7b       	ld.sh	r11,r11[0xe]
8000748e:	e0 a0 1d e3 	rcall	8000b054 <_read_r>
80007492:	c0 65       	brlt	8000749e <__sread+0x16>
80007494:	6f 58       	ld.w	r8,r7[0x54]
80007496:	18 08       	add	r8,r12
80007498:	ef 48 00 54 	st.w	r7[84],r8
8000749c:	d8 22       	popm	r4-r7,pc
8000749e:	8e 68       	ld.sh	r8,r7[0xc]
800074a0:	ad c8       	cbr	r8,0xc
800074a2:	ae 68       	st.h	r7[0xc],r8
800074a4:	d8 22       	popm	r4-r7,pc
800074a6:	d7 03       	nop

800074a8 <get_arg>:
800074a8:	d4 31       	pushm	r0-r7,lr
800074aa:	20 8d       	sub	sp,32
800074ac:	fa c4 ff bc 	sub	r4,sp,-68
800074b0:	50 4b       	stdsp	sp[0x10],r11
800074b2:	68 2e       	ld.w	lr,r4[0x8]
800074b4:	50 58       	stdsp	sp[0x14],r8
800074b6:	12 96       	mov	r6,r9
800074b8:	7c 0b       	ld.w	r11,lr[0x0]
800074ba:	70 05       	ld.w	r5,r8[0x0]
800074bc:	50 6e       	stdsp	sp[0x18],lr
800074be:	58 0b       	cp.w	r11,0
800074c0:	f4 0b 17 00 	moveq	r11,r10
800074c4:	68 03       	ld.w	r3,r4[0x0]
800074c6:	68 11       	ld.w	r1,r4[0x4]
800074c8:	40 49       	lddsp	r9,sp[0x10]
800074ca:	30 08       	mov	r8,0
800074cc:	c2 89       	rjmp	8000771c <get_arg+0x274>
800074ce:	2f fb       	sub	r11,-1
800074d0:	32 5c       	mov	r12,37
800074d2:	17 8a       	ld.ub	r10,r11[0x0]
800074d4:	f8 0a 18 00 	cp.b	r10,r12
800074d8:	5f 1e       	srne	lr
800074da:	f0 0a 18 00 	cp.b	r10,r8
800074de:	5f 1c       	srne	r12
800074e0:	fd ec 00 0c 	and	r12,lr,r12
800074e4:	f0 0c 18 00 	cp.b	r12,r8
800074e8:	cf 31       	brne	800074ce <get_arg+0x26>
800074ea:	58 0a       	cp.w	r10,0
800074ec:	e0 80 01 25 	breq	80007736 <get_arg+0x28e>
800074f0:	30 0c       	mov	r12,0
800074f2:	3f fa       	mov	r10,-1
800074f4:	18 90       	mov	r0,r12
800074f6:	50 3a       	stdsp	sp[0xc],r10
800074f8:	18 94       	mov	r4,r12
800074fa:	18 92       	mov	r2,r12
800074fc:	f8 0c 00 3c 	add	r12,r12,r12<<0x3
80007500:	16 97       	mov	r7,r11
80007502:	50 7c       	stdsp	sp[0x1c],r12
80007504:	fe cc b0 98 	sub	r12,pc,-20328
80007508:	0f 3a       	ld.ub	r10,r7++
8000750a:	f8 0a 07 0e 	ld.ub	lr,r12[r10]
8000750e:	40 7c       	lddsp	r12,sp[0x1c]
80007510:	1c 0c       	add	r12,lr
80007512:	fe ce b1 6e 	sub	lr,pc,-20114
80007516:	fc 0c 07 0e 	ld.ub	lr,lr[r12]
8000751a:	20 1e       	sub	lr,1
8000751c:	50 0e       	stdsp	sp[0x0],lr
8000751e:	fe ce b1 e6 	sub	lr,pc,-19994
80007522:	fc 0c 07 0c 	ld.ub	r12,lr[r12]
80007526:	50 7c       	stdsp	sp[0x1c],r12
80007528:	40 0c       	lddsp	r12,sp[0x0]
8000752a:	58 7c       	cp.w	r12,7
8000752c:	e0 8b 00 f1 	brhi	8000770e <get_arg+0x266>
80007530:	fe ce b3 98 	sub	lr,pc,-19560
80007534:	fc 0c 03 2f 	ld.w	pc,lr[r12<<0x2]
80007538:	36 8b       	mov	r11,104
8000753a:	f6 0a 18 00 	cp.b	r10,r11
8000753e:	e0 80 00 e8 	breq	8000770e <get_arg+0x266>
80007542:	37 1b       	mov	r11,113
80007544:	f6 0a 18 00 	cp.b	r10,r11
80007548:	c0 70       	breq	80007556 <get_arg+0xae>
8000754a:	34 cb       	mov	r11,76
8000754c:	f6 0a 18 00 	cp.b	r10,r11
80007550:	c0 51       	brne	8000755a <get_arg+0xb2>
80007552:	a3 b4       	sbr	r4,0x3
80007554:	cd d8       	rjmp	8000770e <get_arg+0x266>
80007556:	a5 b4       	sbr	r4,0x5
80007558:	cd b8       	rjmp	8000770e <get_arg+0x266>
8000755a:	08 9a       	mov	r10,r4
8000755c:	0e 9b       	mov	r11,r7
8000755e:	a5 aa       	sbr	r10,0x4
80007560:	17 3c       	ld.ub	r12,r11++
80007562:	a5 b4       	sbr	r4,0x5
80007564:	36 ce       	mov	lr,108
80007566:	fc 0c 18 00 	cp.b	r12,lr
8000756a:	e0 80 00 d3 	breq	80007710 <get_arg+0x268>
8000756e:	14 94       	mov	r4,r10
80007570:	cc f8       	rjmp	8000770e <get_arg+0x266>
80007572:	eb d5 c0 05 	bfextu	r5,r5,0x0,0x5
80007576:	36 7c       	mov	r12,103
80007578:	f8 0a 18 00 	cp.b	r10,r12
8000757c:	e0 8b 00 27 	brhi	800075ca <get_arg+0x122>
80007580:	36 5b       	mov	r11,101
80007582:	f6 0a 18 00 	cp.b	r10,r11
80007586:	c4 82       	brcc	80007616 <get_arg+0x16e>
80007588:	34 fb       	mov	r11,79
8000758a:	f6 0a 18 00 	cp.b	r10,r11
8000758e:	c4 80       	breq	8000761e <get_arg+0x176>
80007590:	e0 8b 00 0c 	brhi	800075a8 <get_arg+0x100>
80007594:	34 5b       	mov	r11,69
80007596:	f6 0a 18 00 	cp.b	r10,r11
8000759a:	c3 e0       	breq	80007616 <get_arg+0x16e>
8000759c:	34 7b       	mov	r11,71
8000759e:	f6 0a 18 00 	cp.b	r10,r11
800075a2:	c3 a0       	breq	80007616 <get_arg+0x16e>
800075a4:	34 4b       	mov	r11,68
800075a6:	c0 88       	rjmp	800075b6 <get_arg+0x10e>
800075a8:	35 8b       	mov	r11,88
800075aa:	f6 0a 18 00 	cp.b	r10,r11
800075ae:	c2 c0       	breq	80007606 <get_arg+0x15e>
800075b0:	e0 8b 00 07 	brhi	800075be <get_arg+0x116>
800075b4:	35 5b       	mov	r11,85
800075b6:	f6 0a 18 00 	cp.b	r10,r11
800075ba:	c3 51       	brne	80007624 <get_arg+0x17c>
800075bc:	c3 18       	rjmp	8000761e <get_arg+0x176>
800075be:	36 3b       	mov	r11,99
800075c0:	f6 0a 18 00 	cp.b	r10,r11
800075c4:	c2 f0       	breq	80007622 <get_arg+0x17a>
800075c6:	36 4b       	mov	r11,100
800075c8:	c0 e8       	rjmp	800075e4 <get_arg+0x13c>
800075ca:	37 0b       	mov	r11,112
800075cc:	f6 0a 18 00 	cp.b	r10,r11
800075d0:	c2 50       	breq	8000761a <get_arg+0x172>
800075d2:	e0 8b 00 0d 	brhi	800075ec <get_arg+0x144>
800075d6:	36 eb       	mov	r11,110
800075d8:	f6 0a 18 00 	cp.b	r10,r11
800075dc:	c1 f0       	breq	8000761a <get_arg+0x172>
800075de:	e0 8b 00 14 	brhi	80007606 <get_arg+0x15e>
800075e2:	36 9b       	mov	r11,105
800075e4:	f6 0a 18 00 	cp.b	r10,r11
800075e8:	c1 e1       	brne	80007624 <get_arg+0x17c>
800075ea:	c0 e8       	rjmp	80007606 <get_arg+0x15e>
800075ec:	37 5b       	mov	r11,117
800075ee:	f6 0a 18 00 	cp.b	r10,r11
800075f2:	c0 a0       	breq	80007606 <get_arg+0x15e>
800075f4:	37 8b       	mov	r11,120
800075f6:	f6 0a 18 00 	cp.b	r10,r11
800075fa:	c0 60       	breq	80007606 <get_arg+0x15e>
800075fc:	37 3b       	mov	r11,115
800075fe:	f6 0a 18 00 	cp.b	r10,r11
80007602:	c1 11       	brne	80007624 <get_arg+0x17c>
80007604:	c0 b8       	rjmp	8000761a <get_arg+0x172>
80007606:	ed b4 00 04 	bld	r4,0x4
8000760a:	c0 a0       	breq	8000761e <get_arg+0x176>
8000760c:	ed b4 00 05 	bld	r4,0x5
80007610:	c0 91       	brne	80007622 <get_arg+0x17a>
80007612:	30 20       	mov	r0,2
80007614:	c0 88       	rjmp	80007624 <get_arg+0x17c>
80007616:	30 40       	mov	r0,4
80007618:	c0 68       	rjmp	80007624 <get_arg+0x17c>
8000761a:	30 30       	mov	r0,3
8000761c:	c0 48       	rjmp	80007624 <get_arg+0x17c>
8000761e:	30 10       	mov	r0,1
80007620:	c0 28       	rjmp	80007624 <get_arg+0x17c>
80007622:	30 00       	mov	r0,0
80007624:	40 3b       	lddsp	r11,sp[0xc]
80007626:	5b fb       	cp.w	r11,-1
80007628:	c0 40       	breq	80007630 <get_arg+0x188>
8000762a:	e2 0b 09 20 	st.w	r1[r11<<0x2],r0
8000762e:	c7 08       	rjmp	8000770e <get_arg+0x266>
80007630:	58 60       	cp.w	r0,6
80007632:	e0 8b 00 6e 	brhi	8000770e <get_arg+0x266>
80007636:	6c 0a       	ld.w	r10,r6[0x0]
80007638:	ea cc ff ff 	sub	r12,r5,-1
8000763c:	fe ce b4 84 	sub	lr,pc,-19324
80007640:	fc 00 03 2f 	ld.w	pc,lr[r0<<0x2]
80007644:	f4 cb ff f8 	sub	r11,r10,-8
80007648:	8d 0b       	st.w	r6[0x0],r11
8000764a:	f4 ea 00 00 	ld.d	r10,r10[0]
8000764e:	e6 05 08 3a 	st.d	r3[r5<<0x3],r10
80007652:	c0 f8       	rjmp	80007670 <get_arg+0x1c8>
80007654:	f4 cb ff fc 	sub	r11,r10,-4
80007658:	8d 0b       	st.w	r6[0x0],r11
8000765a:	74 0a       	ld.w	r10,r10[0x0]
8000765c:	e6 05 09 3a 	st.w	r3[r5<<0x3],r10
80007660:	c0 88       	rjmp	80007670 <get_arg+0x1c8>
80007662:	f4 cb ff f8 	sub	r11,r10,-8
80007666:	8d 0b       	st.w	r6[0x0],r11
80007668:	f4 ea 00 00 	ld.d	r10,r10[0]
8000766c:	e6 05 08 3a 	st.d	r3[r5<<0x3],r10
80007670:	0e 9b       	mov	r11,r7
80007672:	18 95       	mov	r5,r12
80007674:	c4 e8       	rjmp	80007710 <get_arg+0x268>
80007676:	62 0a       	ld.w	r10,r1[0x0]
80007678:	5b fa       	cp.w	r10,-1
8000767a:	c0 b1       	brne	80007690 <get_arg+0x1e8>
8000767c:	50 19       	stdsp	sp[0x4],r9
8000767e:	50 28       	stdsp	sp[0x8],r8
80007680:	e0 6a 00 80 	mov	r10,128
80007684:	30 0b       	mov	r11,0
80007686:	02 9c       	mov	r12,r1
80007688:	fe b0 f9 fe 	rcall	80006a84 <memset>
8000768c:	40 28       	lddsp	r8,sp[0x8]
8000768e:	40 19       	lddsp	r9,sp[0x4]
80007690:	e4 cc 00 01 	sub	r12,r2,1
80007694:	0e 9b       	mov	r11,r7
80007696:	50 3c       	stdsp	sp[0xc],r12
80007698:	f2 0c 0c 49 	max	r9,r9,r12
8000769c:	c3 a8       	rjmp	80007710 <get_arg+0x268>
8000769e:	62 0a       	ld.w	r10,r1[0x0]
800076a0:	5b fa       	cp.w	r10,-1
800076a2:	c0 b1       	brne	800076b8 <get_arg+0x210>
800076a4:	50 19       	stdsp	sp[0x4],r9
800076a6:	50 28       	stdsp	sp[0x8],r8
800076a8:	e0 6a 00 80 	mov	r10,128
800076ac:	30 0b       	mov	r11,0
800076ae:	02 9c       	mov	r12,r1
800076b0:	fe b0 f9 ea 	rcall	80006a84 <memset>
800076b4:	40 28       	lddsp	r8,sp[0x8]
800076b6:	40 19       	lddsp	r9,sp[0x4]
800076b8:	20 12       	sub	r2,1
800076ba:	30 0a       	mov	r10,0
800076bc:	0e 9b       	mov	r11,r7
800076be:	e2 02 09 2a 	st.w	r1[r2<<0x2],r10
800076c2:	f2 02 0c 49 	max	r9,r9,r2
800076c6:	c2 58       	rjmp	80007710 <get_arg+0x268>
800076c8:	16 97       	mov	r7,r11
800076ca:	6c 0a       	ld.w	r10,r6[0x0]
800076cc:	f4 cb ff fc 	sub	r11,r10,-4
800076d0:	8d 0b       	st.w	r6[0x0],r11
800076d2:	74 0a       	ld.w	r10,r10[0x0]
800076d4:	0e 9b       	mov	r11,r7
800076d6:	e6 05 09 3a 	st.w	r3[r5<<0x3],r10
800076da:	2f f5       	sub	r5,-1
800076dc:	c1 a8       	rjmp	80007710 <get_arg+0x268>
800076de:	f4 c2 00 30 	sub	r2,r10,48
800076e2:	c0 68       	rjmp	800076ee <get_arg+0x246>
800076e4:	e4 02 00 22 	add	r2,r2,r2<<0x2
800076e8:	2f f7       	sub	r7,-1
800076ea:	f4 02 00 12 	add	r2,r10,r2<<0x1
800076ee:	0f 8a       	ld.ub	r10,r7[0x0]
800076f0:	58 0a       	cp.w	r10,0
800076f2:	c0 e0       	breq	8000770e <get_arg+0x266>
800076f4:	23 0a       	sub	r10,48
800076f6:	58 9a       	cp.w	r10,9
800076f8:	fe 98 ff f6 	brls	800076e4 <get_arg+0x23c>
800076fc:	c0 98       	rjmp	8000770e <get_arg+0x266>
800076fe:	2f f7       	sub	r7,-1
80007700:	0f 8a       	ld.ub	r10,r7[0x0]
80007702:	58 0a       	cp.w	r10,0
80007704:	c0 50       	breq	8000770e <get_arg+0x266>
80007706:	23 0a       	sub	r10,48
80007708:	58 9a       	cp.w	r10,9
8000770a:	fe 98 ff fa 	brls	800076fe <get_arg+0x256>
8000770e:	0e 9b       	mov	r11,r7
80007710:	40 7c       	lddsp	r12,sp[0x1c]
80007712:	30 ba       	mov	r10,11
80007714:	f4 0c 18 00 	cp.b	r12,r10
80007718:	fe 91 fe f2 	brne	800074fc <get_arg+0x54>
8000771c:	40 42       	lddsp	r2,sp[0x10]
8000771e:	17 8c       	ld.ub	r12,r11[0x0]
80007720:	0a 32       	cp.w	r2,r5
80007722:	5f 4a       	srge	r10
80007724:	f0 0c 18 00 	cp.b	r12,r8
80007728:	5f 1c       	srne	r12
8000772a:	f9 ea 00 0a 	and	r10,r12,r10
8000772e:	f0 0a 18 00 	cp.b	r10,r8
80007732:	fe 91 fe cf 	brne	800074d0 <get_arg+0x28>
80007736:	30 08       	mov	r8,0
80007738:	40 4e       	lddsp	lr,sp[0x10]
8000773a:	17 8a       	ld.ub	r10,r11[0x0]
8000773c:	e2 05 00 21 	add	r1,r1,r5<<0x2
80007740:	f0 0a 18 00 	cp.b	r10,r8
80007744:	fc 09 17 10 	movne	r9,lr
80007748:	e6 05 00 38 	add	r8,r3,r5<<0x3
8000774c:	06 9e       	mov	lr,r3
8000774e:	c2 a8       	rjmp	800077a2 <get_arg+0x2fa>
80007750:	62 0a       	ld.w	r10,r1[0x0]
80007752:	58 3a       	cp.w	r10,3
80007754:	c1 e0       	breq	80007790 <get_arg+0x2e8>
80007756:	e0 89 00 07 	brgt	80007764 <get_arg+0x2bc>
8000775a:	58 1a       	cp.w	r10,1
8000775c:	c1 a0       	breq	80007790 <get_arg+0x2e8>
8000775e:	58 2a       	cp.w	r10,2
80007760:	c1 81       	brne	80007790 <get_arg+0x2e8>
80007762:	c0 58       	rjmp	8000776c <get_arg+0x2c4>
80007764:	58 5a       	cp.w	r10,5
80007766:	c0 c0       	breq	8000777e <get_arg+0x2d6>
80007768:	c0 b5       	brlt	8000777e <get_arg+0x2d6>
8000776a:	c1 38       	rjmp	80007790 <get_arg+0x2e8>
8000776c:	6c 0a       	ld.w	r10,r6[0x0]
8000776e:	f4 cc ff f8 	sub	r12,r10,-8
80007772:	8d 0c       	st.w	r6[0x0],r12
80007774:	f4 e2 00 00 	ld.d	r2,r10[0]
80007778:	f0 e3 00 00 	st.d	r8[0],r2
8000777c:	c1 08       	rjmp	8000779c <get_arg+0x2f4>
8000777e:	6c 0a       	ld.w	r10,r6[0x0]
80007780:	f4 cc ff f8 	sub	r12,r10,-8
80007784:	8d 0c       	st.w	r6[0x0],r12
80007786:	f4 e2 00 00 	ld.d	r2,r10[0]
8000778a:	f0 e3 00 00 	st.d	r8[0],r2
8000778e:	c0 78       	rjmp	8000779c <get_arg+0x2f4>
80007790:	6c 0a       	ld.w	r10,r6[0x0]
80007792:	f4 cc ff fc 	sub	r12,r10,-4
80007796:	8d 0c       	st.w	r6[0x0],r12
80007798:	74 0a       	ld.w	r10,r10[0x0]
8000779a:	91 0a       	st.w	r8[0x0],r10
8000779c:	2f f5       	sub	r5,-1
8000779e:	2f 88       	sub	r8,-8
800077a0:	2f c1       	sub	r1,-4
800077a2:	12 35       	cp.w	r5,r9
800077a4:	fe 9a ff d6 	brle	80007750 <get_arg+0x2a8>
800077a8:	1c 93       	mov	r3,lr
800077aa:	40 52       	lddsp	r2,sp[0x14]
800077ac:	40 6e       	lddsp	lr,sp[0x18]
800077ae:	85 05       	st.w	r2[0x0],r5
800077b0:	9d 0b       	st.w	lr[0x0],r11
800077b2:	40 4b       	lddsp	r11,sp[0x10]
800077b4:	e6 0b 00 3c 	add	r12,r3,r11<<0x3
800077b8:	2f 8d       	sub	sp,-32
800077ba:	d8 32       	popm	r0-r7,pc

800077bc <__sprint_r>:
800077bc:	d4 21       	pushm	r4-r7,lr
800077be:	14 97       	mov	r7,r10
800077c0:	74 28       	ld.w	r8,r10[0x8]
800077c2:	58 08       	cp.w	r8,0
800077c4:	c0 41       	brne	800077cc <__sprint_r+0x10>
800077c6:	95 18       	st.w	r10[0x4],r8
800077c8:	10 9c       	mov	r12,r8
800077ca:	d8 22       	popm	r4-r7,pc
800077cc:	e0 a0 17 8a 	rcall	8000a6e0 <__sfvwrite_r>
800077d0:	30 08       	mov	r8,0
800077d2:	8f 18       	st.w	r7[0x4],r8
800077d4:	8f 28       	st.w	r7[0x8],r8
800077d6:	d8 22       	popm	r4-r7,pc

800077d8 <_vfprintf_r>:
800077d8:	d4 31       	pushm	r0-r7,lr
800077da:	fa cd 06 bc 	sub	sp,sp,1724
800077de:	51 09       	stdsp	sp[0x40],r9
800077e0:	16 91       	mov	r1,r11
800077e2:	14 97       	mov	r7,r10
800077e4:	18 95       	mov	r5,r12
800077e6:	e0 a0 18 cb 	rcall	8000a97c <_localeconv_r>
800077ea:	78 0c       	ld.w	r12,r12[0x0]
800077ec:	50 cc       	stdsp	sp[0x30],r12
800077ee:	58 05       	cp.w	r5,0
800077f0:	c0 70       	breq	800077fe <_vfprintf_r+0x26>
800077f2:	6a 68       	ld.w	r8,r5[0x18]
800077f4:	58 08       	cp.w	r8,0
800077f6:	c0 41       	brne	800077fe <_vfprintf_r+0x26>
800077f8:	0a 9c       	mov	r12,r5
800077fa:	fe b0 fc 73 	rcall	800070e0 <__sinit>
800077fe:	fe c8 b6 c6 	sub	r8,pc,-18746
80007802:	10 31       	cp.w	r1,r8
80007804:	c0 31       	brne	8000780a <_vfprintf_r+0x32>
80007806:	6a 01       	ld.w	r1,r5[0x0]
80007808:	c0 c8       	rjmp	80007820 <_vfprintf_r+0x48>
8000780a:	fe c8 b6 b2 	sub	r8,pc,-18766
8000780e:	10 31       	cp.w	r1,r8
80007810:	c0 31       	brne	80007816 <_vfprintf_r+0x3e>
80007812:	6a 11       	ld.w	r1,r5[0x4]
80007814:	c0 68       	rjmp	80007820 <_vfprintf_r+0x48>
80007816:	fe c8 b6 9e 	sub	r8,pc,-18786
8000781a:	10 31       	cp.w	r1,r8
8000781c:	eb f1 00 02 	ld.weq	r1,r5[0x8]
80007820:	82 68       	ld.sh	r8,r1[0xc]
80007822:	ed b8 00 03 	bld	r8,0x3
80007826:	c0 41       	brne	8000782e <_vfprintf_r+0x56>
80007828:	62 48       	ld.w	r8,r1[0x10]
8000782a:	58 08       	cp.w	r8,0
8000782c:	c0 71       	brne	8000783a <_vfprintf_r+0x62>
8000782e:	02 9b       	mov	r11,r1
80007830:	0a 9c       	mov	r12,r5
80007832:	e0 a0 0f 71 	rcall	80009714 <__swsetup_r>
80007836:	e0 81 0f 54 	brne	800096de <_vfprintf_r+0x1f06>
8000783a:	82 68       	ld.sh	r8,r1[0xc]
8000783c:	10 99       	mov	r9,r8
8000783e:	e2 19 00 1a 	andl	r9,0x1a,COH
80007842:	58 a9       	cp.w	r9,10
80007844:	c3 c1       	brne	800078bc <_vfprintf_r+0xe4>
80007846:	82 79       	ld.sh	r9,r1[0xe]
80007848:	30 0a       	mov	r10,0
8000784a:	f4 09 19 00 	cp.h	r9,r10
8000784e:	c3 75       	brlt	800078bc <_vfprintf_r+0xe4>
80007850:	a1 d8       	cbr	r8,0x1
80007852:	fb 58 05 d0 	st.h	sp[1488],r8
80007856:	62 88       	ld.w	r8,r1[0x20]
80007858:	fb 48 05 e4 	st.w	sp[1508],r8
8000785c:	62 a8       	ld.w	r8,r1[0x28]
8000785e:	fb 48 05 ec 	st.w	sp[1516],r8
80007862:	fa c8 ff bc 	sub	r8,sp,-68
80007866:	fb 48 05 d4 	st.w	sp[1492],r8
8000786a:	fb 48 05 c4 	st.w	sp[1476],r8
8000786e:	e0 68 04 00 	mov	r8,1024
80007872:	fb 48 05 d8 	st.w	sp[1496],r8
80007876:	fb 48 05 cc 	st.w	sp[1484],r8
8000787a:	30 08       	mov	r8,0
8000787c:	fb 59 05 d2 	st.h	sp[1490],r9
80007880:	0e 9a       	mov	r10,r7
80007882:	41 09       	lddsp	r9,sp[0x40]
80007884:	fa c7 fa 3c 	sub	r7,sp,-1476
80007888:	fb 48 05 dc 	st.w	sp[1500],r8
8000788c:	0a 9c       	mov	r12,r5
8000788e:	0e 9b       	mov	r11,r7
80007890:	ca 4f       	rcall	800077d8 <_vfprintf_r>
80007892:	50 bc       	stdsp	sp[0x2c],r12
80007894:	c0 95       	brlt	800078a6 <_vfprintf_r+0xce>
80007896:	0e 9b       	mov	r11,r7
80007898:	0a 9c       	mov	r12,r5
8000789a:	e0 a0 16 9b 	rcall	8000a5d0 <_fflush_r>
8000789e:	40 be       	lddsp	lr,sp[0x2c]
800078a0:	f9 be 01 ff 	movne	lr,-1
800078a4:	50 be       	stdsp	sp[0x2c],lr
800078a6:	fb 08 05 d0 	ld.sh	r8,sp[1488]
800078aa:	ed b8 00 06 	bld	r8,0x6
800078ae:	e0 81 0f 1a 	brne	800096e2 <_vfprintf_r+0x1f0a>
800078b2:	82 68       	ld.sh	r8,r1[0xc]
800078b4:	a7 a8       	sbr	r8,0x6
800078b6:	a2 68       	st.h	r1[0xc],r8
800078b8:	e0 8f 0f 15 	bral	800096e2 <_vfprintf_r+0x1f0a>
800078bc:	30 08       	mov	r8,0
800078be:	fb 48 06 b4 	st.w	sp[1716],r8
800078c2:	fb 48 06 90 	st.w	sp[1680],r8
800078c6:	fb 48 06 8c 	st.w	sp[1676],r8
800078ca:	fb 48 06 b0 	st.w	sp[1712],r8
800078ce:	30 08       	mov	r8,0
800078d0:	30 09       	mov	r9,0
800078d2:	50 a7       	stdsp	sp[0x28],r7
800078d4:	50 78       	stdsp	sp[0x1c],r8
800078d6:	fa c3 f9 e0 	sub	r3,sp,-1568
800078da:	3f f8       	mov	r8,-1
800078dc:	50 59       	stdsp	sp[0x14],r9
800078de:	fb 43 06 88 	st.w	sp[1672],r3
800078e2:	fb 48 05 44 	st.w	sp[1348],r8
800078e6:	12 9c       	mov	r12,r9
800078e8:	50 69       	stdsp	sp[0x18],r9
800078ea:	50 d9       	stdsp	sp[0x34],r9
800078ec:	50 e9       	stdsp	sp[0x38],r9
800078ee:	50 b9       	stdsp	sp[0x2c],r9
800078f0:	12 97       	mov	r7,r9
800078f2:	0a 94       	mov	r4,r5
800078f4:	40 a2       	lddsp	r2,sp[0x28]
800078f6:	32 5a       	mov	r10,37
800078f8:	30 08       	mov	r8,0
800078fa:	c0 28       	rjmp	800078fe <_vfprintf_r+0x126>
800078fc:	2f f2       	sub	r2,-1
800078fe:	05 89       	ld.ub	r9,r2[0x0]
80007900:	f0 09 18 00 	cp.b	r9,r8
80007904:	5f 1b       	srne	r11
80007906:	f4 09 18 00 	cp.b	r9,r10
8000790a:	5f 19       	srne	r9
8000790c:	f3 eb 00 0b 	and	r11,r9,r11
80007910:	f0 0b 18 00 	cp.b	r11,r8
80007914:	cf 41       	brne	800078fc <_vfprintf_r+0x124>
80007916:	40 ab       	lddsp	r11,sp[0x28]
80007918:	e4 0b 01 06 	sub	r6,r2,r11
8000791c:	c1 e0       	breq	80007958 <_vfprintf_r+0x180>
8000791e:	fa f8 06 90 	ld.w	r8,sp[1680]
80007922:	0c 08       	add	r8,r6
80007924:	87 0b       	st.w	r3[0x0],r11
80007926:	fb 48 06 90 	st.w	sp[1680],r8
8000792a:	87 16       	st.w	r3[0x4],r6
8000792c:	fa f8 06 8c 	ld.w	r8,sp[1676]
80007930:	2f f8       	sub	r8,-1
80007932:	fb 48 06 8c 	st.w	sp[1676],r8
80007936:	58 78       	cp.w	r8,7
80007938:	e0 89 00 04 	brgt	80007940 <_vfprintf_r+0x168>
8000793c:	2f 83       	sub	r3,-8
8000793e:	c0 a8       	rjmp	80007952 <_vfprintf_r+0x17a>
80007940:	fa ca f9 78 	sub	r10,sp,-1672
80007944:	02 9b       	mov	r11,r1
80007946:	08 9c       	mov	r12,r4
80007948:	c3 af       	rcall	800077bc <__sprint_r>
8000794a:	e0 81 0e c6 	brne	800096d6 <_vfprintf_r+0x1efe>
8000794e:	fa c3 f9 e0 	sub	r3,sp,-1568
80007952:	40 ba       	lddsp	r10,sp[0x2c]
80007954:	0c 0a       	add	r10,r6
80007956:	50 ba       	stdsp	sp[0x2c],r10
80007958:	05 89       	ld.ub	r9,r2[0x0]
8000795a:	30 08       	mov	r8,0
8000795c:	f0 09 18 00 	cp.b	r9,r8
80007960:	e0 80 0e aa 	breq	800096b4 <_vfprintf_r+0x1edc>
80007964:	30 09       	mov	r9,0
80007966:	fb 68 06 bb 	st.b	sp[1723],r8
8000796a:	0e 96       	mov	r6,r7
8000796c:	e4 c8 ff ff 	sub	r8,r2,-1
80007970:	3f fe       	mov	lr,-1
80007972:	50 93       	stdsp	sp[0x24],r3
80007974:	50 41       	stdsp	sp[0x10],r1
80007976:	0e 93       	mov	r3,r7
80007978:	04 91       	mov	r1,r2
8000797a:	50 89       	stdsp	sp[0x20],r9
8000797c:	50 a8       	stdsp	sp[0x28],r8
8000797e:	50 2e       	stdsp	sp[0x8],lr
80007980:	50 39       	stdsp	sp[0xc],r9
80007982:	12 95       	mov	r5,r9
80007984:	12 90       	mov	r0,r9
80007986:	10 97       	mov	r7,r8
80007988:	08 92       	mov	r2,r4
8000798a:	c0 78       	rjmp	80007998 <_vfprintf_r+0x1c0>
8000798c:	3f fc       	mov	r12,-1
8000798e:	08 97       	mov	r7,r4
80007990:	50 2c       	stdsp	sp[0x8],r12
80007992:	c0 38       	rjmp	80007998 <_vfprintf_r+0x1c0>
80007994:	30 0b       	mov	r11,0
80007996:	50 3b       	stdsp	sp[0xc],r11
80007998:	0f 38       	ld.ub	r8,r7++
8000799a:	c0 28       	rjmp	8000799e <_vfprintf_r+0x1c6>
8000799c:	12 90       	mov	r0,r9
8000799e:	f0 c9 00 20 	sub	r9,r8,32
800079a2:	e0 49 00 58 	cp.w	r9,88
800079a6:	e0 8b 0a 30 	brhi	80008e06 <_vfprintf_r+0x162e>
800079aa:	fe ca b7 d6 	sub	r10,pc,-18474
800079ae:	f4 09 03 2f 	ld.w	pc,r10[r9<<0x2]
800079b2:	50 a7       	stdsp	sp[0x28],r7
800079b4:	50 80       	stdsp	sp[0x20],r0
800079b6:	0c 97       	mov	r7,r6
800079b8:	04 94       	mov	r4,r2
800079ba:	06 96       	mov	r6,r3
800079bc:	02 92       	mov	r2,r1
800079be:	fe c9 b5 ae 	sub	r9,pc,-19026
800079c2:	40 93       	lddsp	r3,sp[0x24]
800079c4:	10 90       	mov	r0,r8
800079c6:	40 41       	lddsp	r1,sp[0x10]
800079c8:	50 d9       	stdsp	sp[0x34],r9
800079ca:	e0 8f 08 8e 	bral	80008ae6 <_vfprintf_r+0x130e>
800079ce:	30 08       	mov	r8,0
800079d0:	fb 39 06 bb 	ld.ub	r9,sp[1723]
800079d4:	f0 09 18 00 	cp.b	r9,r8
800079d8:	ce 01       	brne	80007998 <_vfprintf_r+0x1c0>
800079da:	32 08       	mov	r8,32
800079dc:	c6 e8       	rjmp	80007ab8 <_vfprintf_r+0x2e0>
800079de:	a1 a5       	sbr	r5,0x0
800079e0:	cd cb       	rjmp	80007998 <_vfprintf_r+0x1c0>
800079e2:	0f 89       	ld.ub	r9,r7[0x0]
800079e4:	f2 c8 00 30 	sub	r8,r9,48
800079e8:	58 98       	cp.w	r8,9
800079ea:	e0 8b 00 1d 	brhi	80007a24 <_vfprintf_r+0x24c>
800079ee:	ee c8 ff ff 	sub	r8,r7,-1
800079f2:	30 0b       	mov	r11,0
800079f4:	23 09       	sub	r9,48
800079f6:	f6 0b 00 2b 	add	r11,r11,r11<<0x2
800079fa:	f2 0b 00 1b 	add	r11,r9,r11<<0x1
800079fe:	11 39       	ld.ub	r9,r8++
80007a00:	f2 ca 00 30 	sub	r10,r9,48
80007a04:	58 9a       	cp.w	r10,9
80007a06:	fe 98 ff f7 	brls	800079f4 <_vfprintf_r+0x21c>
80007a0a:	e0 49 00 24 	cp.w	r9,36
80007a0e:	cc 31       	brne	80007994 <_vfprintf_r+0x1bc>
80007a10:	e0 4b 00 20 	cp.w	r11,32
80007a14:	e0 89 0e 60 	brgt	800096d4 <_vfprintf_r+0x1efc>
80007a18:	20 1b       	sub	r11,1
80007a1a:	fa f9 06 b4 	ld.w	r9,sp[1716]
80007a1e:	12 3b       	cp.w	r11,r9
80007a20:	c0 95       	brlt	80007a32 <_vfprintf_r+0x25a>
80007a22:	c1 08       	rjmp	80007a42 <_vfprintf_r+0x26a>
80007a24:	fa f9 06 b4 	ld.w	r9,sp[1716]
80007a28:	ec ca ff ff 	sub	r10,r6,-1
80007a2c:	12 36       	cp.w	r6,r9
80007a2e:	c1 f5       	brlt	80007a6c <_vfprintf_r+0x294>
80007a30:	c2 68       	rjmp	80007a7c <_vfprintf_r+0x2a4>
80007a32:	fa ce f9 44 	sub	lr,sp,-1724
80007a36:	10 97       	mov	r7,r8
80007a38:	fc 0b 00 3b 	add	r11,lr,r11<<0x3
80007a3c:	f6 f0 fd 88 	ld.w	r0,r11[-632]
80007a40:	c3 58       	rjmp	80007aaa <_vfprintf_r+0x2d2>
80007a42:	10 97       	mov	r7,r8
80007a44:	fa c8 f9 50 	sub	r8,sp,-1712
80007a48:	1a d8       	st.w	--sp,r8
80007a4a:	fa c8 fa b8 	sub	r8,sp,-1352
80007a4e:	1a d8       	st.w	--sp,r8
80007a50:	fa c8 fb b4 	sub	r8,sp,-1100
80007a54:	02 9a       	mov	r10,r1
80007a56:	1a d8       	st.w	--sp,r8
80007a58:	04 9c       	mov	r12,r2
80007a5a:	fa c8 f9 40 	sub	r8,sp,-1728
80007a5e:	fa c9 ff b4 	sub	r9,sp,-76
80007a62:	fe b0 fd 23 	rcall	800074a8 <get_arg>
80007a66:	2f dd       	sub	sp,-12
80007a68:	78 00       	ld.w	r0,r12[0x0]
80007a6a:	c2 08       	rjmp	80007aaa <_vfprintf_r+0x2d2>
80007a6c:	fa cc f9 44 	sub	r12,sp,-1724
80007a70:	14 96       	mov	r6,r10
80007a72:	f8 03 00 38 	add	r8,r12,r3<<0x3
80007a76:	f0 f0 fd 88 	ld.w	r0,r8[-632]
80007a7a:	c1 88       	rjmp	80007aaa <_vfprintf_r+0x2d2>
80007a7c:	41 08       	lddsp	r8,sp[0x40]
80007a7e:	59 f9       	cp.w	r9,31
80007a80:	e0 89 00 11 	brgt	80007aa2 <_vfprintf_r+0x2ca>
80007a84:	f0 cb ff fc 	sub	r11,r8,-4
80007a88:	51 0b       	stdsp	sp[0x40],r11
80007a8a:	70 00       	ld.w	r0,r8[0x0]
80007a8c:	fa cb f9 44 	sub	r11,sp,-1724
80007a90:	f6 09 00 38 	add	r8,r11,r9<<0x3
80007a94:	f1 40 fd 88 	st.w	r8[-632],r0
80007a98:	2f f9       	sub	r9,-1
80007a9a:	14 96       	mov	r6,r10
80007a9c:	fb 49 06 b4 	st.w	sp[1716],r9
80007aa0:	c0 58       	rjmp	80007aaa <_vfprintf_r+0x2d2>
80007aa2:	70 00       	ld.w	r0,r8[0x0]
80007aa4:	14 96       	mov	r6,r10
80007aa6:	2f c8       	sub	r8,-4
80007aa8:	51 08       	stdsp	sp[0x40],r8
80007aaa:	58 00       	cp.w	r0,0
80007aac:	fe 94 ff 76 	brge	80007998 <_vfprintf_r+0x1c0>
80007ab0:	5c 30       	neg	r0
80007ab2:	a3 a5       	sbr	r5,0x2
80007ab4:	c7 2b       	rjmp	80007998 <_vfprintf_r+0x1c0>
80007ab6:	32 b8       	mov	r8,43
80007ab8:	fb 68 06 bb 	st.b	sp[1723],r8
80007abc:	c6 eb       	rjmp	80007998 <_vfprintf_r+0x1c0>
80007abe:	0f 38       	ld.ub	r8,r7++
80007ac0:	e0 48 00 2a 	cp.w	r8,42
80007ac4:	c0 30       	breq	80007aca <_vfprintf_r+0x2f2>
80007ac6:	30 09       	mov	r9,0
80007ac8:	c7 98       	rjmp	80007bba <_vfprintf_r+0x3e2>
80007aca:	0f 88       	ld.ub	r8,r7[0x0]
80007acc:	f0 c9 00 30 	sub	r9,r8,48
80007ad0:	58 99       	cp.w	r9,9
80007ad2:	e0 8b 00 1f 	brhi	80007b10 <_vfprintf_r+0x338>
80007ad6:	ee c4 ff ff 	sub	r4,r7,-1
80007ada:	30 0b       	mov	r11,0
80007adc:	23 08       	sub	r8,48
80007ade:	f6 0b 00 2b 	add	r11,r11,r11<<0x2
80007ae2:	f0 0b 00 1b 	add	r11,r8,r11<<0x1
80007ae6:	09 38       	ld.ub	r8,r4++
80007ae8:	f0 c9 00 30 	sub	r9,r8,48
80007aec:	58 99       	cp.w	r9,9
80007aee:	fe 98 ff f7 	brls	80007adc <_vfprintf_r+0x304>
80007af2:	e0 48 00 24 	cp.w	r8,36
80007af6:	fe 91 ff 4f 	brne	80007994 <_vfprintf_r+0x1bc>
80007afa:	e0 4b 00 20 	cp.w	r11,32
80007afe:	e0 89 0d eb 	brgt	800096d4 <_vfprintf_r+0x1efc>
80007b02:	20 1b       	sub	r11,1
80007b04:	fa f8 06 b4 	ld.w	r8,sp[1716]
80007b08:	10 3b       	cp.w	r11,r8
80007b0a:	c0 a5       	brlt	80007b1e <_vfprintf_r+0x346>
80007b0c:	c1 18       	rjmp	80007b2e <_vfprintf_r+0x356>
80007b0e:	d7 03       	nop
80007b10:	fa fa 06 b4 	ld.w	r10,sp[1716]
80007b14:	ec c9 ff ff 	sub	r9,r6,-1
80007b18:	14 36       	cp.w	r6,r10
80007b1a:	c1 f5       	brlt	80007b58 <_vfprintf_r+0x380>
80007b1c:	c2 88       	rjmp	80007b6c <_vfprintf_r+0x394>
80007b1e:	fa ca f9 44 	sub	r10,sp,-1724
80007b22:	f4 0b 00 3b 	add	r11,r10,r11<<0x3
80007b26:	f6 fb fd 88 	ld.w	r11,r11[-632]
80007b2a:	50 2b       	stdsp	sp[0x8],r11
80007b2c:	c3 c8       	rjmp	80007ba4 <_vfprintf_r+0x3cc>
80007b2e:	fa c8 f9 50 	sub	r8,sp,-1712
80007b32:	1a d8       	st.w	--sp,r8
80007b34:	fa c8 fa b8 	sub	r8,sp,-1352
80007b38:	1a d8       	st.w	--sp,r8
80007b3a:	fa c8 fb b4 	sub	r8,sp,-1100
80007b3e:	02 9a       	mov	r10,r1
80007b40:	1a d8       	st.w	--sp,r8
80007b42:	04 9c       	mov	r12,r2
80007b44:	fa c8 f9 40 	sub	r8,sp,-1728
80007b48:	fa c9 ff b4 	sub	r9,sp,-76
80007b4c:	fe b0 fc ae 	rcall	800074a8 <get_arg>
80007b50:	2f dd       	sub	sp,-12
80007b52:	78 0c       	ld.w	r12,r12[0x0]
80007b54:	50 2c       	stdsp	sp[0x8],r12
80007b56:	c2 78       	rjmp	80007ba4 <_vfprintf_r+0x3cc>
80007b58:	12 96       	mov	r6,r9
80007b5a:	0e 94       	mov	r4,r7
80007b5c:	fa c9 f9 44 	sub	r9,sp,-1724
80007b60:	f2 03 00 38 	add	r8,r9,r3<<0x3
80007b64:	f0 f8 fd 88 	ld.w	r8,r8[-632]
80007b68:	50 28       	stdsp	sp[0x8],r8
80007b6a:	c1 d8       	rjmp	80007ba4 <_vfprintf_r+0x3cc>
80007b6c:	41 08       	lddsp	r8,sp[0x40]
80007b6e:	59 fa       	cp.w	r10,31
80007b70:	e0 89 00 14 	brgt	80007b98 <_vfprintf_r+0x3c0>
80007b74:	f0 cb ff fc 	sub	r11,r8,-4
80007b78:	70 08       	ld.w	r8,r8[0x0]
80007b7a:	51 0b       	stdsp	sp[0x40],r11
80007b7c:	50 28       	stdsp	sp[0x8],r8
80007b7e:	fa c6 f9 44 	sub	r6,sp,-1724
80007b82:	40 2e       	lddsp	lr,sp[0x8]
80007b84:	ec 0a 00 38 	add	r8,r6,r10<<0x3
80007b88:	f1 4e fd 88 	st.w	r8[-632],lr
80007b8c:	2f fa       	sub	r10,-1
80007b8e:	0e 94       	mov	r4,r7
80007b90:	fb 4a 06 b4 	st.w	sp[1716],r10
80007b94:	12 96       	mov	r6,r9
80007b96:	c0 78       	rjmp	80007ba4 <_vfprintf_r+0x3cc>
80007b98:	70 0c       	ld.w	r12,r8[0x0]
80007b9a:	0e 94       	mov	r4,r7
80007b9c:	2f c8       	sub	r8,-4
80007b9e:	50 2c       	stdsp	sp[0x8],r12
80007ba0:	12 96       	mov	r6,r9
80007ba2:	51 08       	stdsp	sp[0x40],r8
80007ba4:	40 2b       	lddsp	r11,sp[0x8]
80007ba6:	58 0b       	cp.w	r11,0
80007ba8:	fe 95 fe f2 	brlt	8000798c <_vfprintf_r+0x1b4>
80007bac:	08 97       	mov	r7,r4
80007bae:	cf 5a       	rjmp	80007998 <_vfprintf_r+0x1c0>
80007bb0:	f2 09 00 29 	add	r9,r9,r9<<0x2
80007bb4:	0f 38       	ld.ub	r8,r7++
80007bb6:	f4 09 00 19 	add	r9,r10,r9<<0x1
80007bba:	f0 ca 00 30 	sub	r10,r8,48
80007bbe:	58 9a       	cp.w	r10,9
80007bc0:	fe 98 ff f8 	brls	80007bb0 <_vfprintf_r+0x3d8>
80007bc4:	3f fa       	mov	r10,-1
80007bc6:	f2 0a 0c 49 	max	r9,r9,r10
80007bca:	50 29       	stdsp	sp[0x8],r9
80007bcc:	ce 9a       	rjmp	8000799e <_vfprintf_r+0x1c6>
80007bce:	a7 b5       	sbr	r5,0x7
80007bd0:	ce 4a       	rjmp	80007998 <_vfprintf_r+0x1c0>
80007bd2:	30 09       	mov	r9,0
80007bd4:	23 08       	sub	r8,48
80007bd6:	f2 09 00 29 	add	r9,r9,r9<<0x2
80007bda:	f0 09 00 19 	add	r9,r8,r9<<0x1
80007bde:	0f 38       	ld.ub	r8,r7++
80007be0:	f0 ca 00 30 	sub	r10,r8,48
80007be4:	58 9a       	cp.w	r10,9
80007be6:	fe 98 ff f7 	brls	80007bd4 <_vfprintf_r+0x3fc>
80007bea:	e0 48 00 24 	cp.w	r8,36
80007bee:	fe 91 fe d7 	brne	8000799c <_vfprintf_r+0x1c4>
80007bf2:	e0 49 00 20 	cp.w	r9,32
80007bf6:	e0 89 0d 6f 	brgt	800096d4 <_vfprintf_r+0x1efc>
80007bfa:	f2 c3 00 01 	sub	r3,r9,1
80007bfe:	30 19       	mov	r9,1
80007c00:	50 39       	stdsp	sp[0xc],r9
80007c02:	cc ba       	rjmp	80007998 <_vfprintf_r+0x1c0>
80007c04:	a3 b5       	sbr	r5,0x3
80007c06:	cc 9a       	rjmp	80007998 <_vfprintf_r+0x1c0>
80007c08:	a7 a5       	sbr	r5,0x6
80007c0a:	cc 7a       	rjmp	80007998 <_vfprintf_r+0x1c0>
80007c0c:	0a 98       	mov	r8,r5
80007c0e:	a5 b5       	sbr	r5,0x5
80007c10:	a5 a8       	sbr	r8,0x4
80007c12:	0f 89       	ld.ub	r9,r7[0x0]
80007c14:	36 ce       	mov	lr,108
80007c16:	fc 09 18 00 	cp.b	r9,lr
80007c1a:	f7 b7 00 ff 	subeq	r7,-1
80007c1e:	f0 05 17 10 	movne	r5,r8
80007c22:	cb ba       	rjmp	80007998 <_vfprintf_r+0x1c0>
80007c24:	a5 b5       	sbr	r5,0x5
80007c26:	cb 9a       	rjmp	80007998 <_vfprintf_r+0x1c0>
80007c28:	50 a7       	stdsp	sp[0x28],r7
80007c2a:	50 80       	stdsp	sp[0x20],r0
80007c2c:	0c 97       	mov	r7,r6
80007c2e:	10 90       	mov	r0,r8
80007c30:	06 96       	mov	r6,r3
80007c32:	04 94       	mov	r4,r2
80007c34:	40 93       	lddsp	r3,sp[0x24]
80007c36:	02 92       	mov	r2,r1
80007c38:	0e 99       	mov	r9,r7
80007c3a:	40 41       	lddsp	r1,sp[0x10]
80007c3c:	fa f8 06 b4 	ld.w	r8,sp[1716]
80007c40:	40 3c       	lddsp	r12,sp[0xc]
80007c42:	58 0c       	cp.w	r12,0
80007c44:	c1 d0       	breq	80007c7e <_vfprintf_r+0x4a6>
80007c46:	10 36       	cp.w	r6,r8
80007c48:	c0 64       	brge	80007c54 <_vfprintf_r+0x47c>
80007c4a:	fa cb f9 44 	sub	r11,sp,-1724
80007c4e:	f6 06 00 36 	add	r6,r11,r6<<0x3
80007c52:	c1 d8       	rjmp	80007c8c <_vfprintf_r+0x4b4>
80007c54:	fa c8 f9 50 	sub	r8,sp,-1712
80007c58:	1a d8       	st.w	--sp,r8
80007c5a:	fa c8 fa b8 	sub	r8,sp,-1352
80007c5e:	1a d8       	st.w	--sp,r8
80007c60:	fa c8 fb b4 	sub	r8,sp,-1100
80007c64:	1a d8       	st.w	--sp,r8
80007c66:	fa c8 f9 40 	sub	r8,sp,-1728
80007c6a:	fa c9 ff b4 	sub	r9,sp,-76
80007c6e:	04 9a       	mov	r10,r2
80007c70:	0c 9b       	mov	r11,r6
80007c72:	08 9c       	mov	r12,r4
80007c74:	fe b0 fc 1a 	rcall	800074a8 <get_arg>
80007c78:	2f dd       	sub	sp,-12
80007c7a:	19 b8       	ld.ub	r8,r12[0x3]
80007c7c:	c2 28       	rjmp	80007cc0 <_vfprintf_r+0x4e8>
80007c7e:	2f f7       	sub	r7,-1
80007c80:	10 39       	cp.w	r9,r8
80007c82:	c0 84       	brge	80007c92 <_vfprintf_r+0x4ba>
80007c84:	fa ca f9 44 	sub	r10,sp,-1724
80007c88:	f4 06 00 36 	add	r6,r10,r6<<0x3
80007c8c:	ed 38 fd 8b 	ld.ub	r8,r6[-629]
80007c90:	c1 88       	rjmp	80007cc0 <_vfprintf_r+0x4e8>
80007c92:	41 09       	lddsp	r9,sp[0x40]
80007c94:	59 f8       	cp.w	r8,31
80007c96:	e0 89 00 12 	brgt	80007cba <_vfprintf_r+0x4e2>
80007c9a:	f2 ca ff fc 	sub	r10,r9,-4
80007c9e:	51 0a       	stdsp	sp[0x40],r10
80007ca0:	72 09       	ld.w	r9,r9[0x0]
80007ca2:	fa c6 f9 44 	sub	r6,sp,-1724
80007ca6:	ec 08 00 3a 	add	r10,r6,r8<<0x3
80007caa:	2f f8       	sub	r8,-1
80007cac:	f5 49 fd 88 	st.w	r10[-632],r9
80007cb0:	fb 48 06 b4 	st.w	sp[1716],r8
80007cb4:	f1 d9 c0 08 	bfextu	r8,r9,0x0,0x8
80007cb8:	c0 48       	rjmp	80007cc0 <_vfprintf_r+0x4e8>
80007cba:	13 b8       	ld.ub	r8,r9[0x3]
80007cbc:	2f c9       	sub	r9,-4
80007cbe:	51 09       	stdsp	sp[0x40],r9
80007cc0:	fb 68 06 60 	st.b	sp[1632],r8
80007cc4:	30 0e       	mov	lr,0
80007cc6:	30 08       	mov	r8,0
80007cc8:	30 12       	mov	r2,1
80007cca:	fb 68 06 bb 	st.b	sp[1723],r8
80007cce:	50 2e       	stdsp	sp[0x8],lr
80007cd0:	e0 8f 08 ad 	bral	80008e2a <_vfprintf_r+0x1652>
80007cd4:	50 a7       	stdsp	sp[0x28],r7
80007cd6:	50 80       	stdsp	sp[0x20],r0
80007cd8:	0c 97       	mov	r7,r6
80007cda:	04 94       	mov	r4,r2
80007cdc:	06 96       	mov	r6,r3
80007cde:	02 92       	mov	r2,r1
80007ce0:	40 93       	lddsp	r3,sp[0x24]
80007ce2:	10 90       	mov	r0,r8
80007ce4:	40 41       	lddsp	r1,sp[0x10]
80007ce6:	a5 a5       	sbr	r5,0x4
80007ce8:	c0 a8       	rjmp	80007cfc <_vfprintf_r+0x524>
80007cea:	50 a7       	stdsp	sp[0x28],r7
80007cec:	50 80       	stdsp	sp[0x20],r0
80007cee:	0c 97       	mov	r7,r6
80007cf0:	04 94       	mov	r4,r2
80007cf2:	06 96       	mov	r6,r3
80007cf4:	02 92       	mov	r2,r1
80007cf6:	40 93       	lddsp	r3,sp[0x24]
80007cf8:	10 90       	mov	r0,r8
80007cfa:	40 41       	lddsp	r1,sp[0x10]
80007cfc:	ed b5 00 05 	bld	r5,0x5
80007d00:	c5 11       	brne	80007da2 <_vfprintf_r+0x5ca>
80007d02:	fa f8 06 b4 	ld.w	r8,sp[1716]
80007d06:	40 3c       	lddsp	r12,sp[0xc]
80007d08:	58 0c       	cp.w	r12,0
80007d0a:	c1 e0       	breq	80007d46 <_vfprintf_r+0x56e>
80007d0c:	10 36       	cp.w	r6,r8
80007d0e:	c0 64       	brge	80007d1a <_vfprintf_r+0x542>
80007d10:	fa cb f9 44 	sub	r11,sp,-1724
80007d14:	f6 06 00 36 	add	r6,r11,r6<<0x3
80007d18:	c2 08       	rjmp	80007d58 <_vfprintf_r+0x580>
80007d1a:	fa c8 f9 50 	sub	r8,sp,-1712
80007d1e:	1a d8       	st.w	--sp,r8
80007d20:	fa c8 fa b8 	sub	r8,sp,-1352
80007d24:	0c 9b       	mov	r11,r6
80007d26:	1a d8       	st.w	--sp,r8
80007d28:	fa c8 fb b4 	sub	r8,sp,-1100
80007d2c:	1a d8       	st.w	--sp,r8
80007d2e:	fa c9 ff b4 	sub	r9,sp,-76
80007d32:	fa c8 f9 40 	sub	r8,sp,-1728
80007d36:	04 9a       	mov	r10,r2
80007d38:	08 9c       	mov	r12,r4
80007d3a:	fe b0 fb b7 	rcall	800074a8 <get_arg>
80007d3e:	2f dd       	sub	sp,-12
80007d40:	78 1b       	ld.w	r11,r12[0x4]
80007d42:	78 09       	ld.w	r9,r12[0x0]
80007d44:	c2 b8       	rjmp	80007d9a <_vfprintf_r+0x5c2>
80007d46:	ee ca ff ff 	sub	r10,r7,-1
80007d4a:	10 37       	cp.w	r7,r8
80007d4c:	c0 b4       	brge	80007d62 <_vfprintf_r+0x58a>
80007d4e:	fa c9 f9 44 	sub	r9,sp,-1724
80007d52:	14 97       	mov	r7,r10
80007d54:	f2 06 00 36 	add	r6,r9,r6<<0x3
80007d58:	ec fb fd 8c 	ld.w	r11,r6[-628]
80007d5c:	ec f9 fd 88 	ld.w	r9,r6[-632]
80007d60:	c1 d8       	rjmp	80007d9a <_vfprintf_r+0x5c2>
80007d62:	41 09       	lddsp	r9,sp[0x40]
80007d64:	59 f8       	cp.w	r8,31
80007d66:	e0 89 00 14 	brgt	80007d8e <_vfprintf_r+0x5b6>
80007d6a:	f2 cb ff f8 	sub	r11,r9,-8
80007d6e:	51 0b       	stdsp	sp[0x40],r11
80007d70:	fa c6 f9 44 	sub	r6,sp,-1724
80007d74:	72 1b       	ld.w	r11,r9[0x4]
80007d76:	ec 08 00 3c 	add	r12,r6,r8<<0x3
80007d7a:	72 09       	ld.w	r9,r9[0x0]
80007d7c:	f9 4b fd 8c 	st.w	r12[-628],r11
80007d80:	f9 49 fd 88 	st.w	r12[-632],r9
80007d84:	2f f8       	sub	r8,-1
80007d86:	14 97       	mov	r7,r10
80007d88:	fb 48 06 b4 	st.w	sp[1716],r8
80007d8c:	c0 78       	rjmp	80007d9a <_vfprintf_r+0x5c2>
80007d8e:	f2 c8 ff f8 	sub	r8,r9,-8
80007d92:	72 1b       	ld.w	r11,r9[0x4]
80007d94:	14 97       	mov	r7,r10
80007d96:	51 08       	stdsp	sp[0x40],r8
80007d98:	72 09       	ld.w	r9,r9[0x0]
80007d9a:	16 98       	mov	r8,r11
80007d9c:	fa e9 00 00 	st.d	sp[0],r8
80007da0:	ca e8       	rjmp	80007efc <_vfprintf_r+0x724>
80007da2:	ed b5 00 04 	bld	r5,0x4
80007da6:	c1 71       	brne	80007dd4 <_vfprintf_r+0x5fc>
80007da8:	fa f8 06 b4 	ld.w	r8,sp[1716]
80007dac:	40 3e       	lddsp	lr,sp[0xc]
80007dae:	58 0e       	cp.w	lr,0
80007db0:	c0 80       	breq	80007dc0 <_vfprintf_r+0x5e8>
80007db2:	10 36       	cp.w	r6,r8
80007db4:	c6 94       	brge	80007e86 <_vfprintf_r+0x6ae>
80007db6:	fa cc f9 44 	sub	r12,sp,-1724
80007dba:	f8 06 00 36 	add	r6,r12,r6<<0x3
80007dbe:	c8 28       	rjmp	80007ec2 <_vfprintf_r+0x6ea>
80007dc0:	ee ca ff ff 	sub	r10,r7,-1
80007dc4:	10 37       	cp.w	r7,r8
80007dc6:	e0 84 00 81 	brge	80007ec8 <_vfprintf_r+0x6f0>
80007dca:	fa cb f9 44 	sub	r11,sp,-1724
80007dce:	f6 06 00 36 	add	r6,r11,r6<<0x3
80007dd2:	c7 78       	rjmp	80007ec0 <_vfprintf_r+0x6e8>
80007dd4:	ed b5 00 06 	bld	r5,0x6
80007dd8:	c4 b1       	brne	80007e6e <_vfprintf_r+0x696>
80007dda:	fa f8 06 b4 	ld.w	r8,sp[1716]
80007dde:	40 3c       	lddsp	r12,sp[0xc]
80007de0:	58 0c       	cp.w	r12,0
80007de2:	c1 d0       	breq	80007e1c <_vfprintf_r+0x644>
80007de4:	10 36       	cp.w	r6,r8
80007de6:	c0 64       	brge	80007df2 <_vfprintf_r+0x61a>
80007de8:	fa cb f9 44 	sub	r11,sp,-1724
80007dec:	f6 06 00 36 	add	r6,r11,r6<<0x3
80007df0:	c1 f8       	rjmp	80007e2e <_vfprintf_r+0x656>
80007df2:	fa c8 f9 50 	sub	r8,sp,-1712
80007df6:	1a d8       	st.w	--sp,r8
80007df8:	fa c8 fa b8 	sub	r8,sp,-1352
80007dfc:	1a d8       	st.w	--sp,r8
80007dfe:	fa c8 fb b4 	sub	r8,sp,-1100
80007e02:	1a d8       	st.w	--sp,r8
80007e04:	fa c8 f9 40 	sub	r8,sp,-1728
80007e08:	fa c9 ff b4 	sub	r9,sp,-76
80007e0c:	04 9a       	mov	r10,r2
80007e0e:	0c 9b       	mov	r11,r6
80007e10:	08 9c       	mov	r12,r4
80007e12:	fe b0 fb 4b 	rcall	800074a8 <get_arg>
80007e16:	2f dd       	sub	sp,-12
80007e18:	98 18       	ld.sh	r8,r12[0x2]
80007e1a:	c2 68       	rjmp	80007e66 <_vfprintf_r+0x68e>
80007e1c:	ee ca ff ff 	sub	r10,r7,-1
80007e20:	10 37       	cp.w	r7,r8
80007e22:	c0 94       	brge	80007e34 <_vfprintf_r+0x65c>
80007e24:	fa c9 f9 44 	sub	r9,sp,-1724
80007e28:	14 97       	mov	r7,r10
80007e2a:	f2 06 00 36 	add	r6,r9,r6<<0x3
80007e2e:	ed 08 fd 8a 	ld.sh	r8,r6[-630]
80007e32:	c1 a8       	rjmp	80007e66 <_vfprintf_r+0x68e>
80007e34:	41 09       	lddsp	r9,sp[0x40]
80007e36:	59 f8       	cp.w	r8,31
80007e38:	e0 89 00 13 	brgt	80007e5e <_vfprintf_r+0x686>
80007e3c:	f2 cb ff fc 	sub	r11,r9,-4
80007e40:	51 0b       	stdsp	sp[0x40],r11
80007e42:	72 09       	ld.w	r9,r9[0x0]
80007e44:	fa c6 f9 44 	sub	r6,sp,-1724
80007e48:	ec 08 00 3b 	add	r11,r6,r8<<0x3
80007e4c:	2f f8       	sub	r8,-1
80007e4e:	f7 49 fd 88 	st.w	r11[-632],r9
80007e52:	fb 48 06 b4 	st.w	sp[1716],r8
80007e56:	14 97       	mov	r7,r10
80007e58:	f1 d9 b0 10 	bfexts	r8,r9,0x0,0x10
80007e5c:	c0 58       	rjmp	80007e66 <_vfprintf_r+0x68e>
80007e5e:	92 18       	ld.sh	r8,r9[0x2]
80007e60:	14 97       	mov	r7,r10
80007e62:	2f c9       	sub	r9,-4
80007e64:	51 09       	stdsp	sp[0x40],r9
80007e66:	50 18       	stdsp	sp[0x4],r8
80007e68:	bf 58       	asr	r8,0x1f
80007e6a:	50 08       	stdsp	sp[0x0],r8
80007e6c:	c4 88       	rjmp	80007efc <_vfprintf_r+0x724>
80007e6e:	fa f8 06 b4 	ld.w	r8,sp[1716]
80007e72:	40 3c       	lddsp	r12,sp[0xc]
80007e74:	58 0c       	cp.w	r12,0
80007e76:	c1 d0       	breq	80007eb0 <_vfprintf_r+0x6d8>
80007e78:	10 36       	cp.w	r6,r8
80007e7a:	c0 64       	brge	80007e86 <_vfprintf_r+0x6ae>
80007e7c:	fa cb f9 44 	sub	r11,sp,-1724
80007e80:	f6 06 00 36 	add	r6,r11,r6<<0x3
80007e84:	c1 f8       	rjmp	80007ec2 <_vfprintf_r+0x6ea>
80007e86:	fa c8 f9 50 	sub	r8,sp,-1712
80007e8a:	1a d8       	st.w	--sp,r8
80007e8c:	fa c8 fa b8 	sub	r8,sp,-1352
80007e90:	0c 9b       	mov	r11,r6
80007e92:	1a d8       	st.w	--sp,r8
80007e94:	fa c8 fb b4 	sub	r8,sp,-1100
80007e98:	04 9a       	mov	r10,r2
80007e9a:	1a d8       	st.w	--sp,r8
80007e9c:	08 9c       	mov	r12,r4
80007e9e:	fa c8 f9 40 	sub	r8,sp,-1728
80007ea2:	fa c9 ff b4 	sub	r9,sp,-76
80007ea6:	fe b0 fb 01 	rcall	800074a8 <get_arg>
80007eaa:	2f dd       	sub	sp,-12
80007eac:	78 0b       	ld.w	r11,r12[0x0]
80007eae:	c2 48       	rjmp	80007ef6 <_vfprintf_r+0x71e>
80007eb0:	ee ca ff ff 	sub	r10,r7,-1
80007eb4:	10 37       	cp.w	r7,r8
80007eb6:	c0 94       	brge	80007ec8 <_vfprintf_r+0x6f0>
80007eb8:	fa c9 f9 44 	sub	r9,sp,-1724
80007ebc:	f2 06 00 36 	add	r6,r9,r6<<0x3
80007ec0:	14 97       	mov	r7,r10
80007ec2:	ec fb fd 88 	ld.w	r11,r6[-632]
80007ec6:	c1 88       	rjmp	80007ef6 <_vfprintf_r+0x71e>
80007ec8:	41 09       	lddsp	r9,sp[0x40]
80007eca:	59 f8       	cp.w	r8,31
80007ecc:	e0 89 00 11 	brgt	80007eee <_vfprintf_r+0x716>
80007ed0:	f2 cb ff fc 	sub	r11,r9,-4
80007ed4:	51 0b       	stdsp	sp[0x40],r11
80007ed6:	fa c6 f9 44 	sub	r6,sp,-1724
80007eda:	72 0b       	ld.w	r11,r9[0x0]
80007edc:	ec 08 00 39 	add	r9,r6,r8<<0x3
80007ee0:	f3 4b fd 88 	st.w	r9[-632],r11
80007ee4:	2f f8       	sub	r8,-1
80007ee6:	14 97       	mov	r7,r10
80007ee8:	fb 48 06 b4 	st.w	sp[1716],r8
80007eec:	c0 58       	rjmp	80007ef6 <_vfprintf_r+0x71e>
80007eee:	72 0b       	ld.w	r11,r9[0x0]
80007ef0:	14 97       	mov	r7,r10
80007ef2:	2f c9       	sub	r9,-4
80007ef4:	51 09       	stdsp	sp[0x40],r9
80007ef6:	50 1b       	stdsp	sp[0x4],r11
80007ef8:	bf 5b       	asr	r11,0x1f
80007efa:	50 0b       	stdsp	sp[0x0],r11
80007efc:	fa ea 00 00 	ld.d	r10,sp[0]
80007f00:	58 0a       	cp.w	r10,0
80007f02:	5c 2b       	cpc	r11
80007f04:	c0 e4       	brge	80007f20 <_vfprintf_r+0x748>
80007f06:	30 08       	mov	r8,0
80007f08:	fa ea 00 00 	ld.d	r10,sp[0]
80007f0c:	30 09       	mov	r9,0
80007f0e:	f0 0a 01 0a 	sub	r10,r8,r10
80007f12:	f2 0b 01 4b 	sbc	r11,r9,r11
80007f16:	32 d8       	mov	r8,45
80007f18:	fa eb 00 00 	st.d	sp[0],r10
80007f1c:	fb 68 06 bb 	st.b	sp[1723],r8
80007f20:	30 18       	mov	r8,1
80007f22:	e0 8f 06 fa 	bral	80008d16 <_vfprintf_r+0x153e>
80007f26:	50 a7       	stdsp	sp[0x28],r7
80007f28:	50 80       	stdsp	sp[0x20],r0
80007f2a:	0c 97       	mov	r7,r6
80007f2c:	04 94       	mov	r4,r2
80007f2e:	06 96       	mov	r6,r3
80007f30:	02 92       	mov	r2,r1
80007f32:	40 93       	lddsp	r3,sp[0x24]
80007f34:	10 90       	mov	r0,r8
80007f36:	40 41       	lddsp	r1,sp[0x10]
80007f38:	0e 99       	mov	r9,r7
80007f3a:	ed b5 00 03 	bld	r5,0x3
80007f3e:	c4 11       	brne	80007fc0 <_vfprintf_r+0x7e8>
80007f40:	fa f8 06 b4 	ld.w	r8,sp[1716]
80007f44:	40 3a       	lddsp	r10,sp[0xc]
80007f46:	58 0a       	cp.w	r10,0
80007f48:	c1 90       	breq	80007f7a <_vfprintf_r+0x7a2>
80007f4a:	10 36       	cp.w	r6,r8
80007f4c:	c6 45       	brlt	80008014 <_vfprintf_r+0x83c>
80007f4e:	fa c8 f9 50 	sub	r8,sp,-1712
80007f52:	1a d8       	st.w	--sp,r8
80007f54:	fa c8 fa b8 	sub	r8,sp,-1352
80007f58:	1a d8       	st.w	--sp,r8
80007f5a:	fa c8 fb b4 	sub	r8,sp,-1100
80007f5e:	0c 9b       	mov	r11,r6
80007f60:	1a d8       	st.w	--sp,r8
80007f62:	04 9a       	mov	r10,r2
80007f64:	fa c8 f9 40 	sub	r8,sp,-1728
80007f68:	fa c9 ff b4 	sub	r9,sp,-76
80007f6c:	08 9c       	mov	r12,r4
80007f6e:	fe b0 fa 9d 	rcall	800074a8 <get_arg>
80007f72:	2f dd       	sub	sp,-12
80007f74:	78 16       	ld.w	r6,r12[0x4]
80007f76:	50 76       	stdsp	sp[0x1c],r6
80007f78:	c4 88       	rjmp	80008008 <_vfprintf_r+0x830>
80007f7a:	2f f7       	sub	r7,-1
80007f7c:	10 39       	cp.w	r9,r8
80007f7e:	c0 c4       	brge	80007f96 <_vfprintf_r+0x7be>
80007f80:	fa ce f9 44 	sub	lr,sp,-1724
80007f84:	fc 06 00 36 	add	r6,lr,r6<<0x3
80007f88:	ec fc fd 8c 	ld.w	r12,r6[-628]
80007f8c:	50 7c       	stdsp	sp[0x1c],r12
80007f8e:	ec f6 fd 88 	ld.w	r6,r6[-632]
80007f92:	50 56       	stdsp	sp[0x14],r6
80007f94:	c6 68       	rjmp	80008060 <_vfprintf_r+0x888>
80007f96:	41 09       	lddsp	r9,sp[0x40]
80007f98:	59 f8       	cp.w	r8,31
80007f9a:	e0 89 00 10 	brgt	80007fba <_vfprintf_r+0x7e2>
80007f9e:	f2 ca ff f8 	sub	r10,r9,-8
80007fa2:	72 1b       	ld.w	r11,r9[0x4]
80007fa4:	51 0a       	stdsp	sp[0x40],r10
80007fa6:	72 09       	ld.w	r9,r9[0x0]
80007fa8:	fa ca f9 44 	sub	r10,sp,-1724
80007fac:	50 7b       	stdsp	sp[0x1c],r11
80007fae:	50 59       	stdsp	sp[0x14],r9
80007fb0:	f4 08 00 39 	add	r9,r10,r8<<0x3
80007fb4:	40 5b       	lddsp	r11,sp[0x14]
80007fb6:	40 7a       	lddsp	r10,sp[0x1c]
80007fb8:	c4 78       	rjmp	80008046 <_vfprintf_r+0x86e>
80007fba:	72 18       	ld.w	r8,r9[0x4]
80007fbc:	50 78       	stdsp	sp[0x1c],r8
80007fbe:	c4 c8       	rjmp	80008056 <_vfprintf_r+0x87e>
80007fc0:	fa f8 06 b4 	ld.w	r8,sp[1716]
80007fc4:	40 3e       	lddsp	lr,sp[0xc]
80007fc6:	58 0e       	cp.w	lr,0
80007fc8:	c2 30       	breq	8000800e <_vfprintf_r+0x836>
80007fca:	10 36       	cp.w	r6,r8
80007fcc:	c0 94       	brge	80007fde <_vfprintf_r+0x806>
80007fce:	fa cc f9 44 	sub	r12,sp,-1724
80007fd2:	f8 06 00 36 	add	r6,r12,r6<<0x3
80007fd6:	ec fb fd 8c 	ld.w	r11,r6[-628]
80007fda:	50 7b       	stdsp	sp[0x1c],r11
80007fdc:	cd 9b       	rjmp	80007f8e <_vfprintf_r+0x7b6>
80007fde:	fa c8 f9 50 	sub	r8,sp,-1712
80007fe2:	1a d8       	st.w	--sp,r8
80007fe4:	fa c8 fa b8 	sub	r8,sp,-1352
80007fe8:	04 9a       	mov	r10,r2
80007fea:	1a d8       	st.w	--sp,r8
80007fec:	fa c8 fb b4 	sub	r8,sp,-1100
80007ff0:	0c 9b       	mov	r11,r6
80007ff2:	1a d8       	st.w	--sp,r8
80007ff4:	08 9c       	mov	r12,r4
80007ff6:	fa c8 f9 40 	sub	r8,sp,-1728
80007ffa:	fa c9 ff b4 	sub	r9,sp,-76
80007ffe:	fe b0 fa 55 	rcall	800074a8 <get_arg>
80008002:	2f dd       	sub	sp,-12
80008004:	78 1a       	ld.w	r10,r12[0x4]
80008006:	50 7a       	stdsp	sp[0x1c],r10
80008008:	78 0c       	ld.w	r12,r12[0x0]
8000800a:	50 5c       	stdsp	sp[0x14],r12
8000800c:	c2 a8       	rjmp	80008060 <_vfprintf_r+0x888>
8000800e:	2f f7       	sub	r7,-1
80008010:	10 39       	cp.w	r9,r8
80008012:	c0 94       	brge	80008024 <_vfprintf_r+0x84c>
80008014:	fa c9 f9 44 	sub	r9,sp,-1724
80008018:	f2 06 00 36 	add	r6,r9,r6<<0x3
8000801c:	ec f8 fd 8c 	ld.w	r8,r6[-628]
80008020:	50 78       	stdsp	sp[0x1c],r8
80008022:	cb 6b       	rjmp	80007f8e <_vfprintf_r+0x7b6>
80008024:	41 09       	lddsp	r9,sp[0x40]
80008026:	59 f8       	cp.w	r8,31
80008028:	e0 89 00 15 	brgt	80008052 <_vfprintf_r+0x87a>
8000802c:	f2 ca ff f8 	sub	r10,r9,-8
80008030:	72 16       	ld.w	r6,r9[0x4]
80008032:	72 09       	ld.w	r9,r9[0x0]
80008034:	51 0a       	stdsp	sp[0x40],r10
80008036:	50 59       	stdsp	sp[0x14],r9
80008038:	fa ce f9 44 	sub	lr,sp,-1724
8000803c:	50 76       	stdsp	sp[0x1c],r6
8000803e:	fc 08 00 39 	add	r9,lr,r8<<0x3
80008042:	40 5b       	lddsp	r11,sp[0x14]
80008044:	0c 9a       	mov	r10,r6
80008046:	f2 eb fd 88 	st.d	r9[-632],r10
8000804a:	2f f8       	sub	r8,-1
8000804c:	fb 48 06 b4 	st.w	sp[1716],r8
80008050:	c0 88       	rjmp	80008060 <_vfprintf_r+0x888>
80008052:	72 1c       	ld.w	r12,r9[0x4]
80008054:	50 7c       	stdsp	sp[0x1c],r12
80008056:	f2 c8 ff f8 	sub	r8,r9,-8
8000805a:	51 08       	stdsp	sp[0x40],r8
8000805c:	72 09       	ld.w	r9,r9[0x0]
8000805e:	50 59       	stdsp	sp[0x14],r9
80008060:	40 5b       	lddsp	r11,sp[0x14]
80008062:	40 7a       	lddsp	r10,sp[0x1c]
80008064:	e0 a0 18 0c 	rcall	8000b07c <__isinfd>
80008068:	18 96       	mov	r6,r12
8000806a:	c1 70       	breq	80008098 <_vfprintf_r+0x8c0>
8000806c:	30 08       	mov	r8,0
8000806e:	30 09       	mov	r9,0
80008070:	40 5b       	lddsp	r11,sp[0x14]
80008072:	40 7a       	lddsp	r10,sp[0x1c]
80008074:	e0 a0 1b 82 	rcall	8000b778 <__avr32_f64_cmp_lt>
80008078:	c0 40       	breq	80008080 <_vfprintf_r+0x8a8>
8000807a:	32 d8       	mov	r8,45
8000807c:	fb 68 06 bb 	st.b	sp[1723],r8
80008080:	fe c8 bc 5c 	sub	r8,pc,-17316
80008084:	fe c6 bc 5c 	sub	r6,pc,-17316
80008088:	a7 d5       	cbr	r5,0x7
8000808a:	e0 40 00 47 	cp.w	r0,71
8000808e:	f0 06 17 a0 	movle	r6,r8
80008092:	30 32       	mov	r2,3
80008094:	e0 8f 06 ce 	bral	80008e30 <_vfprintf_r+0x1658>
80008098:	40 5b       	lddsp	r11,sp[0x14]
8000809a:	40 7a       	lddsp	r10,sp[0x1c]
8000809c:	e0 a0 18 05 	rcall	8000b0a6 <__isnand>
800080a0:	c0 e0       	breq	800080bc <_vfprintf_r+0x8e4>
800080a2:	50 26       	stdsp	sp[0x8],r6
800080a4:	fe c8 bc 78 	sub	r8,pc,-17288
800080a8:	fe c6 bc 78 	sub	r6,pc,-17288
800080ac:	a7 d5       	cbr	r5,0x7
800080ae:	e0 40 00 47 	cp.w	r0,71
800080b2:	f0 06 17 a0 	movle	r6,r8
800080b6:	30 32       	mov	r2,3
800080b8:	e0 8f 06 c2 	bral	80008e3c <_vfprintf_r+0x1664>
800080bc:	40 2a       	lddsp	r10,sp[0x8]
800080be:	5b fa       	cp.w	r10,-1
800080c0:	c0 41       	brne	800080c8 <_vfprintf_r+0x8f0>
800080c2:	30 69       	mov	r9,6
800080c4:	50 29       	stdsp	sp[0x8],r9
800080c6:	c1 18       	rjmp	800080e8 <_vfprintf_r+0x910>
800080c8:	e0 40 00 47 	cp.w	r0,71
800080cc:	5f 09       	sreq	r9
800080ce:	e0 40 00 67 	cp.w	r0,103
800080d2:	5f 08       	sreq	r8
800080d4:	f3 e8 10 08 	or	r8,r9,r8
800080d8:	f8 08 18 00 	cp.b	r8,r12
800080dc:	c0 60       	breq	800080e8 <_vfprintf_r+0x910>
800080de:	40 28       	lddsp	r8,sp[0x8]
800080e0:	58 08       	cp.w	r8,0
800080e2:	f9 b8 00 01 	moveq	r8,1
800080e6:	50 28       	stdsp	sp[0x8],r8
800080e8:	40 78       	lddsp	r8,sp[0x1c]
800080ea:	40 59       	lddsp	r9,sp[0x14]
800080ec:	fa e9 06 94 	st.d	sp[1684],r8
800080f0:	a9 a5       	sbr	r5,0x8
800080f2:	fa f8 06 94 	ld.w	r8,sp[1684]
800080f6:	58 08       	cp.w	r8,0
800080f8:	c0 65       	brlt	80008104 <_vfprintf_r+0x92c>
800080fa:	40 5e       	lddsp	lr,sp[0x14]
800080fc:	30 0c       	mov	r12,0
800080fe:	50 6e       	stdsp	sp[0x18],lr
80008100:	50 9c       	stdsp	sp[0x24],r12
80008102:	c0 78       	rjmp	80008110 <_vfprintf_r+0x938>
80008104:	40 5b       	lddsp	r11,sp[0x14]
80008106:	32 da       	mov	r10,45
80008108:	ee 1b 80 00 	eorh	r11,0x8000
8000810c:	50 9a       	stdsp	sp[0x24],r10
8000810e:	50 6b       	stdsp	sp[0x18],r11
80008110:	e0 40 00 46 	cp.w	r0,70
80008114:	5f 09       	sreq	r9
80008116:	e0 40 00 66 	cp.w	r0,102
8000811a:	5f 08       	sreq	r8
8000811c:	f3 e8 10 08 	or	r8,r9,r8
80008120:	50 48       	stdsp	sp[0x10],r8
80008122:	c0 40       	breq	8000812a <_vfprintf_r+0x952>
80008124:	40 22       	lddsp	r2,sp[0x8]
80008126:	30 39       	mov	r9,3
80008128:	c1 08       	rjmp	80008148 <_vfprintf_r+0x970>
8000812a:	e0 40 00 45 	cp.w	r0,69
8000812e:	5f 09       	sreq	r9
80008130:	e0 40 00 65 	cp.w	r0,101
80008134:	5f 08       	sreq	r8
80008136:	40 22       	lddsp	r2,sp[0x8]
80008138:	10 49       	or	r9,r8
8000813a:	2f f2       	sub	r2,-1
8000813c:	40 46       	lddsp	r6,sp[0x10]
8000813e:	ec 09 18 00 	cp.b	r9,r6
80008142:	fb f2 00 02 	ld.weq	r2,sp[0x8]
80008146:	30 29       	mov	r9,2
80008148:	fa c8 f9 5c 	sub	r8,sp,-1700
8000814c:	1a d8       	st.w	--sp,r8
8000814e:	fa c8 f9 54 	sub	r8,sp,-1708
80008152:	1a d8       	st.w	--sp,r8
80008154:	fa c8 f9 4c 	sub	r8,sp,-1716
80008158:	08 9c       	mov	r12,r4
8000815a:	1a d8       	st.w	--sp,r8
8000815c:	04 98       	mov	r8,r2
8000815e:	40 9b       	lddsp	r11,sp[0x24]
80008160:	40 aa       	lddsp	r10,sp[0x28]
80008162:	e0 a0 0b e7 	rcall	80009930 <_dtoa_r>
80008166:	e0 40 00 47 	cp.w	r0,71
8000816a:	5f 19       	srne	r9
8000816c:	e0 40 00 67 	cp.w	r0,103
80008170:	5f 18       	srne	r8
80008172:	18 96       	mov	r6,r12
80008174:	2f dd       	sub	sp,-12
80008176:	f3 e8 00 08 	and	r8,r9,r8
8000817a:	c0 41       	brne	80008182 <_vfprintf_r+0x9aa>
8000817c:	ed b5 00 00 	bld	r5,0x0
80008180:	c3 01       	brne	800081e0 <_vfprintf_r+0xa08>
80008182:	ec 02 00 0e 	add	lr,r6,r2
80008186:	50 3e       	stdsp	sp[0xc],lr
80008188:	40 4c       	lddsp	r12,sp[0x10]
8000818a:	58 0c       	cp.w	r12,0
8000818c:	c1 50       	breq	800081b6 <_vfprintf_r+0x9de>
8000818e:	0d 89       	ld.ub	r9,r6[0x0]
80008190:	33 08       	mov	r8,48
80008192:	f0 09 18 00 	cp.b	r9,r8
80008196:	c0 b1       	brne	800081ac <_vfprintf_r+0x9d4>
80008198:	30 08       	mov	r8,0
8000819a:	30 09       	mov	r9,0
8000819c:	40 6b       	lddsp	r11,sp[0x18]
8000819e:	40 7a       	lddsp	r10,sp[0x1c]
800081a0:	e0 a0 1a a5 	rcall	8000b6ea <__avr32_f64_cmp_eq>
800081a4:	fb b2 00 01 	rsubeq	r2,1
800081a8:	fb f2 0b ab 	st.weq	sp[0x6ac],r2
800081ac:	40 3b       	lddsp	r11,sp[0xc]
800081ae:	fa f8 06 ac 	ld.w	r8,sp[1708]
800081b2:	10 0b       	add	r11,r8
800081b4:	50 3b       	stdsp	sp[0xc],r11
800081b6:	40 6b       	lddsp	r11,sp[0x18]
800081b8:	30 08       	mov	r8,0
800081ba:	30 09       	mov	r9,0
800081bc:	40 7a       	lddsp	r10,sp[0x1c]
800081be:	e0 a0 1a 96 	rcall	8000b6ea <__avr32_f64_cmp_eq>
800081c2:	c0 90       	breq	800081d4 <_vfprintf_r+0x9fc>
800081c4:	40 3a       	lddsp	r10,sp[0xc]
800081c6:	fb 4a 06 a4 	st.w	sp[1700],r10
800081ca:	c0 58       	rjmp	800081d4 <_vfprintf_r+0x9fc>
800081cc:	10 c9       	st.b	r8++,r9
800081ce:	fb 48 06 a4 	st.w	sp[1700],r8
800081d2:	c0 28       	rjmp	800081d6 <_vfprintf_r+0x9fe>
800081d4:	33 09       	mov	r9,48
800081d6:	fa f8 06 a4 	ld.w	r8,sp[1700]
800081da:	40 3e       	lddsp	lr,sp[0xc]
800081dc:	1c 38       	cp.w	r8,lr
800081de:	cf 73       	brcs	800081cc <_vfprintf_r+0x9f4>
800081e0:	e0 40 00 47 	cp.w	r0,71
800081e4:	5f 09       	sreq	r9
800081e6:	e0 40 00 67 	cp.w	r0,103
800081ea:	5f 08       	sreq	r8
800081ec:	f3 e8 10 08 	or	r8,r9,r8
800081f0:	fa f9 06 a4 	ld.w	r9,sp[1700]
800081f4:	0c 19       	sub	r9,r6
800081f6:	50 69       	stdsp	sp[0x18],r9
800081f8:	58 08       	cp.w	r8,0
800081fa:	c0 b0       	breq	80008210 <_vfprintf_r+0xa38>
800081fc:	fa f8 06 ac 	ld.w	r8,sp[1708]
80008200:	5b d8       	cp.w	r8,-3
80008202:	c0 55       	brlt	8000820c <_vfprintf_r+0xa34>
80008204:	40 2c       	lddsp	r12,sp[0x8]
80008206:	18 38       	cp.w	r8,r12
80008208:	e0 8a 00 6a 	brle	800082dc <_vfprintf_r+0xb04>
8000820c:	20 20       	sub	r0,2
8000820e:	c0 58       	rjmp	80008218 <_vfprintf_r+0xa40>
80008210:	e0 40 00 65 	cp.w	r0,101
80008214:	e0 89 00 46 	brgt	800082a0 <_vfprintf_r+0xac8>
80008218:	fa fb 06 ac 	ld.w	r11,sp[1708]
8000821c:	fb 60 06 9c 	st.b	sp[1692],r0
80008220:	20 1b       	sub	r11,1
80008222:	fb 4b 06 ac 	st.w	sp[1708],r11
80008226:	c0 47       	brpl	8000822e <_vfprintf_r+0xa56>
80008228:	5c 3b       	neg	r11
8000822a:	32 d8       	mov	r8,45
8000822c:	c0 28       	rjmp	80008230 <_vfprintf_r+0xa58>
8000822e:	32 b8       	mov	r8,43
80008230:	fb 68 06 9d 	st.b	sp[1693],r8
80008234:	58 9b       	cp.w	r11,9
80008236:	e0 8a 00 1d 	brle	80008270 <_vfprintf_r+0xa98>
8000823a:	fa c9 fa 35 	sub	r9,sp,-1483
8000823e:	30 aa       	mov	r10,10
80008240:	12 98       	mov	r8,r9
80008242:	0e 9c       	mov	r12,r7
80008244:	0c 92       	mov	r2,r6
80008246:	f6 0a 0c 06 	divs	r6,r11,r10
8000824a:	0e 9b       	mov	r11,r7
8000824c:	2d 0b       	sub	r11,-48
8000824e:	10 fb       	st.b	--r8,r11
80008250:	0c 9b       	mov	r11,r6
80008252:	58 96       	cp.w	r6,9
80008254:	fe 99 ff f9 	brgt	80008246 <_vfprintf_r+0xa6e>
80008258:	2d 0b       	sub	r11,-48
8000825a:	18 97       	mov	r7,r12
8000825c:	04 96       	mov	r6,r2
8000825e:	10 fb       	st.b	--r8,r11
80008260:	fa ca f9 62 	sub	r10,sp,-1694
80008264:	c0 38       	rjmp	8000826a <_vfprintf_r+0xa92>
80008266:	11 3b       	ld.ub	r11,r8++
80008268:	14 cb       	st.b	r10++,r11
8000826a:	12 38       	cp.w	r8,r9
8000826c:	cf d3       	brcs	80008266 <_vfprintf_r+0xa8e>
8000826e:	c0 98       	rjmp	80008280 <_vfprintf_r+0xaa8>
80008270:	2d 0b       	sub	r11,-48
80008272:	33 08       	mov	r8,48
80008274:	fb 6b 06 9f 	st.b	sp[1695],r11
80008278:	fb 68 06 9e 	st.b	sp[1694],r8
8000827c:	fa ca f9 60 	sub	r10,sp,-1696
80008280:	fa c8 f9 64 	sub	r8,sp,-1692
80008284:	f4 08 01 08 	sub	r8,r10,r8
80008288:	50 e8       	stdsp	sp[0x38],r8
8000828a:	10 92       	mov	r2,r8
8000828c:	40 6b       	lddsp	r11,sp[0x18]
8000828e:	16 02       	add	r2,r11
80008290:	58 1b       	cp.w	r11,1
80008292:	e0 89 00 05 	brgt	8000829c <_vfprintf_r+0xac4>
80008296:	ed b5 00 00 	bld	r5,0x0
8000829a:	c3 51       	brne	80008304 <_vfprintf_r+0xb2c>
8000829c:	2f f2       	sub	r2,-1
8000829e:	c3 38       	rjmp	80008304 <_vfprintf_r+0xb2c>
800082a0:	e0 40 00 66 	cp.w	r0,102
800082a4:	c1 c1       	brne	800082dc <_vfprintf_r+0xb04>
800082a6:	fa f2 06 ac 	ld.w	r2,sp[1708]
800082aa:	58 02       	cp.w	r2,0
800082ac:	e0 8a 00 0c 	brle	800082c4 <_vfprintf_r+0xaec>
800082b0:	40 2a       	lddsp	r10,sp[0x8]
800082b2:	58 0a       	cp.w	r10,0
800082b4:	c0 41       	brne	800082bc <_vfprintf_r+0xae4>
800082b6:	ed b5 00 00 	bld	r5,0x0
800082ba:	c2 51       	brne	80008304 <_vfprintf_r+0xb2c>
800082bc:	2f f2       	sub	r2,-1
800082be:	40 29       	lddsp	r9,sp[0x8]
800082c0:	12 02       	add	r2,r9
800082c2:	c0 b8       	rjmp	800082d8 <_vfprintf_r+0xb00>
800082c4:	40 28       	lddsp	r8,sp[0x8]
800082c6:	58 08       	cp.w	r8,0
800082c8:	c0 61       	brne	800082d4 <_vfprintf_r+0xafc>
800082ca:	ed b5 00 00 	bld	r5,0x0
800082ce:	c0 30       	breq	800082d4 <_vfprintf_r+0xafc>
800082d0:	30 12       	mov	r2,1
800082d2:	c1 98       	rjmp	80008304 <_vfprintf_r+0xb2c>
800082d4:	40 22       	lddsp	r2,sp[0x8]
800082d6:	2f e2       	sub	r2,-2
800082d8:	36 60       	mov	r0,102
800082da:	c1 58       	rjmp	80008304 <_vfprintf_r+0xb2c>
800082dc:	fa f2 06 ac 	ld.w	r2,sp[1708]
800082e0:	40 6e       	lddsp	lr,sp[0x18]
800082e2:	1c 32       	cp.w	r2,lr
800082e4:	c0 65       	brlt	800082f0 <_vfprintf_r+0xb18>
800082e6:	ed b5 00 00 	bld	r5,0x0
800082ea:	f7 b2 00 ff 	subeq	r2,-1
800082ee:	c0 a8       	rjmp	80008302 <_vfprintf_r+0xb2a>
800082f0:	e4 08 11 02 	rsub	r8,r2,2
800082f4:	40 6c       	lddsp	r12,sp[0x18]
800082f6:	58 02       	cp.w	r2,0
800082f8:	f0 02 17 a0 	movle	r2,r8
800082fc:	f9 b2 09 01 	movgt	r2,1
80008300:	18 02       	add	r2,r12
80008302:	36 70       	mov	r0,103
80008304:	40 9b       	lddsp	r11,sp[0x24]
80008306:	58 0b       	cp.w	r11,0
80008308:	e0 80 05 94 	breq	80008e30 <_vfprintf_r+0x1658>
8000830c:	32 d8       	mov	r8,45
8000830e:	fb 68 06 bb 	st.b	sp[1723],r8
80008312:	e0 8f 05 93 	bral	80008e38 <_vfprintf_r+0x1660>
80008316:	50 a7       	stdsp	sp[0x28],r7
80008318:	04 94       	mov	r4,r2
8000831a:	0c 97       	mov	r7,r6
8000831c:	02 92       	mov	r2,r1
8000831e:	06 96       	mov	r6,r3
80008320:	40 41       	lddsp	r1,sp[0x10]
80008322:	40 93       	lddsp	r3,sp[0x24]
80008324:	0e 99       	mov	r9,r7
80008326:	ed b5 00 05 	bld	r5,0x5
8000832a:	c4 81       	brne	800083ba <_vfprintf_r+0xbe2>
8000832c:	fa f8 06 b4 	ld.w	r8,sp[1716]
80008330:	40 3e       	lddsp	lr,sp[0xc]
80008332:	58 0e       	cp.w	lr,0
80008334:	c1 d0       	breq	8000836e <_vfprintf_r+0xb96>
80008336:	10 36       	cp.w	r6,r8
80008338:	c0 64       	brge	80008344 <_vfprintf_r+0xb6c>
8000833a:	fa cc f9 44 	sub	r12,sp,-1724
8000833e:	f8 06 00 36 	add	r6,r12,r6<<0x3
80008342:	c1 d8       	rjmp	8000837c <_vfprintf_r+0xba4>
80008344:	fa c8 f9 50 	sub	r8,sp,-1712
80008348:	1a d8       	st.w	--sp,r8
8000834a:	fa c8 fa b8 	sub	r8,sp,-1352
8000834e:	04 9a       	mov	r10,r2
80008350:	1a d8       	st.w	--sp,r8
80008352:	fa c8 fb b4 	sub	r8,sp,-1100
80008356:	0c 9b       	mov	r11,r6
80008358:	1a d8       	st.w	--sp,r8
8000835a:	08 9c       	mov	r12,r4
8000835c:	fa c8 f9 40 	sub	r8,sp,-1728
80008360:	fa c9 ff b4 	sub	r9,sp,-76
80008364:	fe b0 f8 a2 	rcall	800074a8 <get_arg>
80008368:	2f dd       	sub	sp,-12
8000836a:	78 0a       	ld.w	r10,r12[0x0]
8000836c:	c2 08       	rjmp	800083ac <_vfprintf_r+0xbd4>
8000836e:	2f f7       	sub	r7,-1
80008370:	10 39       	cp.w	r9,r8
80008372:	c0 84       	brge	80008382 <_vfprintf_r+0xbaa>
80008374:	fa cb f9 44 	sub	r11,sp,-1724
80008378:	f6 06 00 36 	add	r6,r11,r6<<0x3
8000837c:	ec fa fd 88 	ld.w	r10,r6[-632]
80008380:	c1 68       	rjmp	800083ac <_vfprintf_r+0xbd4>
80008382:	41 09       	lddsp	r9,sp[0x40]
80008384:	59 f8       	cp.w	r8,31
80008386:	e0 89 00 10 	brgt	800083a6 <_vfprintf_r+0xbce>
8000838a:	f2 ca ff fc 	sub	r10,r9,-4
8000838e:	51 0a       	stdsp	sp[0x40],r10
80008390:	fa c6 f9 44 	sub	r6,sp,-1724
80008394:	72 0a       	ld.w	r10,r9[0x0]
80008396:	ec 08 00 39 	add	r9,r6,r8<<0x3
8000839a:	f3 4a fd 88 	st.w	r9[-632],r10
8000839e:	2f f8       	sub	r8,-1
800083a0:	fb 48 06 b4 	st.w	sp[1716],r8
800083a4:	c0 48       	rjmp	800083ac <_vfprintf_r+0xbd4>
800083a6:	72 0a       	ld.w	r10,r9[0x0]
800083a8:	2f c9       	sub	r9,-4
800083aa:	51 09       	stdsp	sp[0x40],r9
800083ac:	40 be       	lddsp	lr,sp[0x2c]
800083ae:	1c 98       	mov	r8,lr
800083b0:	95 1e       	st.w	r10[0x4],lr
800083b2:	bf 58       	asr	r8,0x1f
800083b4:	95 08       	st.w	r10[0x0],r8
800083b6:	fe 9f fa 9f 	bral	800078f4 <_vfprintf_r+0x11c>
800083ba:	ed b5 00 04 	bld	r5,0x4
800083be:	c4 80       	breq	8000844e <_vfprintf_r+0xc76>
800083c0:	e2 15 00 40 	andl	r5,0x40,COH
800083c4:	c4 50       	breq	8000844e <_vfprintf_r+0xc76>
800083c6:	fa f8 06 b4 	ld.w	r8,sp[1716]
800083ca:	40 3c       	lddsp	r12,sp[0xc]
800083cc:	58 0c       	cp.w	r12,0
800083ce:	c1 d0       	breq	80008408 <_vfprintf_r+0xc30>
800083d0:	10 36       	cp.w	r6,r8
800083d2:	c0 64       	brge	800083de <_vfprintf_r+0xc06>
800083d4:	fa cb f9 44 	sub	r11,sp,-1724
800083d8:	f6 06 00 36 	add	r6,r11,r6<<0x3
800083dc:	c1 d8       	rjmp	80008416 <_vfprintf_r+0xc3e>
800083de:	fa c8 f9 50 	sub	r8,sp,-1712
800083e2:	1a d8       	st.w	--sp,r8
800083e4:	fa c8 fa b8 	sub	r8,sp,-1352
800083e8:	04 9a       	mov	r10,r2
800083ea:	1a d8       	st.w	--sp,r8
800083ec:	fa c8 fb b4 	sub	r8,sp,-1100
800083f0:	0c 9b       	mov	r11,r6
800083f2:	1a d8       	st.w	--sp,r8
800083f4:	08 9c       	mov	r12,r4
800083f6:	fa c8 f9 40 	sub	r8,sp,-1728
800083fa:	fa c9 ff b4 	sub	r9,sp,-76
800083fe:	fe b0 f8 55 	rcall	800074a8 <get_arg>
80008402:	2f dd       	sub	sp,-12
80008404:	78 0a       	ld.w	r10,r12[0x0]
80008406:	c2 08       	rjmp	80008446 <_vfprintf_r+0xc6e>
80008408:	2f f7       	sub	r7,-1
8000840a:	10 39       	cp.w	r9,r8
8000840c:	c0 84       	brge	8000841c <_vfprintf_r+0xc44>
8000840e:	fa ca f9 44 	sub	r10,sp,-1724
80008412:	f4 06 00 36 	add	r6,r10,r6<<0x3
80008416:	ec fa fd 88 	ld.w	r10,r6[-632]
8000841a:	c1 68       	rjmp	80008446 <_vfprintf_r+0xc6e>
8000841c:	41 09       	lddsp	r9,sp[0x40]
8000841e:	59 f8       	cp.w	r8,31
80008420:	e0 89 00 10 	brgt	80008440 <_vfprintf_r+0xc68>
80008424:	f2 ca ff fc 	sub	r10,r9,-4
80008428:	51 0a       	stdsp	sp[0x40],r10
8000842a:	fa c6 f9 44 	sub	r6,sp,-1724
8000842e:	72 0a       	ld.w	r10,r9[0x0]
80008430:	ec 08 00 39 	add	r9,r6,r8<<0x3
80008434:	f3 4a fd 88 	st.w	r9[-632],r10
80008438:	2f f8       	sub	r8,-1
8000843a:	fb 48 06 b4 	st.w	sp[1716],r8
8000843e:	c0 48       	rjmp	80008446 <_vfprintf_r+0xc6e>
80008440:	72 0a       	ld.w	r10,r9[0x0]
80008442:	2f c9       	sub	r9,-4
80008444:	51 09       	stdsp	sp[0x40],r9
80008446:	40 be       	lddsp	lr,sp[0x2c]
80008448:	b4 0e       	st.h	r10[0x0],lr
8000844a:	fe 9f fa 55 	bral	800078f4 <_vfprintf_r+0x11c>
8000844e:	fa f8 06 b4 	ld.w	r8,sp[1716]
80008452:	40 3c       	lddsp	r12,sp[0xc]
80008454:	58 0c       	cp.w	r12,0
80008456:	c1 d0       	breq	80008490 <_vfprintf_r+0xcb8>
80008458:	10 36       	cp.w	r6,r8
8000845a:	c0 64       	brge	80008466 <_vfprintf_r+0xc8e>
8000845c:	fa cb f9 44 	sub	r11,sp,-1724
80008460:	f6 06 00 36 	add	r6,r11,r6<<0x3
80008464:	c1 d8       	rjmp	8000849e <_vfprintf_r+0xcc6>
80008466:	fa c8 f9 50 	sub	r8,sp,-1712
8000846a:	1a d8       	st.w	--sp,r8
8000846c:	fa c8 fa b8 	sub	r8,sp,-1352
80008470:	04 9a       	mov	r10,r2
80008472:	1a d8       	st.w	--sp,r8
80008474:	fa c8 fb b4 	sub	r8,sp,-1100
80008478:	0c 9b       	mov	r11,r6
8000847a:	1a d8       	st.w	--sp,r8
8000847c:	08 9c       	mov	r12,r4
8000847e:	fa c8 f9 40 	sub	r8,sp,-1728
80008482:	fa c9 ff b4 	sub	r9,sp,-76
80008486:	fe b0 f8 11 	rcall	800074a8 <get_arg>
8000848a:	2f dd       	sub	sp,-12
8000848c:	78 0a       	ld.w	r10,r12[0x0]
8000848e:	c2 08       	rjmp	800084ce <_vfprintf_r+0xcf6>
80008490:	2f f7       	sub	r7,-1
80008492:	10 39       	cp.w	r9,r8
80008494:	c0 84       	brge	800084a4 <_vfprintf_r+0xccc>
80008496:	fa ca f9 44 	sub	r10,sp,-1724
8000849a:	f4 06 00 36 	add	r6,r10,r6<<0x3
8000849e:	ec fa fd 88 	ld.w	r10,r6[-632]
800084a2:	c1 68       	rjmp	800084ce <_vfprintf_r+0xcf6>
800084a4:	41 09       	lddsp	r9,sp[0x40]
800084a6:	59 f8       	cp.w	r8,31
800084a8:	e0 89 00 10 	brgt	800084c8 <_vfprintf_r+0xcf0>
800084ac:	f2 ca ff fc 	sub	r10,r9,-4
800084b0:	51 0a       	stdsp	sp[0x40],r10
800084b2:	fa c6 f9 44 	sub	r6,sp,-1724
800084b6:	72 0a       	ld.w	r10,r9[0x0]
800084b8:	ec 08 00 39 	add	r9,r6,r8<<0x3
800084bc:	f3 4a fd 88 	st.w	r9[-632],r10
800084c0:	2f f8       	sub	r8,-1
800084c2:	fb 48 06 b4 	st.w	sp[1716],r8
800084c6:	c0 48       	rjmp	800084ce <_vfprintf_r+0xcf6>
800084c8:	72 0a       	ld.w	r10,r9[0x0]
800084ca:	2f c9       	sub	r9,-4
800084cc:	51 09       	stdsp	sp[0x40],r9
800084ce:	40 be       	lddsp	lr,sp[0x2c]
800084d0:	95 0e       	st.w	r10[0x0],lr
800084d2:	fe 9f fa 11 	bral	800078f4 <_vfprintf_r+0x11c>
800084d6:	50 a7       	stdsp	sp[0x28],r7
800084d8:	50 80       	stdsp	sp[0x20],r0
800084da:	0c 97       	mov	r7,r6
800084dc:	04 94       	mov	r4,r2
800084de:	06 96       	mov	r6,r3
800084e0:	02 92       	mov	r2,r1
800084e2:	40 93       	lddsp	r3,sp[0x24]
800084e4:	10 90       	mov	r0,r8
800084e6:	40 41       	lddsp	r1,sp[0x10]
800084e8:	a5 a5       	sbr	r5,0x4
800084ea:	c0 a8       	rjmp	800084fe <_vfprintf_r+0xd26>
800084ec:	50 a7       	stdsp	sp[0x28],r7
800084ee:	50 80       	stdsp	sp[0x20],r0
800084f0:	0c 97       	mov	r7,r6
800084f2:	04 94       	mov	r4,r2
800084f4:	06 96       	mov	r6,r3
800084f6:	02 92       	mov	r2,r1
800084f8:	40 93       	lddsp	r3,sp[0x24]
800084fa:	10 90       	mov	r0,r8
800084fc:	40 41       	lddsp	r1,sp[0x10]
800084fe:	ed b5 00 05 	bld	r5,0x5
80008502:	c5 d1       	brne	800085bc <_vfprintf_r+0xde4>
80008504:	fa f8 06 b4 	ld.w	r8,sp[1716]
80008508:	40 3c       	lddsp	r12,sp[0xc]
8000850a:	58 0c       	cp.w	r12,0
8000850c:	c2 60       	breq	80008558 <_vfprintf_r+0xd80>
8000850e:	10 36       	cp.w	r6,r8
80008510:	c0 a4       	brge	80008524 <_vfprintf_r+0xd4c>
80008512:	fa cb f9 44 	sub	r11,sp,-1724
80008516:	f6 06 00 36 	add	r6,r11,r6<<0x3
8000851a:	ec e8 fd 88 	ld.d	r8,r6[-632]
8000851e:	fa e9 00 00 	st.d	sp[0],r8
80008522:	c1 88       	rjmp	80008552 <_vfprintf_r+0xd7a>
80008524:	fa c8 f9 50 	sub	r8,sp,-1712
80008528:	1a d8       	st.w	--sp,r8
8000852a:	fa c8 fa b8 	sub	r8,sp,-1352
8000852e:	04 9a       	mov	r10,r2
80008530:	1a d8       	st.w	--sp,r8
80008532:	0c 9b       	mov	r11,r6
80008534:	fa c8 fb b4 	sub	r8,sp,-1100
80008538:	08 9c       	mov	r12,r4
8000853a:	1a d8       	st.w	--sp,r8
8000853c:	fa c8 f9 40 	sub	r8,sp,-1728
80008540:	fa c9 ff b4 	sub	r9,sp,-76
80008544:	fe b0 f7 b2 	rcall	800074a8 <get_arg>
80008548:	2f dd       	sub	sp,-12
8000854a:	f8 ea 00 00 	ld.d	r10,r12[0]
8000854e:	fa eb 00 00 	st.d	sp[0],r10
80008552:	30 08       	mov	r8,0
80008554:	e0 8f 03 de 	bral	80008d10 <_vfprintf_r+0x1538>
80008558:	ee ca ff ff 	sub	r10,r7,-1
8000855c:	10 37       	cp.w	r7,r8
8000855e:	c0 b4       	brge	80008574 <_vfprintf_r+0xd9c>
80008560:	fa c9 f9 44 	sub	r9,sp,-1724
80008564:	14 97       	mov	r7,r10
80008566:	f2 06 00 36 	add	r6,r9,r6<<0x3
8000856a:	ec ea fd 88 	ld.d	r10,r6[-632]
8000856e:	fa eb 00 00 	st.d	sp[0],r10
80008572:	c1 88       	rjmp	800085a2 <_vfprintf_r+0xdca>
80008574:	41 09       	lddsp	r9,sp[0x40]
80008576:	59 f8       	cp.w	r8,31
80008578:	e0 89 00 18 	brgt	800085a8 <_vfprintf_r+0xdd0>
8000857c:	f2 e6 00 00 	ld.d	r6,r9[0]
80008580:	f2 cb ff f8 	sub	r11,r9,-8
80008584:	fa e7 00 00 	st.d	sp[0],r6
80008588:	51 0b       	stdsp	sp[0x40],r11
8000858a:	fa c6 f9 44 	sub	r6,sp,-1724
8000858e:	ec 08 00 39 	add	r9,r6,r8<<0x3
80008592:	fa e6 00 00 	ld.d	r6,sp[0]
80008596:	f2 e7 fd 88 	st.d	r9[-632],r6
8000859a:	2f f8       	sub	r8,-1
8000859c:	14 97       	mov	r7,r10
8000859e:	fb 48 06 b4 	st.w	sp[1716],r8
800085a2:	40 38       	lddsp	r8,sp[0xc]
800085a4:	e0 8f 03 b6 	bral	80008d10 <_vfprintf_r+0x1538>
800085a8:	f2 e6 00 00 	ld.d	r6,r9[0]
800085ac:	40 38       	lddsp	r8,sp[0xc]
800085ae:	fa e7 00 00 	st.d	sp[0],r6
800085b2:	2f 89       	sub	r9,-8
800085b4:	14 97       	mov	r7,r10
800085b6:	51 09       	stdsp	sp[0x40],r9
800085b8:	e0 8f 03 ac 	bral	80008d10 <_vfprintf_r+0x1538>
800085bc:	ed b5 00 04 	bld	r5,0x4
800085c0:	c1 61       	brne	800085ec <_vfprintf_r+0xe14>
800085c2:	fa f8 06 b4 	ld.w	r8,sp[1716]
800085c6:	40 3e       	lddsp	lr,sp[0xc]
800085c8:	58 0e       	cp.w	lr,0
800085ca:	c0 80       	breq	800085da <_vfprintf_r+0xe02>
800085cc:	10 36       	cp.w	r6,r8
800085ce:	c6 74       	brge	8000869c <_vfprintf_r+0xec4>
800085d0:	fa cc f9 44 	sub	r12,sp,-1724
800085d4:	f8 06 00 36 	add	r6,r12,r6<<0x3
800085d8:	c8 08       	rjmp	800086d8 <_vfprintf_r+0xf00>
800085da:	ee ca ff ff 	sub	r10,r7,-1
800085de:	10 37       	cp.w	r7,r8
800085e0:	c7 f4       	brge	800086de <_vfprintf_r+0xf06>
800085e2:	fa cb f9 44 	sub	r11,sp,-1724
800085e6:	f6 06 00 36 	add	r6,r11,r6<<0x3
800085ea:	c7 68       	rjmp	800086d6 <_vfprintf_r+0xefe>
800085ec:	ed b5 00 06 	bld	r5,0x6
800085f0:	c4 a1       	brne	80008684 <_vfprintf_r+0xeac>
800085f2:	fa f8 06 b4 	ld.w	r8,sp[1716]
800085f6:	40 3c       	lddsp	r12,sp[0xc]
800085f8:	58 0c       	cp.w	r12,0
800085fa:	c1 d0       	breq	80008634 <_vfprintf_r+0xe5c>
800085fc:	10 36       	cp.w	r6,r8
800085fe:	c0 64       	brge	8000860a <_vfprintf_r+0xe32>
80008600:	fa cb f9 44 	sub	r11,sp,-1724
80008604:	f6 06 00 36 	add	r6,r11,r6<<0x3
80008608:	c1 f8       	rjmp	80008646 <_vfprintf_r+0xe6e>
8000860a:	fa c8 f9 50 	sub	r8,sp,-1712
8000860e:	1a d8       	st.w	--sp,r8
80008610:	fa c8 fa b8 	sub	r8,sp,-1352
80008614:	1a d8       	st.w	--sp,r8
80008616:	fa c8 fb b4 	sub	r8,sp,-1100
8000861a:	1a d8       	st.w	--sp,r8
8000861c:	fa c8 f9 40 	sub	r8,sp,-1728
80008620:	fa c9 ff b4 	sub	r9,sp,-76
80008624:	04 9a       	mov	r10,r2
80008626:	0c 9b       	mov	r11,r6
80008628:	08 9c       	mov	r12,r4
8000862a:	fe b0 f7 3f 	rcall	800074a8 <get_arg>
8000862e:	2f dd       	sub	sp,-12
80008630:	98 18       	ld.sh	r8,r12[0x2]
80008632:	c2 68       	rjmp	8000867e <_vfprintf_r+0xea6>
80008634:	ee ca ff ff 	sub	r10,r7,-1
80008638:	10 37       	cp.w	r7,r8
8000863a:	c0 94       	brge	8000864c <_vfprintf_r+0xe74>
8000863c:	fa c9 f9 44 	sub	r9,sp,-1724
80008640:	14 97       	mov	r7,r10
80008642:	f2 06 00 36 	add	r6,r9,r6<<0x3
80008646:	ed 08 fd 8a 	ld.sh	r8,r6[-630]
8000864a:	c1 a8       	rjmp	8000867e <_vfprintf_r+0xea6>
8000864c:	41 09       	lddsp	r9,sp[0x40]
8000864e:	59 f8       	cp.w	r8,31
80008650:	e0 89 00 13 	brgt	80008676 <_vfprintf_r+0xe9e>
80008654:	f2 cb ff fc 	sub	r11,r9,-4
80008658:	51 0b       	stdsp	sp[0x40],r11
8000865a:	72 09       	ld.w	r9,r9[0x0]
8000865c:	fa c6 f9 44 	sub	r6,sp,-1724
80008660:	ec 08 00 3b 	add	r11,r6,r8<<0x3
80008664:	2f f8       	sub	r8,-1
80008666:	f7 49 fd 88 	st.w	r11[-632],r9
8000866a:	fb 48 06 b4 	st.w	sp[1716],r8
8000866e:	14 97       	mov	r7,r10
80008670:	f1 d9 b0 10 	bfexts	r8,r9,0x0,0x10
80008674:	c0 58       	rjmp	8000867e <_vfprintf_r+0xea6>
80008676:	92 18       	ld.sh	r8,r9[0x2]
80008678:	14 97       	mov	r7,r10
8000867a:	2f c9       	sub	r9,-4
8000867c:	51 09       	stdsp	sp[0x40],r9
8000867e:	5c 78       	castu.h	r8
80008680:	50 18       	stdsp	sp[0x4],r8
80008682:	c4 68       	rjmp	8000870e <_vfprintf_r+0xf36>
80008684:	fa f8 06 b4 	ld.w	r8,sp[1716]
80008688:	40 3c       	lddsp	r12,sp[0xc]
8000868a:	58 0c       	cp.w	r12,0
8000868c:	c1 d0       	breq	800086c6 <_vfprintf_r+0xeee>
8000868e:	10 36       	cp.w	r6,r8
80008690:	c0 64       	brge	8000869c <_vfprintf_r+0xec4>
80008692:	fa cb f9 44 	sub	r11,sp,-1724
80008696:	f6 06 00 36 	add	r6,r11,r6<<0x3
8000869a:	c1 f8       	rjmp	800086d8 <_vfprintf_r+0xf00>
8000869c:	fa c8 f9 50 	sub	r8,sp,-1712
800086a0:	1a d8       	st.w	--sp,r8
800086a2:	fa c8 fa b8 	sub	r8,sp,-1352
800086a6:	0c 9b       	mov	r11,r6
800086a8:	1a d8       	st.w	--sp,r8
800086aa:	fa c8 fb b4 	sub	r8,sp,-1100
800086ae:	04 9a       	mov	r10,r2
800086b0:	1a d8       	st.w	--sp,r8
800086b2:	08 9c       	mov	r12,r4
800086b4:	fa c8 f9 40 	sub	r8,sp,-1728
800086b8:	fa c9 ff b4 	sub	r9,sp,-76
800086bc:	fe b0 f6 f6 	rcall	800074a8 <get_arg>
800086c0:	2f dd       	sub	sp,-12
800086c2:	78 0b       	ld.w	r11,r12[0x0]
800086c4:	c2 48       	rjmp	8000870c <_vfprintf_r+0xf34>
800086c6:	ee ca ff ff 	sub	r10,r7,-1
800086ca:	10 37       	cp.w	r7,r8
800086cc:	c0 94       	brge	800086de <_vfprintf_r+0xf06>
800086ce:	fa c9 f9 44 	sub	r9,sp,-1724
800086d2:	f2 06 00 36 	add	r6,r9,r6<<0x3
800086d6:	14 97       	mov	r7,r10
800086d8:	ec fb fd 88 	ld.w	r11,r6[-632]
800086dc:	c1 88       	rjmp	8000870c <_vfprintf_r+0xf34>
800086de:	41 09       	lddsp	r9,sp[0x40]
800086e0:	59 f8       	cp.w	r8,31
800086e2:	e0 89 00 11 	brgt	80008704 <_vfprintf_r+0xf2c>
800086e6:	f2 cb ff fc 	sub	r11,r9,-4
800086ea:	51 0b       	stdsp	sp[0x40],r11
800086ec:	fa c6 f9 44 	sub	r6,sp,-1724
800086f0:	72 0b       	ld.w	r11,r9[0x0]
800086f2:	ec 08 00 39 	add	r9,r6,r8<<0x3
800086f6:	f3 4b fd 88 	st.w	r9[-632],r11
800086fa:	2f f8       	sub	r8,-1
800086fc:	14 97       	mov	r7,r10
800086fe:	fb 48 06 b4 	st.w	sp[1716],r8
80008702:	c0 58       	rjmp	8000870c <_vfprintf_r+0xf34>
80008704:	72 0b       	ld.w	r11,r9[0x0]
80008706:	14 97       	mov	r7,r10
80008708:	2f c9       	sub	r9,-4
8000870a:	51 09       	stdsp	sp[0x40],r9
8000870c:	50 1b       	stdsp	sp[0x4],r11
8000870e:	30 0e       	mov	lr,0
80008710:	50 0e       	stdsp	sp[0x0],lr
80008712:	1c 98       	mov	r8,lr
80008714:	e0 8f 02 fe 	bral	80008d10 <_vfprintf_r+0x1538>
80008718:	50 a7       	stdsp	sp[0x28],r7
8000871a:	50 80       	stdsp	sp[0x20],r0
8000871c:	0c 97       	mov	r7,r6
8000871e:	04 94       	mov	r4,r2
80008720:	06 96       	mov	r6,r3
80008722:	02 92       	mov	r2,r1
80008724:	40 93       	lddsp	r3,sp[0x24]
80008726:	40 41       	lddsp	r1,sp[0x10]
80008728:	0e 99       	mov	r9,r7
8000872a:	fa f8 06 b4 	ld.w	r8,sp[1716]
8000872e:	40 3c       	lddsp	r12,sp[0xc]
80008730:	58 0c       	cp.w	r12,0
80008732:	c1 d0       	breq	8000876c <_vfprintf_r+0xf94>
80008734:	10 36       	cp.w	r6,r8
80008736:	c0 64       	brge	80008742 <_vfprintf_r+0xf6a>
80008738:	fa cb f9 44 	sub	r11,sp,-1724
8000873c:	f6 06 00 36 	add	r6,r11,r6<<0x3
80008740:	c1 d8       	rjmp	8000877a <_vfprintf_r+0xfa2>
80008742:	fa c8 f9 50 	sub	r8,sp,-1712
80008746:	1a d8       	st.w	--sp,r8
80008748:	fa c8 fa b8 	sub	r8,sp,-1352
8000874c:	1a d8       	st.w	--sp,r8
8000874e:	fa c8 fb b4 	sub	r8,sp,-1100
80008752:	1a d8       	st.w	--sp,r8
80008754:	fa c9 ff b4 	sub	r9,sp,-76
80008758:	fa c8 f9 40 	sub	r8,sp,-1728
8000875c:	04 9a       	mov	r10,r2
8000875e:	0c 9b       	mov	r11,r6
80008760:	08 9c       	mov	r12,r4
80008762:	fe b0 f6 a3 	rcall	800074a8 <get_arg>
80008766:	2f dd       	sub	sp,-12
80008768:	78 09       	ld.w	r9,r12[0x0]
8000876a:	c2 18       	rjmp	800087ac <_vfprintf_r+0xfd4>
8000876c:	2f f7       	sub	r7,-1
8000876e:	10 39       	cp.w	r9,r8
80008770:	c0 84       	brge	80008780 <_vfprintf_r+0xfa8>
80008772:	fa ca f9 44 	sub	r10,sp,-1724
80008776:	f4 06 00 36 	add	r6,r10,r6<<0x3
8000877a:	ec f9 fd 88 	ld.w	r9,r6[-632]
8000877e:	c1 78       	rjmp	800087ac <_vfprintf_r+0xfd4>
80008780:	41 09       	lddsp	r9,sp[0x40]
80008782:	59 f8       	cp.w	r8,31
80008784:	e0 89 00 10 	brgt	800087a4 <_vfprintf_r+0xfcc>
80008788:	f2 ca ff fc 	sub	r10,r9,-4
8000878c:	51 0a       	stdsp	sp[0x40],r10
8000878e:	fa c6 f9 44 	sub	r6,sp,-1724
80008792:	72 09       	ld.w	r9,r9[0x0]
80008794:	ec 08 00 3a 	add	r10,r6,r8<<0x3
80008798:	f5 49 fd 88 	st.w	r10[-632],r9
8000879c:	2f f8       	sub	r8,-1
8000879e:	fb 48 06 b4 	st.w	sp[1716],r8
800087a2:	c0 58       	rjmp	800087ac <_vfprintf_r+0xfd4>
800087a4:	f2 c8 ff fc 	sub	r8,r9,-4
800087a8:	51 08       	stdsp	sp[0x40],r8
800087aa:	72 09       	ld.w	r9,r9[0x0]
800087ac:	33 08       	mov	r8,48
800087ae:	fb 68 06 b8 	st.b	sp[1720],r8
800087b2:	37 88       	mov	r8,120
800087b4:	30 0e       	mov	lr,0
800087b6:	fb 68 06 b9 	st.b	sp[1721],r8
800087ba:	fe cc c3 86 	sub	r12,pc,-15482
800087be:	50 19       	stdsp	sp[0x4],r9
800087c0:	a1 b5       	sbr	r5,0x1
800087c2:	50 0e       	stdsp	sp[0x0],lr
800087c4:	50 dc       	stdsp	sp[0x34],r12
800087c6:	30 28       	mov	r8,2
800087c8:	37 80       	mov	r0,120
800087ca:	e0 8f 02 a3 	bral	80008d10 <_vfprintf_r+0x1538>
800087ce:	50 a7       	stdsp	sp[0x28],r7
800087d0:	50 80       	stdsp	sp[0x20],r0
800087d2:	10 90       	mov	r0,r8
800087d4:	30 08       	mov	r8,0
800087d6:	fb 68 06 bb 	st.b	sp[1723],r8
800087da:	0c 97       	mov	r7,r6
800087dc:	04 94       	mov	r4,r2
800087de:	06 96       	mov	r6,r3
800087e0:	02 92       	mov	r2,r1
800087e2:	40 93       	lddsp	r3,sp[0x24]
800087e4:	40 41       	lddsp	r1,sp[0x10]
800087e6:	0e 99       	mov	r9,r7
800087e8:	fa f8 06 b4 	ld.w	r8,sp[1716]
800087ec:	40 3b       	lddsp	r11,sp[0xc]
800087ee:	58 0b       	cp.w	r11,0
800087f0:	c1 d0       	breq	8000882a <_vfprintf_r+0x1052>
800087f2:	10 36       	cp.w	r6,r8
800087f4:	c0 64       	brge	80008800 <_vfprintf_r+0x1028>
800087f6:	fa ca f9 44 	sub	r10,sp,-1724
800087fa:	f4 06 00 36 	add	r6,r10,r6<<0x3
800087fe:	c1 d8       	rjmp	80008838 <_vfprintf_r+0x1060>
80008800:	fa c8 f9 50 	sub	r8,sp,-1712
80008804:	1a d8       	st.w	--sp,r8
80008806:	fa c8 fa b8 	sub	r8,sp,-1352
8000880a:	1a d8       	st.w	--sp,r8
8000880c:	fa c8 fb b4 	sub	r8,sp,-1100
80008810:	0c 9b       	mov	r11,r6
80008812:	1a d8       	st.w	--sp,r8
80008814:	04 9a       	mov	r10,r2
80008816:	fa c8 f9 40 	sub	r8,sp,-1728
8000881a:	fa c9 ff b4 	sub	r9,sp,-76
8000881e:	08 9c       	mov	r12,r4
80008820:	fe b0 f6 44 	rcall	800074a8 <get_arg>
80008824:	2f dd       	sub	sp,-12
80008826:	78 06       	ld.w	r6,r12[0x0]
80008828:	c2 08       	rjmp	80008868 <_vfprintf_r+0x1090>
8000882a:	2f f7       	sub	r7,-1
8000882c:	10 39       	cp.w	r9,r8
8000882e:	c0 84       	brge	8000883e <_vfprintf_r+0x1066>
80008830:	fa c9 f9 44 	sub	r9,sp,-1724
80008834:	f2 06 00 36 	add	r6,r9,r6<<0x3
80008838:	ec f6 fd 88 	ld.w	r6,r6[-632]
8000883c:	c1 68       	rjmp	80008868 <_vfprintf_r+0x1090>
8000883e:	41 09       	lddsp	r9,sp[0x40]
80008840:	59 f8       	cp.w	r8,31
80008842:	e0 89 00 10 	brgt	80008862 <_vfprintf_r+0x108a>
80008846:	f2 ca ff fc 	sub	r10,r9,-4
8000884a:	51 0a       	stdsp	sp[0x40],r10
8000884c:	72 06       	ld.w	r6,r9[0x0]
8000884e:	fa ce f9 44 	sub	lr,sp,-1724
80008852:	fc 08 00 39 	add	r9,lr,r8<<0x3
80008856:	f3 46 fd 88 	st.w	r9[-632],r6
8000885a:	2f f8       	sub	r8,-1
8000885c:	fb 48 06 b4 	st.w	sp[1716],r8
80008860:	c0 48       	rjmp	80008868 <_vfprintf_r+0x1090>
80008862:	72 06       	ld.w	r6,r9[0x0]
80008864:	2f c9       	sub	r9,-4
80008866:	51 09       	stdsp	sp[0x40],r9
80008868:	40 2c       	lddsp	r12,sp[0x8]
8000886a:	58 0c       	cp.w	r12,0
8000886c:	c1 05       	brlt	8000888c <_vfprintf_r+0x10b4>
8000886e:	18 9a       	mov	r10,r12
80008870:	30 0b       	mov	r11,0
80008872:	0c 9c       	mov	r12,r6
80008874:	e0 a0 10 fa 	rcall	8000aa68 <memchr>
80008878:	e0 80 02 df 	breq	80008e36 <_vfprintf_r+0x165e>
8000887c:	f8 06 01 02 	sub	r2,r12,r6
80008880:	40 2b       	lddsp	r11,sp[0x8]
80008882:	16 32       	cp.w	r2,r11
80008884:	e0 89 02 d9 	brgt	80008e36 <_vfprintf_r+0x165e>
80008888:	e0 8f 02 d4 	bral	80008e30 <_vfprintf_r+0x1658>
8000888c:	30 0a       	mov	r10,0
8000888e:	0c 9c       	mov	r12,r6
80008890:	50 2a       	stdsp	sp[0x8],r10
80008892:	e0 a0 14 18 	rcall	8000b0c2 <strlen>
80008896:	18 92       	mov	r2,r12
80008898:	e0 8f 02 d2 	bral	80008e3c <_vfprintf_r+0x1664>
8000889c:	50 a7       	stdsp	sp[0x28],r7
8000889e:	50 80       	stdsp	sp[0x20],r0
800088a0:	0c 97       	mov	r7,r6
800088a2:	04 94       	mov	r4,r2
800088a4:	06 96       	mov	r6,r3
800088a6:	02 92       	mov	r2,r1
800088a8:	40 93       	lddsp	r3,sp[0x24]
800088aa:	10 90       	mov	r0,r8
800088ac:	40 41       	lddsp	r1,sp[0x10]
800088ae:	a5 a5       	sbr	r5,0x4
800088b0:	c0 a8       	rjmp	800088c4 <_vfprintf_r+0x10ec>
800088b2:	50 a7       	stdsp	sp[0x28],r7
800088b4:	50 80       	stdsp	sp[0x20],r0
800088b6:	0c 97       	mov	r7,r6
800088b8:	04 94       	mov	r4,r2
800088ba:	06 96       	mov	r6,r3
800088bc:	02 92       	mov	r2,r1
800088be:	40 93       	lddsp	r3,sp[0x24]
800088c0:	10 90       	mov	r0,r8
800088c2:	40 41       	lddsp	r1,sp[0x10]
800088c4:	ed b5 00 05 	bld	r5,0x5
800088c8:	c5 61       	brne	80008974 <_vfprintf_r+0x119c>
800088ca:	fa f8 06 b4 	ld.w	r8,sp[1716]
800088ce:	40 39       	lddsp	r9,sp[0xc]
800088d0:	58 09       	cp.w	r9,0
800088d2:	c2 10       	breq	80008914 <_vfprintf_r+0x113c>
800088d4:	10 36       	cp.w	r6,r8
800088d6:	c0 74       	brge	800088e4 <_vfprintf_r+0x110c>
800088d8:	fa c8 f9 44 	sub	r8,sp,-1724
800088dc:	f0 06 00 36 	add	r6,r8,r6<<0x3
800088e0:	c2 38       	rjmp	80008926 <_vfprintf_r+0x114e>
800088e2:	d7 03       	nop
800088e4:	fa c8 f9 50 	sub	r8,sp,-1712
800088e8:	1a d8       	st.w	--sp,r8
800088ea:	fa c8 fa b8 	sub	r8,sp,-1352
800088ee:	1a d8       	st.w	--sp,r8
800088f0:	fa c8 fb b4 	sub	r8,sp,-1100
800088f4:	1a d8       	st.w	--sp,r8
800088f6:	fa c8 f9 40 	sub	r8,sp,-1728
800088fa:	fa c9 ff b4 	sub	r9,sp,-76
800088fe:	04 9a       	mov	r10,r2
80008900:	0c 9b       	mov	r11,r6
80008902:	08 9c       	mov	r12,r4
80008904:	fe b0 f5 d2 	rcall	800074a8 <get_arg>
80008908:	2f dd       	sub	sp,-12
8000890a:	f8 e8 00 00 	ld.d	r8,r12[0]
8000890e:	fa e9 00 00 	st.d	sp[0],r8
80008912:	c2 e8       	rjmp	8000896e <_vfprintf_r+0x1196>
80008914:	ee ca ff ff 	sub	r10,r7,-1
80008918:	10 37       	cp.w	r7,r8
8000891a:	c0 b4       	brge	80008930 <_vfprintf_r+0x1158>
8000891c:	fa c8 f9 44 	sub	r8,sp,-1724
80008920:	14 97       	mov	r7,r10
80008922:	f0 06 00 36 	add	r6,r8,r6<<0x3
80008926:	ec ea fd 88 	ld.d	r10,r6[-632]
8000892a:	fa eb 00 00 	st.d	sp[0],r10
8000892e:	c2 08       	rjmp	8000896e <_vfprintf_r+0x1196>
80008930:	41 09       	lddsp	r9,sp[0x40]
80008932:	59 f8       	cp.w	r8,31
80008934:	e0 89 00 16 	brgt	80008960 <_vfprintf_r+0x1188>
80008938:	f2 e6 00 00 	ld.d	r6,r9[0]
8000893c:	f2 cb ff f8 	sub	r11,r9,-8
80008940:	fa e7 00 00 	st.d	sp[0],r6
80008944:	51 0b       	stdsp	sp[0x40],r11
80008946:	fa c6 f9 44 	sub	r6,sp,-1724
8000894a:	ec 08 00 39 	add	r9,r6,r8<<0x3
8000894e:	fa e6 00 00 	ld.d	r6,sp[0]
80008952:	f2 e7 fd 88 	st.d	r9[-632],r6
80008956:	2f f8       	sub	r8,-1
80008958:	14 97       	mov	r7,r10
8000895a:	fb 48 06 b4 	st.w	sp[1716],r8
8000895e:	c0 88       	rjmp	8000896e <_vfprintf_r+0x1196>
80008960:	f2 e6 00 00 	ld.d	r6,r9[0]
80008964:	2f 89       	sub	r9,-8
80008966:	fa e7 00 00 	st.d	sp[0],r6
8000896a:	51 09       	stdsp	sp[0x40],r9
8000896c:	14 97       	mov	r7,r10
8000896e:	30 18       	mov	r8,1
80008970:	e0 8f 01 d0 	bral	80008d10 <_vfprintf_r+0x1538>
80008974:	ed b5 00 04 	bld	r5,0x4
80008978:	c1 61       	brne	800089a4 <_vfprintf_r+0x11cc>
8000897a:	fa f8 06 b4 	ld.w	r8,sp[1716]
8000897e:	40 3e       	lddsp	lr,sp[0xc]
80008980:	58 0e       	cp.w	lr,0
80008982:	c0 80       	breq	80008992 <_vfprintf_r+0x11ba>
80008984:	10 36       	cp.w	r6,r8
80008986:	c6 74       	brge	80008a54 <_vfprintf_r+0x127c>
80008988:	fa cc f9 44 	sub	r12,sp,-1724
8000898c:	f8 06 00 36 	add	r6,r12,r6<<0x3
80008990:	c8 08       	rjmp	80008a90 <_vfprintf_r+0x12b8>
80008992:	ee ca ff ff 	sub	r10,r7,-1
80008996:	10 37       	cp.w	r7,r8
80008998:	c7 f4       	brge	80008a96 <_vfprintf_r+0x12be>
8000899a:	fa cb f9 44 	sub	r11,sp,-1724
8000899e:	f6 06 00 36 	add	r6,r11,r6<<0x3
800089a2:	c7 68       	rjmp	80008a8e <_vfprintf_r+0x12b6>
800089a4:	ed b5 00 06 	bld	r5,0x6
800089a8:	c4 a1       	brne	80008a3c <_vfprintf_r+0x1264>
800089aa:	fa f8 06 b4 	ld.w	r8,sp[1716]
800089ae:	40 3c       	lddsp	r12,sp[0xc]
800089b0:	58 0c       	cp.w	r12,0
800089b2:	c1 d0       	breq	800089ec <_vfprintf_r+0x1214>
800089b4:	10 36       	cp.w	r6,r8
800089b6:	c0 64       	brge	800089c2 <_vfprintf_r+0x11ea>
800089b8:	fa cb f9 44 	sub	r11,sp,-1724
800089bc:	f6 06 00 36 	add	r6,r11,r6<<0x3
800089c0:	c1 f8       	rjmp	800089fe <_vfprintf_r+0x1226>
800089c2:	fa c8 f9 50 	sub	r8,sp,-1712
800089c6:	1a d8       	st.w	--sp,r8
800089c8:	fa c8 fa b8 	sub	r8,sp,-1352
800089cc:	1a d8       	st.w	--sp,r8
800089ce:	fa c8 fb b4 	sub	r8,sp,-1100
800089d2:	1a d8       	st.w	--sp,r8
800089d4:	fa c8 f9 40 	sub	r8,sp,-1728
800089d8:	fa c9 ff b4 	sub	r9,sp,-76
800089dc:	04 9a       	mov	r10,r2
800089de:	0c 9b       	mov	r11,r6
800089e0:	08 9c       	mov	r12,r4
800089e2:	fe b0 f5 63 	rcall	800074a8 <get_arg>
800089e6:	2f dd       	sub	sp,-12
800089e8:	98 18       	ld.sh	r8,r12[0x2]
800089ea:	c2 68       	rjmp	80008a36 <_vfprintf_r+0x125e>
800089ec:	ee ca ff ff 	sub	r10,r7,-1
800089f0:	10 37       	cp.w	r7,r8
800089f2:	c0 94       	brge	80008a04 <_vfprintf_r+0x122c>
800089f4:	fa c9 f9 44 	sub	r9,sp,-1724
800089f8:	14 97       	mov	r7,r10
800089fa:	f2 06 00 36 	add	r6,r9,r6<<0x3
800089fe:	ed 08 fd 8a 	ld.sh	r8,r6[-630]
80008a02:	c1 a8       	rjmp	80008a36 <_vfprintf_r+0x125e>
80008a04:	41 09       	lddsp	r9,sp[0x40]
80008a06:	59 f8       	cp.w	r8,31
80008a08:	e0 89 00 13 	brgt	80008a2e <_vfprintf_r+0x1256>
80008a0c:	f2 cb ff fc 	sub	r11,r9,-4
80008a10:	51 0b       	stdsp	sp[0x40],r11
80008a12:	72 09       	ld.w	r9,r9[0x0]
80008a14:	fa c6 f9 44 	sub	r6,sp,-1724
80008a18:	ec 08 00 3b 	add	r11,r6,r8<<0x3
80008a1c:	2f f8       	sub	r8,-1
80008a1e:	f7 49 fd 88 	st.w	r11[-632],r9
80008a22:	fb 48 06 b4 	st.w	sp[1716],r8
80008a26:	14 97       	mov	r7,r10
80008a28:	f1 d9 b0 10 	bfexts	r8,r9,0x0,0x10
80008a2c:	c0 58       	rjmp	80008a36 <_vfprintf_r+0x125e>
80008a2e:	92 18       	ld.sh	r8,r9[0x2]
80008a30:	14 97       	mov	r7,r10
80008a32:	2f c9       	sub	r9,-4
80008a34:	51 09       	stdsp	sp[0x40],r9
80008a36:	5c 78       	castu.h	r8
80008a38:	50 18       	stdsp	sp[0x4],r8
80008a3a:	c4 68       	rjmp	80008ac6 <_vfprintf_r+0x12ee>
80008a3c:	fa f8 06 b4 	ld.w	r8,sp[1716]
80008a40:	40 3c       	lddsp	r12,sp[0xc]
80008a42:	58 0c       	cp.w	r12,0
80008a44:	c1 d0       	breq	80008a7e <_vfprintf_r+0x12a6>
80008a46:	10 36       	cp.w	r6,r8
80008a48:	c0 64       	brge	80008a54 <_vfprintf_r+0x127c>
80008a4a:	fa cb f9 44 	sub	r11,sp,-1724
80008a4e:	f6 06 00 36 	add	r6,r11,r6<<0x3
80008a52:	c1 f8       	rjmp	80008a90 <_vfprintf_r+0x12b8>
80008a54:	fa c8 f9 50 	sub	r8,sp,-1712
80008a58:	1a d8       	st.w	--sp,r8
80008a5a:	fa c8 fa b8 	sub	r8,sp,-1352
80008a5e:	0c 9b       	mov	r11,r6
80008a60:	1a d8       	st.w	--sp,r8
80008a62:	fa c8 fb b4 	sub	r8,sp,-1100
80008a66:	04 9a       	mov	r10,r2
80008a68:	1a d8       	st.w	--sp,r8
80008a6a:	08 9c       	mov	r12,r4
80008a6c:	fa c8 f9 40 	sub	r8,sp,-1728
80008a70:	fa c9 ff b4 	sub	r9,sp,-76
80008a74:	fe b0 f5 1a 	rcall	800074a8 <get_arg>
80008a78:	2f dd       	sub	sp,-12
80008a7a:	78 0b       	ld.w	r11,r12[0x0]
80008a7c:	c2 48       	rjmp	80008ac4 <_vfprintf_r+0x12ec>
80008a7e:	ee ca ff ff 	sub	r10,r7,-1
80008a82:	10 37       	cp.w	r7,r8
80008a84:	c0 94       	brge	80008a96 <_vfprintf_r+0x12be>
80008a86:	fa c9 f9 44 	sub	r9,sp,-1724
80008a8a:	f2 06 00 36 	add	r6,r9,r6<<0x3
80008a8e:	14 97       	mov	r7,r10
80008a90:	ec fb fd 88 	ld.w	r11,r6[-632]
80008a94:	c1 88       	rjmp	80008ac4 <_vfprintf_r+0x12ec>
80008a96:	41 09       	lddsp	r9,sp[0x40]
80008a98:	59 f8       	cp.w	r8,31
80008a9a:	e0 89 00 11 	brgt	80008abc <_vfprintf_r+0x12e4>
80008a9e:	f2 cb ff fc 	sub	r11,r9,-4
80008aa2:	51 0b       	stdsp	sp[0x40],r11
80008aa4:	fa c6 f9 44 	sub	r6,sp,-1724
80008aa8:	72 0b       	ld.w	r11,r9[0x0]
80008aaa:	ec 08 00 39 	add	r9,r6,r8<<0x3
80008aae:	f3 4b fd 88 	st.w	r9[-632],r11
80008ab2:	2f f8       	sub	r8,-1
80008ab4:	14 97       	mov	r7,r10
80008ab6:	fb 48 06 b4 	st.w	sp[1716],r8
80008aba:	c0 58       	rjmp	80008ac4 <_vfprintf_r+0x12ec>
80008abc:	72 0b       	ld.w	r11,r9[0x0]
80008abe:	14 97       	mov	r7,r10
80008ac0:	2f c9       	sub	r9,-4
80008ac2:	51 09       	stdsp	sp[0x40],r9
80008ac4:	50 1b       	stdsp	sp[0x4],r11
80008ac6:	30 0e       	mov	lr,0
80008ac8:	30 18       	mov	r8,1
80008aca:	50 0e       	stdsp	sp[0x0],lr
80008acc:	c2 29       	rjmp	80008d10 <_vfprintf_r+0x1538>
80008ace:	50 a7       	stdsp	sp[0x28],r7
80008ad0:	50 80       	stdsp	sp[0x20],r0
80008ad2:	0c 97       	mov	r7,r6
80008ad4:	04 94       	mov	r4,r2
80008ad6:	06 96       	mov	r6,r3
80008ad8:	02 92       	mov	r2,r1
80008ada:	fe cc c6 a6 	sub	r12,pc,-14682
80008ade:	40 93       	lddsp	r3,sp[0x24]
80008ae0:	10 90       	mov	r0,r8
80008ae2:	40 41       	lddsp	r1,sp[0x10]
80008ae4:	50 dc       	stdsp	sp[0x34],r12
80008ae6:	ed b5 00 05 	bld	r5,0x5
80008aea:	c5 51       	brne	80008b94 <_vfprintf_r+0x13bc>
80008aec:	fa f8 06 b4 	ld.w	r8,sp[1716]
80008af0:	40 3b       	lddsp	r11,sp[0xc]
80008af2:	58 0b       	cp.w	r11,0
80008af4:	c2 20       	breq	80008b38 <_vfprintf_r+0x1360>
80008af6:	10 36       	cp.w	r6,r8
80008af8:	c0 a4       	brge	80008b0c <_vfprintf_r+0x1334>
80008afa:	fa ca f9 44 	sub	r10,sp,-1724
80008afe:	f4 06 00 36 	add	r6,r10,r6<<0x3
80008b02:	ec e8 fd 88 	ld.d	r8,r6[-632]
80008b06:	fa e9 00 00 	st.d	sp[0],r8
80008b0a:	cf 28       	rjmp	80008cee <_vfprintf_r+0x1516>
80008b0c:	fa c8 f9 50 	sub	r8,sp,-1712
80008b10:	1a d8       	st.w	--sp,r8
80008b12:	fa c8 fa b8 	sub	r8,sp,-1352
80008b16:	04 9a       	mov	r10,r2
80008b18:	1a d8       	st.w	--sp,r8
80008b1a:	0c 9b       	mov	r11,r6
80008b1c:	fa c8 fb b4 	sub	r8,sp,-1100
80008b20:	08 9c       	mov	r12,r4
80008b22:	1a d8       	st.w	--sp,r8
80008b24:	fa c8 f9 40 	sub	r8,sp,-1728
80008b28:	fa c9 ff b4 	sub	r9,sp,-76
80008b2c:	fe b0 f4 be 	rcall	800074a8 <get_arg>
80008b30:	2f dd       	sub	sp,-12
80008b32:	f8 ea 00 00 	ld.d	r10,r12[0]
80008b36:	c0 c8       	rjmp	80008b4e <_vfprintf_r+0x1376>
80008b38:	ee ca ff ff 	sub	r10,r7,-1
80008b3c:	10 37       	cp.w	r7,r8
80008b3e:	c0 b4       	brge	80008b54 <_vfprintf_r+0x137c>
80008b40:	fa c9 f9 44 	sub	r9,sp,-1724
80008b44:	14 97       	mov	r7,r10
80008b46:	f2 06 00 36 	add	r6,r9,r6<<0x3
80008b4a:	ec ea fd 88 	ld.d	r10,r6[-632]
80008b4e:	fa eb 00 00 	st.d	sp[0],r10
80008b52:	cc e8       	rjmp	80008cee <_vfprintf_r+0x1516>
80008b54:	41 09       	lddsp	r9,sp[0x40]
80008b56:	59 f8       	cp.w	r8,31
80008b58:	e0 89 00 16 	brgt	80008b84 <_vfprintf_r+0x13ac>
80008b5c:	f2 e6 00 00 	ld.d	r6,r9[0]
80008b60:	f2 cb ff f8 	sub	r11,r9,-8
80008b64:	fa e7 00 00 	st.d	sp[0],r6
80008b68:	51 0b       	stdsp	sp[0x40],r11
80008b6a:	fa c6 f9 44 	sub	r6,sp,-1724
80008b6e:	ec 08 00 39 	add	r9,r6,r8<<0x3
80008b72:	fa e6 00 00 	ld.d	r6,sp[0]
80008b76:	f2 e7 fd 88 	st.d	r9[-632],r6
80008b7a:	2f f8       	sub	r8,-1
80008b7c:	14 97       	mov	r7,r10
80008b7e:	fb 48 06 b4 	st.w	sp[1716],r8
80008b82:	cb 68       	rjmp	80008cee <_vfprintf_r+0x1516>
80008b84:	f2 e6 00 00 	ld.d	r6,r9[0]
80008b88:	2f 89       	sub	r9,-8
80008b8a:	fa e7 00 00 	st.d	sp[0],r6
80008b8e:	51 09       	stdsp	sp[0x40],r9
80008b90:	14 97       	mov	r7,r10
80008b92:	ca e8       	rjmp	80008cee <_vfprintf_r+0x1516>
80008b94:	ed b5 00 04 	bld	r5,0x4
80008b98:	c1 71       	brne	80008bc6 <_vfprintf_r+0x13ee>
80008b9a:	fa f8 06 b4 	ld.w	r8,sp[1716]
80008b9e:	40 3e       	lddsp	lr,sp[0xc]
80008ba0:	58 0e       	cp.w	lr,0
80008ba2:	c0 80       	breq	80008bb2 <_vfprintf_r+0x13da>
80008ba4:	10 36       	cp.w	r6,r8
80008ba6:	c6 94       	brge	80008c78 <_vfprintf_r+0x14a0>
80008ba8:	fa cc f9 44 	sub	r12,sp,-1724
80008bac:	f8 06 00 36 	add	r6,r12,r6<<0x3
80008bb0:	c8 28       	rjmp	80008cb4 <_vfprintf_r+0x14dc>
80008bb2:	ee ca ff ff 	sub	r10,r7,-1
80008bb6:	10 37       	cp.w	r7,r8
80008bb8:	e0 84 00 81 	brge	80008cba <_vfprintf_r+0x14e2>
80008bbc:	fa cb f9 44 	sub	r11,sp,-1724
80008bc0:	f6 06 00 36 	add	r6,r11,r6<<0x3
80008bc4:	c7 78       	rjmp	80008cb2 <_vfprintf_r+0x14da>
80008bc6:	ed b5 00 06 	bld	r5,0x6
80008bca:	c4 b1       	brne	80008c60 <_vfprintf_r+0x1488>
80008bcc:	fa f8 06 b4 	ld.w	r8,sp[1716]
80008bd0:	40 3c       	lddsp	r12,sp[0xc]
80008bd2:	58 0c       	cp.w	r12,0
80008bd4:	c1 d0       	breq	80008c0e <_vfprintf_r+0x1436>
80008bd6:	10 36       	cp.w	r6,r8
80008bd8:	c0 64       	brge	80008be4 <_vfprintf_r+0x140c>
80008bda:	fa cb f9 44 	sub	r11,sp,-1724
80008bde:	f6 06 00 36 	add	r6,r11,r6<<0x3
80008be2:	c1 f8       	rjmp	80008c20 <_vfprintf_r+0x1448>
80008be4:	fa c8 f9 50 	sub	r8,sp,-1712
80008be8:	1a d8       	st.w	--sp,r8
80008bea:	fa c8 fa b8 	sub	r8,sp,-1352
80008bee:	1a d8       	st.w	--sp,r8
80008bf0:	fa c8 fb b4 	sub	r8,sp,-1100
80008bf4:	1a d8       	st.w	--sp,r8
80008bf6:	fa c8 f9 40 	sub	r8,sp,-1728
80008bfa:	fa c9 ff b4 	sub	r9,sp,-76
80008bfe:	04 9a       	mov	r10,r2
80008c00:	0c 9b       	mov	r11,r6
80008c02:	08 9c       	mov	r12,r4
80008c04:	fe b0 f4 52 	rcall	800074a8 <get_arg>
80008c08:	2f dd       	sub	sp,-12
80008c0a:	98 18       	ld.sh	r8,r12[0x2]
80008c0c:	c2 78       	rjmp	80008c5a <_vfprintf_r+0x1482>
80008c0e:	ee ca ff ff 	sub	r10,r7,-1
80008c12:	10 37       	cp.w	r7,r8
80008c14:	c0 a4       	brge	80008c28 <_vfprintf_r+0x1450>
80008c16:	fa c9 f9 44 	sub	r9,sp,-1724
80008c1a:	14 97       	mov	r7,r10
80008c1c:	f2 06 00 36 	add	r6,r9,r6<<0x3
80008c20:	ed 08 fd 8a 	ld.sh	r8,r6[-630]
80008c24:	c1 b8       	rjmp	80008c5a <_vfprintf_r+0x1482>
80008c26:	d7 03       	nop
80008c28:	41 09       	lddsp	r9,sp[0x40]
80008c2a:	59 f8       	cp.w	r8,31
80008c2c:	e0 89 00 13 	brgt	80008c52 <_vfprintf_r+0x147a>
80008c30:	f2 cb ff fc 	sub	r11,r9,-4
80008c34:	51 0b       	stdsp	sp[0x40],r11
80008c36:	72 09       	ld.w	r9,r9[0x0]
80008c38:	fa c6 f9 44 	sub	r6,sp,-1724
80008c3c:	ec 08 00 3b 	add	r11,r6,r8<<0x3
80008c40:	2f f8       	sub	r8,-1
80008c42:	f7 49 fd 88 	st.w	r11[-632],r9
80008c46:	fb 48 06 b4 	st.w	sp[1716],r8
80008c4a:	14 97       	mov	r7,r10
80008c4c:	f1 d9 b0 10 	bfexts	r8,r9,0x0,0x10
80008c50:	c0 58       	rjmp	80008c5a <_vfprintf_r+0x1482>
80008c52:	92 18       	ld.sh	r8,r9[0x2]
80008c54:	14 97       	mov	r7,r10
80008c56:	2f c9       	sub	r9,-4
80008c58:	51 09       	stdsp	sp[0x40],r9
80008c5a:	5c 78       	castu.h	r8
80008c5c:	50 18       	stdsp	sp[0x4],r8
80008c5e:	c4 68       	rjmp	80008cea <_vfprintf_r+0x1512>
80008c60:	fa f8 06 b4 	ld.w	r8,sp[1716]
80008c64:	40 3c       	lddsp	r12,sp[0xc]
80008c66:	58 0c       	cp.w	r12,0
80008c68:	c1 d0       	breq	80008ca2 <_vfprintf_r+0x14ca>
80008c6a:	10 36       	cp.w	r6,r8
80008c6c:	c0 64       	brge	80008c78 <_vfprintf_r+0x14a0>
80008c6e:	fa cb f9 44 	sub	r11,sp,-1724
80008c72:	f6 06 00 36 	add	r6,r11,r6<<0x3
80008c76:	c1 f8       	rjmp	80008cb4 <_vfprintf_r+0x14dc>
80008c78:	fa c8 f9 50 	sub	r8,sp,-1712
80008c7c:	1a d8       	st.w	--sp,r8
80008c7e:	fa c8 fa b8 	sub	r8,sp,-1352
80008c82:	0c 9b       	mov	r11,r6
80008c84:	1a d8       	st.w	--sp,r8
80008c86:	fa c8 fb b4 	sub	r8,sp,-1100
80008c8a:	04 9a       	mov	r10,r2
80008c8c:	1a d8       	st.w	--sp,r8
80008c8e:	08 9c       	mov	r12,r4
80008c90:	fa c8 f9 40 	sub	r8,sp,-1728
80008c94:	fa c9 ff b4 	sub	r9,sp,-76
80008c98:	fe b0 f4 08 	rcall	800074a8 <get_arg>
80008c9c:	2f dd       	sub	sp,-12
80008c9e:	78 0b       	ld.w	r11,r12[0x0]
80008ca0:	c2 48       	rjmp	80008ce8 <_vfprintf_r+0x1510>
80008ca2:	ee ca ff ff 	sub	r10,r7,-1
80008ca6:	10 37       	cp.w	r7,r8
80008ca8:	c0 94       	brge	80008cba <_vfprintf_r+0x14e2>
80008caa:	fa c9 f9 44 	sub	r9,sp,-1724
80008cae:	f2 06 00 36 	add	r6,r9,r6<<0x3
80008cb2:	14 97       	mov	r7,r10
80008cb4:	ec fb fd 88 	ld.w	r11,r6[-632]
80008cb8:	c1 88       	rjmp	80008ce8 <_vfprintf_r+0x1510>
80008cba:	41 09       	lddsp	r9,sp[0x40]
80008cbc:	59 f8       	cp.w	r8,31
80008cbe:	e0 89 00 11 	brgt	80008ce0 <_vfprintf_r+0x1508>
80008cc2:	f2 cb ff fc 	sub	r11,r9,-4
80008cc6:	51 0b       	stdsp	sp[0x40],r11
80008cc8:	fa c6 f9 44 	sub	r6,sp,-1724
80008ccc:	72 0b       	ld.w	r11,r9[0x0]
80008cce:	ec 08 00 39 	add	r9,r6,r8<<0x3
80008cd2:	f3 4b fd 88 	st.w	r9[-632],r11
80008cd6:	2f f8       	sub	r8,-1
80008cd8:	14 97       	mov	r7,r10
80008cda:	fb 48 06 b4 	st.w	sp[1716],r8
80008cde:	c0 58       	rjmp	80008ce8 <_vfprintf_r+0x1510>
80008ce0:	72 0b       	ld.w	r11,r9[0x0]
80008ce2:	14 97       	mov	r7,r10
80008ce4:	2f c9       	sub	r9,-4
80008ce6:	51 09       	stdsp	sp[0x40],r9
80008ce8:	50 1b       	stdsp	sp[0x4],r11
80008cea:	30 0e       	mov	lr,0
80008cec:	50 0e       	stdsp	sp[0x0],lr
80008cee:	40 08       	lddsp	r8,sp[0x0]
80008cf0:	40 1c       	lddsp	r12,sp[0x4]
80008cf2:	18 48       	or	r8,r12
80008cf4:	5f 19       	srne	r9
80008cf6:	0a 98       	mov	r8,r5
80008cf8:	eb e9 00 09 	and	r9,r5,r9
80008cfc:	a1 b8       	sbr	r8,0x1
80008cfe:	58 09       	cp.w	r9,0
80008d00:	c0 70       	breq	80008d0e <_vfprintf_r+0x1536>
80008d02:	10 95       	mov	r5,r8
80008d04:	fb 60 06 b9 	st.b	sp[1721],r0
80008d08:	33 08       	mov	r8,48
80008d0a:	fb 68 06 b8 	st.b	sp[1720],r8
80008d0e:	30 28       	mov	r8,2
80008d10:	30 09       	mov	r9,0
80008d12:	fb 69 06 bb 	st.b	sp[1723],r9
80008d16:	0a 99       	mov	r9,r5
80008d18:	a7 d9       	cbr	r9,0x7
80008d1a:	40 2b       	lddsp	r11,sp[0x8]
80008d1c:	40 16       	lddsp	r6,sp[0x4]
80008d1e:	58 0b       	cp.w	r11,0
80008d20:	5f 1a       	srne	r10
80008d22:	f2 05 17 40 	movge	r5,r9
80008d26:	fa c2 f9 78 	sub	r2,sp,-1672
80008d2a:	40 09       	lddsp	r9,sp[0x0]
80008d2c:	0c 49       	or	r9,r6
80008d2e:	5f 19       	srne	r9
80008d30:	f5 e9 10 09 	or	r9,r10,r9
80008d34:	c5 c0       	breq	80008dec <_vfprintf_r+0x1614>
80008d36:	30 19       	mov	r9,1
80008d38:	f2 08 18 00 	cp.b	r8,r9
80008d3c:	c0 60       	breq	80008d48 <_vfprintf_r+0x1570>
80008d3e:	30 29       	mov	r9,2
80008d40:	f2 08 18 00 	cp.b	r8,r9
80008d44:	c0 41       	brne	80008d4c <_vfprintf_r+0x1574>
80008d46:	c3 c8       	rjmp	80008dbe <_vfprintf_r+0x15e6>
80008d48:	04 96       	mov	r6,r2
80008d4a:	c3 08       	rjmp	80008daa <_vfprintf_r+0x15d2>
80008d4c:	04 96       	mov	r6,r2
80008d4e:	fa e8 00 00 	ld.d	r8,sp[0]
80008d52:	f5 d8 c0 03 	bfextu	r10,r8,0x0,0x3
80008d56:	2d 0a       	sub	r10,-48
80008d58:	0c fa       	st.b	--r6,r10
80008d5a:	f0 0b 16 03 	lsr	r11,r8,0x3
80008d5e:	f2 0c 16 03 	lsr	r12,r9,0x3
80008d62:	f7 e9 11 db 	or	r11,r11,r9<<0x1d
80008d66:	18 99       	mov	r9,r12
80008d68:	16 98       	mov	r8,r11
80008d6a:	58 08       	cp.w	r8,0
80008d6c:	5c 29       	cpc	r9
80008d6e:	cf 21       	brne	80008d52 <_vfprintf_r+0x157a>
80008d70:	fa e9 00 00 	st.d	sp[0],r8
80008d74:	ed b5 00 00 	bld	r5,0x0
80008d78:	c4 51       	brne	80008e02 <_vfprintf_r+0x162a>
80008d7a:	33 09       	mov	r9,48
80008d7c:	f2 0a 18 00 	cp.b	r10,r9
80008d80:	c4 10       	breq	80008e02 <_vfprintf_r+0x162a>
80008d82:	0c f9       	st.b	--r6,r9
80008d84:	c3 f8       	rjmp	80008e02 <_vfprintf_r+0x162a>
80008d86:	fa ea 00 00 	ld.d	r10,sp[0]
80008d8a:	30 a8       	mov	r8,10
80008d8c:	30 09       	mov	r9,0
80008d8e:	e0 a0 16 b5 	rcall	8000baf8 <__avr32_umod64>
80008d92:	30 a8       	mov	r8,10
80008d94:	2d 0a       	sub	r10,-48
80008d96:	30 09       	mov	r9,0
80008d98:	ac 8a       	st.b	r6[0x0],r10
80008d9a:	fa ea 00 00 	ld.d	r10,sp[0]
80008d9e:	fe b0 ea 59 	rcall	80006250 <__avr32_udiv64>
80008da2:	16 99       	mov	r9,r11
80008da4:	14 98       	mov	r8,r10
80008da6:	fa e9 00 00 	st.d	sp[0],r8
80008daa:	20 16       	sub	r6,1
80008dac:	fa ea 00 00 	ld.d	r10,sp[0]
80008db0:	58 9a       	cp.w	r10,9
80008db2:	5c 2b       	cpc	r11
80008db4:	fe 9b ff e9 	brhi	80008d86 <_vfprintf_r+0x15ae>
80008db8:	1b f8       	ld.ub	r8,sp[0x7]
80008dba:	2d 08       	sub	r8,-48
80008dbc:	c2 08       	rjmp	80008dfc <_vfprintf_r+0x1624>
80008dbe:	04 96       	mov	r6,r2
80008dc0:	fa e8 00 00 	ld.d	r8,sp[0]
80008dc4:	f5 d8 c0 04 	bfextu	r10,r8,0x0,0x4
80008dc8:	40 de       	lddsp	lr,sp[0x34]
80008dca:	fc 0a 07 0a 	ld.ub	r10,lr[r10]
80008dce:	0c fa       	st.b	--r6,r10
80008dd0:	f2 0b 16 04 	lsr	r11,r9,0x4
80008dd4:	f0 0a 16 04 	lsr	r10,r8,0x4
80008dd8:	f5 e9 11 ca 	or	r10,r10,r9<<0x1c
80008ddc:	16 99       	mov	r9,r11
80008dde:	14 98       	mov	r8,r10
80008de0:	58 08       	cp.w	r8,0
80008de2:	5c 29       	cpc	r9
80008de4:	cf 01       	brne	80008dc4 <_vfprintf_r+0x15ec>
80008de6:	fa e9 00 00 	st.d	sp[0],r8
80008dea:	c0 c8       	rjmp	80008e02 <_vfprintf_r+0x162a>
80008dec:	58 08       	cp.w	r8,0
80008dee:	c0 91       	brne	80008e00 <_vfprintf_r+0x1628>
80008df0:	ed b5 00 00 	bld	r5,0x0
80008df4:	c0 61       	brne	80008e00 <_vfprintf_r+0x1628>
80008df6:	fa c6 f9 79 	sub	r6,sp,-1671
80008dfa:	33 08       	mov	r8,48
80008dfc:	ac 88       	st.b	r6[0x0],r8
80008dfe:	c0 28       	rjmp	80008e02 <_vfprintf_r+0x162a>
80008e00:	04 96       	mov	r6,r2
80008e02:	0c 12       	sub	r2,r6
80008e04:	c1 c8       	rjmp	80008e3c <_vfprintf_r+0x1664>
80008e06:	50 a7       	stdsp	sp[0x28],r7
80008e08:	50 80       	stdsp	sp[0x20],r0
80008e0a:	40 93       	lddsp	r3,sp[0x24]
80008e0c:	0c 97       	mov	r7,r6
80008e0e:	10 90       	mov	r0,r8
80008e10:	04 94       	mov	r4,r2
80008e12:	40 41       	lddsp	r1,sp[0x10]
80008e14:	58 08       	cp.w	r8,0
80008e16:	e0 80 04 4f 	breq	800096b4 <_vfprintf_r+0x1edc>
80008e1a:	fb 68 06 60 	st.b	sp[1632],r8
80008e1e:	30 0c       	mov	r12,0
80008e20:	30 08       	mov	r8,0
80008e22:	30 12       	mov	r2,1
80008e24:	fb 68 06 bb 	st.b	sp[1723],r8
80008e28:	50 2c       	stdsp	sp[0x8],r12
80008e2a:	fa c6 f9 a0 	sub	r6,sp,-1632
80008e2e:	c0 78       	rjmp	80008e3c <_vfprintf_r+0x1664>
80008e30:	30 0b       	mov	r11,0
80008e32:	50 2b       	stdsp	sp[0x8],r11
80008e34:	c0 48       	rjmp	80008e3c <_vfprintf_r+0x1664>
80008e36:	40 22       	lddsp	r2,sp[0x8]
80008e38:	30 0a       	mov	r10,0
80008e3a:	50 2a       	stdsp	sp[0x8],r10
80008e3c:	40 29       	lddsp	r9,sp[0x8]
80008e3e:	e4 09 0c 49 	max	r9,r2,r9
80008e42:	fb 38 06 bb 	ld.ub	r8,sp[1723]
80008e46:	50 39       	stdsp	sp[0xc],r9
80008e48:	0a 9e       	mov	lr,r5
80008e4a:	30 09       	mov	r9,0
80008e4c:	e2 1e 00 02 	andl	lr,0x2,COH
80008e50:	f2 08 18 00 	cp.b	r8,r9
80008e54:	fb f8 10 03 	ld.wne	r8,sp[0xc]
80008e58:	f7 b8 01 ff 	subne	r8,-1
80008e5c:	fb f8 1a 03 	st.wne	sp[0xc],r8
80008e60:	0a 9b       	mov	r11,r5
80008e62:	58 0e       	cp.w	lr,0
80008e64:	fb fc 10 03 	ld.wne	r12,sp[0xc]
80008e68:	f7 bc 01 fe 	subne	r12,-2
80008e6c:	fb fc 1a 03 	st.wne	sp[0xc],r12
80008e70:	e2 1b 00 84 	andl	r11,0x84,COH
80008e74:	50 fe       	stdsp	sp[0x3c],lr
80008e76:	50 9b       	stdsp	sp[0x24],r11
80008e78:	c4 71       	brne	80008f06 <_vfprintf_r+0x172e>
80008e7a:	40 8a       	lddsp	r10,sp[0x20]
80008e7c:	40 39       	lddsp	r9,sp[0xc]
80008e7e:	12 1a       	sub	r10,r9
80008e80:	50 4a       	stdsp	sp[0x10],r10
80008e82:	58 0a       	cp.w	r10,0
80008e84:	e0 89 00 20 	brgt	80008ec4 <_vfprintf_r+0x16ec>
80008e88:	c3 f8       	rjmp	80008f06 <_vfprintf_r+0x172e>
80008e8a:	2f 09       	sub	r9,-16
80008e8c:	2f f8       	sub	r8,-1
80008e8e:	fe ce ca 42 	sub	lr,pc,-13758
80008e92:	31 0c       	mov	r12,16
80008e94:	fb 49 06 90 	st.w	sp[1680],r9
80008e98:	87 0e       	st.w	r3[0x0],lr
80008e9a:	87 1c       	st.w	r3[0x4],r12
80008e9c:	fb 48 06 8c 	st.w	sp[1676],r8
80008ea0:	58 78       	cp.w	r8,7
80008ea2:	e0 89 00 04 	brgt	80008eaa <_vfprintf_r+0x16d2>
80008ea6:	2f 83       	sub	r3,-8
80008ea8:	c0 b8       	rjmp	80008ebe <_vfprintf_r+0x16e6>
80008eaa:	fa ca f9 78 	sub	r10,sp,-1672
80008eae:	02 9b       	mov	r11,r1
80008eb0:	08 9c       	mov	r12,r4
80008eb2:	fe b0 f4 85 	rcall	800077bc <__sprint_r>
80008eb6:	e0 81 04 10 	brne	800096d6 <_vfprintf_r+0x1efe>
80008eba:	fa c3 f9 e0 	sub	r3,sp,-1568
80008ebe:	40 4b       	lddsp	r11,sp[0x10]
80008ec0:	21 0b       	sub	r11,16
80008ec2:	50 4b       	stdsp	sp[0x10],r11
80008ec4:	fa f9 06 90 	ld.w	r9,sp[1680]
80008ec8:	fa f8 06 8c 	ld.w	r8,sp[1676]
80008ecc:	fe ca ca 80 	sub	r10,pc,-13696
80008ed0:	40 4e       	lddsp	lr,sp[0x10]
80008ed2:	59 0e       	cp.w	lr,16
80008ed4:	fe 99 ff db 	brgt	80008e8a <_vfprintf_r+0x16b2>
80008ed8:	1c 09       	add	r9,lr
80008eda:	2f f8       	sub	r8,-1
80008edc:	87 0a       	st.w	r3[0x0],r10
80008ede:	fb 49 06 90 	st.w	sp[1680],r9
80008ee2:	87 1e       	st.w	r3[0x4],lr
80008ee4:	fb 48 06 8c 	st.w	sp[1676],r8
80008ee8:	58 78       	cp.w	r8,7
80008eea:	e0 89 00 04 	brgt	80008ef2 <_vfprintf_r+0x171a>
80008eee:	2f 83       	sub	r3,-8
80008ef0:	c0 b8       	rjmp	80008f06 <_vfprintf_r+0x172e>
80008ef2:	fa ca f9 78 	sub	r10,sp,-1672
80008ef6:	02 9b       	mov	r11,r1
80008ef8:	08 9c       	mov	r12,r4
80008efa:	fe b0 f4 61 	rcall	800077bc <__sprint_r>
80008efe:	e0 81 03 ec 	brne	800096d6 <_vfprintf_r+0x1efe>
80008f02:	fa c3 f9 e0 	sub	r3,sp,-1568
80008f06:	30 09       	mov	r9,0
80008f08:	fb 38 06 bb 	ld.ub	r8,sp[1723]
80008f0c:	f2 08 18 00 	cp.b	r8,r9
80008f10:	c1 f0       	breq	80008f4e <_vfprintf_r+0x1776>
80008f12:	fa f8 06 90 	ld.w	r8,sp[1680]
80008f16:	fa c9 f9 45 	sub	r9,sp,-1723
80008f1a:	2f f8       	sub	r8,-1
80008f1c:	87 09       	st.w	r3[0x0],r9
80008f1e:	fb 48 06 90 	st.w	sp[1680],r8
80008f22:	30 19       	mov	r9,1
80008f24:	fa f8 06 8c 	ld.w	r8,sp[1676]
80008f28:	87 19       	st.w	r3[0x4],r9
80008f2a:	2f f8       	sub	r8,-1
80008f2c:	fb 48 06 8c 	st.w	sp[1676],r8
80008f30:	58 78       	cp.w	r8,7
80008f32:	e0 89 00 04 	brgt	80008f3a <_vfprintf_r+0x1762>
80008f36:	2f 83       	sub	r3,-8
80008f38:	c0 b8       	rjmp	80008f4e <_vfprintf_r+0x1776>
80008f3a:	fa ca f9 78 	sub	r10,sp,-1672
80008f3e:	02 9b       	mov	r11,r1
80008f40:	08 9c       	mov	r12,r4
80008f42:	fe b0 f4 3d 	rcall	800077bc <__sprint_r>
80008f46:	e0 81 03 c8 	brne	800096d6 <_vfprintf_r+0x1efe>
80008f4a:	fa c3 f9 e0 	sub	r3,sp,-1568
80008f4e:	40 fc       	lddsp	r12,sp[0x3c]
80008f50:	58 0c       	cp.w	r12,0
80008f52:	c1 f0       	breq	80008f90 <_vfprintf_r+0x17b8>
80008f54:	fa f8 06 90 	ld.w	r8,sp[1680]
80008f58:	fa c9 f9 48 	sub	r9,sp,-1720
80008f5c:	2f e8       	sub	r8,-2
80008f5e:	87 09       	st.w	r3[0x0],r9
80008f60:	fb 48 06 90 	st.w	sp[1680],r8
80008f64:	30 29       	mov	r9,2
80008f66:	fa f8 06 8c 	ld.w	r8,sp[1676]
80008f6a:	87 19       	st.w	r3[0x4],r9
80008f6c:	2f f8       	sub	r8,-1
80008f6e:	fb 48 06 8c 	st.w	sp[1676],r8
80008f72:	58 78       	cp.w	r8,7
80008f74:	e0 89 00 04 	brgt	80008f7c <_vfprintf_r+0x17a4>
80008f78:	2f 83       	sub	r3,-8
80008f7a:	c0 b8       	rjmp	80008f90 <_vfprintf_r+0x17b8>
80008f7c:	fa ca f9 78 	sub	r10,sp,-1672
80008f80:	02 9b       	mov	r11,r1
80008f82:	08 9c       	mov	r12,r4
80008f84:	fe b0 f4 1c 	rcall	800077bc <__sprint_r>
80008f88:	e0 81 03 a7 	brne	800096d6 <_vfprintf_r+0x1efe>
80008f8c:	fa c3 f9 e0 	sub	r3,sp,-1568
80008f90:	40 9b       	lddsp	r11,sp[0x24]
80008f92:	e0 4b 00 80 	cp.w	r11,128
80008f96:	c4 71       	brne	80009024 <_vfprintf_r+0x184c>
80008f98:	40 8a       	lddsp	r10,sp[0x20]
80008f9a:	40 39       	lddsp	r9,sp[0xc]
80008f9c:	12 1a       	sub	r10,r9
80008f9e:	50 4a       	stdsp	sp[0x10],r10
80008fa0:	58 0a       	cp.w	r10,0
80008fa2:	e0 89 00 20 	brgt	80008fe2 <_vfprintf_r+0x180a>
80008fa6:	c3 f8       	rjmp	80009024 <_vfprintf_r+0x184c>
80008fa8:	2f 09       	sub	r9,-16
80008faa:	2f f8       	sub	r8,-1
80008fac:	fe ce cb 50 	sub	lr,pc,-13488
80008fb0:	31 0c       	mov	r12,16
80008fb2:	fb 49 06 90 	st.w	sp[1680],r9
80008fb6:	87 0e       	st.w	r3[0x0],lr
80008fb8:	87 1c       	st.w	r3[0x4],r12
80008fba:	fb 48 06 8c 	st.w	sp[1676],r8
80008fbe:	58 78       	cp.w	r8,7
80008fc0:	e0 89 00 04 	brgt	80008fc8 <_vfprintf_r+0x17f0>
80008fc4:	2f 83       	sub	r3,-8
80008fc6:	c0 b8       	rjmp	80008fdc <_vfprintf_r+0x1804>
80008fc8:	fa ca f9 78 	sub	r10,sp,-1672
80008fcc:	02 9b       	mov	r11,r1
80008fce:	08 9c       	mov	r12,r4
80008fd0:	fe b0 f3 f6 	rcall	800077bc <__sprint_r>
80008fd4:	e0 81 03 81 	brne	800096d6 <_vfprintf_r+0x1efe>
80008fd8:	fa c3 f9 e0 	sub	r3,sp,-1568
80008fdc:	40 4b       	lddsp	r11,sp[0x10]
80008fde:	21 0b       	sub	r11,16
80008fe0:	50 4b       	stdsp	sp[0x10],r11
80008fe2:	fa f9 06 90 	ld.w	r9,sp[1680]
80008fe6:	fa f8 06 8c 	ld.w	r8,sp[1676]
80008fea:	fe ca cb 8e 	sub	r10,pc,-13426
80008fee:	40 4e       	lddsp	lr,sp[0x10]
80008ff0:	59 0e       	cp.w	lr,16
80008ff2:	fe 99 ff db 	brgt	80008fa8 <_vfprintf_r+0x17d0>
80008ff6:	1c 09       	add	r9,lr
80008ff8:	2f f8       	sub	r8,-1
80008ffa:	87 0a       	st.w	r3[0x0],r10
80008ffc:	fb 49 06 90 	st.w	sp[1680],r9
80009000:	87 1e       	st.w	r3[0x4],lr
80009002:	fb 48 06 8c 	st.w	sp[1676],r8
80009006:	58 78       	cp.w	r8,7
80009008:	e0 89 00 04 	brgt	80009010 <_vfprintf_r+0x1838>
8000900c:	2f 83       	sub	r3,-8
8000900e:	c0 b8       	rjmp	80009024 <_vfprintf_r+0x184c>
80009010:	fa ca f9 78 	sub	r10,sp,-1672
80009014:	02 9b       	mov	r11,r1
80009016:	08 9c       	mov	r12,r4
80009018:	fe b0 f3 d2 	rcall	800077bc <__sprint_r>
8000901c:	e0 81 03 5d 	brne	800096d6 <_vfprintf_r+0x1efe>
80009020:	fa c3 f9 e0 	sub	r3,sp,-1568
80009024:	40 2c       	lddsp	r12,sp[0x8]
80009026:	04 1c       	sub	r12,r2
80009028:	50 2c       	stdsp	sp[0x8],r12
8000902a:	58 0c       	cp.w	r12,0
8000902c:	e0 89 00 20 	brgt	8000906c <_vfprintf_r+0x1894>
80009030:	c3 f8       	rjmp	800090ae <_vfprintf_r+0x18d6>
80009032:	2f 09       	sub	r9,-16
80009034:	2f f8       	sub	r8,-1
80009036:	fe cb cb da 	sub	r11,pc,-13350
8000903a:	31 0a       	mov	r10,16
8000903c:	fb 49 06 90 	st.w	sp[1680],r9
80009040:	87 0b       	st.w	r3[0x0],r11
80009042:	87 1a       	st.w	r3[0x4],r10
80009044:	fb 48 06 8c 	st.w	sp[1676],r8
80009048:	58 78       	cp.w	r8,7
8000904a:	e0 89 00 04 	brgt	80009052 <_vfprintf_r+0x187a>
8000904e:	2f 83       	sub	r3,-8
80009050:	c0 b8       	rjmp	80009066 <_vfprintf_r+0x188e>
80009052:	fa ca f9 78 	sub	r10,sp,-1672
80009056:	02 9b       	mov	r11,r1
80009058:	08 9c       	mov	r12,r4
8000905a:	fe b0 f3 b1 	rcall	800077bc <__sprint_r>
8000905e:	e0 81 03 3c 	brne	800096d6 <_vfprintf_r+0x1efe>
80009062:	fa c3 f9 e0 	sub	r3,sp,-1568
80009066:	40 29       	lddsp	r9,sp[0x8]
80009068:	21 09       	sub	r9,16
8000906a:	50 29       	stdsp	sp[0x8],r9
8000906c:	fa f9 06 90 	ld.w	r9,sp[1680]
80009070:	fa f8 06 8c 	ld.w	r8,sp[1676]
80009074:	fe ca cc 18 	sub	r10,pc,-13288
80009078:	40 2e       	lddsp	lr,sp[0x8]
8000907a:	59 0e       	cp.w	lr,16
8000907c:	fe 99 ff db 	brgt	80009032 <_vfprintf_r+0x185a>
80009080:	1c 09       	add	r9,lr
80009082:	2f f8       	sub	r8,-1
80009084:	87 0a       	st.w	r3[0x0],r10
80009086:	fb 49 06 90 	st.w	sp[1680],r9
8000908a:	87 1e       	st.w	r3[0x4],lr
8000908c:	fb 48 06 8c 	st.w	sp[1676],r8
80009090:	58 78       	cp.w	r8,7
80009092:	e0 89 00 04 	brgt	8000909a <_vfprintf_r+0x18c2>
80009096:	2f 83       	sub	r3,-8
80009098:	c0 b8       	rjmp	800090ae <_vfprintf_r+0x18d6>
8000909a:	fa ca f9 78 	sub	r10,sp,-1672
8000909e:	02 9b       	mov	r11,r1
800090a0:	08 9c       	mov	r12,r4
800090a2:	fe b0 f3 8d 	rcall	800077bc <__sprint_r>
800090a6:	e0 81 03 18 	brne	800096d6 <_vfprintf_r+0x1efe>
800090aa:	fa c3 f9 e0 	sub	r3,sp,-1568
800090ae:	ed b5 00 08 	bld	r5,0x8
800090b2:	c0 b0       	breq	800090c8 <_vfprintf_r+0x18f0>
800090b4:	fa f8 06 90 	ld.w	r8,sp[1680]
800090b8:	87 12       	st.w	r3[0x4],r2
800090ba:	87 06       	st.w	r3[0x0],r6
800090bc:	f0 02 00 02 	add	r2,r8,r2
800090c0:	fb 42 06 90 	st.w	sp[1680],r2
800090c4:	e0 8f 01 d4 	bral	8000946c <_vfprintf_r+0x1c94>
800090c8:	e0 40 00 65 	cp.w	r0,101
800090cc:	e0 8a 01 d6 	brle	80009478 <_vfprintf_r+0x1ca0>
800090d0:	30 08       	mov	r8,0
800090d2:	30 09       	mov	r9,0
800090d4:	40 5b       	lddsp	r11,sp[0x14]
800090d6:	40 7a       	lddsp	r10,sp[0x1c]
800090d8:	e0 a0 13 09 	rcall	8000b6ea <__avr32_f64_cmp_eq>
800090dc:	c7 90       	breq	800091ce <_vfprintf_r+0x19f6>
800090de:	fa f8 06 90 	ld.w	r8,sp[1680]
800090e2:	fe c9 cc 9a 	sub	r9,pc,-13158
800090e6:	2f f8       	sub	r8,-1
800090e8:	87 09       	st.w	r3[0x0],r9
800090ea:	fb 48 06 90 	st.w	sp[1680],r8
800090ee:	30 19       	mov	r9,1
800090f0:	fa f8 06 8c 	ld.w	r8,sp[1676]
800090f4:	87 19       	st.w	r3[0x4],r9
800090f6:	2f f8       	sub	r8,-1
800090f8:	fb 48 06 8c 	st.w	sp[1676],r8
800090fc:	58 78       	cp.w	r8,7
800090fe:	e0 89 00 05 	brgt	80009108 <_vfprintf_r+0x1930>
80009102:	2f 83       	sub	r3,-8
80009104:	c0 c8       	rjmp	8000911c <_vfprintf_r+0x1944>
80009106:	d7 03       	nop
80009108:	fa ca f9 78 	sub	r10,sp,-1672
8000910c:	02 9b       	mov	r11,r1
8000910e:	08 9c       	mov	r12,r4
80009110:	fe b0 f3 56 	rcall	800077bc <__sprint_r>
80009114:	e0 81 02 e1 	brne	800096d6 <_vfprintf_r+0x1efe>
80009118:	fa c3 f9 e0 	sub	r3,sp,-1568
8000911c:	fa f8 06 ac 	ld.w	r8,sp[1708]
80009120:	40 6c       	lddsp	r12,sp[0x18]
80009122:	18 38       	cp.w	r8,r12
80009124:	c0 55       	brlt	8000912e <_vfprintf_r+0x1956>
80009126:	ed b5 00 00 	bld	r5,0x0
8000912a:	e0 81 02 6b 	brne	80009600 <_vfprintf_r+0x1e28>
8000912e:	fa f8 06 90 	ld.w	r8,sp[1680]
80009132:	2f f8       	sub	r8,-1
80009134:	40 cb       	lddsp	r11,sp[0x30]
80009136:	fb 48 06 90 	st.w	sp[1680],r8
8000913a:	30 19       	mov	r9,1
8000913c:	fa f8 06 8c 	ld.w	r8,sp[1676]
80009140:	87 0b       	st.w	r3[0x0],r11
80009142:	2f f8       	sub	r8,-1
80009144:	87 19       	st.w	r3[0x4],r9
80009146:	fb 48 06 8c 	st.w	sp[1676],r8
8000914a:	58 78       	cp.w	r8,7
8000914c:	e0 89 00 04 	brgt	80009154 <_vfprintf_r+0x197c>
80009150:	2f 83       	sub	r3,-8
80009152:	c0 b8       	rjmp	80009168 <_vfprintf_r+0x1990>
80009154:	fa ca f9 78 	sub	r10,sp,-1672
80009158:	02 9b       	mov	r11,r1
8000915a:	08 9c       	mov	r12,r4
8000915c:	fe b0 f3 30 	rcall	800077bc <__sprint_r>
80009160:	e0 81 02 bb 	brne	800096d6 <_vfprintf_r+0x1efe>
80009164:	fa c3 f9 e0 	sub	r3,sp,-1568
80009168:	40 66       	lddsp	r6,sp[0x18]
8000916a:	20 16       	sub	r6,1
8000916c:	58 06       	cp.w	r6,0
8000916e:	e0 89 00 1d 	brgt	800091a8 <_vfprintf_r+0x19d0>
80009172:	e0 8f 02 47 	bral	80009600 <_vfprintf_r+0x1e28>
80009176:	2f 09       	sub	r9,-16
80009178:	2f f8       	sub	r8,-1
8000917a:	fb 49 06 90 	st.w	sp[1680],r9
8000917e:	87 02       	st.w	r3[0x0],r2
80009180:	87 10       	st.w	r3[0x4],r0
80009182:	fb 48 06 8c 	st.w	sp[1676],r8
80009186:	58 78       	cp.w	r8,7
80009188:	e0 89 00 04 	brgt	80009190 <_vfprintf_r+0x19b8>
8000918c:	2f 83       	sub	r3,-8
8000918e:	c0 b8       	rjmp	800091a4 <_vfprintf_r+0x19cc>
80009190:	fa ca f9 78 	sub	r10,sp,-1672
80009194:	02 9b       	mov	r11,r1
80009196:	08 9c       	mov	r12,r4
80009198:	fe b0 f3 12 	rcall	800077bc <__sprint_r>
8000919c:	e0 81 02 9d 	brne	800096d6 <_vfprintf_r+0x1efe>
800091a0:	fa c3 f9 e0 	sub	r3,sp,-1568
800091a4:	21 06       	sub	r6,16
800091a6:	c0 48       	rjmp	800091ae <_vfprintf_r+0x19d6>
800091a8:	fe c2 cd 4c 	sub	r2,pc,-12980
800091ac:	31 00       	mov	r0,16
800091ae:	fa f9 06 90 	ld.w	r9,sp[1680]
800091b2:	fa f8 06 8c 	ld.w	r8,sp[1676]
800091b6:	fe ca cd 5a 	sub	r10,pc,-12966
800091ba:	59 06       	cp.w	r6,16
800091bc:	fe 99 ff dd 	brgt	80009176 <_vfprintf_r+0x199e>
800091c0:	0c 09       	add	r9,r6
800091c2:	87 0a       	st.w	r3[0x0],r10
800091c4:	fb 49 06 90 	st.w	sp[1680],r9
800091c8:	2f f8       	sub	r8,-1
800091ca:	87 16       	st.w	r3[0x4],r6
800091cc:	c5 39       	rjmp	80009472 <_vfprintf_r+0x1c9a>
800091ce:	fa fa 06 ac 	ld.w	r10,sp[1708]
800091d2:	58 0a       	cp.w	r10,0
800091d4:	e0 89 00 92 	brgt	800092f8 <_vfprintf_r+0x1b20>
800091d8:	fa f8 06 90 	ld.w	r8,sp[1680]
800091dc:	fe c9 cd 94 	sub	r9,pc,-12908
800091e0:	2f f8       	sub	r8,-1
800091e2:	87 09       	st.w	r3[0x0],r9
800091e4:	fb 48 06 90 	st.w	sp[1680],r8
800091e8:	30 19       	mov	r9,1
800091ea:	fa f8 06 8c 	ld.w	r8,sp[1676]
800091ee:	87 19       	st.w	r3[0x4],r9
800091f0:	2f f8       	sub	r8,-1
800091f2:	fb 48 06 8c 	st.w	sp[1676],r8
800091f6:	58 78       	cp.w	r8,7
800091f8:	e0 89 00 04 	brgt	80009200 <_vfprintf_r+0x1a28>
800091fc:	2f 83       	sub	r3,-8
800091fe:	c0 b8       	rjmp	80009214 <_vfprintf_r+0x1a3c>
80009200:	fa ca f9 78 	sub	r10,sp,-1672
80009204:	02 9b       	mov	r11,r1
80009206:	08 9c       	mov	r12,r4
80009208:	fe b0 f2 da 	rcall	800077bc <__sprint_r>
8000920c:	e0 81 02 65 	brne	800096d6 <_vfprintf_r+0x1efe>
80009210:	fa c3 f9 e0 	sub	r3,sp,-1568
80009214:	fa f8 06 ac 	ld.w	r8,sp[1708]
80009218:	58 08       	cp.w	r8,0
8000921a:	c0 81       	brne	8000922a <_vfprintf_r+0x1a52>
8000921c:	40 6a       	lddsp	r10,sp[0x18]
8000921e:	58 0a       	cp.w	r10,0
80009220:	c0 51       	brne	8000922a <_vfprintf_r+0x1a52>
80009222:	ed b5 00 00 	bld	r5,0x0
80009226:	e0 81 01 ed 	brne	80009600 <_vfprintf_r+0x1e28>
8000922a:	40 c9       	lddsp	r9,sp[0x30]
8000922c:	fa f8 06 90 	ld.w	r8,sp[1680]
80009230:	2f f8       	sub	r8,-1
80009232:	87 09       	st.w	r3[0x0],r9
80009234:	fb 48 06 90 	st.w	sp[1680],r8
80009238:	30 19       	mov	r9,1
8000923a:	fa f8 06 8c 	ld.w	r8,sp[1676]
8000923e:	87 19       	st.w	r3[0x4],r9
80009240:	2f f8       	sub	r8,-1
80009242:	fb 48 06 8c 	st.w	sp[1676],r8
80009246:	58 78       	cp.w	r8,7
80009248:	e0 89 00 04 	brgt	80009250 <_vfprintf_r+0x1a78>
8000924c:	2f 83       	sub	r3,-8
8000924e:	c0 b8       	rjmp	80009264 <_vfprintf_r+0x1a8c>
80009250:	fa ca f9 78 	sub	r10,sp,-1672
80009254:	02 9b       	mov	r11,r1
80009256:	08 9c       	mov	r12,r4
80009258:	fe b0 f2 b2 	rcall	800077bc <__sprint_r>
8000925c:	e0 81 02 3d 	brne	800096d6 <_vfprintf_r+0x1efe>
80009260:	fa c3 f9 e0 	sub	r3,sp,-1568
80009264:	fa f2 06 ac 	ld.w	r2,sp[1708]
80009268:	5c 32       	neg	r2
8000926a:	58 02       	cp.w	r2,0
8000926c:	e0 89 00 1d 	brgt	800092a6 <_vfprintf_r+0x1ace>
80009270:	c3 d8       	rjmp	800092ea <_vfprintf_r+0x1b12>
80009272:	2f 09       	sub	r9,-16
80009274:	2f f8       	sub	r8,-1
80009276:	31 0e       	mov	lr,16
80009278:	fb 49 06 90 	st.w	sp[1680],r9
8000927c:	87 00       	st.w	r3[0x0],r0
8000927e:	87 1e       	st.w	r3[0x4],lr
80009280:	fb 48 06 8c 	st.w	sp[1676],r8
80009284:	58 78       	cp.w	r8,7
80009286:	e0 89 00 04 	brgt	8000928e <_vfprintf_r+0x1ab6>
8000928a:	2f 83       	sub	r3,-8
8000928c:	c0 b8       	rjmp	800092a2 <_vfprintf_r+0x1aca>
8000928e:	fa ca f9 78 	sub	r10,sp,-1672
80009292:	02 9b       	mov	r11,r1
80009294:	08 9c       	mov	r12,r4
80009296:	fe b0 f2 93 	rcall	800077bc <__sprint_r>
8000929a:	e0 81 02 1e 	brne	800096d6 <_vfprintf_r+0x1efe>
8000929e:	fa c3 f9 e0 	sub	r3,sp,-1568
800092a2:	21 02       	sub	r2,16
800092a4:	c0 38       	rjmp	800092aa <_vfprintf_r+0x1ad2>
800092a6:	fe c0 ce 4a 	sub	r0,pc,-12726
800092aa:	fa f9 06 90 	ld.w	r9,sp[1680]
800092ae:	fa f8 06 8c 	ld.w	r8,sp[1676]
800092b2:	fe ca ce 56 	sub	r10,pc,-12714
800092b6:	59 02       	cp.w	r2,16
800092b8:	fe 99 ff dd 	brgt	80009272 <_vfprintf_r+0x1a9a>
800092bc:	04 09       	add	r9,r2
800092be:	2f f8       	sub	r8,-1
800092c0:	87 0a       	st.w	r3[0x0],r10
800092c2:	fb 49 06 90 	st.w	sp[1680],r9
800092c6:	87 12       	st.w	r3[0x4],r2
800092c8:	fb 48 06 8c 	st.w	sp[1676],r8
800092cc:	58 78       	cp.w	r8,7
800092ce:	e0 89 00 04 	brgt	800092d6 <_vfprintf_r+0x1afe>
800092d2:	2f 83       	sub	r3,-8
800092d4:	c0 b8       	rjmp	800092ea <_vfprintf_r+0x1b12>
800092d6:	fa ca f9 78 	sub	r10,sp,-1672
800092da:	02 9b       	mov	r11,r1
800092dc:	08 9c       	mov	r12,r4
800092de:	fe b0 f2 6f 	rcall	800077bc <__sprint_r>
800092e2:	e0 81 01 fa 	brne	800096d6 <_vfprintf_r+0x1efe>
800092e6:	fa c3 f9 e0 	sub	r3,sp,-1568
800092ea:	40 6c       	lddsp	r12,sp[0x18]
800092ec:	fa f8 06 90 	ld.w	r8,sp[1680]
800092f0:	87 06       	st.w	r3[0x0],r6
800092f2:	87 1c       	st.w	r3[0x4],r12
800092f4:	18 08       	add	r8,r12
800092f6:	cb 98       	rjmp	80009468 <_vfprintf_r+0x1c90>
800092f8:	fa f9 06 90 	ld.w	r9,sp[1680]
800092fc:	fa f8 06 8c 	ld.w	r8,sp[1676]
80009300:	40 6b       	lddsp	r11,sp[0x18]
80009302:	16 3a       	cp.w	r10,r11
80009304:	c6 f5       	brlt	800093e2 <_vfprintf_r+0x1c0a>
80009306:	16 09       	add	r9,r11
80009308:	2f f8       	sub	r8,-1
8000930a:	87 06       	st.w	r3[0x0],r6
8000930c:	fb 49 06 90 	st.w	sp[1680],r9
80009310:	87 1b       	st.w	r3[0x4],r11
80009312:	fb 48 06 8c 	st.w	sp[1676],r8
80009316:	58 78       	cp.w	r8,7
80009318:	e0 89 00 04 	brgt	80009320 <_vfprintf_r+0x1b48>
8000931c:	2f 83       	sub	r3,-8
8000931e:	c0 b8       	rjmp	80009334 <_vfprintf_r+0x1b5c>
80009320:	fa ca f9 78 	sub	r10,sp,-1672
80009324:	02 9b       	mov	r11,r1
80009326:	08 9c       	mov	r12,r4
80009328:	fe b0 f2 4a 	rcall	800077bc <__sprint_r>
8000932c:	e0 81 01 d5 	brne	800096d6 <_vfprintf_r+0x1efe>
80009330:	fa c3 f9 e0 	sub	r3,sp,-1568
80009334:	fa f6 06 ac 	ld.w	r6,sp[1708]
80009338:	40 6a       	lddsp	r10,sp[0x18]
8000933a:	14 16       	sub	r6,r10
8000933c:	58 06       	cp.w	r6,0
8000933e:	e0 89 00 1c 	brgt	80009376 <_vfprintf_r+0x1b9e>
80009342:	c3 d8       	rjmp	800093bc <_vfprintf_r+0x1be4>
80009344:	2f 09       	sub	r9,-16
80009346:	2f f8       	sub	r8,-1
80009348:	fb 49 06 90 	st.w	sp[1680],r9
8000934c:	87 02       	st.w	r3[0x0],r2
8000934e:	87 10       	st.w	r3[0x4],r0
80009350:	fb 48 06 8c 	st.w	sp[1676],r8
80009354:	58 78       	cp.w	r8,7
80009356:	e0 89 00 04 	brgt	8000935e <_vfprintf_r+0x1b86>
8000935a:	2f 83       	sub	r3,-8
8000935c:	c0 b8       	rjmp	80009372 <_vfprintf_r+0x1b9a>
8000935e:	fa ca f9 78 	sub	r10,sp,-1672
80009362:	02 9b       	mov	r11,r1
80009364:	08 9c       	mov	r12,r4
80009366:	fe b0 f2 2b 	rcall	800077bc <__sprint_r>
8000936a:	e0 81 01 b6 	brne	800096d6 <_vfprintf_r+0x1efe>
8000936e:	fa c3 f9 e0 	sub	r3,sp,-1568
80009372:	21 06       	sub	r6,16
80009374:	c0 48       	rjmp	8000937c <_vfprintf_r+0x1ba4>
80009376:	fe c2 cf 1a 	sub	r2,pc,-12518
8000937a:	31 00       	mov	r0,16
8000937c:	fa f9 06 90 	ld.w	r9,sp[1680]
80009380:	fa f8 06 8c 	ld.w	r8,sp[1676]
80009384:	fe ca cf 28 	sub	r10,pc,-12504
80009388:	59 06       	cp.w	r6,16
8000938a:	fe 99 ff dd 	brgt	80009344 <_vfprintf_r+0x1b6c>
8000938e:	0c 09       	add	r9,r6
80009390:	2f f8       	sub	r8,-1
80009392:	87 0a       	st.w	r3[0x0],r10
80009394:	fb 49 06 90 	st.w	sp[1680],r9
80009398:	87 16       	st.w	r3[0x4],r6
8000939a:	fb 48 06 8c 	st.w	sp[1676],r8
8000939e:	58 78       	cp.w	r8,7
800093a0:	e0 89 00 04 	brgt	800093a8 <_vfprintf_r+0x1bd0>
800093a4:	2f 83       	sub	r3,-8
800093a6:	c0 b8       	rjmp	800093bc <_vfprintf_r+0x1be4>
800093a8:	fa ca f9 78 	sub	r10,sp,-1672
800093ac:	02 9b       	mov	r11,r1
800093ae:	08 9c       	mov	r12,r4
800093b0:	fe b0 f2 06 	rcall	800077bc <__sprint_r>
800093b4:	e0 81 01 91 	brne	800096d6 <_vfprintf_r+0x1efe>
800093b8:	fa c3 f9 e0 	sub	r3,sp,-1568
800093bc:	ed b5 00 00 	bld	r5,0x0
800093c0:	e0 81 01 20 	brne	80009600 <_vfprintf_r+0x1e28>
800093c4:	40 c9       	lddsp	r9,sp[0x30]
800093c6:	fa f8 06 90 	ld.w	r8,sp[1680]
800093ca:	2f f8       	sub	r8,-1
800093cc:	87 09       	st.w	r3[0x0],r9
800093ce:	fb 48 06 90 	st.w	sp[1680],r8
800093d2:	30 19       	mov	r9,1
800093d4:	fa f8 06 8c 	ld.w	r8,sp[1676]
800093d8:	87 19       	st.w	r3[0x4],r9
800093da:	2f f8       	sub	r8,-1
800093dc:	fb 48 06 8c 	st.w	sp[1676],r8
800093e0:	c0 29       	rjmp	800095e4 <_vfprintf_r+0x1e0c>
800093e2:	14 09       	add	r9,r10
800093e4:	2f f8       	sub	r8,-1
800093e6:	fb 49 06 90 	st.w	sp[1680],r9
800093ea:	87 06       	st.w	r3[0x0],r6
800093ec:	87 1a       	st.w	r3[0x4],r10
800093ee:	fb 48 06 8c 	st.w	sp[1676],r8
800093f2:	58 78       	cp.w	r8,7
800093f4:	e0 89 00 04 	brgt	800093fc <_vfprintf_r+0x1c24>
800093f8:	2f 83       	sub	r3,-8
800093fa:	c0 b8       	rjmp	80009410 <_vfprintf_r+0x1c38>
800093fc:	fa ca f9 78 	sub	r10,sp,-1672
80009400:	02 9b       	mov	r11,r1
80009402:	08 9c       	mov	r12,r4
80009404:	fe b0 f1 dc 	rcall	800077bc <__sprint_r>
80009408:	e0 81 01 67 	brne	800096d6 <_vfprintf_r+0x1efe>
8000940c:	fa c3 f9 e0 	sub	r3,sp,-1568
80009410:	40 c8       	lddsp	r8,sp[0x30]
80009412:	87 08       	st.w	r3[0x0],r8
80009414:	fa f8 06 90 	ld.w	r8,sp[1680]
80009418:	2f f8       	sub	r8,-1
8000941a:	30 19       	mov	r9,1
8000941c:	fb 48 06 90 	st.w	sp[1680],r8
80009420:	87 19       	st.w	r3[0x4],r9
80009422:	fa f8 06 8c 	ld.w	r8,sp[1676]
80009426:	2f f8       	sub	r8,-1
80009428:	fb 48 06 8c 	st.w	sp[1676],r8
8000942c:	fa f2 06 ac 	ld.w	r2,sp[1708]
80009430:	58 78       	cp.w	r8,7
80009432:	e0 89 00 04 	brgt	8000943a <_vfprintf_r+0x1c62>
80009436:	2f 83       	sub	r3,-8
80009438:	c0 b8       	rjmp	8000944e <_vfprintf_r+0x1c76>
8000943a:	fa ca f9 78 	sub	r10,sp,-1672
8000943e:	02 9b       	mov	r11,r1
80009440:	08 9c       	mov	r12,r4
80009442:	fe b0 f1 bd 	rcall	800077bc <__sprint_r>
80009446:	e0 81 01 48 	brne	800096d6 <_vfprintf_r+0x1efe>
8000944a:	fa c3 f9 e0 	sub	r3,sp,-1568
8000944e:	04 06       	add	r6,r2
80009450:	fa f8 06 ac 	ld.w	r8,sp[1708]
80009454:	87 06       	st.w	r3[0x0],r6
80009456:	fa f9 06 90 	ld.w	r9,sp[1680]
8000945a:	40 66       	lddsp	r6,sp[0x18]
8000945c:	40 6e       	lddsp	lr,sp[0x18]
8000945e:	10 16       	sub	r6,r8
80009460:	f2 08 01 08 	sub	r8,r9,r8
80009464:	87 16       	st.w	r3[0x4],r6
80009466:	1c 08       	add	r8,lr
80009468:	fb 48 06 90 	st.w	sp[1680],r8
8000946c:	fa f8 06 8c 	ld.w	r8,sp[1676]
80009470:	2f f8       	sub	r8,-1
80009472:	fb 48 06 8c 	st.w	sp[1676],r8
80009476:	cb 78       	rjmp	800095e4 <_vfprintf_r+0x1e0c>
80009478:	40 6c       	lddsp	r12,sp[0x18]
8000947a:	58 1c       	cp.w	r12,1
8000947c:	e0 89 00 06 	brgt	80009488 <_vfprintf_r+0x1cb0>
80009480:	ed b5 00 00 	bld	r5,0x0
80009484:	e0 81 00 85 	brne	8000958e <_vfprintf_r+0x1db6>
80009488:	fa f8 06 90 	ld.w	r8,sp[1680]
8000948c:	2f f8       	sub	r8,-1
8000948e:	30 19       	mov	r9,1
80009490:	fb 48 06 90 	st.w	sp[1680],r8
80009494:	87 06       	st.w	r3[0x0],r6
80009496:	fa f8 06 8c 	ld.w	r8,sp[1676]
8000949a:	87 19       	st.w	r3[0x4],r9
8000949c:	2f f8       	sub	r8,-1
8000949e:	fb 48 06 8c 	st.w	sp[1676],r8
800094a2:	58 78       	cp.w	r8,7
800094a4:	e0 89 00 04 	brgt	800094ac <_vfprintf_r+0x1cd4>
800094a8:	2f 83       	sub	r3,-8
800094aa:	c0 b8       	rjmp	800094c0 <_vfprintf_r+0x1ce8>
800094ac:	fa ca f9 78 	sub	r10,sp,-1672
800094b0:	02 9b       	mov	r11,r1
800094b2:	08 9c       	mov	r12,r4
800094b4:	fe b0 f1 84 	rcall	800077bc <__sprint_r>
800094b8:	e0 81 01 0f 	brne	800096d6 <_vfprintf_r+0x1efe>
800094bc:	fa c3 f9 e0 	sub	r3,sp,-1568
800094c0:	fa f8 06 90 	ld.w	r8,sp[1680]
800094c4:	2f f8       	sub	r8,-1
800094c6:	40 cb       	lddsp	r11,sp[0x30]
800094c8:	fb 48 06 90 	st.w	sp[1680],r8
800094cc:	30 19       	mov	r9,1
800094ce:	fa f8 06 8c 	ld.w	r8,sp[1676]
800094d2:	87 0b       	st.w	r3[0x0],r11
800094d4:	2f f8       	sub	r8,-1
800094d6:	87 19       	st.w	r3[0x4],r9
800094d8:	fb 48 06 8c 	st.w	sp[1676],r8
800094dc:	58 78       	cp.w	r8,7
800094de:	e0 89 00 05 	brgt	800094e8 <_vfprintf_r+0x1d10>
800094e2:	2f 83       	sub	r3,-8
800094e4:	c0 c8       	rjmp	800094fc <_vfprintf_r+0x1d24>
800094e6:	d7 03       	nop
800094e8:	fa ca f9 78 	sub	r10,sp,-1672
800094ec:	02 9b       	mov	r11,r1
800094ee:	08 9c       	mov	r12,r4
800094f0:	fe b0 f1 66 	rcall	800077bc <__sprint_r>
800094f4:	e0 81 00 f1 	brne	800096d6 <_vfprintf_r+0x1efe>
800094f8:	fa c3 f9 e0 	sub	r3,sp,-1568
800094fc:	30 08       	mov	r8,0
800094fe:	30 09       	mov	r9,0
80009500:	40 5b       	lddsp	r11,sp[0x14]
80009502:	40 7a       	lddsp	r10,sp[0x1c]
80009504:	e0 a0 10 f3 	rcall	8000b6ea <__avr32_f64_cmp_eq>
80009508:	40 68       	lddsp	r8,sp[0x18]
8000950a:	20 18       	sub	r8,1
8000950c:	58 0c       	cp.w	r12,0
8000950e:	c0 d1       	brne	80009528 <_vfprintf_r+0x1d50>
80009510:	2f f6       	sub	r6,-1
80009512:	87 18       	st.w	r3[0x4],r8
80009514:	87 06       	st.w	r3[0x0],r6
80009516:	fa f6 06 90 	ld.w	r6,sp[1680]
8000951a:	10 06       	add	r6,r8
8000951c:	fa f8 06 8c 	ld.w	r8,sp[1676]
80009520:	fb 46 06 90 	st.w	sp[1680],r6
80009524:	2f f8       	sub	r8,-1
80009526:	c3 18       	rjmp	80009588 <_vfprintf_r+0x1db0>
80009528:	10 96       	mov	r6,r8
8000952a:	58 08       	cp.w	r8,0
8000952c:	e0 89 00 1c 	brgt	80009564 <_vfprintf_r+0x1d8c>
80009530:	c4 b8       	rjmp	800095c6 <_vfprintf_r+0x1dee>
80009532:	2f 09       	sub	r9,-16
80009534:	2f f8       	sub	r8,-1
80009536:	fb 49 06 90 	st.w	sp[1680],r9
8000953a:	87 02       	st.w	r3[0x0],r2
8000953c:	87 10       	st.w	r3[0x4],r0
8000953e:	fb 48 06 8c 	st.w	sp[1676],r8
80009542:	58 78       	cp.w	r8,7
80009544:	e0 89 00 04 	brgt	8000954c <_vfprintf_r+0x1d74>
80009548:	2f 83       	sub	r3,-8
8000954a:	c0 b8       	rjmp	80009560 <_vfprintf_r+0x1d88>
8000954c:	fa ca f9 78 	sub	r10,sp,-1672
80009550:	02 9b       	mov	r11,r1
80009552:	08 9c       	mov	r12,r4
80009554:	fe b0 f1 34 	rcall	800077bc <__sprint_r>
80009558:	e0 81 00 bf 	brne	800096d6 <_vfprintf_r+0x1efe>
8000955c:	fa c3 f9 e0 	sub	r3,sp,-1568
80009560:	21 06       	sub	r6,16
80009562:	c0 48       	rjmp	8000956a <_vfprintf_r+0x1d92>
80009564:	fe c2 d1 08 	sub	r2,pc,-12024
80009568:	31 00       	mov	r0,16
8000956a:	fa f9 06 90 	ld.w	r9,sp[1680]
8000956e:	fa f8 06 8c 	ld.w	r8,sp[1676]
80009572:	fe ca d1 16 	sub	r10,pc,-12010
80009576:	59 06       	cp.w	r6,16
80009578:	fe 99 ff dd 	brgt	80009532 <_vfprintf_r+0x1d5a>
8000957c:	0c 09       	add	r9,r6
8000957e:	87 0a       	st.w	r3[0x0],r10
80009580:	fb 49 06 90 	st.w	sp[1680],r9
80009584:	2f f8       	sub	r8,-1
80009586:	87 16       	st.w	r3[0x4],r6
80009588:	fb 48 06 8c 	st.w	sp[1676],r8
8000958c:	c0 e8       	rjmp	800095a8 <_vfprintf_r+0x1dd0>
8000958e:	fa f8 06 90 	ld.w	r8,sp[1680]
80009592:	2f f8       	sub	r8,-1
80009594:	30 19       	mov	r9,1
80009596:	fb 48 06 90 	st.w	sp[1680],r8
8000959a:	87 06       	st.w	r3[0x0],r6
8000959c:	fa f8 06 8c 	ld.w	r8,sp[1676]
800095a0:	87 19       	st.w	r3[0x4],r9
800095a2:	2f f8       	sub	r8,-1
800095a4:	fb 48 06 8c 	st.w	sp[1676],r8
800095a8:	58 78       	cp.w	r8,7
800095aa:	e0 89 00 04 	brgt	800095b2 <_vfprintf_r+0x1dda>
800095ae:	2f 83       	sub	r3,-8
800095b0:	c0 b8       	rjmp	800095c6 <_vfprintf_r+0x1dee>
800095b2:	fa ca f9 78 	sub	r10,sp,-1672
800095b6:	02 9b       	mov	r11,r1
800095b8:	08 9c       	mov	r12,r4
800095ba:	fe b0 f1 01 	rcall	800077bc <__sprint_r>
800095be:	e0 81 00 8c 	brne	800096d6 <_vfprintf_r+0x1efe>
800095c2:	fa c3 f9 e0 	sub	r3,sp,-1568
800095c6:	40 ea       	lddsp	r10,sp[0x38]
800095c8:	fa f8 06 90 	ld.w	r8,sp[1680]
800095cc:	14 08       	add	r8,r10
800095ce:	fa c9 f9 64 	sub	r9,sp,-1692
800095d2:	fb 48 06 90 	st.w	sp[1680],r8
800095d6:	87 1a       	st.w	r3[0x4],r10
800095d8:	fa f8 06 8c 	ld.w	r8,sp[1676]
800095dc:	87 09       	st.w	r3[0x0],r9
800095de:	2f f8       	sub	r8,-1
800095e0:	fb 48 06 8c 	st.w	sp[1676],r8
800095e4:	58 78       	cp.w	r8,7
800095e6:	e0 89 00 04 	brgt	800095ee <_vfprintf_r+0x1e16>
800095ea:	2f 83       	sub	r3,-8
800095ec:	c0 a8       	rjmp	80009600 <_vfprintf_r+0x1e28>
800095ee:	fa ca f9 78 	sub	r10,sp,-1672
800095f2:	02 9b       	mov	r11,r1
800095f4:	08 9c       	mov	r12,r4
800095f6:	fe b0 f0 e3 	rcall	800077bc <__sprint_r>
800095fa:	c6 e1       	brne	800096d6 <_vfprintf_r+0x1efe>
800095fc:	fa c3 f9 e0 	sub	r3,sp,-1568
80009600:	e2 15 00 04 	andl	r5,0x4,COH
80009604:	c3 f0       	breq	80009682 <_vfprintf_r+0x1eaa>
80009606:	40 86       	lddsp	r6,sp[0x20]
80009608:	40 39       	lddsp	r9,sp[0xc]
8000960a:	12 16       	sub	r6,r9
8000960c:	58 06       	cp.w	r6,0
8000960e:	e0 89 00 1a 	brgt	80009642 <_vfprintf_r+0x1e6a>
80009612:	c3 88       	rjmp	80009682 <_vfprintf_r+0x1eaa>
80009614:	2f 09       	sub	r9,-16
80009616:	2f f8       	sub	r8,-1
80009618:	fb 49 06 90 	st.w	sp[1680],r9
8000961c:	87 05       	st.w	r3[0x0],r5
8000961e:	87 12       	st.w	r3[0x4],r2
80009620:	fb 48 06 8c 	st.w	sp[1676],r8
80009624:	58 78       	cp.w	r8,7
80009626:	e0 89 00 04 	brgt	8000962e <_vfprintf_r+0x1e56>
8000962a:	2f 83       	sub	r3,-8
8000962c:	c0 98       	rjmp	8000963e <_vfprintf_r+0x1e66>
8000962e:	00 9a       	mov	r10,r0
80009630:	02 9b       	mov	r11,r1
80009632:	08 9c       	mov	r12,r4
80009634:	fe b0 f0 c4 	rcall	800077bc <__sprint_r>
80009638:	c4 f1       	brne	800096d6 <_vfprintf_r+0x1efe>
8000963a:	fa c3 f9 e0 	sub	r3,sp,-1568
8000963e:	21 06       	sub	r6,16
80009640:	c0 68       	rjmp	8000964c <_vfprintf_r+0x1e74>
80009642:	fe c5 d1 f6 	sub	r5,pc,-11786
80009646:	31 02       	mov	r2,16
80009648:	fa c0 f9 78 	sub	r0,sp,-1672
8000964c:	fa f9 06 90 	ld.w	r9,sp[1680]
80009650:	fa f8 06 8c 	ld.w	r8,sp[1676]
80009654:	fe ca d2 08 	sub	r10,pc,-11768
80009658:	59 06       	cp.w	r6,16
8000965a:	fe 99 ff dd 	brgt	80009614 <_vfprintf_r+0x1e3c>
8000965e:	0c 09       	add	r9,r6
80009660:	2f f8       	sub	r8,-1
80009662:	87 0a       	st.w	r3[0x0],r10
80009664:	87 16       	st.w	r3[0x4],r6
80009666:	fb 49 06 90 	st.w	sp[1680],r9
8000966a:	fb 48 06 8c 	st.w	sp[1676],r8
8000966e:	58 78       	cp.w	r8,7
80009670:	e0 8a 00 09 	brle	80009682 <_vfprintf_r+0x1eaa>
80009674:	fa ca f9 78 	sub	r10,sp,-1672
80009678:	02 9b       	mov	r11,r1
8000967a:	08 9c       	mov	r12,r4
8000967c:	fe b0 f0 a0 	rcall	800077bc <__sprint_r>
80009680:	c2 b1       	brne	800096d6 <_vfprintf_r+0x1efe>
80009682:	40 bc       	lddsp	r12,sp[0x2c]
80009684:	40 36       	lddsp	r6,sp[0xc]
80009686:	40 8e       	lddsp	lr,sp[0x20]
80009688:	ec 0e 0c 48 	max	r8,r6,lr
8000968c:	10 0c       	add	r12,r8
8000968e:	50 bc       	stdsp	sp[0x2c],r12
80009690:	fa f8 06 90 	ld.w	r8,sp[1680]
80009694:	58 08       	cp.w	r8,0
80009696:	c0 80       	breq	800096a6 <_vfprintf_r+0x1ece>
80009698:	fa ca f9 78 	sub	r10,sp,-1672
8000969c:	02 9b       	mov	r11,r1
8000969e:	08 9c       	mov	r12,r4
800096a0:	fe b0 f0 8e 	rcall	800077bc <__sprint_r>
800096a4:	c1 91       	brne	800096d6 <_vfprintf_r+0x1efe>
800096a6:	30 0b       	mov	r11,0
800096a8:	fa c3 f9 e0 	sub	r3,sp,-1568
800096ac:	fb 4b 06 8c 	st.w	sp[1676],r11
800096b0:	fe 9f f1 22 	bral	800078f4 <_vfprintf_r+0x11c>
800096b4:	08 95       	mov	r5,r4
800096b6:	fa f8 06 90 	ld.w	r8,sp[1680]
800096ba:	58 08       	cp.w	r8,0
800096bc:	c0 80       	breq	800096cc <_vfprintf_r+0x1ef4>
800096be:	08 9c       	mov	r12,r4
800096c0:	fa ca f9 78 	sub	r10,sp,-1672
800096c4:	02 9b       	mov	r11,r1
800096c6:	fe b0 f0 7b 	rcall	800077bc <__sprint_r>
800096ca:	c0 61       	brne	800096d6 <_vfprintf_r+0x1efe>
800096cc:	30 08       	mov	r8,0
800096ce:	fb 48 06 8c 	st.w	sp[1676],r8
800096d2:	c0 28       	rjmp	800096d6 <_vfprintf_r+0x1efe>
800096d4:	40 41       	lddsp	r1,sp[0x10]
800096d6:	82 68       	ld.sh	r8,r1[0xc]
800096d8:	ed b8 00 06 	bld	r8,0x6
800096dc:	c0 31       	brne	800096e2 <_vfprintf_r+0x1f0a>
800096de:	3f fa       	mov	r10,-1
800096e0:	50 ba       	stdsp	sp[0x2c],r10
800096e2:	40 bc       	lddsp	r12,sp[0x2c]
800096e4:	fe 3d f9 44 	sub	sp,-1724
800096e8:	d8 32       	popm	r0-r7,pc
800096ea:	d7 03       	nop

800096ec <_write_r>:
800096ec:	d4 21       	pushm	r4-r7,lr
800096ee:	16 98       	mov	r8,r11
800096f0:	18 97       	mov	r7,r12
800096f2:	10 9c       	mov	r12,r8
800096f4:	30 08       	mov	r8,0
800096f6:	14 9b       	mov	r11,r10
800096f8:	e0 66 08 24 	mov	r6,2084
800096fc:	12 9a       	mov	r10,r9
800096fe:	8d 08       	st.w	r6[0x0],r8
80009700:	fe b0 dc 22 	rcall	80004f44 <_write>
80009704:	5b fc       	cp.w	r12,-1
80009706:	c0 51       	brne	80009710 <_write_r+0x24>
80009708:	6c 08       	ld.w	r8,r6[0x0]
8000970a:	58 08       	cp.w	r8,0
8000970c:	ef f8 1a 03 	st.wne	r7[0xc],r8
80009710:	d8 22       	popm	r4-r7,pc
80009712:	d7 03       	nop

80009714 <__swsetup_r>:
80009714:	d4 21       	pushm	r4-r7,lr
80009716:	e0 68 01 18 	mov	r8,280
8000971a:	18 96       	mov	r6,r12
8000971c:	16 97       	mov	r7,r11
8000971e:	70 0c       	ld.w	r12,r8[0x0]
80009720:	58 0c       	cp.w	r12,0
80009722:	c0 60       	breq	8000972e <__swsetup_r+0x1a>
80009724:	78 68       	ld.w	r8,r12[0x18]
80009726:	58 08       	cp.w	r8,0
80009728:	c0 31       	brne	8000972e <__swsetup_r+0x1a>
8000972a:	fe b0 ec db 	rcall	800070e0 <__sinit>
8000972e:	fe c8 d5 f6 	sub	r8,pc,-10762
80009732:	10 37       	cp.w	r7,r8
80009734:	c0 61       	brne	80009740 <__swsetup_r+0x2c>
80009736:	e0 68 01 18 	mov	r8,280
8000973a:	70 08       	ld.w	r8,r8[0x0]
8000973c:	70 07       	ld.w	r7,r8[0x0]
8000973e:	c1 28       	rjmp	80009762 <__swsetup_r+0x4e>
80009740:	fe c8 d5 e8 	sub	r8,pc,-10776
80009744:	10 37       	cp.w	r7,r8
80009746:	c0 61       	brne	80009752 <__swsetup_r+0x3e>
80009748:	e0 68 01 18 	mov	r8,280
8000974c:	70 08       	ld.w	r8,r8[0x0]
8000974e:	70 17       	ld.w	r7,r8[0x4]
80009750:	c0 98       	rjmp	80009762 <__swsetup_r+0x4e>
80009752:	fe c8 d5 da 	sub	r8,pc,-10790
80009756:	10 37       	cp.w	r7,r8
80009758:	c0 51       	brne	80009762 <__swsetup_r+0x4e>
8000975a:	e0 68 01 18 	mov	r8,280
8000975e:	70 08       	ld.w	r8,r8[0x0]
80009760:	70 27       	ld.w	r7,r8[0x8]
80009762:	8e 68       	ld.sh	r8,r7[0xc]
80009764:	ed b8 00 03 	bld	r8,0x3
80009768:	c1 e0       	breq	800097a4 <__swsetup_r+0x90>
8000976a:	ed b8 00 04 	bld	r8,0x4
8000976e:	c3 e1       	brne	800097ea <__swsetup_r+0xd6>
80009770:	ed b8 00 02 	bld	r8,0x2
80009774:	c1 51       	brne	8000979e <__swsetup_r+0x8a>
80009776:	6e db       	ld.w	r11,r7[0x34]
80009778:	58 0b       	cp.w	r11,0
8000977a:	c0 a0       	breq	8000978e <__swsetup_r+0x7a>
8000977c:	ee c8 ff bc 	sub	r8,r7,-68
80009780:	10 3b       	cp.w	r11,r8
80009782:	c0 40       	breq	8000978a <__swsetup_r+0x76>
80009784:	0c 9c       	mov	r12,r6
80009786:	fe b0 ed 47 	rcall	80007214 <_free_r>
8000978a:	30 08       	mov	r8,0
8000978c:	8f d8       	st.w	r7[0x34],r8
8000978e:	8e 68       	ld.sh	r8,r7[0xc]
80009790:	e0 18 ff db 	andl	r8,0xffdb
80009794:	ae 68       	st.h	r7[0xc],r8
80009796:	30 08       	mov	r8,0
80009798:	8f 18       	st.w	r7[0x4],r8
8000979a:	6e 48       	ld.w	r8,r7[0x10]
8000979c:	8f 08       	st.w	r7[0x0],r8
8000979e:	8e 68       	ld.sh	r8,r7[0xc]
800097a0:	a3 b8       	sbr	r8,0x3
800097a2:	ae 68       	st.h	r7[0xc],r8
800097a4:	6e 48       	ld.w	r8,r7[0x10]
800097a6:	58 08       	cp.w	r8,0
800097a8:	c0 b1       	brne	800097be <__swsetup_r+0xaa>
800097aa:	8e 68       	ld.sh	r8,r7[0xc]
800097ac:	e2 18 02 80 	andl	r8,0x280,COH
800097b0:	e0 48 02 00 	cp.w	r8,512
800097b4:	c0 50       	breq	800097be <__swsetup_r+0xaa>
800097b6:	0c 9c       	mov	r12,r6
800097b8:	0e 9b       	mov	r11,r7
800097ba:	e0 a0 08 f9 	rcall	8000a9ac <__smakebuf_r>
800097be:	8e 69       	ld.sh	r9,r7[0xc]
800097c0:	f1 d9 c0 01 	bfextu	r8,r9,0x0,0x1
800097c4:	c0 70       	breq	800097d2 <__swsetup_r+0xbe>
800097c6:	30 08       	mov	r8,0
800097c8:	8f 28       	st.w	r7[0x8],r8
800097ca:	6e 58       	ld.w	r8,r7[0x14]
800097cc:	5c 38       	neg	r8
800097ce:	8f 68       	st.w	r7[0x18],r8
800097d0:	c0 68       	rjmp	800097dc <__swsetup_r+0xc8>
800097d2:	ed b9 00 01 	bld	r9,0x1
800097d6:	ef f8 10 05 	ld.wne	r8,r7[0x14]
800097da:	8f 28       	st.w	r7[0x8],r8
800097dc:	6e 48       	ld.w	r8,r7[0x10]
800097de:	58 08       	cp.w	r8,0
800097e0:	c0 61       	brne	800097ec <__swsetup_r+0xd8>
800097e2:	8e 68       	ld.sh	r8,r7[0xc]
800097e4:	ed b8 00 07 	bld	r8,0x7
800097e8:	c0 21       	brne	800097ec <__swsetup_r+0xd8>
800097ea:	dc 2a       	popm	r4-r7,pc,r12=-1
800097ec:	d8 2a       	popm	r4-r7,pc,r12=0
800097ee:	d7 03       	nop

800097f0 <_close_r>:
800097f0:	d4 21       	pushm	r4-r7,lr
800097f2:	30 08       	mov	r8,0
800097f4:	18 97       	mov	r7,r12
800097f6:	e0 66 08 24 	mov	r6,2084
800097fa:	16 9c       	mov	r12,r11
800097fc:	8d 08       	st.w	r6[0x0],r8
800097fe:	fe b0 ea d5 	rcall	80006da8 <_close>
80009802:	5b fc       	cp.w	r12,-1
80009804:	c0 51       	brne	8000980e <_close_r+0x1e>
80009806:	6c 08       	ld.w	r8,r6[0x0]
80009808:	58 08       	cp.w	r8,0
8000980a:	ef f8 1a 03 	st.wne	r7[0xc],r8
8000980e:	d8 22       	popm	r4-r7,pc

80009810 <quorem>:
80009810:	d4 31       	pushm	r0-r7,lr
80009812:	20 2d       	sub	sp,8
80009814:	18 97       	mov	r7,r12
80009816:	78 48       	ld.w	r8,r12[0x10]
80009818:	76 46       	ld.w	r6,r11[0x10]
8000981a:	0c 38       	cp.w	r8,r6
8000981c:	c0 34       	brge	80009822 <quorem+0x12>
8000981e:	30 0c       	mov	r12,0
80009820:	c8 58       	rjmp	8000992a <quorem+0x11a>
80009822:	ec c2 ff fc 	sub	r2,r6,-4
80009826:	f6 c3 ff ec 	sub	r3,r11,-20
8000982a:	f6 02 03 29 	ld.w	r9,r11[r2<<0x2]
8000982e:	f8 02 03 2c 	ld.w	r12,r12[r2<<0x2]
80009832:	2f f9       	sub	r9,-1
80009834:	20 16       	sub	r6,1
80009836:	f8 09 0d 08 	divu	r8,r12,r9
8000983a:	f6 02 00 22 	add	r2,r11,r2<<0x2
8000983e:	ee c4 ff ec 	sub	r4,r7,-20
80009842:	10 95       	mov	r5,r8
80009844:	58 08       	cp.w	r8,0
80009846:	c4 10       	breq	800098c8 <quorem+0xb8>
80009848:	30 09       	mov	r9,0
8000984a:	06 9a       	mov	r10,r3
8000984c:	08 98       	mov	r8,r4
8000984e:	12 91       	mov	r1,r9
80009850:	50 0b       	stdsp	sp[0x0],r11
80009852:	70 0e       	ld.w	lr,r8[0x0]
80009854:	b1 8e       	lsr	lr,0x10
80009856:	50 1e       	stdsp	sp[0x4],lr
80009858:	15 0e       	ld.w	lr,r10++
8000985a:	fc 00 16 10 	lsr	r0,lr,0x10
8000985e:	fd de c0 10 	bfextu	lr,lr,0x0,0x10
80009862:	ea 0e 03 41 	mac	r1,r5,lr
80009866:	fd d1 c0 10 	bfextu	lr,r1,0x0,0x10
8000986a:	b1 81       	lsr	r1,0x10
8000986c:	40 1b       	lddsp	r11,sp[0x4]
8000986e:	ea 00 02 40 	mul	r0,r5,r0
80009872:	e2 00 00 00 	add	r0,r1,r0
80009876:	e3 d0 c0 10 	bfextu	r1,r0,0x0,0x10
8000987a:	02 1b       	sub	r11,r1
8000987c:	50 1b       	stdsp	sp[0x4],r11
8000987e:	70 0b       	ld.w	r11,r8[0x0]
80009880:	e3 db c0 10 	bfextu	r1,r11,0x0,0x10
80009884:	02 09       	add	r9,r1
80009886:	f2 0e 01 0e 	sub	lr,r9,lr
8000988a:	b0 1e       	st.h	r8[0x2],lr
8000988c:	fc 09 14 10 	asr	r9,lr,0x10
80009890:	40 1e       	lddsp	lr,sp[0x4]
80009892:	fc 09 00 09 	add	r9,lr,r9
80009896:	b0 09       	st.h	r8[0x0],r9
80009898:	e0 01 16 10 	lsr	r1,r0,0x10
8000989c:	2f c8       	sub	r8,-4
8000989e:	b1 49       	asr	r9,0x10
800098a0:	04 3a       	cp.w	r10,r2
800098a2:	fe 98 ff d8 	brls	80009852 <quorem+0x42>
800098a6:	40 0b       	lddsp	r11,sp[0x0]
800098a8:	58 0c       	cp.w	r12,0
800098aa:	c0 f1       	brne	800098c8 <quorem+0xb8>
800098ac:	ec c8 ff fb 	sub	r8,r6,-5
800098b0:	ee 08 00 28 	add	r8,r7,r8<<0x2
800098b4:	c0 28       	rjmp	800098b8 <quorem+0xa8>
800098b6:	20 16       	sub	r6,1
800098b8:	20 48       	sub	r8,4
800098ba:	08 38       	cp.w	r8,r4
800098bc:	e0 88 00 05 	brls	800098c6 <quorem+0xb6>
800098c0:	70 09       	ld.w	r9,r8[0x0]
800098c2:	58 09       	cp.w	r9,0
800098c4:	cf 90       	breq	800098b6 <quorem+0xa6>
800098c6:	8f 46       	st.w	r7[0x10],r6
800098c8:	0e 9c       	mov	r12,r7
800098ca:	e0 a0 09 51 	rcall	8000ab6c <__mcmp>
800098ce:	c2 d5       	brlt	80009928 <quorem+0x118>
800098d0:	2f f5       	sub	r5,-1
800098d2:	08 98       	mov	r8,r4
800098d4:	30 09       	mov	r9,0
800098d6:	07 0b       	ld.w	r11,r3++
800098d8:	f6 0a 16 10 	lsr	r10,r11,0x10
800098dc:	70 0c       	ld.w	r12,r8[0x0]
800098de:	f7 db c0 10 	bfextu	r11,r11,0x0,0x10
800098e2:	f8 0e 16 10 	lsr	lr,r12,0x10
800098e6:	14 1e       	sub	lr,r10
800098e8:	f5 dc c0 10 	bfextu	r10,r12,0x0,0x10
800098ec:	16 1a       	sub	r10,r11
800098ee:	12 0a       	add	r10,r9
800098f0:	b0 1a       	st.h	r8[0x2],r10
800098f2:	b1 4a       	asr	r10,0x10
800098f4:	fc 0a 00 09 	add	r9,lr,r10
800098f8:	b0 09       	st.h	r8[0x0],r9
800098fa:	2f c8       	sub	r8,-4
800098fc:	b1 49       	asr	r9,0x10
800098fe:	04 33       	cp.w	r3,r2
80009900:	fe 98 ff eb 	brls	800098d6 <quorem+0xc6>
80009904:	ec c8 ff fb 	sub	r8,r6,-5
80009908:	ee 08 03 29 	ld.w	r9,r7[r8<<0x2]
8000990c:	58 09       	cp.w	r9,0
8000990e:	c0 d1       	brne	80009928 <quorem+0x118>
80009910:	ee 08 00 28 	add	r8,r7,r8<<0x2
80009914:	c0 28       	rjmp	80009918 <quorem+0x108>
80009916:	20 16       	sub	r6,1
80009918:	20 48       	sub	r8,4
8000991a:	08 38       	cp.w	r8,r4
8000991c:	e0 88 00 05 	brls	80009926 <quorem+0x116>
80009920:	70 09       	ld.w	r9,r8[0x0]
80009922:	58 09       	cp.w	r9,0
80009924:	cf 90       	breq	80009916 <quorem+0x106>
80009926:	8f 46       	st.w	r7[0x10],r6
80009928:	0a 9c       	mov	r12,r5
8000992a:	2f ed       	sub	sp,-8
8000992c:	d8 32       	popm	r0-r7,pc
8000992e:	d7 03       	nop

80009930 <_dtoa_r>:
80009930:	d4 31       	pushm	r0-r7,lr
80009932:	21 ad       	sub	sp,104
80009934:	fa c4 ff 74 	sub	r4,sp,-140
80009938:	18 97       	mov	r7,r12
8000993a:	16 95       	mov	r5,r11
8000993c:	68 2c       	ld.w	r12,r4[0x8]
8000993e:	50 c9       	stdsp	sp[0x30],r9
80009940:	68 16       	ld.w	r6,r4[0x4]
80009942:	68 09       	ld.w	r9,r4[0x0]
80009944:	50 e8       	stdsp	sp[0x38],r8
80009946:	14 94       	mov	r4,r10
80009948:	51 2c       	stdsp	sp[0x48],r12
8000994a:	fa e5 00 08 	st.d	sp[8],r4
8000994e:	51 59       	stdsp	sp[0x54],r9
80009950:	6e 95       	ld.w	r5,r7[0x24]
80009952:	58 05       	cp.w	r5,0
80009954:	c0 91       	brne	80009966 <_dtoa_r+0x36>
80009956:	31 0c       	mov	r12,16
80009958:	fe b0 e5 ce 	rcall	800064f4 <malloc>
8000995c:	99 35       	st.w	r12[0xc],r5
8000995e:	8f 9c       	st.w	r7[0x24],r12
80009960:	99 15       	st.w	r12[0x4],r5
80009962:	99 25       	st.w	r12[0x8],r5
80009964:	99 05       	st.w	r12[0x0],r5
80009966:	6e 99       	ld.w	r9,r7[0x24]
80009968:	72 08       	ld.w	r8,r9[0x0]
8000996a:	58 08       	cp.w	r8,0
8000996c:	c0 f0       	breq	8000998a <_dtoa_r+0x5a>
8000996e:	72 1a       	ld.w	r10,r9[0x4]
80009970:	91 1a       	st.w	r8[0x4],r10
80009972:	30 1a       	mov	r10,1
80009974:	72 19       	ld.w	r9,r9[0x4]
80009976:	f4 09 09 49 	lsl	r9,r10,r9
8000997a:	10 9b       	mov	r11,r8
8000997c:	91 29       	st.w	r8[0x8],r9
8000997e:	0e 9c       	mov	r12,r7
80009980:	e0 a0 09 10 	rcall	8000aba0 <_Bfree>
80009984:	6e 98       	ld.w	r8,r7[0x24]
80009986:	30 09       	mov	r9,0
80009988:	91 09       	st.w	r8[0x0],r9
8000998a:	40 28       	lddsp	r8,sp[0x8]
8000998c:	10 94       	mov	r4,r8
8000998e:	58 08       	cp.w	r8,0
80009990:	c0 64       	brge	8000999c <_dtoa_r+0x6c>
80009992:	f1 d8 c0 1f 	bfextu	r8,r8,0x0,0x1f
80009996:	50 28       	stdsp	sp[0x8],r8
80009998:	30 18       	mov	r8,1
8000999a:	c0 28       	rjmp	8000999e <_dtoa_r+0x6e>
8000999c:	30 08       	mov	r8,0
8000999e:	8d 08       	st.w	r6[0x0],r8
800099a0:	fc 1c 7f f0 	movh	r12,0x7ff0
800099a4:	40 26       	lddsp	r6,sp[0x8]
800099a6:	0c 98       	mov	r8,r6
800099a8:	e6 18 7f f0 	andh	r8,0x7ff0,COH
800099ac:	18 38       	cp.w	r8,r12
800099ae:	c2 01       	brne	800099ee <_dtoa_r+0xbe>
800099b0:	e0 68 27 0f 	mov	r8,9999
800099b4:	41 5b       	lddsp	r11,sp[0x54]
800099b6:	97 08       	st.w	r11[0x0],r8
800099b8:	40 3a       	lddsp	r10,sp[0xc]
800099ba:	58 0a       	cp.w	r10,0
800099bc:	c0 71       	brne	800099ca <_dtoa_r+0x9a>
800099be:	ed d6 c0 14 	bfextu	r6,r6,0x0,0x14
800099c2:	c0 41       	brne	800099ca <_dtoa_r+0x9a>
800099c4:	fe cc d4 58 	sub	r12,pc,-11176
800099c8:	c0 38       	rjmp	800099ce <_dtoa_r+0x9e>
800099ca:	fe cc d4 52 	sub	r12,pc,-11182
800099ce:	41 29       	lddsp	r9,sp[0x48]
800099d0:	58 09       	cp.w	r9,0
800099d2:	e0 80 05 9a 	breq	8000a506 <_dtoa_r+0xbd6>
800099d6:	f8 c8 ff fd 	sub	r8,r12,-3
800099da:	f8 c9 ff f8 	sub	r9,r12,-8
800099de:	11 8b       	ld.ub	r11,r8[0x0]
800099e0:	30 0a       	mov	r10,0
800099e2:	41 25       	lddsp	r5,sp[0x48]
800099e4:	f4 0b 18 00 	cp.b	r11,r10
800099e8:	f2 08 17 10 	movne	r8,r9
800099ec:	c1 68       	rjmp	80009a18 <_dtoa_r+0xe8>
800099ee:	fa ea 00 08 	ld.d	r10,sp[8]
800099f2:	30 08       	mov	r8,0
800099f4:	fa eb 00 3c 	st.d	sp[60],r10
800099f8:	30 09       	mov	r9,0
800099fa:	e0 a0 0e 78 	rcall	8000b6ea <__avr32_f64_cmp_eq>
800099fe:	c1 00       	breq	80009a1e <_dtoa_r+0xee>
80009a00:	30 18       	mov	r8,1
80009a02:	41 5a       	lddsp	r10,sp[0x54]
80009a04:	95 08       	st.w	r10[0x0],r8
80009a06:	fe cc d5 be 	sub	r12,pc,-10818
80009a0a:	41 29       	lddsp	r9,sp[0x48]
80009a0c:	f8 08 00 08 	add	r8,r12,r8
80009a10:	58 09       	cp.w	r9,0
80009a12:	e0 80 05 7a 	breq	8000a506 <_dtoa_r+0xbd6>
80009a16:	12 95       	mov	r5,r9
80009a18:	8b 08       	st.w	r5[0x0],r8
80009a1a:	e0 8f 05 76 	bral	8000a506 <_dtoa_r+0xbd6>
80009a1e:	fa c8 ff 9c 	sub	r8,sp,-100
80009a22:	fa c9 ff a0 	sub	r9,sp,-96
80009a26:	fa ea 00 3c 	ld.d	r10,sp[60]
80009a2a:	0e 9c       	mov	r12,r7
80009a2c:	eb d6 c2 8b 	bfextu	r5,r6,0x14,0xb
80009a30:	e0 a0 09 0a 	rcall	8000ac44 <__d2b>
80009a34:	18 93       	mov	r3,r12
80009a36:	58 05       	cp.w	r5,0
80009a38:	c0 d0       	breq	80009a52 <_dtoa_r+0x122>
80009a3a:	fa ea 00 3c 	ld.d	r10,sp[60]
80009a3e:	30 04       	mov	r4,0
80009a40:	f1 db c0 14 	bfextu	r8,r11,0x0,0x14
80009a44:	ea c5 03 ff 	sub	r5,r5,1023
80009a48:	10 9b       	mov	r11,r8
80009a4a:	51 74       	stdsp	sp[0x5c],r4
80009a4c:	ea 1b 3f f0 	orh	r11,0x3ff0
80009a50:	c2 58       	rjmp	80009a9a <_dtoa_r+0x16a>
80009a52:	41 88       	lddsp	r8,sp[0x60]
80009a54:	41 9c       	lddsp	r12,sp[0x64]
80009a56:	10 0c       	add	r12,r8
80009a58:	f8 c5 fb ce 	sub	r5,r12,-1074
80009a5c:	e0 45 00 20 	cp.w	r5,32
80009a60:	e0 8a 00 0e 	brle	80009a7c <_dtoa_r+0x14c>
80009a64:	f8 cc fb ee 	sub	r12,r12,-1042
80009a68:	40 3b       	lddsp	r11,sp[0xc]
80009a6a:	ea 08 11 40 	rsub	r8,r5,64
80009a6e:	f6 0c 0a 4c 	lsr	r12,r11,r12
80009a72:	ec 08 09 46 	lsl	r6,r6,r8
80009a76:	0c 4c       	or	r12,r6
80009a78:	c0 78       	rjmp	80009a86 <_dtoa_r+0x156>
80009a7a:	d7 03       	nop
80009a7c:	ea 0c 11 20 	rsub	r12,r5,32
80009a80:	40 3a       	lddsp	r10,sp[0xc]
80009a82:	f4 0c 09 4c 	lsl	r12,r10,r12
80009a86:	e0 a0 0d be 	rcall	8000b602 <__avr32_u32_to_f64>
80009a8a:	fc 18 fe 10 	movh	r8,0xfe10
80009a8e:	30 19       	mov	r9,1
80009a90:	ea c5 04 33 	sub	r5,r5,1075
80009a94:	f0 0b 00 0b 	add	r11,r8,r11
80009a98:	51 79       	stdsp	sp[0x5c],r9
80009a9a:	30 08       	mov	r8,0
80009a9c:	fc 19 3f f8 	movh	r9,0x3ff8
80009aa0:	e0 a0 0c 46 	rcall	8000b32c <__avr32_f64_sub>
80009aa4:	e0 68 43 61 	mov	r8,17249
80009aa8:	ea 18 63 6f 	orh	r8,0x636f
80009aac:	e0 69 87 a7 	mov	r9,34727
80009ab0:	ea 19 3f d2 	orh	r9,0x3fd2
80009ab4:	e0 a0 0b 50 	rcall	8000b154 <__avr32_f64_mul>
80009ab8:	e0 68 c8 b3 	mov	r8,51379
80009abc:	ea 18 8b 60 	orh	r8,0x8b60
80009ac0:	e0 69 8a 28 	mov	r9,35368
80009ac4:	ea 19 3f c6 	orh	r9,0x3fc6
80009ac8:	e0 a0 0d 00 	rcall	8000b4c8 <__avr32_f64_add>
80009acc:	0a 9c       	mov	r12,r5
80009ace:	14 90       	mov	r0,r10
80009ad0:	16 91       	mov	r1,r11
80009ad2:	e0 a0 0d 9c 	rcall	8000b60a <__avr32_s32_to_f64>
80009ad6:	e0 68 79 fb 	mov	r8,31227
80009ada:	ea 18 50 9f 	orh	r8,0x509f
80009ade:	e0 69 44 13 	mov	r9,17427
80009ae2:	ea 19 3f d3 	orh	r9,0x3fd3
80009ae6:	e0 a0 0b 37 	rcall	8000b154 <__avr32_f64_mul>
80009aea:	14 98       	mov	r8,r10
80009aec:	16 99       	mov	r9,r11
80009aee:	00 9a       	mov	r10,r0
80009af0:	02 9b       	mov	r11,r1
80009af2:	e0 a0 0c eb 	rcall	8000b4c8 <__avr32_f64_add>
80009af6:	14 90       	mov	r0,r10
80009af8:	16 91       	mov	r1,r11
80009afa:	e0 a0 0d 71 	rcall	8000b5dc <__avr32_f64_to_s32>
80009afe:	30 08       	mov	r8,0
80009b00:	18 96       	mov	r6,r12
80009b02:	30 09       	mov	r9,0
80009b04:	00 9a       	mov	r10,r0
80009b06:	02 9b       	mov	r11,r1
80009b08:	e0 a0 0e 38 	rcall	8000b778 <__avr32_f64_cmp_lt>
80009b0c:	c0 c0       	breq	80009b24 <_dtoa_r+0x1f4>
80009b0e:	0c 9c       	mov	r12,r6
80009b10:	e0 a0 0d 7d 	rcall	8000b60a <__avr32_s32_to_f64>
80009b14:	14 98       	mov	r8,r10
80009b16:	16 99       	mov	r9,r11
80009b18:	00 9a       	mov	r10,r0
80009b1a:	02 9b       	mov	r11,r1
80009b1c:	e0 a0 0d e7 	rcall	8000b6ea <__avr32_f64_cmp_eq>
80009b20:	f7 b6 00 01 	subeq	r6,1
80009b24:	59 66       	cp.w	r6,22
80009b26:	e0 88 00 05 	brls	80009b30 <_dtoa_r+0x200>
80009b2a:	30 18       	mov	r8,1
80009b2c:	51 48       	stdsp	sp[0x50],r8
80009b2e:	c1 38       	rjmp	80009b54 <_dtoa_r+0x224>
80009b30:	fe c8 d5 68 	sub	r8,pc,-10904
80009b34:	fa ea 00 3c 	ld.d	r10,sp[60]
80009b38:	f0 06 02 38 	ld.d	r8,r8[r6<<0x3]
80009b3c:	e0 a0 0e 1e 	rcall	8000b778 <__avr32_f64_cmp_lt>
80009b40:	f9 b4 00 00 	moveq	r4,0
80009b44:	fb f4 0a 14 	st.weq	sp[0x50],r4
80009b48:	f7 b6 01 01 	subne	r6,1
80009b4c:	f9 bc 01 00 	movne	r12,0
80009b50:	fb fc 1a 14 	st.wne	sp[0x50],r12
80009b54:	41 90       	lddsp	r0,sp[0x64]
80009b56:	20 10       	sub	r0,1
80009b58:	0a 10       	sub	r0,r5
80009b5a:	c0 46       	brmi	80009b62 <_dtoa_r+0x232>
80009b5c:	50 40       	stdsp	sp[0x10],r0
80009b5e:	30 00       	mov	r0,0
80009b60:	c0 48       	rjmp	80009b68 <_dtoa_r+0x238>
80009b62:	30 0b       	mov	r11,0
80009b64:	5c 30       	neg	r0
80009b66:	50 4b       	stdsp	sp[0x10],r11
80009b68:	ec 02 11 00 	rsub	r2,r6,0
80009b6c:	58 06       	cp.w	r6,0
80009b6e:	fb fa 40 04 	ld.wge	r10,sp[0x10]
80009b72:	f5 d6 e4 0a 	addge	r10,r10,r6
80009b76:	fb fa 4a 04 	st.wge	sp[0x10],r10
80009b7a:	fb f6 4a 11 	st.wge	sp[0x44],r6
80009b7e:	f9 b2 04 00 	movge	r2,0
80009b82:	e1 d6 e5 10 	sublt	r0,r0,r6
80009b86:	f9 b9 05 00 	movlt	r9,0
80009b8a:	fb f9 5a 11 	st.wlt	sp[0x44],r9
80009b8e:	40 c8       	lddsp	r8,sp[0x30]
80009b90:	58 98       	cp.w	r8,9
80009b92:	e0 8b 00 20 	brhi	80009bd2 <_dtoa_r+0x2a2>
80009b96:	58 58       	cp.w	r8,5
80009b98:	f9 b4 0a 01 	movle	r4,1
80009b9c:	fb f5 90 0c 	ld.wgt	r5,sp[0x30]
80009ba0:	f7 b5 09 04 	subgt	r5,4
80009ba4:	fb f5 9a 0c 	st.wgt	sp[0x30],r5
80009ba8:	f9 b4 09 00 	movgt	r4,0
80009bac:	40 cc       	lddsp	r12,sp[0x30]
80009bae:	58 3c       	cp.w	r12,3
80009bb0:	c2 d0       	breq	80009c0a <_dtoa_r+0x2da>
80009bb2:	e0 89 00 05 	brgt	80009bbc <_dtoa_r+0x28c>
80009bb6:	58 2c       	cp.w	r12,2
80009bb8:	c1 01       	brne	80009bd8 <_dtoa_r+0x2a8>
80009bba:	c1 88       	rjmp	80009bea <_dtoa_r+0x2ba>
80009bbc:	40 cb       	lddsp	r11,sp[0x30]
80009bbe:	58 4b       	cp.w	r11,4
80009bc0:	c0 60       	breq	80009bcc <_dtoa_r+0x29c>
80009bc2:	58 5b       	cp.w	r11,5
80009bc4:	c0 a1       	brne	80009bd8 <_dtoa_r+0x2a8>
80009bc6:	30 1a       	mov	r10,1
80009bc8:	50 da       	stdsp	sp[0x34],r10
80009bca:	c2 28       	rjmp	80009c0e <_dtoa_r+0x2de>
80009bcc:	30 19       	mov	r9,1
80009bce:	50 d9       	stdsp	sp[0x34],r9
80009bd0:	c0 f8       	rjmp	80009bee <_dtoa_r+0x2be>
80009bd2:	30 08       	mov	r8,0
80009bd4:	30 14       	mov	r4,1
80009bd6:	50 c8       	stdsp	sp[0x30],r8
80009bd8:	3f f5       	mov	r5,-1
80009bda:	30 1c       	mov	r12,1
80009bdc:	30 0b       	mov	r11,0
80009bde:	50 95       	stdsp	sp[0x24],r5
80009be0:	50 dc       	stdsp	sp[0x34],r12
80009be2:	0a 91       	mov	r1,r5
80009be4:	31 28       	mov	r8,18
80009be6:	50 eb       	stdsp	sp[0x38],r11
80009be8:	c2 08       	rjmp	80009c28 <_dtoa_r+0x2f8>
80009bea:	30 0a       	mov	r10,0
80009bec:	50 da       	stdsp	sp[0x34],r10
80009bee:	40 e9       	lddsp	r9,sp[0x38]
80009bf0:	58 09       	cp.w	r9,0
80009bf2:	e0 89 00 07 	brgt	80009c00 <_dtoa_r+0x2d0>
80009bf6:	30 18       	mov	r8,1
80009bf8:	50 98       	stdsp	sp[0x24],r8
80009bfa:	10 91       	mov	r1,r8
80009bfc:	50 e8       	stdsp	sp[0x38],r8
80009bfe:	c1 58       	rjmp	80009c28 <_dtoa_r+0x2f8>
80009c00:	40 e5       	lddsp	r5,sp[0x38]
80009c02:	50 95       	stdsp	sp[0x24],r5
80009c04:	0a 91       	mov	r1,r5
80009c06:	0a 98       	mov	r8,r5
80009c08:	c1 08       	rjmp	80009c28 <_dtoa_r+0x2f8>
80009c0a:	30 0c       	mov	r12,0
80009c0c:	50 dc       	stdsp	sp[0x34],r12
80009c0e:	40 eb       	lddsp	r11,sp[0x38]
80009c10:	ec 0b 00 0b 	add	r11,r6,r11
80009c14:	50 9b       	stdsp	sp[0x24],r11
80009c16:	16 98       	mov	r8,r11
80009c18:	2f f8       	sub	r8,-1
80009c1a:	58 08       	cp.w	r8,0
80009c1c:	e0 89 00 05 	brgt	80009c26 <_dtoa_r+0x2f6>
80009c20:	10 91       	mov	r1,r8
80009c22:	30 18       	mov	r8,1
80009c24:	c0 28       	rjmp	80009c28 <_dtoa_r+0x2f8>
80009c26:	10 91       	mov	r1,r8
80009c28:	30 09       	mov	r9,0
80009c2a:	6e 9a       	ld.w	r10,r7[0x24]
80009c2c:	95 19       	st.w	r10[0x4],r9
80009c2e:	30 49       	mov	r9,4
80009c30:	c0 68       	rjmp	80009c3c <_dtoa_r+0x30c>
80009c32:	d7 03       	nop
80009c34:	6a 1a       	ld.w	r10,r5[0x4]
80009c36:	a1 79       	lsl	r9,0x1
80009c38:	2f fa       	sub	r10,-1
80009c3a:	8b 1a       	st.w	r5[0x4],r10
80009c3c:	6e 95       	ld.w	r5,r7[0x24]
80009c3e:	f2 ca ff ec 	sub	r10,r9,-20
80009c42:	10 3a       	cp.w	r10,r8
80009c44:	fe 98 ff f8 	brls	80009c34 <_dtoa_r+0x304>
80009c48:	6a 1b       	ld.w	r11,r5[0x4]
80009c4a:	0e 9c       	mov	r12,r7
80009c4c:	e0 a0 07 c4 	rcall	8000abd4 <_Balloc>
80009c50:	58 e1       	cp.w	r1,14
80009c52:	5f 88       	srls	r8
80009c54:	8b 0c       	st.w	r5[0x0],r12
80009c56:	f1 e4 00 04 	and	r4,r8,r4
80009c5a:	6e 98       	ld.w	r8,r7[0x24]
80009c5c:	70 08       	ld.w	r8,r8[0x0]
80009c5e:	50 88       	stdsp	sp[0x20],r8
80009c60:	e0 80 01 82 	breq	80009f64 <_dtoa_r+0x634>
80009c64:	58 06       	cp.w	r6,0
80009c66:	e0 8a 00 43 	brle	80009cec <_dtoa_r+0x3bc>
80009c6a:	f3 d6 c0 04 	bfextu	r9,r6,0x0,0x4
80009c6e:	fe c8 d6 a6 	sub	r8,pc,-10586
80009c72:	f0 09 02 34 	ld.d	r4,r8[r9<<0x3]
80009c76:	fa e5 00 18 	st.d	sp[24],r4
80009c7a:	ec 04 14 04 	asr	r4,r6,0x4
80009c7e:	ed b4 00 04 	bld	r4,0x4
80009c82:	c0 30       	breq	80009c88 <_dtoa_r+0x358>
80009c84:	30 25       	mov	r5,2
80009c86:	c1 08       	rjmp	80009ca6 <_dtoa_r+0x376>
80009c88:	fe c8 d5 f8 	sub	r8,pc,-10760
80009c8c:	f0 e8 00 20 	ld.d	r8,r8[32]
80009c90:	fa ea 00 3c 	ld.d	r10,sp[60]
80009c94:	e9 d4 c0 04 	bfextu	r4,r4,0x0,0x4
80009c98:	e0 a0 0d a4 	rcall	8000b7e0 <__avr32_f64_div>
80009c9c:	30 35       	mov	r5,3
80009c9e:	14 98       	mov	r8,r10
80009ca0:	16 99       	mov	r9,r11
80009ca2:	fa e9 00 08 	st.d	sp[8],r8
80009ca6:	fe cc d6 16 	sub	r12,pc,-10730
80009caa:	50 a3       	stdsp	sp[0x28],r3
80009cac:	0c 93       	mov	r3,r6
80009cae:	18 96       	mov	r6,r12
80009cb0:	c0 f8       	rjmp	80009cce <_dtoa_r+0x39e>
80009cb2:	fa ea 00 18 	ld.d	r10,sp[24]
80009cb6:	ed b4 00 00 	bld	r4,0x0
80009cba:	c0 81       	brne	80009cca <_dtoa_r+0x39a>
80009cbc:	ec e8 00 00 	ld.d	r8,r6[0]
80009cc0:	2f f5       	sub	r5,-1
80009cc2:	e0 a0 0a 49 	rcall	8000b154 <__avr32_f64_mul>
80009cc6:	fa eb 00 18 	st.d	sp[24],r10
80009cca:	a1 54       	asr	r4,0x1
80009ccc:	2f 86       	sub	r6,-8
80009cce:	58 04       	cp.w	r4,0
80009cd0:	cf 11       	brne	80009cb2 <_dtoa_r+0x382>
80009cd2:	fa e8 00 18 	ld.d	r8,sp[24]
80009cd6:	fa ea 00 08 	ld.d	r10,sp[8]
80009cda:	06 96       	mov	r6,r3
80009cdc:	e0 a0 0d 82 	rcall	8000b7e0 <__avr32_f64_div>
80009ce0:	40 a3       	lddsp	r3,sp[0x28]
80009ce2:	14 98       	mov	r8,r10
80009ce4:	16 99       	mov	r9,r11
80009ce6:	fa e9 00 08 	st.d	sp[8],r8
80009cea:	c2 f8       	rjmp	80009d48 <_dtoa_r+0x418>
80009cec:	ec 08 11 00 	rsub	r8,r6,0
80009cf0:	c0 31       	brne	80009cf6 <_dtoa_r+0x3c6>
80009cf2:	30 25       	mov	r5,2
80009cf4:	c2 a8       	rjmp	80009d48 <_dtoa_r+0x418>
80009cf6:	fe cc d6 66 	sub	r12,pc,-10650
80009cfa:	f0 04 14 04 	asr	r4,r8,0x4
80009cfe:	50 1c       	stdsp	sp[0x4],r12
80009d00:	f1 d8 c0 04 	bfextu	r8,r8,0x0,0x4
80009d04:	fe c9 d7 3c 	sub	r9,pc,-10436
80009d08:	fa ea 00 3c 	ld.d	r10,sp[60]
80009d0c:	f2 08 02 38 	ld.d	r8,r9[r8<<0x3]
80009d10:	e0 a0 0a 22 	rcall	8000b154 <__avr32_f64_mul>
80009d14:	40 1c       	lddsp	r12,sp[0x4]
80009d16:	50 63       	stdsp	sp[0x18],r3
80009d18:	30 25       	mov	r5,2
80009d1a:	0c 93       	mov	r3,r6
80009d1c:	fa eb 00 08 	st.d	sp[8],r10
80009d20:	18 96       	mov	r6,r12
80009d22:	c0 f8       	rjmp	80009d40 <_dtoa_r+0x410>
80009d24:	fa ea 00 08 	ld.d	r10,sp[8]
80009d28:	ed b4 00 00 	bld	r4,0x0
80009d2c:	c0 81       	brne	80009d3c <_dtoa_r+0x40c>
80009d2e:	ec e8 00 00 	ld.d	r8,r6[0]
80009d32:	2f f5       	sub	r5,-1
80009d34:	e0 a0 0a 10 	rcall	8000b154 <__avr32_f64_mul>
80009d38:	fa eb 00 08 	st.d	sp[8],r10
80009d3c:	a1 54       	asr	r4,0x1
80009d3e:	2f 86       	sub	r6,-8
80009d40:	58 04       	cp.w	r4,0
80009d42:	cf 11       	brne	80009d24 <_dtoa_r+0x3f4>
80009d44:	06 96       	mov	r6,r3
80009d46:	40 63       	lddsp	r3,sp[0x18]
80009d48:	41 4a       	lddsp	r10,sp[0x50]
80009d4a:	58 0a       	cp.w	r10,0
80009d4c:	c2 a0       	breq	80009da0 <_dtoa_r+0x470>
80009d4e:	fa e8 00 08 	ld.d	r8,sp[8]
80009d52:	58 01       	cp.w	r1,0
80009d54:	5f 94       	srgt	r4
80009d56:	fa e9 00 18 	st.d	sp[24],r8
80009d5a:	30 08       	mov	r8,0
80009d5c:	fc 19 3f f0 	movh	r9,0x3ff0
80009d60:	fa ea 00 18 	ld.d	r10,sp[24]
80009d64:	e0 a0 0d 0a 	rcall	8000b778 <__avr32_f64_cmp_lt>
80009d68:	f9 bc 00 00 	moveq	r12,0
80009d6c:	f9 bc 01 01 	movne	r12,1
80009d70:	e9 ec 00 0c 	and	r12,r4,r12
80009d74:	c1 60       	breq	80009da0 <_dtoa_r+0x470>
80009d76:	40 98       	lddsp	r8,sp[0x24]
80009d78:	58 08       	cp.w	r8,0
80009d7a:	e0 8a 00 f1 	brle	80009f5c <_dtoa_r+0x62c>
80009d7e:	30 08       	mov	r8,0
80009d80:	fc 19 40 24 	movh	r9,0x4024
80009d84:	ec c4 00 01 	sub	r4,r6,1
80009d88:	fa ea 00 18 	ld.d	r10,sp[24]
80009d8c:	2f f5       	sub	r5,-1
80009d8e:	50 64       	stdsp	sp[0x18],r4
80009d90:	e0 a0 09 e2 	rcall	8000b154 <__avr32_f64_mul>
80009d94:	40 94       	lddsp	r4,sp[0x24]
80009d96:	14 98       	mov	r8,r10
80009d98:	16 99       	mov	r9,r11
80009d9a:	fa e9 00 08 	st.d	sp[8],r8
80009d9e:	c0 38       	rjmp	80009da4 <_dtoa_r+0x474>
80009da0:	50 66       	stdsp	sp[0x18],r6
80009da2:	02 94       	mov	r4,r1
80009da4:	0a 9c       	mov	r12,r5
80009da6:	e0 a0 0c 32 	rcall	8000b60a <__avr32_s32_to_f64>
80009daa:	fa e8 00 08 	ld.d	r8,sp[8]
80009dae:	e0 a0 09 d3 	rcall	8000b154 <__avr32_f64_mul>
80009db2:	30 08       	mov	r8,0
80009db4:	fc 19 40 1c 	movh	r9,0x401c
80009db8:	e0 a0 0b 88 	rcall	8000b4c8 <__avr32_f64_add>
80009dbc:	14 98       	mov	r8,r10
80009dbe:	16 99       	mov	r9,r11
80009dc0:	fa e9 00 28 	st.d	sp[40],r8
80009dc4:	fc 18 fc c0 	movh	r8,0xfcc0
80009dc8:	40 a5       	lddsp	r5,sp[0x28]
80009dca:	10 05       	add	r5,r8
80009dcc:	50 a5       	stdsp	sp[0x28],r5
80009dce:	58 04       	cp.w	r4,0
80009dd0:	c2 11       	brne	80009e12 <_dtoa_r+0x4e2>
80009dd2:	fa ea 00 08 	ld.d	r10,sp[8]
80009dd6:	30 08       	mov	r8,0
80009dd8:	fc 19 40 14 	movh	r9,0x4014
80009ddc:	e0 a0 0a a8 	rcall	8000b32c <__avr32_f64_sub>
80009de0:	40 bc       	lddsp	r12,sp[0x2c]
80009de2:	fa eb 00 08 	st.d	sp[8],r10
80009de6:	14 98       	mov	r8,r10
80009de8:	16 99       	mov	r9,r11
80009dea:	18 9a       	mov	r10,r12
80009dec:	0a 9b       	mov	r11,r5
80009dee:	e0 a0 0c c5 	rcall	8000b778 <__avr32_f64_cmp_lt>
80009df2:	e0 81 02 54 	brne	8000a29a <_dtoa_r+0x96a>
80009df6:	0a 98       	mov	r8,r5
80009df8:	40 b9       	lddsp	r9,sp[0x2c]
80009dfa:	ee 18 80 00 	eorh	r8,0x8000
80009dfe:	fa ea 00 08 	ld.d	r10,sp[8]
80009e02:	10 95       	mov	r5,r8
80009e04:	12 98       	mov	r8,r9
80009e06:	0a 99       	mov	r9,r5
80009e08:	e0 a0 0c b8 	rcall	8000b778 <__avr32_f64_cmp_lt>
80009e0c:	e0 81 02 3e 	brne	8000a288 <_dtoa_r+0x958>
80009e10:	ca 68       	rjmp	80009f5c <_dtoa_r+0x62c>
80009e12:	fe c9 d8 4a 	sub	r9,pc,-10166
80009e16:	e8 c8 00 01 	sub	r8,r4,1
80009e1a:	40 d5       	lddsp	r5,sp[0x34]
80009e1c:	58 05       	cp.w	r5,0
80009e1e:	c4 f0       	breq	80009ebc <_dtoa_r+0x58c>
80009e20:	30 0c       	mov	r12,0
80009e22:	f2 08 02 38 	ld.d	r8,r9[r8<<0x3]
80009e26:	51 3c       	stdsp	sp[0x4c],r12
80009e28:	30 0a       	mov	r10,0
80009e2a:	fc 1b 3f e0 	movh	r11,0x3fe0
80009e2e:	e0 a0 0c d9 	rcall	8000b7e0 <__avr32_f64_div>
80009e32:	fa e8 00 28 	ld.d	r8,sp[40]
80009e36:	40 85       	lddsp	r5,sp[0x20]
80009e38:	e0 a0 0a 7a 	rcall	8000b32c <__avr32_f64_sub>
80009e3c:	fa eb 00 28 	st.d	sp[40],r10
80009e40:	fa ea 00 08 	ld.d	r10,sp[8]
80009e44:	e0 a0 0b cc 	rcall	8000b5dc <__avr32_f64_to_s32>
80009e48:	51 6c       	stdsp	sp[0x58],r12
80009e4a:	e0 a0 0b e0 	rcall	8000b60a <__avr32_s32_to_f64>
80009e4e:	14 98       	mov	r8,r10
80009e50:	16 99       	mov	r9,r11
80009e52:	fa ea 00 08 	ld.d	r10,sp[8]
80009e56:	e0 a0 0a 6b 	rcall	8000b32c <__avr32_f64_sub>
80009e5a:	fa eb 00 08 	st.d	sp[8],r10
80009e5e:	41 68       	lddsp	r8,sp[0x58]
80009e60:	2d 08       	sub	r8,-48
80009e62:	0a c8       	st.b	r5++,r8
80009e64:	41 39       	lddsp	r9,sp[0x4c]
80009e66:	2f f9       	sub	r9,-1
80009e68:	51 39       	stdsp	sp[0x4c],r9
80009e6a:	fa e8 00 28 	ld.d	r8,sp[40]
80009e6e:	e0 a0 0c 85 	rcall	8000b778 <__avr32_f64_cmp_lt>
80009e72:	e0 81 03 39 	brne	8000a4e4 <_dtoa_r+0xbb4>
80009e76:	fa e8 00 08 	ld.d	r8,sp[8]
80009e7a:	30 0a       	mov	r10,0
80009e7c:	fc 1b 3f f0 	movh	r11,0x3ff0
80009e80:	e0 a0 0a 56 	rcall	8000b32c <__avr32_f64_sub>
80009e84:	fa e8 00 28 	ld.d	r8,sp[40]
80009e88:	e0 a0 0c 78 	rcall	8000b778 <__avr32_f64_cmp_lt>
80009e8c:	fa ea 00 28 	ld.d	r10,sp[40]
80009e90:	30 08       	mov	r8,0
80009e92:	fc 19 40 24 	movh	r9,0x4024
80009e96:	e0 81 00 da 	brne	8000a04a <_dtoa_r+0x71a>
80009e9a:	41 3c       	lddsp	r12,sp[0x4c]
80009e9c:	08 3c       	cp.w	r12,r4
80009e9e:	c5 f4       	brge	80009f5c <_dtoa_r+0x62c>
80009ea0:	e0 a0 09 5a 	rcall	8000b154 <__avr32_f64_mul>
80009ea4:	30 08       	mov	r8,0
80009ea6:	fa eb 00 28 	st.d	sp[40],r10
80009eaa:	fc 19 40 24 	movh	r9,0x4024
80009eae:	fa ea 00 08 	ld.d	r10,sp[8]
80009eb2:	e0 a0 09 51 	rcall	8000b154 <__avr32_f64_mul>
80009eb6:	fa eb 00 08 	st.d	sp[8],r10
80009eba:	cc 3b       	rjmp	80009e40 <_dtoa_r+0x510>
80009ebc:	40 85       	lddsp	r5,sp[0x20]
80009ebe:	08 05       	add	r5,r4
80009ec0:	f2 08 02 3a 	ld.d	r10,r9[r8<<0x3]
80009ec4:	51 35       	stdsp	sp[0x4c],r5
80009ec6:	fa e8 00 28 	ld.d	r8,sp[40]
80009eca:	40 85       	lddsp	r5,sp[0x20]
80009ecc:	e0 a0 09 44 	rcall	8000b154 <__avr32_f64_mul>
80009ed0:	fa eb 00 28 	st.d	sp[40],r10
80009ed4:	fa ea 00 08 	ld.d	r10,sp[8]
80009ed8:	e0 a0 0b 82 	rcall	8000b5dc <__avr32_f64_to_s32>
80009edc:	51 6c       	stdsp	sp[0x58],r12
80009ede:	e0 a0 0b 96 	rcall	8000b60a <__avr32_s32_to_f64>
80009ee2:	14 98       	mov	r8,r10
80009ee4:	16 99       	mov	r9,r11
80009ee6:	fa ea 00 08 	ld.d	r10,sp[8]
80009eea:	e0 a0 0a 21 	rcall	8000b32c <__avr32_f64_sub>
80009eee:	fa eb 00 08 	st.d	sp[8],r10
80009ef2:	41 68       	lddsp	r8,sp[0x58]
80009ef4:	2d 08       	sub	r8,-48
80009ef6:	0a c8       	st.b	r5++,r8
80009ef8:	41 3c       	lddsp	r12,sp[0x4c]
80009efa:	18 35       	cp.w	r5,r12
80009efc:	c2 81       	brne	80009f4c <_dtoa_r+0x61c>
80009efe:	30 08       	mov	r8,0
80009f00:	fc 19 3f e0 	movh	r9,0x3fe0
80009f04:	fa ea 00 28 	ld.d	r10,sp[40]
80009f08:	e0 a0 0a e0 	rcall	8000b4c8 <__avr32_f64_add>
80009f0c:	40 85       	lddsp	r5,sp[0x20]
80009f0e:	fa e8 00 08 	ld.d	r8,sp[8]
80009f12:	08 05       	add	r5,r4
80009f14:	e0 a0 0c 32 	rcall	8000b778 <__avr32_f64_cmp_lt>
80009f18:	e0 81 00 99 	brne	8000a04a <_dtoa_r+0x71a>
80009f1c:	fa e8 00 28 	ld.d	r8,sp[40]
80009f20:	30 0a       	mov	r10,0
80009f22:	fc 1b 3f e0 	movh	r11,0x3fe0
80009f26:	e0 a0 0a 03 	rcall	8000b32c <__avr32_f64_sub>
80009f2a:	14 98       	mov	r8,r10
80009f2c:	16 99       	mov	r9,r11
80009f2e:	fa ea 00 08 	ld.d	r10,sp[8]
80009f32:	e0 a0 0c 23 	rcall	8000b778 <__avr32_f64_cmp_lt>
80009f36:	c1 30       	breq	80009f5c <_dtoa_r+0x62c>
80009f38:	33 09       	mov	r9,48
80009f3a:	0a 98       	mov	r8,r5
80009f3c:	11 7a       	ld.ub	r10,--r8
80009f3e:	f2 0a 18 00 	cp.b	r10,r9
80009f42:	e0 81 02 d1 	brne	8000a4e4 <_dtoa_r+0xbb4>
80009f46:	10 95       	mov	r5,r8
80009f48:	cf 9b       	rjmp	80009f3a <_dtoa_r+0x60a>
80009f4a:	d7 03       	nop
80009f4c:	30 08       	mov	r8,0
80009f4e:	fc 19 40 24 	movh	r9,0x4024
80009f52:	e0 a0 09 01 	rcall	8000b154 <__avr32_f64_mul>
80009f56:	fa eb 00 08 	st.d	sp[8],r10
80009f5a:	cb db       	rjmp	80009ed4 <_dtoa_r+0x5a4>
80009f5c:	fa ea 00 3c 	ld.d	r10,sp[60]
80009f60:	fa eb 00 08 	st.d	sp[8],r10
80009f64:	58 e6       	cp.w	r6,14
80009f66:	5f ab       	srle	r11
80009f68:	41 8a       	lddsp	r10,sp[0x60]
80009f6a:	30 08       	mov	r8,0
80009f6c:	f4 09 11 ff 	rsub	r9,r10,-1
80009f70:	f7 e9 03 f9 	and	r9,r11,r9>>0x1f
80009f74:	f0 09 18 00 	cp.b	r9,r8
80009f78:	e0 80 00 82 	breq	8000a07c <_dtoa_r+0x74c>
80009f7c:	40 ea       	lddsp	r10,sp[0x38]
80009f7e:	58 01       	cp.w	r1,0
80009f80:	5f a9       	srle	r9
80009f82:	f3 ea 03 f9 	and	r9,r9,r10>>0x1f
80009f86:	fe ca d9 be 	sub	r10,pc,-9794
80009f8a:	f4 06 02 34 	ld.d	r4,r10[r6<<0x3]
80009f8e:	fa e5 00 10 	st.d	sp[16],r4
80009f92:	f0 09 18 00 	cp.b	r9,r8
80009f96:	c1 40       	breq	80009fbe <_dtoa_r+0x68e>
80009f98:	58 01       	cp.w	r1,0
80009f9a:	e0 81 01 77 	brne	8000a288 <_dtoa_r+0x958>
80009f9e:	30 08       	mov	r8,0
80009fa0:	fc 19 40 14 	movh	r9,0x4014
80009fa4:	08 9a       	mov	r10,r4
80009fa6:	0a 9b       	mov	r11,r5
80009fa8:	e0 a0 08 d6 	rcall	8000b154 <__avr32_f64_mul>
80009fac:	fa e8 00 08 	ld.d	r8,sp[8]
80009fb0:	e0 a0 0b b0 	rcall	8000b710 <__avr32_f64_cmp_ge>
80009fb4:	e0 81 01 6a 	brne	8000a288 <_dtoa_r+0x958>
80009fb8:	02 92       	mov	r2,r1
80009fba:	e0 8f 01 72 	bral	8000a29e <_dtoa_r+0x96e>
80009fbe:	40 85       	lddsp	r5,sp[0x20]
80009fc0:	30 14       	mov	r4,1
80009fc2:	fa e8 00 10 	ld.d	r8,sp[16]
80009fc6:	fa ea 00 08 	ld.d	r10,sp[8]
80009fca:	e0 a0 0c 0b 	rcall	8000b7e0 <__avr32_f64_div>
80009fce:	e0 a0 0b 07 	rcall	8000b5dc <__avr32_f64_to_s32>
80009fd2:	18 92       	mov	r2,r12
80009fd4:	e0 a0 0b 1b 	rcall	8000b60a <__avr32_s32_to_f64>
80009fd8:	fa e8 00 10 	ld.d	r8,sp[16]
80009fdc:	e0 a0 08 bc 	rcall	8000b154 <__avr32_f64_mul>
80009fe0:	14 98       	mov	r8,r10
80009fe2:	16 99       	mov	r9,r11
80009fe4:	fa ea 00 08 	ld.d	r10,sp[8]
80009fe8:	e0 a0 09 a2 	rcall	8000b32c <__avr32_f64_sub>
80009fec:	fa eb 00 08 	st.d	sp[8],r10
80009ff0:	e4 c8 ff d0 	sub	r8,r2,-48
80009ff4:	0a c8       	st.b	r5++,r8
80009ff6:	fc 19 40 24 	movh	r9,0x4024
80009ffa:	30 08       	mov	r8,0
80009ffc:	02 34       	cp.w	r4,r1
80009ffe:	c3 31       	brne	8000a064 <_dtoa_r+0x734>
8000a000:	fa e8 00 08 	ld.d	r8,sp[8]
8000a004:	e0 a0 0a 62 	rcall	8000b4c8 <__avr32_f64_add>
8000a008:	16 91       	mov	r1,r11
8000a00a:	14 90       	mov	r0,r10
8000a00c:	14 98       	mov	r8,r10
8000a00e:	02 99       	mov	r9,r1
8000a010:	fa ea 00 10 	ld.d	r10,sp[16]
8000a014:	e0 a0 0b b2 	rcall	8000b778 <__avr32_f64_cmp_lt>
8000a018:	c1 a1       	brne	8000a04c <_dtoa_r+0x71c>
8000a01a:	fa e8 00 10 	ld.d	r8,sp[16]
8000a01e:	00 9a       	mov	r10,r0
8000a020:	02 9b       	mov	r11,r1
8000a022:	e0 a0 0b 64 	rcall	8000b6ea <__avr32_f64_cmp_eq>
8000a026:	e0 80 02 5e 	breq	8000a4e2 <_dtoa_r+0xbb2>
8000a02a:	e5 d2 c0 01 	bfextu	r2,r2,0x0,0x1
8000a02e:	c0 f1       	brne	8000a04c <_dtoa_r+0x71c>
8000a030:	e0 8f 02 59 	bral	8000a4e2 <_dtoa_r+0xbb2>
8000a034:	40 8a       	lddsp	r10,sp[0x20]
8000a036:	14 38       	cp.w	r8,r10
8000a038:	c0 30       	breq	8000a03e <_dtoa_r+0x70e>
8000a03a:	10 95       	mov	r5,r8
8000a03c:	c0 98       	rjmp	8000a04e <_dtoa_r+0x71e>
8000a03e:	33 08       	mov	r8,48
8000a040:	40 89       	lddsp	r9,sp[0x20]
8000a042:	2f f6       	sub	r6,-1
8000a044:	b2 88       	st.b	r9[0x0],r8
8000a046:	40 88       	lddsp	r8,sp[0x20]
8000a048:	c0 88       	rjmp	8000a058 <_dtoa_r+0x728>
8000a04a:	40 66       	lddsp	r6,sp[0x18]
8000a04c:	33 99       	mov	r9,57
8000a04e:	0a 98       	mov	r8,r5
8000a050:	11 7a       	ld.ub	r10,--r8
8000a052:	f2 0a 18 00 	cp.b	r10,r9
8000a056:	ce f0       	breq	8000a034 <_dtoa_r+0x704>
8000a058:	50 66       	stdsp	sp[0x18],r6
8000a05a:	11 89       	ld.ub	r9,r8[0x0]
8000a05c:	2f f9       	sub	r9,-1
8000a05e:	b0 89       	st.b	r8[0x0],r9
8000a060:	e0 8f 02 42 	bral	8000a4e4 <_dtoa_r+0xbb4>
8000a064:	e0 a0 08 78 	rcall	8000b154 <__avr32_f64_mul>
8000a068:	2f f4       	sub	r4,-1
8000a06a:	fa eb 00 08 	st.d	sp[8],r10
8000a06e:	30 08       	mov	r8,0
8000a070:	30 09       	mov	r9,0
8000a072:	e0 a0 0b 3c 	rcall	8000b6ea <__avr32_f64_cmp_eq>
8000a076:	ca 60       	breq	80009fc2 <_dtoa_r+0x692>
8000a078:	e0 8f 02 35 	bral	8000a4e2 <_dtoa_r+0xbb2>
8000a07c:	40 d8       	lddsp	r8,sp[0x34]
8000a07e:	58 08       	cp.w	r8,0
8000a080:	c0 51       	brne	8000a08a <_dtoa_r+0x75a>
8000a082:	04 98       	mov	r8,r2
8000a084:	00 95       	mov	r5,r0
8000a086:	40 d4       	lddsp	r4,sp[0x34]
8000a088:	c3 78       	rjmp	8000a0f6 <_dtoa_r+0x7c6>
8000a08a:	40 c5       	lddsp	r5,sp[0x30]
8000a08c:	58 15       	cp.w	r5,1
8000a08e:	e0 89 00 0f 	brgt	8000a0ac <_dtoa_r+0x77c>
8000a092:	41 74       	lddsp	r4,sp[0x5c]
8000a094:	58 04       	cp.w	r4,0
8000a096:	c0 40       	breq	8000a09e <_dtoa_r+0x76e>
8000a098:	f4 c9 fb cd 	sub	r9,r10,-1075
8000a09c:	c0 48       	rjmp	8000a0a4 <_dtoa_r+0x774>
8000a09e:	41 99       	lddsp	r9,sp[0x64]
8000a0a0:	f2 09 11 36 	rsub	r9,r9,54
8000a0a4:	04 98       	mov	r8,r2
8000a0a6:	00 95       	mov	r5,r0
8000a0a8:	c1 c8       	rjmp	8000a0e0 <_dtoa_r+0x7b0>
8000a0aa:	d7 03       	nop
8000a0ac:	e2 c8 00 01 	sub	r8,r1,1
8000a0b0:	58 01       	cp.w	r1,0
8000a0b2:	e0 05 17 40 	movge	r5,r0
8000a0b6:	e2 09 17 40 	movge	r9,r1
8000a0ba:	e1 d1 e5 15 	sublt	r5,r0,r1
8000a0be:	f9 b9 05 00 	movlt	r9,0
8000a0c2:	10 32       	cp.w	r2,r8
8000a0c4:	e5 d8 e4 18 	subge	r8,r2,r8
8000a0c8:	f1 d2 e5 18 	sublt	r8,r8,r2
8000a0cc:	e5 d8 e5 02 	addlt	r2,r2,r8
8000a0d0:	fb fc 50 11 	ld.wlt	r12,sp[0x44]
8000a0d4:	f9 d8 e5 0c 	addlt	r12,r12,r8
8000a0d8:	fb fc 5a 11 	st.wlt	sp[0x44],r12
8000a0dc:	f9 b8 05 00 	movlt	r8,0
8000a0e0:	40 4b       	lddsp	r11,sp[0x10]
8000a0e2:	12 0b       	add	r11,r9
8000a0e4:	50 08       	stdsp	sp[0x0],r8
8000a0e6:	50 4b       	stdsp	sp[0x10],r11
8000a0e8:	12 00       	add	r0,r9
8000a0ea:	30 1b       	mov	r11,1
8000a0ec:	0e 9c       	mov	r12,r7
8000a0ee:	e0 a0 07 27 	rcall	8000af3c <__i2b>
8000a0f2:	40 08       	lddsp	r8,sp[0x0]
8000a0f4:	18 94       	mov	r4,r12
8000a0f6:	40 4a       	lddsp	r10,sp[0x10]
8000a0f8:	58 05       	cp.w	r5,0
8000a0fa:	5f 99       	srgt	r9
8000a0fc:	58 0a       	cp.w	r10,0
8000a0fe:	5f 9a       	srgt	r10
8000a100:	f5 e9 00 09 	and	r9,r10,r9
8000a104:	c0 80       	breq	8000a114 <_dtoa_r+0x7e4>
8000a106:	40 4c       	lddsp	r12,sp[0x10]
8000a108:	f8 05 0d 49 	min	r9,r12,r5
8000a10c:	12 1c       	sub	r12,r9
8000a10e:	12 10       	sub	r0,r9
8000a110:	50 4c       	stdsp	sp[0x10],r12
8000a112:	12 15       	sub	r5,r9
8000a114:	58 02       	cp.w	r2,0
8000a116:	e0 8a 00 27 	brle	8000a164 <_dtoa_r+0x834>
8000a11a:	40 db       	lddsp	r11,sp[0x34]
8000a11c:	58 0b       	cp.w	r11,0
8000a11e:	c1 d0       	breq	8000a158 <_dtoa_r+0x828>
8000a120:	58 08       	cp.w	r8,0
8000a122:	e0 8a 00 17 	brle	8000a150 <_dtoa_r+0x820>
8000a126:	10 9a       	mov	r10,r8
8000a128:	50 08       	stdsp	sp[0x0],r8
8000a12a:	08 9b       	mov	r11,r4
8000a12c:	0e 9c       	mov	r12,r7
8000a12e:	e0 a0 07 4d 	rcall	8000afc8 <__pow5mult>
8000a132:	06 9a       	mov	r10,r3
8000a134:	18 9b       	mov	r11,r12
8000a136:	18 94       	mov	r4,r12
8000a138:	0e 9c       	mov	r12,r7
8000a13a:	e0 a0 06 81 	rcall	8000ae3c <__multiply>
8000a13e:	18 99       	mov	r9,r12
8000a140:	06 9b       	mov	r11,r3
8000a142:	50 19       	stdsp	sp[0x4],r9
8000a144:	0e 9c       	mov	r12,r7
8000a146:	e0 a0 05 2d 	rcall	8000aba0 <_Bfree>
8000a14a:	40 19       	lddsp	r9,sp[0x4]
8000a14c:	40 08       	lddsp	r8,sp[0x0]
8000a14e:	12 93       	mov	r3,r9
8000a150:	e4 08 01 0a 	sub	r10,r2,r8
8000a154:	c0 80       	breq	8000a164 <_dtoa_r+0x834>
8000a156:	c0 28       	rjmp	8000a15a <_dtoa_r+0x82a>
8000a158:	04 9a       	mov	r10,r2
8000a15a:	06 9b       	mov	r11,r3
8000a15c:	0e 9c       	mov	r12,r7
8000a15e:	e0 a0 07 35 	rcall	8000afc8 <__pow5mult>
8000a162:	18 93       	mov	r3,r12
8000a164:	30 1b       	mov	r11,1
8000a166:	0e 9c       	mov	r12,r7
8000a168:	e0 a0 06 ea 	rcall	8000af3c <__i2b>
8000a16c:	41 1a       	lddsp	r10,sp[0x44]
8000a16e:	18 92       	mov	r2,r12
8000a170:	58 0a       	cp.w	r10,0
8000a172:	e0 8a 00 07 	brle	8000a180 <_dtoa_r+0x850>
8000a176:	18 9b       	mov	r11,r12
8000a178:	0e 9c       	mov	r12,r7
8000a17a:	e0 a0 07 27 	rcall	8000afc8 <__pow5mult>
8000a17e:	18 92       	mov	r2,r12
8000a180:	40 c9       	lddsp	r9,sp[0x30]
8000a182:	58 19       	cp.w	r9,1
8000a184:	e0 89 00 14 	brgt	8000a1ac <_dtoa_r+0x87c>
8000a188:	40 38       	lddsp	r8,sp[0xc]
8000a18a:	58 08       	cp.w	r8,0
8000a18c:	c1 01       	brne	8000a1ac <_dtoa_r+0x87c>
8000a18e:	40 29       	lddsp	r9,sp[0x8]
8000a190:	f1 d9 c0 14 	bfextu	r8,r9,0x0,0x14
8000a194:	c0 c1       	brne	8000a1ac <_dtoa_r+0x87c>
8000a196:	12 98       	mov	r8,r9
8000a198:	e6 18 7f f0 	andh	r8,0x7ff0,COH
8000a19c:	c0 80       	breq	8000a1ac <_dtoa_r+0x87c>
8000a19e:	40 4c       	lddsp	r12,sp[0x10]
8000a1a0:	30 1b       	mov	r11,1
8000a1a2:	2f fc       	sub	r12,-1
8000a1a4:	2f f0       	sub	r0,-1
8000a1a6:	50 4c       	stdsp	sp[0x10],r12
8000a1a8:	50 6b       	stdsp	sp[0x18],r11
8000a1aa:	c0 38       	rjmp	8000a1b0 <_dtoa_r+0x880>
8000a1ac:	30 0a       	mov	r10,0
8000a1ae:	50 6a       	stdsp	sp[0x18],r10
8000a1b0:	41 19       	lddsp	r9,sp[0x44]
8000a1b2:	58 09       	cp.w	r9,0
8000a1b4:	c0 31       	brne	8000a1ba <_dtoa_r+0x88a>
8000a1b6:	30 1c       	mov	r12,1
8000a1b8:	c0 98       	rjmp	8000a1ca <_dtoa_r+0x89a>
8000a1ba:	64 48       	ld.w	r8,r2[0x10]
8000a1bc:	2f c8       	sub	r8,-4
8000a1be:	e4 08 03 2c 	ld.w	r12,r2[r8<<0x2]
8000a1c2:	e0 a0 04 5e 	rcall	8000aa7e <__hi0bits>
8000a1c6:	f8 0c 11 20 	rsub	r12,r12,32
8000a1ca:	40 4b       	lddsp	r11,sp[0x10]
8000a1cc:	f8 0b 00 08 	add	r8,r12,r11
8000a1d0:	f1 d8 c0 05 	bfextu	r8,r8,0x0,0x5
8000a1d4:	c0 c0       	breq	8000a1ec <_dtoa_r+0x8bc>
8000a1d6:	f0 08 11 20 	rsub	r8,r8,32
8000a1da:	58 48       	cp.w	r8,4
8000a1dc:	e0 8a 00 06 	brle	8000a1e8 <_dtoa_r+0x8b8>
8000a1e0:	20 48       	sub	r8,4
8000a1e2:	10 0b       	add	r11,r8
8000a1e4:	50 4b       	stdsp	sp[0x10],r11
8000a1e6:	c0 78       	rjmp	8000a1f4 <_dtoa_r+0x8c4>
8000a1e8:	58 48       	cp.w	r8,4
8000a1ea:	c0 70       	breq	8000a1f8 <_dtoa_r+0x8c8>
8000a1ec:	40 4a       	lddsp	r10,sp[0x10]
8000a1ee:	2e 48       	sub	r8,-28
8000a1f0:	10 0a       	add	r10,r8
8000a1f2:	50 4a       	stdsp	sp[0x10],r10
8000a1f4:	10 00       	add	r0,r8
8000a1f6:	10 05       	add	r5,r8
8000a1f8:	58 00       	cp.w	r0,0
8000a1fa:	e0 8a 00 08 	brle	8000a20a <_dtoa_r+0x8da>
8000a1fe:	06 9b       	mov	r11,r3
8000a200:	00 9a       	mov	r10,r0
8000a202:	0e 9c       	mov	r12,r7
8000a204:	e0 a0 05 d8 	rcall	8000adb4 <__lshift>
8000a208:	18 93       	mov	r3,r12
8000a20a:	40 49       	lddsp	r9,sp[0x10]
8000a20c:	58 09       	cp.w	r9,0
8000a20e:	e0 8a 00 08 	brle	8000a21e <_dtoa_r+0x8ee>
8000a212:	04 9b       	mov	r11,r2
8000a214:	12 9a       	mov	r10,r9
8000a216:	0e 9c       	mov	r12,r7
8000a218:	e0 a0 05 ce 	rcall	8000adb4 <__lshift>
8000a21c:	18 92       	mov	r2,r12
8000a21e:	41 48       	lddsp	r8,sp[0x50]
8000a220:	58 08       	cp.w	r8,0
8000a222:	c1 b0       	breq	8000a258 <_dtoa_r+0x928>
8000a224:	04 9b       	mov	r11,r2
8000a226:	06 9c       	mov	r12,r3
8000a228:	e0 a0 04 a2 	rcall	8000ab6c <__mcmp>
8000a22c:	c1 64       	brge	8000a258 <_dtoa_r+0x928>
8000a22e:	06 9b       	mov	r11,r3
8000a230:	30 09       	mov	r9,0
8000a232:	30 aa       	mov	r10,10
8000a234:	0e 9c       	mov	r12,r7
8000a236:	e0 a0 06 8b 	rcall	8000af4c <__multadd>
8000a23a:	20 16       	sub	r6,1
8000a23c:	18 93       	mov	r3,r12
8000a23e:	40 dc       	lddsp	r12,sp[0x34]
8000a240:	58 0c       	cp.w	r12,0
8000a242:	c0 31       	brne	8000a248 <_dtoa_r+0x918>
8000a244:	40 91       	lddsp	r1,sp[0x24]
8000a246:	c0 98       	rjmp	8000a258 <_dtoa_r+0x928>
8000a248:	08 9b       	mov	r11,r4
8000a24a:	40 91       	lddsp	r1,sp[0x24]
8000a24c:	30 09       	mov	r9,0
8000a24e:	30 aa       	mov	r10,10
8000a250:	0e 9c       	mov	r12,r7
8000a252:	e0 a0 06 7d 	rcall	8000af4c <__multadd>
8000a256:	18 94       	mov	r4,r12
8000a258:	58 01       	cp.w	r1,0
8000a25a:	5f a9       	srle	r9
8000a25c:	40 cb       	lddsp	r11,sp[0x30]
8000a25e:	58 2b       	cp.w	r11,2
8000a260:	5f 98       	srgt	r8
8000a262:	f3 e8 00 08 	and	r8,r9,r8
8000a266:	c2 50       	breq	8000a2b0 <_dtoa_r+0x980>
8000a268:	58 01       	cp.w	r1,0
8000a26a:	c1 11       	brne	8000a28c <_dtoa_r+0x95c>
8000a26c:	04 9b       	mov	r11,r2
8000a26e:	02 99       	mov	r9,r1
8000a270:	30 5a       	mov	r10,5
8000a272:	0e 9c       	mov	r12,r7
8000a274:	e0 a0 06 6c 	rcall	8000af4c <__multadd>
8000a278:	18 92       	mov	r2,r12
8000a27a:	18 9b       	mov	r11,r12
8000a27c:	06 9c       	mov	r12,r3
8000a27e:	e0 a0 04 77 	rcall	8000ab6c <__mcmp>
8000a282:	e0 89 00 0f 	brgt	8000a2a0 <_dtoa_r+0x970>
8000a286:	c0 38       	rjmp	8000a28c <_dtoa_r+0x95c>
8000a288:	30 02       	mov	r2,0
8000a28a:	04 94       	mov	r4,r2
8000a28c:	40 ea       	lddsp	r10,sp[0x38]
8000a28e:	30 09       	mov	r9,0
8000a290:	5c da       	com	r10
8000a292:	40 85       	lddsp	r5,sp[0x20]
8000a294:	50 6a       	stdsp	sp[0x18],r10
8000a296:	50 49       	stdsp	sp[0x10],r9
8000a298:	c0 f9       	rjmp	8000a4b6 <_dtoa_r+0xb86>
8000a29a:	08 92       	mov	r2,r4
8000a29c:	40 66       	lddsp	r6,sp[0x18]
8000a29e:	04 94       	mov	r4,r2
8000a2a0:	2f f6       	sub	r6,-1
8000a2a2:	50 66       	stdsp	sp[0x18],r6
8000a2a4:	33 18       	mov	r8,49
8000a2a6:	40 85       	lddsp	r5,sp[0x20]
8000a2a8:	0a c8       	st.b	r5++,r8
8000a2aa:	30 08       	mov	r8,0
8000a2ac:	50 48       	stdsp	sp[0x10],r8
8000a2ae:	c0 49       	rjmp	8000a4b6 <_dtoa_r+0xb86>
8000a2b0:	40 dc       	lddsp	r12,sp[0x34]
8000a2b2:	58 0c       	cp.w	r12,0
8000a2b4:	e0 80 00 b5 	breq	8000a41e <_dtoa_r+0xaee>
8000a2b8:	58 05       	cp.w	r5,0
8000a2ba:	e0 8a 00 08 	brle	8000a2ca <_dtoa_r+0x99a>
8000a2be:	08 9b       	mov	r11,r4
8000a2c0:	0a 9a       	mov	r10,r5
8000a2c2:	0e 9c       	mov	r12,r7
8000a2c4:	e0 a0 05 78 	rcall	8000adb4 <__lshift>
8000a2c8:	18 94       	mov	r4,r12
8000a2ca:	40 6b       	lddsp	r11,sp[0x18]
8000a2cc:	58 0b       	cp.w	r11,0
8000a2ce:	c0 31       	brne	8000a2d4 <_dtoa_r+0x9a4>
8000a2d0:	08 9c       	mov	r12,r4
8000a2d2:	c1 38       	rjmp	8000a2f8 <_dtoa_r+0x9c8>
8000a2d4:	68 1b       	ld.w	r11,r4[0x4]
8000a2d6:	0e 9c       	mov	r12,r7
8000a2d8:	e0 a0 04 7e 	rcall	8000abd4 <_Balloc>
8000a2dc:	68 4a       	ld.w	r10,r4[0x10]
8000a2de:	18 95       	mov	r5,r12
8000a2e0:	e8 cb ff f4 	sub	r11,r4,-12
8000a2e4:	2f ea       	sub	r10,-2
8000a2e6:	2f 4c       	sub	r12,-12
8000a2e8:	a3 6a       	lsl	r10,0x2
8000a2ea:	fe b0 e3 29 	rcall	8000693c <memcpy>
8000a2ee:	0a 9b       	mov	r11,r5
8000a2f0:	30 1a       	mov	r10,1
8000a2f2:	0e 9c       	mov	r12,r7
8000a2f4:	e0 a0 05 60 	rcall	8000adb4 <__lshift>
8000a2f8:	50 44       	stdsp	sp[0x10],r4
8000a2fa:	40 3a       	lddsp	r10,sp[0xc]
8000a2fc:	30 19       	mov	r9,1
8000a2fe:	f5 da c0 01 	bfextu	r10,r10,0x0,0x1
8000a302:	18 94       	mov	r4,r12
8000a304:	50 da       	stdsp	sp[0x34],r10
8000a306:	40 85       	lddsp	r5,sp[0x20]
8000a308:	50 99       	stdsp	sp[0x24],r9
8000a30a:	50 26       	stdsp	sp[0x8],r6
8000a30c:	50 e1       	stdsp	sp[0x38],r1
8000a30e:	04 9b       	mov	r11,r2
8000a310:	06 9c       	mov	r12,r3
8000a312:	fe b0 fa 7f 	rcall	80009810 <quorem>
8000a316:	40 4b       	lddsp	r11,sp[0x10]
8000a318:	f8 c0 ff d0 	sub	r0,r12,-48
8000a31c:	06 9c       	mov	r12,r3
8000a31e:	e0 a0 04 27 	rcall	8000ab6c <__mcmp>
8000a322:	08 9a       	mov	r10,r4
8000a324:	50 6c       	stdsp	sp[0x18],r12
8000a326:	04 9b       	mov	r11,r2
8000a328:	0e 9c       	mov	r12,r7
8000a32a:	e0 a0 04 dd 	rcall	8000ace4 <__mdiff>
8000a32e:	18 91       	mov	r1,r12
8000a330:	78 38       	ld.w	r8,r12[0xc]
8000a332:	58 08       	cp.w	r8,0
8000a334:	c0 30       	breq	8000a33a <_dtoa_r+0xa0a>
8000a336:	30 16       	mov	r6,1
8000a338:	c0 68       	rjmp	8000a344 <_dtoa_r+0xa14>
8000a33a:	18 9b       	mov	r11,r12
8000a33c:	06 9c       	mov	r12,r3
8000a33e:	e0 a0 04 17 	rcall	8000ab6c <__mcmp>
8000a342:	18 96       	mov	r6,r12
8000a344:	0e 9c       	mov	r12,r7
8000a346:	02 9b       	mov	r11,r1
8000a348:	e0 a0 04 2c 	rcall	8000aba0 <_Bfree>
8000a34c:	40 cc       	lddsp	r12,sp[0x30]
8000a34e:	ed ec 10 08 	or	r8,r6,r12
8000a352:	c0 d1       	brne	8000a36c <_dtoa_r+0xa3c>
8000a354:	40 db       	lddsp	r11,sp[0x34]
8000a356:	58 0b       	cp.w	r11,0
8000a358:	c0 a1       	brne	8000a36c <_dtoa_r+0xa3c>
8000a35a:	40 26       	lddsp	r6,sp[0x8]
8000a35c:	e0 40 00 39 	cp.w	r0,57
8000a360:	c3 00       	breq	8000a3c0 <_dtoa_r+0xa90>
8000a362:	40 6a       	lddsp	r10,sp[0x18]
8000a364:	58 0a       	cp.w	r10,0
8000a366:	e0 89 00 24 	brgt	8000a3ae <_dtoa_r+0xa7e>
8000a36a:	c2 f8       	rjmp	8000a3c8 <_dtoa_r+0xa98>
8000a36c:	40 69       	lddsp	r9,sp[0x18]
8000a36e:	58 09       	cp.w	r9,0
8000a370:	c0 85       	brlt	8000a380 <_dtoa_r+0xa50>
8000a372:	12 98       	mov	r8,r9
8000a374:	40 cc       	lddsp	r12,sp[0x30]
8000a376:	18 48       	or	r8,r12
8000a378:	c1 d1       	brne	8000a3b2 <_dtoa_r+0xa82>
8000a37a:	40 db       	lddsp	r11,sp[0x34]
8000a37c:	58 0b       	cp.w	r11,0
8000a37e:	c1 a1       	brne	8000a3b2 <_dtoa_r+0xa82>
8000a380:	0c 99       	mov	r9,r6
8000a382:	40 26       	lddsp	r6,sp[0x8]
8000a384:	58 09       	cp.w	r9,0
8000a386:	e0 8a 00 21 	brle	8000a3c8 <_dtoa_r+0xa98>
8000a38a:	06 9b       	mov	r11,r3
8000a38c:	30 1a       	mov	r10,1
8000a38e:	0e 9c       	mov	r12,r7
8000a390:	e0 a0 05 12 	rcall	8000adb4 <__lshift>
8000a394:	04 9b       	mov	r11,r2
8000a396:	18 93       	mov	r3,r12
8000a398:	e0 a0 03 ea 	rcall	8000ab6c <__mcmp>
8000a39c:	e0 89 00 06 	brgt	8000a3a8 <_dtoa_r+0xa78>
8000a3a0:	c1 41       	brne	8000a3c8 <_dtoa_r+0xa98>
8000a3a2:	ed b0 00 00 	bld	r0,0x0
8000a3a6:	c1 11       	brne	8000a3c8 <_dtoa_r+0xa98>
8000a3a8:	e0 40 00 39 	cp.w	r0,57
8000a3ac:	c0 a0       	breq	8000a3c0 <_dtoa_r+0xa90>
8000a3ae:	2f f0       	sub	r0,-1
8000a3b0:	c0 c8       	rjmp	8000a3c8 <_dtoa_r+0xa98>
8000a3b2:	58 06       	cp.w	r6,0
8000a3b4:	e0 8a 00 0c 	brle	8000a3cc <_dtoa_r+0xa9c>
8000a3b8:	40 26       	lddsp	r6,sp[0x8]
8000a3ba:	e0 40 00 39 	cp.w	r0,57
8000a3be:	c0 41       	brne	8000a3c6 <_dtoa_r+0xa96>
8000a3c0:	33 98       	mov	r8,57
8000a3c2:	0a c8       	st.b	r5++,r8
8000a3c4:	c6 78       	rjmp	8000a492 <_dtoa_r+0xb62>
8000a3c6:	2f f0       	sub	r0,-1
8000a3c8:	0a c0       	st.b	r5++,r0
8000a3ca:	c7 58       	rjmp	8000a4b4 <_dtoa_r+0xb84>
8000a3cc:	0a c0       	st.b	r5++,r0
8000a3ce:	40 9a       	lddsp	r10,sp[0x24]
8000a3d0:	40 e9       	lddsp	r9,sp[0x38]
8000a3d2:	12 3a       	cp.w	r10,r9
8000a3d4:	c4 30       	breq	8000a45a <_dtoa_r+0xb2a>
8000a3d6:	06 9b       	mov	r11,r3
8000a3d8:	30 09       	mov	r9,0
8000a3da:	30 aa       	mov	r10,10
8000a3dc:	0e 9c       	mov	r12,r7
8000a3de:	e0 a0 05 b7 	rcall	8000af4c <__multadd>
8000a3e2:	40 48       	lddsp	r8,sp[0x10]
8000a3e4:	18 93       	mov	r3,r12
8000a3e6:	08 38       	cp.w	r8,r4
8000a3e8:	c0 91       	brne	8000a3fa <_dtoa_r+0xaca>
8000a3ea:	10 9b       	mov	r11,r8
8000a3ec:	30 09       	mov	r9,0
8000a3ee:	30 aa       	mov	r10,10
8000a3f0:	0e 9c       	mov	r12,r7
8000a3f2:	e0 a0 05 ad 	rcall	8000af4c <__multadd>
8000a3f6:	50 4c       	stdsp	sp[0x10],r12
8000a3f8:	c0 e8       	rjmp	8000a414 <_dtoa_r+0xae4>
8000a3fa:	40 4b       	lddsp	r11,sp[0x10]
8000a3fc:	30 09       	mov	r9,0
8000a3fe:	30 aa       	mov	r10,10
8000a400:	0e 9c       	mov	r12,r7
8000a402:	e0 a0 05 a5 	rcall	8000af4c <__multadd>
8000a406:	08 9b       	mov	r11,r4
8000a408:	50 4c       	stdsp	sp[0x10],r12
8000a40a:	30 09       	mov	r9,0
8000a40c:	30 aa       	mov	r10,10
8000a40e:	0e 9c       	mov	r12,r7
8000a410:	e0 a0 05 9e 	rcall	8000af4c <__multadd>
8000a414:	18 94       	mov	r4,r12
8000a416:	40 9c       	lddsp	r12,sp[0x24]
8000a418:	2f fc       	sub	r12,-1
8000a41a:	50 9c       	stdsp	sp[0x24],r12
8000a41c:	c7 9b       	rjmp	8000a30e <_dtoa_r+0x9de>
8000a41e:	30 18       	mov	r8,1
8000a420:	06 90       	mov	r0,r3
8000a422:	40 85       	lddsp	r5,sp[0x20]
8000a424:	08 93       	mov	r3,r4
8000a426:	0c 94       	mov	r4,r6
8000a428:	10 96       	mov	r6,r8
8000a42a:	04 9b       	mov	r11,r2
8000a42c:	00 9c       	mov	r12,r0
8000a42e:	fe b0 f9 f1 	rcall	80009810 <quorem>
8000a432:	2d 0c       	sub	r12,-48
8000a434:	0a cc       	st.b	r5++,r12
8000a436:	02 36       	cp.w	r6,r1
8000a438:	c0 a4       	brge	8000a44c <_dtoa_r+0xb1c>
8000a43a:	00 9b       	mov	r11,r0
8000a43c:	30 09       	mov	r9,0
8000a43e:	30 aa       	mov	r10,10
8000a440:	0e 9c       	mov	r12,r7
8000a442:	2f f6       	sub	r6,-1
8000a444:	e0 a0 05 84 	rcall	8000af4c <__multadd>
8000a448:	18 90       	mov	r0,r12
8000a44a:	cf 0b       	rjmp	8000a42a <_dtoa_r+0xafa>
8000a44c:	08 96       	mov	r6,r4
8000a44e:	30 0b       	mov	r11,0
8000a450:	06 94       	mov	r4,r3
8000a452:	50 4b       	stdsp	sp[0x10],r11
8000a454:	00 93       	mov	r3,r0
8000a456:	18 90       	mov	r0,r12
8000a458:	c0 28       	rjmp	8000a45c <_dtoa_r+0xb2c>
8000a45a:	40 26       	lddsp	r6,sp[0x8]
8000a45c:	06 9b       	mov	r11,r3
8000a45e:	30 1a       	mov	r10,1
8000a460:	0e 9c       	mov	r12,r7
8000a462:	e0 a0 04 a9 	rcall	8000adb4 <__lshift>
8000a466:	04 9b       	mov	r11,r2
8000a468:	18 93       	mov	r3,r12
8000a46a:	e0 a0 03 81 	rcall	8000ab6c <__mcmp>
8000a46e:	e0 89 00 12 	brgt	8000a492 <_dtoa_r+0xb62>
8000a472:	c1 b1       	brne	8000a4a8 <_dtoa_r+0xb78>
8000a474:	e1 d0 c0 01 	bfextu	r0,r0,0x0,0x1
8000a478:	c0 d1       	brne	8000a492 <_dtoa_r+0xb62>
8000a47a:	c1 78       	rjmp	8000a4a8 <_dtoa_r+0xb78>
8000a47c:	40 89       	lddsp	r9,sp[0x20]
8000a47e:	12 38       	cp.w	r8,r9
8000a480:	c0 30       	breq	8000a486 <_dtoa_r+0xb56>
8000a482:	10 95       	mov	r5,r8
8000a484:	c0 88       	rjmp	8000a494 <_dtoa_r+0xb64>
8000a486:	2f f6       	sub	r6,-1
8000a488:	50 66       	stdsp	sp[0x18],r6
8000a48a:	33 18       	mov	r8,49
8000a48c:	40 8c       	lddsp	r12,sp[0x20]
8000a48e:	b8 88       	st.b	r12[0x0],r8
8000a490:	c1 38       	rjmp	8000a4b6 <_dtoa_r+0xb86>
8000a492:	33 9a       	mov	r10,57
8000a494:	0a 98       	mov	r8,r5
8000a496:	11 79       	ld.ub	r9,--r8
8000a498:	f4 09 18 00 	cp.b	r9,r10
8000a49c:	cf 00       	breq	8000a47c <_dtoa_r+0xb4c>
8000a49e:	2f f9       	sub	r9,-1
8000a4a0:	b0 89       	st.b	r8[0x0],r9
8000a4a2:	c0 98       	rjmp	8000a4b4 <_dtoa_r+0xb84>
8000a4a4:	10 95       	mov	r5,r8
8000a4a6:	c0 28       	rjmp	8000a4aa <_dtoa_r+0xb7a>
8000a4a8:	33 09       	mov	r9,48
8000a4aa:	0a 98       	mov	r8,r5
8000a4ac:	11 7a       	ld.ub	r10,--r8
8000a4ae:	f2 0a 18 00 	cp.b	r10,r9
8000a4b2:	cf 90       	breq	8000a4a4 <_dtoa_r+0xb74>
8000a4b4:	50 66       	stdsp	sp[0x18],r6
8000a4b6:	04 9b       	mov	r11,r2
8000a4b8:	0e 9c       	mov	r12,r7
8000a4ba:	e0 a0 03 73 	rcall	8000aba0 <_Bfree>
8000a4be:	58 04       	cp.w	r4,0
8000a4c0:	c1 20       	breq	8000a4e4 <_dtoa_r+0xbb4>
8000a4c2:	40 4b       	lddsp	r11,sp[0x10]
8000a4c4:	08 3b       	cp.w	r11,r4
8000a4c6:	5f 19       	srne	r9
8000a4c8:	58 0b       	cp.w	r11,0
8000a4ca:	5f 18       	srne	r8
8000a4cc:	f3 e8 00 08 	and	r8,r9,r8
8000a4d0:	c0 40       	breq	8000a4d8 <_dtoa_r+0xba8>
8000a4d2:	0e 9c       	mov	r12,r7
8000a4d4:	e0 a0 03 66 	rcall	8000aba0 <_Bfree>
8000a4d8:	08 9b       	mov	r11,r4
8000a4da:	0e 9c       	mov	r12,r7
8000a4dc:	e0 a0 03 62 	rcall	8000aba0 <_Bfree>
8000a4e0:	c0 28       	rjmp	8000a4e4 <_dtoa_r+0xbb4>
8000a4e2:	50 66       	stdsp	sp[0x18],r6
8000a4e4:	0e 9c       	mov	r12,r7
8000a4e6:	06 9b       	mov	r11,r3
8000a4e8:	e0 a0 03 5c 	rcall	8000aba0 <_Bfree>
8000a4ec:	30 08       	mov	r8,0
8000a4ee:	aa 88       	st.b	r5[0x0],r8
8000a4f0:	40 68       	lddsp	r8,sp[0x18]
8000a4f2:	41 5a       	lddsp	r10,sp[0x54]
8000a4f4:	2f f8       	sub	r8,-1
8000a4f6:	41 29       	lddsp	r9,sp[0x48]
8000a4f8:	95 08       	st.w	r10[0x0],r8
8000a4fa:	40 8c       	lddsp	r12,sp[0x20]
8000a4fc:	58 09       	cp.w	r9,0
8000a4fe:	fb f8 10 12 	ld.wne	r8,sp[0x48]
8000a502:	f1 f5 1a 00 	st.wne	r8[0x0],r5
8000a506:	2e 6d       	sub	sp,-104
8000a508:	d8 32       	popm	r0-r7,pc
8000a50a:	d7 03       	nop

8000a50c <_fclose_r>:
8000a50c:	d4 21       	pushm	r4-r7,lr
8000a50e:	18 96       	mov	r6,r12
8000a510:	16 97       	mov	r7,r11
8000a512:	58 0b       	cp.w	r11,0
8000a514:	c0 31       	brne	8000a51a <_fclose_r+0xe>
8000a516:	16 95       	mov	r5,r11
8000a518:	c5 28       	rjmp	8000a5bc <_fclose_r+0xb0>
8000a51a:	fe b0 e5 91 	rcall	8000703c <__sfp_lock_acquire>
8000a51e:	58 06       	cp.w	r6,0
8000a520:	c0 70       	breq	8000a52e <_fclose_r+0x22>
8000a522:	6c 68       	ld.w	r8,r6[0x18]
8000a524:	58 08       	cp.w	r8,0
8000a526:	c0 41       	brne	8000a52e <_fclose_r+0x22>
8000a528:	0c 9c       	mov	r12,r6
8000a52a:	fe b0 e5 db 	rcall	800070e0 <__sinit>
8000a52e:	fe c8 e3 f6 	sub	r8,pc,-7178
8000a532:	10 37       	cp.w	r7,r8
8000a534:	c0 31       	brne	8000a53a <_fclose_r+0x2e>
8000a536:	6c 07       	ld.w	r7,r6[0x0]
8000a538:	c0 c8       	rjmp	8000a550 <_fclose_r+0x44>
8000a53a:	fe c8 e3 e2 	sub	r8,pc,-7198
8000a53e:	10 37       	cp.w	r7,r8
8000a540:	c0 31       	brne	8000a546 <_fclose_r+0x3a>
8000a542:	6c 17       	ld.w	r7,r6[0x4]
8000a544:	c0 68       	rjmp	8000a550 <_fclose_r+0x44>
8000a546:	fe c8 e3 ce 	sub	r8,pc,-7218
8000a54a:	10 37       	cp.w	r7,r8
8000a54c:	ed f7 00 02 	ld.weq	r7,r6[0x8]
8000a550:	8e 69       	ld.sh	r9,r7[0xc]
8000a552:	30 08       	mov	r8,0
8000a554:	f0 09 19 00 	cp.h	r9,r8
8000a558:	c0 51       	brne	8000a562 <_fclose_r+0x56>
8000a55a:	fe b0 e5 72 	rcall	8000703e <__sfp_lock_release>
8000a55e:	30 05       	mov	r5,0
8000a560:	c2 e8       	rjmp	8000a5bc <_fclose_r+0xb0>
8000a562:	0e 9b       	mov	r11,r7
8000a564:	0c 9c       	mov	r12,r6
8000a566:	c3 5c       	rcall	8000a5d0 <_fflush_r>
8000a568:	6e c8       	ld.w	r8,r7[0x30]
8000a56a:	18 95       	mov	r5,r12
8000a56c:	58 08       	cp.w	r8,0
8000a56e:	c0 60       	breq	8000a57a <_fclose_r+0x6e>
8000a570:	6e 8b       	ld.w	r11,r7[0x20]
8000a572:	0c 9c       	mov	r12,r6
8000a574:	5d 18       	icall	r8
8000a576:	f9 b5 05 ff 	movlt	r5,-1
8000a57a:	8e 68       	ld.sh	r8,r7[0xc]
8000a57c:	ed b8 00 07 	bld	r8,0x7
8000a580:	c0 51       	brne	8000a58a <_fclose_r+0x7e>
8000a582:	6e 4b       	ld.w	r11,r7[0x10]
8000a584:	0c 9c       	mov	r12,r6
8000a586:	fe b0 e6 47 	rcall	80007214 <_free_r>
8000a58a:	6e db       	ld.w	r11,r7[0x34]
8000a58c:	58 0b       	cp.w	r11,0
8000a58e:	c0 a0       	breq	8000a5a2 <_fclose_r+0x96>
8000a590:	ee c8 ff bc 	sub	r8,r7,-68
8000a594:	10 3b       	cp.w	r11,r8
8000a596:	c0 40       	breq	8000a59e <_fclose_r+0x92>
8000a598:	0c 9c       	mov	r12,r6
8000a59a:	fe b0 e6 3d 	rcall	80007214 <_free_r>
8000a59e:	30 08       	mov	r8,0
8000a5a0:	8f d8       	st.w	r7[0x34],r8
8000a5a2:	6f 2b       	ld.w	r11,r7[0x48]
8000a5a4:	58 0b       	cp.w	r11,0
8000a5a6:	c0 70       	breq	8000a5b4 <_fclose_r+0xa8>
8000a5a8:	0c 9c       	mov	r12,r6
8000a5aa:	fe b0 e6 35 	rcall	80007214 <_free_r>
8000a5ae:	30 08       	mov	r8,0
8000a5b0:	ef 48 00 48 	st.w	r7[72],r8
8000a5b4:	30 08       	mov	r8,0
8000a5b6:	ae 68       	st.h	r7[0xc],r8
8000a5b8:	fe b0 e5 43 	rcall	8000703e <__sfp_lock_release>
8000a5bc:	0a 9c       	mov	r12,r5
8000a5be:	d8 22       	popm	r4-r7,pc

8000a5c0 <fclose>:
8000a5c0:	d4 01       	pushm	lr
8000a5c2:	e0 68 01 18 	mov	r8,280
8000a5c6:	18 9b       	mov	r11,r12
8000a5c8:	70 0c       	ld.w	r12,r8[0x0]
8000a5ca:	ca 1f       	rcall	8000a50c <_fclose_r>
8000a5cc:	d8 02       	popm	pc
8000a5ce:	d7 03       	nop

8000a5d0 <_fflush_r>:
8000a5d0:	d4 21       	pushm	r4-r7,lr
8000a5d2:	16 97       	mov	r7,r11
8000a5d4:	18 96       	mov	r6,r12
8000a5d6:	76 48       	ld.w	r8,r11[0x10]
8000a5d8:	58 08       	cp.w	r8,0
8000a5da:	e0 80 00 81 	breq	8000a6dc <_fflush_r+0x10c>
8000a5de:	58 0c       	cp.w	r12,0
8000a5e0:	c0 60       	breq	8000a5ec <_fflush_r+0x1c>
8000a5e2:	78 68       	ld.w	r8,r12[0x18]
8000a5e4:	58 08       	cp.w	r8,0
8000a5e6:	c0 31       	brne	8000a5ec <_fflush_r+0x1c>
8000a5e8:	fe b0 e5 7c 	rcall	800070e0 <__sinit>
8000a5ec:	fe c8 e4 b4 	sub	r8,pc,-6988
8000a5f0:	10 37       	cp.w	r7,r8
8000a5f2:	c0 31       	brne	8000a5f8 <_fflush_r+0x28>
8000a5f4:	6c 07       	ld.w	r7,r6[0x0]
8000a5f6:	c0 c8       	rjmp	8000a60e <_fflush_r+0x3e>
8000a5f8:	fe c8 e4 a0 	sub	r8,pc,-7008
8000a5fc:	10 37       	cp.w	r7,r8
8000a5fe:	c0 31       	brne	8000a604 <_fflush_r+0x34>
8000a600:	6c 17       	ld.w	r7,r6[0x4]
8000a602:	c0 68       	rjmp	8000a60e <_fflush_r+0x3e>
8000a604:	fe c8 e4 8c 	sub	r8,pc,-7028
8000a608:	10 37       	cp.w	r7,r8
8000a60a:	ed f7 00 02 	ld.weq	r7,r6[0x8]
8000a60e:	8e 6a       	ld.sh	r10,r7[0xc]
8000a610:	14 98       	mov	r8,r10
8000a612:	ed ba 00 03 	bld	r10,0x3
8000a616:	c4 20       	breq	8000a69a <_fflush_r+0xca>
8000a618:	ab ba       	sbr	r10,0xb
8000a61a:	ae 6a       	st.h	r7[0xc],r10
8000a61c:	6e 18       	ld.w	r8,r7[0x4]
8000a61e:	58 08       	cp.w	r8,0
8000a620:	e0 89 00 06 	brgt	8000a62c <_fflush_r+0x5c>
8000a624:	6f 08       	ld.w	r8,r7[0x40]
8000a626:	58 08       	cp.w	r8,0
8000a628:	e0 8a 00 5a 	brle	8000a6dc <_fflush_r+0x10c>
8000a62c:	6e b8       	ld.w	r8,r7[0x2c]
8000a62e:	58 08       	cp.w	r8,0
8000a630:	c5 60       	breq	8000a6dc <_fflush_r+0x10c>
8000a632:	e2 1a 10 00 	andl	r10,0x1000,COH
8000a636:	c0 30       	breq	8000a63c <_fflush_r+0x6c>
8000a638:	6f 55       	ld.w	r5,r7[0x54]
8000a63a:	c0 f8       	rjmp	8000a658 <_fflush_r+0x88>
8000a63c:	30 19       	mov	r9,1
8000a63e:	6e 8b       	ld.w	r11,r7[0x20]
8000a640:	0c 9c       	mov	r12,r6
8000a642:	5d 18       	icall	r8
8000a644:	18 95       	mov	r5,r12
8000a646:	5b fc       	cp.w	r12,-1
8000a648:	c0 81       	brne	8000a658 <_fflush_r+0x88>
8000a64a:	6c 38       	ld.w	r8,r6[0xc]
8000a64c:	59 d8       	cp.w	r8,29
8000a64e:	c4 70       	breq	8000a6dc <_fflush_r+0x10c>
8000a650:	8e 68       	ld.sh	r8,r7[0xc]
8000a652:	a7 a8       	sbr	r8,0x6
8000a654:	ae 68       	st.h	r7[0xc],r8
8000a656:	d8 22       	popm	r4-r7,pc
8000a658:	8e 68       	ld.sh	r8,r7[0xc]
8000a65a:	ed b8 00 02 	bld	r8,0x2
8000a65e:	c0 91       	brne	8000a670 <_fflush_r+0xa0>
8000a660:	6e 18       	ld.w	r8,r7[0x4]
8000a662:	10 15       	sub	r5,r8
8000a664:	6e d8       	ld.w	r8,r7[0x34]
8000a666:	58 08       	cp.w	r8,0
8000a668:	ef f8 10 10 	ld.wne	r8,r7[0x40]
8000a66c:	eb d8 e1 15 	subne	r5,r5,r8
8000a670:	6e b8       	ld.w	r8,r7[0x2c]
8000a672:	0c 9c       	mov	r12,r6
8000a674:	30 09       	mov	r9,0
8000a676:	0a 9a       	mov	r10,r5
8000a678:	6e 8b       	ld.w	r11,r7[0x20]
8000a67a:	5d 18       	icall	r8
8000a67c:	8e 68       	ld.sh	r8,r7[0xc]
8000a67e:	0a 3c       	cp.w	r12,r5
8000a680:	c2 61       	brne	8000a6cc <_fflush_r+0xfc>
8000a682:	ab d8       	cbr	r8,0xb
8000a684:	30 0c       	mov	r12,0
8000a686:	6e 49       	ld.w	r9,r7[0x10]
8000a688:	ae 68       	st.h	r7[0xc],r8
8000a68a:	8f 1c       	st.w	r7[0x4],r12
8000a68c:	8f 09       	st.w	r7[0x0],r9
8000a68e:	ed b8 00 0c 	bld	r8,0xc
8000a692:	c2 51       	brne	8000a6dc <_fflush_r+0x10c>
8000a694:	ef 45 00 54 	st.w	r7[84],r5
8000a698:	d8 22       	popm	r4-r7,pc
8000a69a:	6e 45       	ld.w	r5,r7[0x10]
8000a69c:	58 05       	cp.w	r5,0
8000a69e:	c1 f0       	breq	8000a6dc <_fflush_r+0x10c>
8000a6a0:	6e 04       	ld.w	r4,r7[0x0]
8000a6a2:	f5 da c0 02 	bfextu	r10,r10,0x0,0x2
8000a6a6:	8f 05       	st.w	r7[0x0],r5
8000a6a8:	f9 b8 01 00 	movne	r8,0
8000a6ac:	ef f8 00 05 	ld.weq	r8,r7[0x14]
8000a6b0:	0a 14       	sub	r4,r5
8000a6b2:	8f 28       	st.w	r7[0x8],r8
8000a6b4:	c1 18       	rjmp	8000a6d6 <_fflush_r+0x106>
8000a6b6:	08 99       	mov	r9,r4
8000a6b8:	0a 9a       	mov	r10,r5
8000a6ba:	6e a8       	ld.w	r8,r7[0x28]
8000a6bc:	6e 8b       	ld.w	r11,r7[0x20]
8000a6be:	0c 9c       	mov	r12,r6
8000a6c0:	5d 18       	icall	r8
8000a6c2:	18 14       	sub	r4,r12
8000a6c4:	58 0c       	cp.w	r12,0
8000a6c6:	e0 89 00 07 	brgt	8000a6d4 <_fflush_r+0x104>
8000a6ca:	8e 68       	ld.sh	r8,r7[0xc]
8000a6cc:	a7 a8       	sbr	r8,0x6
8000a6ce:	3f fc       	mov	r12,-1
8000a6d0:	ae 68       	st.h	r7[0xc],r8
8000a6d2:	d8 22       	popm	r4-r7,pc
8000a6d4:	18 05       	add	r5,r12
8000a6d6:	58 04       	cp.w	r4,0
8000a6d8:	fe 99 ff ef 	brgt	8000a6b6 <_fflush_r+0xe6>
8000a6dc:	d8 2a       	popm	r4-r7,pc,r12=0
8000a6de:	d7 03       	nop

8000a6e0 <__sfvwrite_r>:
8000a6e0:	d4 31       	pushm	r0-r7,lr
8000a6e2:	20 3d       	sub	sp,12
8000a6e4:	14 94       	mov	r4,r10
8000a6e6:	18 95       	mov	r5,r12
8000a6e8:	16 97       	mov	r7,r11
8000a6ea:	74 28       	ld.w	r8,r10[0x8]
8000a6ec:	58 08       	cp.w	r8,0
8000a6ee:	e0 80 01 43 	breq	8000a974 <__sfvwrite_r+0x294>
8000a6f2:	96 68       	ld.sh	r8,r11[0xc]
8000a6f4:	ed b8 00 03 	bld	r8,0x3
8000a6f8:	c0 41       	brne	8000a700 <__sfvwrite_r+0x20>
8000a6fa:	76 48       	ld.w	r8,r11[0x10]
8000a6fc:	58 08       	cp.w	r8,0
8000a6fe:	c0 c1       	brne	8000a716 <__sfvwrite_r+0x36>
8000a700:	0e 9b       	mov	r11,r7
8000a702:	0a 9c       	mov	r12,r5
8000a704:	fe b0 f8 08 	rcall	80009714 <__swsetup_r>
8000a708:	c0 70       	breq	8000a716 <__sfvwrite_r+0x36>
8000a70a:	8e 68       	ld.sh	r8,r7[0xc]
8000a70c:	a7 a8       	sbr	r8,0x6
8000a70e:	ae 68       	st.h	r7[0xc],r8
8000a710:	30 98       	mov	r8,9
8000a712:	8b 38       	st.w	r5[0xc],r8
8000a714:	c2 e9       	rjmp	8000a970 <__sfvwrite_r+0x290>
8000a716:	8e 63       	ld.sh	r3,r7[0xc]
8000a718:	68 00       	ld.w	r0,r4[0x0]
8000a71a:	06 96       	mov	r6,r3
8000a71c:	e2 16 00 02 	andl	r6,0x2,COH
8000a720:	c2 10       	breq	8000a762 <__sfvwrite_r+0x82>
8000a722:	30 03       	mov	r3,0
8000a724:	e0 62 04 00 	mov	r2,1024
8000a728:	06 96       	mov	r6,r3
8000a72a:	c0 48       	rjmp	8000a732 <__sfvwrite_r+0x52>
8000a72c:	60 03       	ld.w	r3,r0[0x0]
8000a72e:	60 16       	ld.w	r6,r0[0x4]
8000a730:	2f 80       	sub	r0,-8
8000a732:	58 06       	cp.w	r6,0
8000a734:	cf c0       	breq	8000a72c <__sfvwrite_r+0x4c>
8000a736:	e0 46 04 00 	cp.w	r6,1024
8000a73a:	ec 09 17 80 	movls	r9,r6
8000a73e:	e4 09 17 b0 	movhi	r9,r2
8000a742:	06 9a       	mov	r10,r3
8000a744:	6e a8       	ld.w	r8,r7[0x28]
8000a746:	6e 8b       	ld.w	r11,r7[0x20]
8000a748:	0a 9c       	mov	r12,r5
8000a74a:	5d 18       	icall	r8
8000a74c:	18 16       	sub	r6,r12
8000a74e:	58 0c       	cp.w	r12,0
8000a750:	e0 8a 01 0d 	brle	8000a96a <__sfvwrite_r+0x28a>
8000a754:	68 28       	ld.w	r8,r4[0x8]
8000a756:	18 18       	sub	r8,r12
8000a758:	89 28       	st.w	r4[0x8],r8
8000a75a:	e0 80 01 0d 	breq	8000a974 <__sfvwrite_r+0x294>
8000a75e:	18 03       	add	r3,r12
8000a760:	ce 9b       	rjmp	8000a732 <__sfvwrite_r+0x52>
8000a762:	e7 d3 c0 01 	bfextu	r3,r3,0x0,0x1
8000a766:	c0 70       	breq	8000a774 <__sfvwrite_r+0x94>
8000a768:	50 06       	stdsp	sp[0x0],r6
8000a76a:	0c 93       	mov	r3,r6
8000a76c:	0c 91       	mov	r1,r6
8000a76e:	50 15       	stdsp	sp[0x4],r5
8000a770:	08 92       	mov	r2,r4
8000a772:	c9 f8       	rjmp	8000a8b0 <__sfvwrite_r+0x1d0>
8000a774:	06 96       	mov	r6,r3
8000a776:	08 91       	mov	r1,r4
8000a778:	c0 48       	rjmp	8000a780 <__sfvwrite_r+0xa0>
8000a77a:	60 03       	ld.w	r3,r0[0x0]
8000a77c:	60 16       	ld.w	r6,r0[0x4]
8000a77e:	2f 80       	sub	r0,-8
8000a780:	58 06       	cp.w	r6,0
8000a782:	cf c0       	breq	8000a77a <__sfvwrite_r+0x9a>
8000a784:	8e 68       	ld.sh	r8,r7[0xc]
8000a786:	6e 24       	ld.w	r4,r7[0x8]
8000a788:	10 99       	mov	r9,r8
8000a78a:	e2 19 02 00 	andl	r9,0x200,COH
8000a78e:	c5 70       	breq	8000a83c <__sfvwrite_r+0x15c>
8000a790:	08 36       	cp.w	r6,r4
8000a792:	c4 53       	brcs	8000a81c <__sfvwrite_r+0x13c>
8000a794:	10 99       	mov	r9,r8
8000a796:	e2 19 04 80 	andl	r9,0x480,COH
8000a79a:	c4 10       	breq	8000a81c <__sfvwrite_r+0x13c>
8000a79c:	6e 4b       	ld.w	r11,r7[0x10]
8000a79e:	6e 09       	ld.w	r9,r7[0x0]
8000a7a0:	16 19       	sub	r9,r11
8000a7a2:	50 09       	stdsp	sp[0x0],r9
8000a7a4:	6e 59       	ld.w	r9,r7[0x14]
8000a7a6:	10 9c       	mov	r12,r8
8000a7a8:	f2 09 00 1a 	add	r10,r9,r9<<0x1
8000a7ac:	30 28       	mov	r8,2
8000a7ae:	f4 08 0c 08 	divs	r8,r10,r8
8000a7b2:	fa e9 00 04 	st.d	sp[4],r8
8000a7b6:	10 94       	mov	r4,r8
8000a7b8:	40 09       	lddsp	r9,sp[0x0]
8000a7ba:	e2 1c 04 00 	andl	r12,0x400,COH
8000a7be:	2f f9       	sub	r9,-1
8000a7c0:	0c 09       	add	r9,r6
8000a7c2:	12 38       	cp.w	r8,r9
8000a7c4:	f2 04 17 30 	movlo	r4,r9
8000a7c8:	58 0c       	cp.w	r12,0
8000a7ca:	c1 10       	breq	8000a7ec <__sfvwrite_r+0x10c>
8000a7cc:	08 9b       	mov	r11,r4
8000a7ce:	0a 9c       	mov	r12,r5
8000a7d0:	fe b0 de 9a 	rcall	80006504 <_malloc_r>
8000a7d4:	18 92       	mov	r2,r12
8000a7d6:	c1 50       	breq	8000a800 <__sfvwrite_r+0x120>
8000a7d8:	40 0a       	lddsp	r10,sp[0x0]
8000a7da:	6e 4b       	ld.w	r11,r7[0x10]
8000a7dc:	fe b0 e0 b0 	rcall	8000693c <memcpy>
8000a7e0:	8e 68       	ld.sh	r8,r7[0xc]
8000a7e2:	e0 18 fb 7f 	andl	r8,0xfb7f
8000a7e6:	a7 b8       	sbr	r8,0x7
8000a7e8:	ae 68       	st.h	r7[0xc],r8
8000a7ea:	c0 e8       	rjmp	8000a806 <__sfvwrite_r+0x126>
8000a7ec:	08 9a       	mov	r10,r4
8000a7ee:	0a 9c       	mov	r12,r5
8000a7f0:	fe b0 e1 52 	rcall	80006a94 <_realloc_r>
8000a7f4:	18 92       	mov	r2,r12
8000a7f6:	c0 81       	brne	8000a806 <__sfvwrite_r+0x126>
8000a7f8:	6e 4b       	ld.w	r11,r7[0x10]
8000a7fa:	0a 9c       	mov	r12,r5
8000a7fc:	fe b0 e5 0c 	rcall	80007214 <_free_r>
8000a800:	30 c8       	mov	r8,12
8000a802:	8b 38       	st.w	r5[0xc],r8
8000a804:	cb 38       	rjmp	8000a96a <__sfvwrite_r+0x28a>
8000a806:	40 0a       	lddsp	r10,sp[0x0]
8000a808:	40 09       	lddsp	r9,sp[0x0]
8000a80a:	e8 0a 01 0a 	sub	r10,r4,r10
8000a80e:	e4 09 00 08 	add	r8,r2,r9
8000a812:	8f 54       	st.w	r7[0x14],r4
8000a814:	8f 2a       	st.w	r7[0x8],r10
8000a816:	8f 08       	st.w	r7[0x0],r8
8000a818:	8f 42       	st.w	r7[0x10],r2
8000a81a:	0c 94       	mov	r4,r6
8000a81c:	08 36       	cp.w	r6,r4
8000a81e:	ec 04 17 30 	movlo	r4,r6
8000a822:	06 9b       	mov	r11,r3
8000a824:	08 9a       	mov	r10,r4
8000a826:	6e 0c       	ld.w	r12,r7[0x0]
8000a828:	fe b0 e5 e0 	rcall	800073e8 <memmove>
8000a82c:	6e 08       	ld.w	r8,r7[0x0]
8000a82e:	08 08       	add	r8,r4
8000a830:	8f 08       	st.w	r7[0x0],r8
8000a832:	6e 28       	ld.w	r8,r7[0x8]
8000a834:	08 18       	sub	r8,r4
8000a836:	0c 94       	mov	r4,r6
8000a838:	8f 28       	st.w	r7[0x8],r8
8000a83a:	c2 f8       	rjmp	8000a898 <__sfvwrite_r+0x1b8>
8000a83c:	08 36       	cp.w	r6,r4
8000a83e:	5f ba       	srhi	r10
8000a840:	6e 0c       	ld.w	r12,r7[0x0]
8000a842:	6e 48       	ld.w	r8,r7[0x10]
8000a844:	10 3c       	cp.w	r12,r8
8000a846:	5f b8       	srhi	r8
8000a848:	f5 e8 00 08 	and	r8,r10,r8
8000a84c:	f2 08 18 00 	cp.b	r8,r9
8000a850:	c0 d0       	breq	8000a86a <__sfvwrite_r+0x18a>
8000a852:	06 9b       	mov	r11,r3
8000a854:	08 9a       	mov	r10,r4
8000a856:	fe b0 e5 c9 	rcall	800073e8 <memmove>
8000a85a:	6e 08       	ld.w	r8,r7[0x0]
8000a85c:	08 08       	add	r8,r4
8000a85e:	0e 9b       	mov	r11,r7
8000a860:	8f 08       	st.w	r7[0x0],r8
8000a862:	0a 9c       	mov	r12,r5
8000a864:	cb 6e       	rcall	8000a5d0 <_fflush_r>
8000a866:	c1 90       	breq	8000a898 <__sfvwrite_r+0x1b8>
8000a868:	c8 18       	rjmp	8000a96a <__sfvwrite_r+0x28a>
8000a86a:	6e 59       	ld.w	r9,r7[0x14]
8000a86c:	12 36       	cp.w	r6,r9
8000a86e:	c0 a3       	brcs	8000a882 <__sfvwrite_r+0x1a2>
8000a870:	6e a8       	ld.w	r8,r7[0x28]
8000a872:	06 9a       	mov	r10,r3
8000a874:	6e 8b       	ld.w	r11,r7[0x20]
8000a876:	0a 9c       	mov	r12,r5
8000a878:	5d 18       	icall	r8
8000a87a:	18 94       	mov	r4,r12
8000a87c:	e0 89 00 0e 	brgt	8000a898 <__sfvwrite_r+0x1b8>
8000a880:	c7 58       	rjmp	8000a96a <__sfvwrite_r+0x28a>
8000a882:	0c 9a       	mov	r10,r6
8000a884:	06 9b       	mov	r11,r3
8000a886:	fe b0 e5 b1 	rcall	800073e8 <memmove>
8000a88a:	6e 08       	ld.w	r8,r7[0x0]
8000a88c:	0c 08       	add	r8,r6
8000a88e:	0c 94       	mov	r4,r6
8000a890:	8f 08       	st.w	r7[0x0],r8
8000a892:	6e 28       	ld.w	r8,r7[0x8]
8000a894:	0c 18       	sub	r8,r6
8000a896:	8f 28       	st.w	r7[0x8],r8
8000a898:	62 28       	ld.w	r8,r1[0x8]
8000a89a:	08 18       	sub	r8,r4
8000a89c:	83 28       	st.w	r1[0x8],r8
8000a89e:	c6 b0       	breq	8000a974 <__sfvwrite_r+0x294>
8000a8a0:	08 16       	sub	r6,r4
8000a8a2:	08 03       	add	r3,r4
8000a8a4:	c6 eb       	rjmp	8000a780 <__sfvwrite_r+0xa0>
8000a8a6:	60 03       	ld.w	r3,r0[0x0]
8000a8a8:	60 11       	ld.w	r1,r0[0x4]
8000a8aa:	30 08       	mov	r8,0
8000a8ac:	2f 80       	sub	r0,-8
8000a8ae:	50 08       	stdsp	sp[0x0],r8
8000a8b0:	58 01       	cp.w	r1,0
8000a8b2:	cf a0       	breq	8000a8a6 <__sfvwrite_r+0x1c6>
8000a8b4:	40 0a       	lddsp	r10,sp[0x0]
8000a8b6:	58 0a       	cp.w	r10,0
8000a8b8:	c1 41       	brne	8000a8e0 <__sfvwrite_r+0x200>
8000a8ba:	e2 c6 ff ff 	sub	r6,r1,-1
8000a8be:	02 9a       	mov	r10,r1
8000a8c0:	30 ab       	mov	r11,10
8000a8c2:	06 9c       	mov	r12,r3
8000a8c4:	cd 2c       	rcall	8000aa68 <memchr>
8000a8c6:	f8 c8 ff ff 	sub	r8,r12,-1
8000a8ca:	58 0c       	cp.w	r12,0
8000a8cc:	f1 d3 e1 16 	subne	r6,r8,r3
8000a8d0:	f9 b9 01 01 	movne	r9,1
8000a8d4:	fb f9 1a 00 	st.wne	sp[0x0],r9
8000a8d8:	f9 b8 00 01 	moveq	r8,1
8000a8dc:	fb f8 0a 00 	st.weq	sp[0x0],r8
8000a8e0:	02 36       	cp.w	r6,r1
8000a8e2:	ec 04 17 80 	movls	r4,r6
8000a8e6:	e2 04 17 b0 	movhi	r4,r1
8000a8ea:	6e 59       	ld.w	r9,r7[0x14]
8000a8ec:	6e 25       	ld.w	r5,r7[0x8]
8000a8ee:	f2 05 00 05 	add	r5,r9,r5
8000a8f2:	0a 34       	cp.w	r4,r5
8000a8f4:	5f 9a       	srgt	r10
8000a8f6:	6e 0c       	ld.w	r12,r7[0x0]
8000a8f8:	6e 48       	ld.w	r8,r7[0x10]
8000a8fa:	10 3c       	cp.w	r12,r8
8000a8fc:	5f b8       	srhi	r8
8000a8fe:	f5 e8 00 08 	and	r8,r10,r8
8000a902:	30 0a       	mov	r10,0
8000a904:	f4 08 18 00 	cp.b	r8,r10
8000a908:	c0 d0       	breq	8000a922 <__sfvwrite_r+0x242>
8000a90a:	06 9b       	mov	r11,r3
8000a90c:	0a 9a       	mov	r10,r5
8000a90e:	fe b0 e5 6d 	rcall	800073e8 <memmove>
8000a912:	6e 08       	ld.w	r8,r7[0x0]
8000a914:	0a 08       	add	r8,r5
8000a916:	0e 9b       	mov	r11,r7
8000a918:	8f 08       	st.w	r7[0x0],r8
8000a91a:	40 1c       	lddsp	r12,sp[0x4]
8000a91c:	c5 ae       	rcall	8000a5d0 <_fflush_r>
8000a91e:	c1 80       	breq	8000a94e <__sfvwrite_r+0x26e>
8000a920:	c2 58       	rjmp	8000a96a <__sfvwrite_r+0x28a>
8000a922:	12 34       	cp.w	r4,r9
8000a924:	c0 a5       	brlt	8000a938 <__sfvwrite_r+0x258>
8000a926:	6e a8       	ld.w	r8,r7[0x28]
8000a928:	06 9a       	mov	r10,r3
8000a92a:	6e 8b       	ld.w	r11,r7[0x20]
8000a92c:	40 1c       	lddsp	r12,sp[0x4]
8000a92e:	5d 18       	icall	r8
8000a930:	18 95       	mov	r5,r12
8000a932:	e0 89 00 0e 	brgt	8000a94e <__sfvwrite_r+0x26e>
8000a936:	c1 a8       	rjmp	8000a96a <__sfvwrite_r+0x28a>
8000a938:	08 9a       	mov	r10,r4
8000a93a:	06 9b       	mov	r11,r3
8000a93c:	fe b0 e5 56 	rcall	800073e8 <memmove>
8000a940:	6e 08       	ld.w	r8,r7[0x0]
8000a942:	08 08       	add	r8,r4
8000a944:	08 95       	mov	r5,r4
8000a946:	8f 08       	st.w	r7[0x0],r8
8000a948:	6e 28       	ld.w	r8,r7[0x8]
8000a94a:	08 18       	sub	r8,r4
8000a94c:	8f 28       	st.w	r7[0x8],r8
8000a94e:	0a 16       	sub	r6,r5
8000a950:	c0 61       	brne	8000a95c <__sfvwrite_r+0x27c>
8000a952:	0e 9b       	mov	r11,r7
8000a954:	40 1c       	lddsp	r12,sp[0x4]
8000a956:	c3 de       	rcall	8000a5d0 <_fflush_r>
8000a958:	c0 91       	brne	8000a96a <__sfvwrite_r+0x28a>
8000a95a:	50 06       	stdsp	sp[0x0],r6
8000a95c:	64 28       	ld.w	r8,r2[0x8]
8000a95e:	0a 18       	sub	r8,r5
8000a960:	85 28       	st.w	r2[0x8],r8
8000a962:	c0 90       	breq	8000a974 <__sfvwrite_r+0x294>
8000a964:	0a 11       	sub	r1,r5
8000a966:	0a 03       	add	r3,r5
8000a968:	ca 4b       	rjmp	8000a8b0 <__sfvwrite_r+0x1d0>
8000a96a:	8e 68       	ld.sh	r8,r7[0xc]
8000a96c:	a7 a8       	sbr	r8,0x6
8000a96e:	ae 68       	st.h	r7[0xc],r8
8000a970:	3f fc       	mov	r12,-1
8000a972:	c0 28       	rjmp	8000a976 <__sfvwrite_r+0x296>
8000a974:	30 0c       	mov	r12,0
8000a976:	2f dd       	sub	sp,-12
8000a978:	d8 32       	popm	r0-r7,pc
8000a97a:	d7 03       	nop

8000a97c <_localeconv_r>:
8000a97c:	fe cc e4 00 	sub	r12,pc,-7168
8000a980:	5e fc       	retal	r12
8000a982:	d7 03       	nop

8000a984 <_lseek_r>:
8000a984:	d4 21       	pushm	r4-r7,lr
8000a986:	16 98       	mov	r8,r11
8000a988:	18 97       	mov	r7,r12
8000a98a:	10 9c       	mov	r12,r8
8000a98c:	30 08       	mov	r8,0
8000a98e:	14 9b       	mov	r11,r10
8000a990:	e0 66 08 24 	mov	r6,2084
8000a994:	12 9a       	mov	r10,r9
8000a996:	8d 08       	st.w	r6[0x0],r8
8000a998:	fe b0 e2 12 	rcall	80006dbc <_lseek>
8000a99c:	5b fc       	cp.w	r12,-1
8000a99e:	c0 51       	brne	8000a9a8 <_lseek_r+0x24>
8000a9a0:	6c 08       	ld.w	r8,r6[0x0]
8000a9a2:	58 08       	cp.w	r8,0
8000a9a4:	ef f8 1a 03 	st.wne	r7[0xc],r8
8000a9a8:	d8 22       	popm	r4-r7,pc
8000a9aa:	d7 03       	nop

8000a9ac <__smakebuf_r>:
8000a9ac:	d4 21       	pushm	r4-r7,lr
8000a9ae:	20 fd       	sub	sp,60
8000a9b0:	96 68       	ld.sh	r8,r11[0xc]
8000a9b2:	16 97       	mov	r7,r11
8000a9b4:	18 96       	mov	r6,r12
8000a9b6:	e2 18 00 02 	andl	r8,0x2,COH
8000a9ba:	c3 d1       	brne	8000aa34 <__smakebuf_r+0x88>
8000a9bc:	96 7b       	ld.sh	r11,r11[0xe]
8000a9be:	f0 0b 19 00 	cp.h	r11,r8
8000a9c2:	c0 55       	brlt	8000a9cc <__smakebuf_r+0x20>
8000a9c4:	1a 9a       	mov	r10,sp
8000a9c6:	e0 a0 03 b5 	rcall	8000b130 <_fstat_r>
8000a9ca:	c0 f4       	brge	8000a9e8 <__smakebuf_r+0x3c>
8000a9cc:	8e 65       	ld.sh	r5,r7[0xc]
8000a9ce:	0a 98       	mov	r8,r5
8000a9d0:	ab b8       	sbr	r8,0xb
8000a9d2:	e2 15 00 80 	andl	r5,0x80,COH
8000a9d6:	ae 68       	st.h	r7[0xc],r8
8000a9d8:	30 04       	mov	r4,0
8000a9da:	e0 68 04 00 	mov	r8,1024
8000a9de:	f9 b5 01 40 	movne	r5,64
8000a9e2:	f0 05 17 00 	moveq	r5,r8
8000a9e6:	c1 c8       	rjmp	8000aa1e <__smakebuf_r+0x72>
8000a9e8:	40 18       	lddsp	r8,sp[0x4]
8000a9ea:	e2 18 f0 00 	andl	r8,0xf000,COH
8000a9ee:	e0 48 20 00 	cp.w	r8,8192
8000a9f2:	5f 04       	sreq	r4
8000a9f4:	e0 48 80 00 	cp.w	r8,32768
8000a9f8:	c0 e1       	brne	8000aa14 <__smakebuf_r+0x68>
8000a9fa:	6e b9       	ld.w	r9,r7[0x2c]
8000a9fc:	fe c8 35 c8 	sub	r8,pc,13768
8000aa00:	10 39       	cp.w	r9,r8
8000aa02:	c0 91       	brne	8000aa14 <__smakebuf_r+0x68>
8000aa04:	8e 68       	ld.sh	r8,r7[0xc]
8000aa06:	e0 65 04 00 	mov	r5,1024
8000aa0a:	ab a8       	sbr	r8,0xa
8000aa0c:	ef 45 00 50 	st.w	r7[80],r5
8000aa10:	ae 68       	st.h	r7[0xc],r8
8000aa12:	c0 68       	rjmp	8000aa1e <__smakebuf_r+0x72>
8000aa14:	8e 68       	ld.sh	r8,r7[0xc]
8000aa16:	e0 65 04 00 	mov	r5,1024
8000aa1a:	ab b8       	sbr	r8,0xb
8000aa1c:	ae 68       	st.h	r7[0xc],r8
8000aa1e:	0a 9b       	mov	r11,r5
8000aa20:	0c 9c       	mov	r12,r6
8000aa22:	fe b0 dd 71 	rcall	80006504 <_malloc_r>
8000aa26:	8e 68       	ld.sh	r8,r7[0xc]
8000aa28:	c0 d1       	brne	8000aa42 <__smakebuf_r+0x96>
8000aa2a:	ed b8 00 09 	bld	r8,0x9
8000aa2e:	c1 b0       	breq	8000aa64 <__smakebuf_r+0xb8>
8000aa30:	a1 b8       	sbr	r8,0x1
8000aa32:	ae 68       	st.h	r7[0xc],r8
8000aa34:	ee c8 ff b9 	sub	r8,r7,-71
8000aa38:	8f 48       	st.w	r7[0x10],r8
8000aa3a:	8f 08       	st.w	r7[0x0],r8
8000aa3c:	30 18       	mov	r8,1
8000aa3e:	8f 58       	st.w	r7[0x14],r8
8000aa40:	c1 28       	rjmp	8000aa64 <__smakebuf_r+0xb8>
8000aa42:	a7 b8       	sbr	r8,0x7
8000aa44:	8f 4c       	st.w	r7[0x10],r12
8000aa46:	ae 68       	st.h	r7[0xc],r8
8000aa48:	8f 55       	st.w	r7[0x14],r5
8000aa4a:	fe c8 3a 0a 	sub	r8,pc,14858
8000aa4e:	8f 0c       	st.w	r7[0x0],r12
8000aa50:	8d a8       	st.w	r6[0x28],r8
8000aa52:	58 04       	cp.w	r4,0
8000aa54:	c0 80       	breq	8000aa64 <__smakebuf_r+0xb8>
8000aa56:	8e 7c       	ld.sh	r12,r7[0xe]
8000aa58:	fe b0 e1 bc 	rcall	80006dd0 <isatty>
8000aa5c:	c0 40       	breq	8000aa64 <__smakebuf_r+0xb8>
8000aa5e:	8e 68       	ld.sh	r8,r7[0xc]
8000aa60:	a1 a8       	sbr	r8,0x0
8000aa62:	ae 68       	st.h	r7[0xc],r8
8000aa64:	2f 1d       	sub	sp,-60
8000aa66:	d8 22       	popm	r4-r7,pc

8000aa68 <memchr>:
8000aa68:	f7 db c0 08 	bfextu	r11,r11,0x0,0x8
8000aa6c:	c0 68       	rjmp	8000aa78 <memchr+0x10>
8000aa6e:	20 1a       	sub	r10,1
8000aa70:	19 88       	ld.ub	r8,r12[0x0]
8000aa72:	16 38       	cp.w	r8,r11
8000aa74:	5e 0c       	reteq	r12
8000aa76:	2f fc       	sub	r12,-1
8000aa78:	58 0a       	cp.w	r10,0
8000aa7a:	cf a1       	brne	8000aa6e <memchr+0x6>
8000aa7c:	5e fa       	retal	r10

8000aa7e <__hi0bits>:
8000aa7e:	18 98       	mov	r8,r12
8000aa80:	e0 1c 00 00 	andl	r12,0x0
8000aa84:	f0 09 15 10 	lsl	r9,r8,0x10
8000aa88:	58 0c       	cp.w	r12,0
8000aa8a:	f2 08 17 00 	moveq	r8,r9
8000aa8e:	f9 bc 00 10 	moveq	r12,16
8000aa92:	f9 bc 01 00 	movne	r12,0
8000aa96:	10 9a       	mov	r10,r8
8000aa98:	f0 09 15 08 	lsl	r9,r8,0x8
8000aa9c:	e6 1a ff 00 	andh	r10,0xff00,COH
8000aaa0:	f7 bc 00 f8 	subeq	r12,-8
8000aaa4:	f2 08 17 00 	moveq	r8,r9
8000aaa8:	10 9a       	mov	r10,r8
8000aaaa:	f0 09 15 04 	lsl	r9,r8,0x4
8000aaae:	e6 1a f0 00 	andh	r10,0xf000,COH
8000aab2:	f7 bc 00 fc 	subeq	r12,-4
8000aab6:	f2 08 17 00 	moveq	r8,r9
8000aaba:	10 9a       	mov	r10,r8
8000aabc:	f0 09 15 02 	lsl	r9,r8,0x2
8000aac0:	e6 1a c0 00 	andh	r10,0xc000,COH
8000aac4:	f7 bc 00 fe 	subeq	r12,-2
8000aac8:	f2 08 17 00 	moveq	r8,r9
8000aacc:	58 08       	cp.w	r8,0
8000aace:	5e 5c       	retlt	r12
8000aad0:	ed b8 00 1e 	bld	r8,0x1e
8000aad4:	f9 bc 01 20 	movne	r12,32
8000aad8:	f7 bc 00 ff 	subeq	r12,-1
8000aadc:	5e fc       	retal	r12

8000aade <__lo0bits>:
8000aade:	18 99       	mov	r9,r12
8000aae0:	78 08       	ld.w	r8,r12[0x0]
8000aae2:	f9 d8 c0 03 	bfextu	r12,r8,0x0,0x3
8000aae6:	c1 50       	breq	8000ab10 <__lo0bits+0x32>
8000aae8:	ed b8 00 00 	bld	r8,0x0
8000aaec:	c0 21       	brne	8000aaf0 <__lo0bits+0x12>
8000aaee:	5e fd       	retal	0
8000aaf0:	10 9b       	mov	r11,r8
8000aaf2:	f0 0a 16 01 	lsr	r10,r8,0x1
8000aaf6:	e2 1b 00 02 	andl	r11,0x2,COH
8000aafa:	a3 88       	lsr	r8,0x2
8000aafc:	58 0b       	cp.w	r11,0
8000aafe:	f3 fa 1a 00 	st.wne	r9[0x0],r10
8000ab02:	f9 bc 01 01 	movne	r12,1
8000ab06:	f3 f8 0a 00 	st.weq	r9[0x0],r8
8000ab0a:	f9 bc 00 02 	moveq	r12,2
8000ab0e:	5e fc       	retal	r12
8000ab10:	f5 d8 c0 10 	bfextu	r10,r8,0x0,0x10
8000ab14:	f0 0b 16 10 	lsr	r11,r8,0x10
8000ab18:	58 0a       	cp.w	r10,0
8000ab1a:	f6 08 17 00 	moveq	r8,r11
8000ab1e:	f9 bc 00 10 	moveq	r12,16
8000ab22:	f7 d8 c0 08 	bfextu	r11,r8,0x0,0x8
8000ab26:	f0 0a 16 08 	lsr	r10,r8,0x8
8000ab2a:	58 0b       	cp.w	r11,0
8000ab2c:	f7 bc 00 f8 	subeq	r12,-8
8000ab30:	f4 08 17 00 	moveq	r8,r10
8000ab34:	f7 d8 c0 04 	bfextu	r11,r8,0x0,0x4
8000ab38:	f0 0a 16 04 	lsr	r10,r8,0x4
8000ab3c:	58 0b       	cp.w	r11,0
8000ab3e:	f7 bc 00 fc 	subeq	r12,-4
8000ab42:	f4 08 17 00 	moveq	r8,r10
8000ab46:	f7 d8 c0 02 	bfextu	r11,r8,0x0,0x2
8000ab4a:	f0 0a 16 02 	lsr	r10,r8,0x2
8000ab4e:	58 0b       	cp.w	r11,0
8000ab50:	f7 bc 00 fe 	subeq	r12,-2
8000ab54:	f4 08 17 00 	moveq	r8,r10
8000ab58:	ed b8 00 00 	bld	r8,0x0
8000ab5c:	c0 60       	breq	8000ab68 <__lo0bits+0x8a>
8000ab5e:	a1 98       	lsr	r8,0x1
8000ab60:	c0 31       	brne	8000ab66 <__lo0bits+0x88>
8000ab62:	32 0c       	mov	r12,32
8000ab64:	5e fc       	retal	r12
8000ab66:	2f fc       	sub	r12,-1
8000ab68:	93 08       	st.w	r9[0x0],r8
8000ab6a:	5e fc       	retal	r12

8000ab6c <__mcmp>:
8000ab6c:	d4 01       	pushm	lr
8000ab6e:	18 98       	mov	r8,r12
8000ab70:	76 49       	ld.w	r9,r11[0x10]
8000ab72:	78 4c       	ld.w	r12,r12[0x10]
8000ab74:	12 1c       	sub	r12,r9
8000ab76:	c1 31       	brne	8000ab9c <__mcmp+0x30>
8000ab78:	2f b9       	sub	r9,-5
8000ab7a:	a3 69       	lsl	r9,0x2
8000ab7c:	12 0b       	add	r11,r9
8000ab7e:	f0 09 00 09 	add	r9,r8,r9
8000ab82:	2e c8       	sub	r8,-20
8000ab84:	13 4e       	ld.w	lr,--r9
8000ab86:	17 4a       	ld.w	r10,--r11
8000ab88:	14 3e       	cp.w	lr,r10
8000ab8a:	c0 60       	breq	8000ab96 <__mcmp+0x2a>
8000ab8c:	f9 bc 03 ff 	movlo	r12,-1
8000ab90:	f9 bc 02 01 	movhs	r12,1
8000ab94:	d8 02       	popm	pc
8000ab96:	10 39       	cp.w	r9,r8
8000ab98:	fe 9b ff f6 	brhi	8000ab84 <__mcmp+0x18>
8000ab9c:	d8 02       	popm	pc
8000ab9e:	d7 03       	nop

8000aba0 <_Bfree>:
8000aba0:	d4 21       	pushm	r4-r7,lr
8000aba2:	18 97       	mov	r7,r12
8000aba4:	16 95       	mov	r5,r11
8000aba6:	78 96       	ld.w	r6,r12[0x24]
8000aba8:	58 06       	cp.w	r6,0
8000abaa:	c0 91       	brne	8000abbc <_Bfree+0x1c>
8000abac:	31 0c       	mov	r12,16
8000abae:	fe b0 dc a3 	rcall	800064f4 <malloc>
8000abb2:	99 36       	st.w	r12[0xc],r6
8000abb4:	8f 9c       	st.w	r7[0x24],r12
8000abb6:	99 16       	st.w	r12[0x4],r6
8000abb8:	99 26       	st.w	r12[0x8],r6
8000abba:	99 06       	st.w	r12[0x0],r6
8000abbc:	58 05       	cp.w	r5,0
8000abbe:	c0 90       	breq	8000abd0 <_Bfree+0x30>
8000abc0:	6a 19       	ld.w	r9,r5[0x4]
8000abc2:	6e 98       	ld.w	r8,r7[0x24]
8000abc4:	70 38       	ld.w	r8,r8[0xc]
8000abc6:	f0 09 03 2a 	ld.w	r10,r8[r9<<0x2]
8000abca:	8b 0a       	st.w	r5[0x0],r10
8000abcc:	f0 09 09 25 	st.w	r8[r9<<0x2],r5
8000abd0:	d8 22       	popm	r4-r7,pc
8000abd2:	d7 03       	nop

8000abd4 <_Balloc>:
8000abd4:	d4 21       	pushm	r4-r7,lr
8000abd6:	18 97       	mov	r7,r12
8000abd8:	16 96       	mov	r6,r11
8000abda:	78 95       	ld.w	r5,r12[0x24]
8000abdc:	58 05       	cp.w	r5,0
8000abde:	c0 91       	brne	8000abf0 <_Balloc+0x1c>
8000abe0:	31 0c       	mov	r12,16
8000abe2:	fe b0 dc 89 	rcall	800064f4 <malloc>
8000abe6:	99 35       	st.w	r12[0xc],r5
8000abe8:	8f 9c       	st.w	r7[0x24],r12
8000abea:	99 15       	st.w	r12[0x4],r5
8000abec:	99 25       	st.w	r12[0x8],r5
8000abee:	99 05       	st.w	r12[0x0],r5
8000abf0:	6e 95       	ld.w	r5,r7[0x24]
8000abf2:	6a 38       	ld.w	r8,r5[0xc]
8000abf4:	58 08       	cp.w	r8,0
8000abf6:	c0 b1       	brne	8000ac0c <_Balloc+0x38>
8000abf8:	31 0a       	mov	r10,16
8000abfa:	30 4b       	mov	r11,4
8000abfc:	0e 9c       	mov	r12,r7
8000abfe:	e0 a0 02 6d 	rcall	8000b0d8 <_calloc_r>
8000ac02:	8b 3c       	st.w	r5[0xc],r12
8000ac04:	6e 98       	ld.w	r8,r7[0x24]
8000ac06:	70 3c       	ld.w	r12,r8[0xc]
8000ac08:	58 0c       	cp.w	r12,0
8000ac0a:	c1 b0       	breq	8000ac40 <_Balloc+0x6c>
8000ac0c:	6e 98       	ld.w	r8,r7[0x24]
8000ac0e:	70 38       	ld.w	r8,r8[0xc]
8000ac10:	f0 06 00 28 	add	r8,r8,r6<<0x2
8000ac14:	70 0c       	ld.w	r12,r8[0x0]
8000ac16:	58 0c       	cp.w	r12,0
8000ac18:	c0 40       	breq	8000ac20 <_Balloc+0x4c>
8000ac1a:	78 09       	ld.w	r9,r12[0x0]
8000ac1c:	91 09       	st.w	r8[0x0],r9
8000ac1e:	c0 e8       	rjmp	8000ac3a <_Balloc+0x66>
8000ac20:	0e 9c       	mov	r12,r7
8000ac22:	30 17       	mov	r7,1
8000ac24:	0e 9b       	mov	r11,r7
8000ac26:	ee 06 09 47 	lsl	r7,r7,r6
8000ac2a:	ee ca ff fb 	sub	r10,r7,-5
8000ac2e:	a3 6a       	lsl	r10,0x2
8000ac30:	e0 a0 02 54 	rcall	8000b0d8 <_calloc_r>
8000ac34:	c0 60       	breq	8000ac40 <_Balloc+0x6c>
8000ac36:	99 16       	st.w	r12[0x4],r6
8000ac38:	99 27       	st.w	r12[0x8],r7
8000ac3a:	30 08       	mov	r8,0
8000ac3c:	99 38       	st.w	r12[0xc],r8
8000ac3e:	99 48       	st.w	r12[0x10],r8
8000ac40:	d8 22       	popm	r4-r7,pc
8000ac42:	d7 03       	nop

8000ac44 <__d2b>:
8000ac44:	d4 31       	pushm	r0-r7,lr
8000ac46:	20 2d       	sub	sp,8
8000ac48:	16 93       	mov	r3,r11
8000ac4a:	12 96       	mov	r6,r9
8000ac4c:	10 95       	mov	r5,r8
8000ac4e:	14 92       	mov	r2,r10
8000ac50:	30 1b       	mov	r11,1
8000ac52:	cc 1f       	rcall	8000abd4 <_Balloc>
8000ac54:	f3 d3 c0 14 	bfextu	r9,r3,0x0,0x14
8000ac58:	50 09       	stdsp	sp[0x0],r9
8000ac5a:	f1 d3 c0 1f 	bfextu	r8,r3,0x0,0x1f
8000ac5e:	b5 a9       	sbr	r9,0x14
8000ac60:	f0 01 16 14 	lsr	r1,r8,0x14
8000ac64:	fb f9 1a 00 	st.wne	sp[0x0],r9
8000ac68:	18 94       	mov	r4,r12
8000ac6a:	58 02       	cp.w	r2,0
8000ac6c:	c1 d0       	breq	8000aca6 <__d2b+0x62>
8000ac6e:	fa cc ff f8 	sub	r12,sp,-8
8000ac72:	18 d2       	st.w	--r12,r2
8000ac74:	c3 5f       	rcall	8000aade <__lo0bits>
8000ac76:	40 18       	lddsp	r8,sp[0x4]
8000ac78:	c0 d0       	breq	8000ac92 <__d2b+0x4e>
8000ac7a:	40 09       	lddsp	r9,sp[0x0]
8000ac7c:	f8 0a 11 20 	rsub	r10,r12,32
8000ac80:	f2 0a 09 4a 	lsl	r10,r9,r10
8000ac84:	f5 e8 10 08 	or	r8,r10,r8
8000ac88:	89 58       	st.w	r4[0x14],r8
8000ac8a:	f2 0c 0a 49 	lsr	r9,r9,r12
8000ac8e:	50 09       	stdsp	sp[0x0],r9
8000ac90:	c0 28       	rjmp	8000ac94 <__d2b+0x50>
8000ac92:	89 58       	st.w	r4[0x14],r8
8000ac94:	40 08       	lddsp	r8,sp[0x0]
8000ac96:	58 08       	cp.w	r8,0
8000ac98:	f9 b3 01 02 	movne	r3,2
8000ac9c:	f9 b3 00 01 	moveq	r3,1
8000aca0:	89 68       	st.w	r4[0x18],r8
8000aca2:	89 43       	st.w	r4[0x10],r3
8000aca4:	c0 88       	rjmp	8000acb4 <__d2b+0x70>
8000aca6:	1a 9c       	mov	r12,sp
8000aca8:	c1 bf       	rcall	8000aade <__lo0bits>
8000acaa:	30 13       	mov	r3,1
8000acac:	40 08       	lddsp	r8,sp[0x0]
8000acae:	2e 0c       	sub	r12,-32
8000acb0:	89 43       	st.w	r4[0x10],r3
8000acb2:	89 58       	st.w	r4[0x14],r8
8000acb4:	58 01       	cp.w	r1,0
8000acb6:	c0 90       	breq	8000acc8 <__d2b+0x84>
8000acb8:	e2 c1 04 33 	sub	r1,r1,1075
8000acbc:	18 01       	add	r1,r12
8000acbe:	8d 01       	st.w	r6[0x0],r1
8000acc0:	f8 0c 11 35 	rsub	r12,r12,53
8000acc4:	8b 0c       	st.w	r5[0x0],r12
8000acc6:	c0 c8       	rjmp	8000acde <__d2b+0x9a>
8000acc8:	e6 c8 ff fc 	sub	r8,r3,-4
8000accc:	f8 cc 04 32 	sub	r12,r12,1074
8000acd0:	a5 73       	lsl	r3,0x5
8000acd2:	8d 0c       	st.w	r6[0x0],r12
8000acd4:	e8 08 03 2c 	ld.w	r12,r4[r8<<0x2]
8000acd8:	cd 3e       	rcall	8000aa7e <__hi0bits>
8000acda:	18 13       	sub	r3,r12
8000acdc:	8b 03       	st.w	r5[0x0],r3
8000acde:	08 9c       	mov	r12,r4
8000ace0:	2f ed       	sub	sp,-8
8000ace2:	d8 32       	popm	r0-r7,pc

8000ace4 <__mdiff>:
8000ace4:	d4 31       	pushm	r0-r7,lr
8000ace6:	74 48       	ld.w	r8,r10[0x10]
8000ace8:	76 45       	ld.w	r5,r11[0x10]
8000acea:	16 97       	mov	r7,r11
8000acec:	14 96       	mov	r6,r10
8000acee:	10 15       	sub	r5,r8
8000acf0:	c1 31       	brne	8000ad16 <__mdiff+0x32>
8000acf2:	2f b8       	sub	r8,-5
8000acf4:	ee ce ff ec 	sub	lr,r7,-20
8000acf8:	a3 68       	lsl	r8,0x2
8000acfa:	f4 08 00 0b 	add	r11,r10,r8
8000acfe:	ee 08 00 08 	add	r8,r7,r8
8000ad02:	11 4a       	ld.w	r10,--r8
8000ad04:	17 49       	ld.w	r9,--r11
8000ad06:	12 3a       	cp.w	r10,r9
8000ad08:	c0 30       	breq	8000ad0e <__mdiff+0x2a>
8000ad0a:	c0 e2       	brcc	8000ad26 <__mdiff+0x42>
8000ad0c:	c0 78       	rjmp	8000ad1a <__mdiff+0x36>
8000ad0e:	1c 38       	cp.w	r8,lr
8000ad10:	fe 9b ff f9 	brhi	8000ad02 <__mdiff+0x1e>
8000ad14:	c4 98       	rjmp	8000ada6 <__mdiff+0xc2>
8000ad16:	58 05       	cp.w	r5,0
8000ad18:	c0 64       	brge	8000ad24 <__mdiff+0x40>
8000ad1a:	0e 98       	mov	r8,r7
8000ad1c:	30 15       	mov	r5,1
8000ad1e:	0c 97       	mov	r7,r6
8000ad20:	10 96       	mov	r6,r8
8000ad22:	c0 28       	rjmp	8000ad26 <__mdiff+0x42>
8000ad24:	30 05       	mov	r5,0
8000ad26:	6e 1b       	ld.w	r11,r7[0x4]
8000ad28:	c5 6f       	rcall	8000abd4 <_Balloc>
8000ad2a:	6e 49       	ld.w	r9,r7[0x10]
8000ad2c:	6c 44       	ld.w	r4,r6[0x10]
8000ad2e:	99 35       	st.w	r12[0xc],r5
8000ad30:	2f b4       	sub	r4,-5
8000ad32:	f2 c5 ff fb 	sub	r5,r9,-5
8000ad36:	ec 04 00 24 	add	r4,r6,r4<<0x2
8000ad3a:	ee 05 00 25 	add	r5,r7,r5<<0x2
8000ad3e:	2e c6       	sub	r6,-20
8000ad40:	2e c7       	sub	r7,-20
8000ad42:	f8 c8 ff ec 	sub	r8,r12,-20
8000ad46:	30 0a       	mov	r10,0
8000ad48:	0f 0e       	ld.w	lr,r7++
8000ad4a:	0d 0b       	ld.w	r11,r6++
8000ad4c:	fc 02 16 10 	lsr	r2,lr,0x10
8000ad50:	f6 03 16 10 	lsr	r3,r11,0x10
8000ad54:	fd de c0 10 	bfextu	lr,lr,0x0,0x10
8000ad58:	e4 03 01 03 	sub	r3,r2,r3
8000ad5c:	f7 db c0 10 	bfextu	r11,r11,0x0,0x10
8000ad60:	fc 0b 01 0b 	sub	r11,lr,r11
8000ad64:	f6 0a 00 0a 	add	r10,r11,r10
8000ad68:	b0 1a       	st.h	r8[0x2],r10
8000ad6a:	b1 4a       	asr	r10,0x10
8000ad6c:	e6 0a 00 0a 	add	r10,r3,r10
8000ad70:	b0 0a       	st.h	r8[0x0],r10
8000ad72:	2f c8       	sub	r8,-4
8000ad74:	b1 4a       	asr	r10,0x10
8000ad76:	08 36       	cp.w	r6,r4
8000ad78:	ce 83       	brcs	8000ad48 <__mdiff+0x64>
8000ad7a:	c0 d8       	rjmp	8000ad94 <__mdiff+0xb0>
8000ad7c:	0f 0b       	ld.w	r11,r7++
8000ad7e:	f6 0e 16 10 	lsr	lr,r11,0x10
8000ad82:	f7 db c0 10 	bfextu	r11,r11,0x0,0x10
8000ad86:	16 0a       	add	r10,r11
8000ad88:	b0 1a       	st.h	r8[0x2],r10
8000ad8a:	b1 4a       	asr	r10,0x10
8000ad8c:	1c 0a       	add	r10,lr
8000ad8e:	b0 0a       	st.h	r8[0x0],r10
8000ad90:	2f c8       	sub	r8,-4
8000ad92:	b1 4a       	asr	r10,0x10
8000ad94:	0a 37       	cp.w	r7,r5
8000ad96:	cf 33       	brcs	8000ad7c <__mdiff+0x98>
8000ad98:	c0 28       	rjmp	8000ad9c <__mdiff+0xb8>
8000ad9a:	20 19       	sub	r9,1
8000ad9c:	11 4a       	ld.w	r10,--r8
8000ad9e:	58 0a       	cp.w	r10,0
8000ada0:	cf d0       	breq	8000ad9a <__mdiff+0xb6>
8000ada2:	99 49       	st.w	r12[0x10],r9
8000ada4:	d8 32       	popm	r0-r7,pc
8000ada6:	30 0b       	mov	r11,0
8000ada8:	c1 6f       	rcall	8000abd4 <_Balloc>
8000adaa:	30 18       	mov	r8,1
8000adac:	99 48       	st.w	r12[0x10],r8
8000adae:	30 08       	mov	r8,0
8000adb0:	99 58       	st.w	r12[0x14],r8
8000adb2:	d8 32       	popm	r0-r7,pc

8000adb4 <__lshift>:
8000adb4:	d4 31       	pushm	r0-r7,lr
8000adb6:	16 97       	mov	r7,r11
8000adb8:	76 46       	ld.w	r6,r11[0x10]
8000adba:	f4 02 14 05 	asr	r2,r10,0x5
8000adbe:	2f f6       	sub	r6,-1
8000adc0:	14 93       	mov	r3,r10
8000adc2:	18 94       	mov	r4,r12
8000adc4:	04 06       	add	r6,r2
8000adc6:	76 1b       	ld.w	r11,r11[0x4]
8000adc8:	6e 28       	ld.w	r8,r7[0x8]
8000adca:	c0 38       	rjmp	8000add0 <__lshift+0x1c>
8000adcc:	2f fb       	sub	r11,-1
8000adce:	a1 78       	lsl	r8,0x1
8000add0:	10 36       	cp.w	r6,r8
8000add2:	fe 99 ff fd 	brgt	8000adcc <__lshift+0x18>
8000add6:	08 9c       	mov	r12,r4
8000add8:	cf ee       	rcall	8000abd4 <_Balloc>
8000adda:	30 09       	mov	r9,0
8000addc:	18 95       	mov	r5,r12
8000adde:	f8 c8 ff ec 	sub	r8,r12,-20
8000ade2:	12 9a       	mov	r10,r9
8000ade4:	c0 38       	rjmp	8000adea <__lshift+0x36>
8000ade6:	10 aa       	st.w	r8++,r10
8000ade8:	2f f9       	sub	r9,-1
8000adea:	04 39       	cp.w	r9,r2
8000adec:	cf d5       	brlt	8000ade6 <__lshift+0x32>
8000adee:	6e 4b       	ld.w	r11,r7[0x10]
8000adf0:	e7 d3 c0 05 	bfextu	r3,r3,0x0,0x5
8000adf4:	2f bb       	sub	r11,-5
8000adf6:	ee c9 ff ec 	sub	r9,r7,-20
8000adfa:	ee 0b 00 2b 	add	r11,r7,r11<<0x2
8000adfe:	58 03       	cp.w	r3,0
8000ae00:	c1 30       	breq	8000ae26 <__lshift+0x72>
8000ae02:	e6 0c 11 20 	rsub	r12,r3,32
8000ae06:	30 0a       	mov	r10,0
8000ae08:	72 02       	ld.w	r2,r9[0x0]
8000ae0a:	e4 03 09 42 	lsl	r2,r2,r3
8000ae0e:	04 4a       	or	r10,r2
8000ae10:	10 aa       	st.w	r8++,r10
8000ae12:	13 0a       	ld.w	r10,r9++
8000ae14:	f4 0c 0a 4a 	lsr	r10,r10,r12
8000ae18:	16 39       	cp.w	r9,r11
8000ae1a:	cf 73       	brcs	8000ae08 <__lshift+0x54>
8000ae1c:	91 0a       	st.w	r8[0x0],r10
8000ae1e:	58 0a       	cp.w	r10,0
8000ae20:	c0 70       	breq	8000ae2e <__lshift+0x7a>
8000ae22:	2f f6       	sub	r6,-1
8000ae24:	c0 58       	rjmp	8000ae2e <__lshift+0x7a>
8000ae26:	13 0a       	ld.w	r10,r9++
8000ae28:	10 aa       	st.w	r8++,r10
8000ae2a:	16 39       	cp.w	r9,r11
8000ae2c:	cf d3       	brcs	8000ae26 <__lshift+0x72>
8000ae2e:	08 9c       	mov	r12,r4
8000ae30:	20 16       	sub	r6,1
8000ae32:	0e 9b       	mov	r11,r7
8000ae34:	8b 46       	st.w	r5[0x10],r6
8000ae36:	cb 5e       	rcall	8000aba0 <_Bfree>
8000ae38:	0a 9c       	mov	r12,r5
8000ae3a:	d8 32       	popm	r0-r7,pc

8000ae3c <__multiply>:
8000ae3c:	d4 31       	pushm	r0-r7,lr
8000ae3e:	20 2d       	sub	sp,8
8000ae40:	76 49       	ld.w	r9,r11[0x10]
8000ae42:	74 48       	ld.w	r8,r10[0x10]
8000ae44:	16 96       	mov	r6,r11
8000ae46:	14 95       	mov	r5,r10
8000ae48:	10 39       	cp.w	r9,r8
8000ae4a:	ec 08 17 50 	movlt	r8,r6
8000ae4e:	ea 06 17 50 	movlt	r6,r5
8000ae52:	f0 05 17 50 	movlt	r5,r8
8000ae56:	6c 28       	ld.w	r8,r6[0x8]
8000ae58:	76 43       	ld.w	r3,r11[0x10]
8000ae5a:	74 42       	ld.w	r2,r10[0x10]
8000ae5c:	76 1b       	ld.w	r11,r11[0x4]
8000ae5e:	e4 03 00 07 	add	r7,r2,r3
8000ae62:	10 37       	cp.w	r7,r8
8000ae64:	f7 bb 09 ff 	subgt	r11,-1
8000ae68:	cb 6e       	rcall	8000abd4 <_Balloc>
8000ae6a:	ee c4 ff fb 	sub	r4,r7,-5
8000ae6e:	f8 c9 ff ec 	sub	r9,r12,-20
8000ae72:	f8 04 00 24 	add	r4,r12,r4<<0x2
8000ae76:	30 0a       	mov	r10,0
8000ae78:	12 98       	mov	r8,r9
8000ae7a:	c0 28       	rjmp	8000ae7e <__multiply+0x42>
8000ae7c:	10 aa       	st.w	r8++,r10
8000ae7e:	08 38       	cp.w	r8,r4
8000ae80:	cf e3       	brcs	8000ae7c <__multiply+0x40>
8000ae82:	2f b3       	sub	r3,-5
8000ae84:	2f b2       	sub	r2,-5
8000ae86:	ec 03 00 23 	add	r3,r6,r3<<0x2
8000ae8a:	ea 02 00 22 	add	r2,r5,r2<<0x2
8000ae8e:	ec cb ff ec 	sub	r11,r6,-20
8000ae92:	50 12       	stdsp	sp[0x4],r2
8000ae94:	ea ca ff ec 	sub	r10,r5,-20
8000ae98:	c4 48       	rjmp	8000af20 <__multiply+0xe4>
8000ae9a:	94 95       	ld.uh	r5,r10[0x2]
8000ae9c:	58 05       	cp.w	r5,0
8000ae9e:	c2 00       	breq	8000aede <__multiply+0xa2>
8000aea0:	12 98       	mov	r8,r9
8000aea2:	16 96       	mov	r6,r11
8000aea4:	30 0e       	mov	lr,0
8000aea6:	50 09       	stdsp	sp[0x0],r9
8000aea8:	0d 02       	ld.w	r2,r6++
8000aeaa:	e4 00 16 10 	lsr	r0,r2,0x10
8000aeae:	70 01       	ld.w	r1,r8[0x0]
8000aeb0:	70 09       	ld.w	r9,r8[0x0]
8000aeb2:	b1 81       	lsr	r1,0x10
8000aeb4:	e5 d2 c0 10 	bfextu	r2,r2,0x0,0x10
8000aeb8:	e0 05 03 41 	mac	r1,r0,r5
8000aebc:	ab 32       	mul	r2,r5
8000aebe:	e1 d9 c0 10 	bfextu	r0,r9,0x0,0x10
8000aec2:	00 02       	add	r2,r0
8000aec4:	e4 0e 00 0e 	add	lr,r2,lr
8000aec8:	b0 1e       	st.h	r8[0x2],lr
8000aeca:	b1 8e       	lsr	lr,0x10
8000aecc:	1c 01       	add	r1,lr
8000aece:	b0 01       	st.h	r8[0x0],r1
8000aed0:	e2 0e 16 10 	lsr	lr,r1,0x10
8000aed4:	2f c8       	sub	r8,-4
8000aed6:	06 36       	cp.w	r6,r3
8000aed8:	ce 83       	brcs	8000aea8 <__multiply+0x6c>
8000aeda:	40 09       	lddsp	r9,sp[0x0]
8000aedc:	91 0e       	st.w	r8[0x0],lr
8000aede:	94 86       	ld.uh	r6,r10[0x0]
8000aee0:	58 06       	cp.w	r6,0
8000aee2:	c1 d0       	breq	8000af1c <__multiply+0xe0>
8000aee4:	72 02       	ld.w	r2,r9[0x0]
8000aee6:	12 98       	mov	r8,r9
8000aee8:	16 9e       	mov	lr,r11
8000aeea:	30 05       	mov	r5,0
8000aeec:	b0 12       	st.h	r8[0x2],r2
8000aeee:	1d 01       	ld.w	r1,lr++
8000aef0:	90 82       	ld.uh	r2,r8[0x0]
8000aef2:	e1 d1 c0 10 	bfextu	r0,r1,0x0,0x10
8000aef6:	ad 30       	mul	r0,r6
8000aef8:	e0 02 00 02 	add	r2,r0,r2
8000aefc:	e4 05 00 05 	add	r5,r2,r5
8000af00:	b0 05       	st.h	r8[0x0],r5
8000af02:	b1 85       	lsr	r5,0x10
8000af04:	b1 81       	lsr	r1,0x10
8000af06:	2f c8       	sub	r8,-4
8000af08:	ad 31       	mul	r1,r6
8000af0a:	90 92       	ld.uh	r2,r8[0x2]
8000af0c:	e2 02 00 02 	add	r2,r1,r2
8000af10:	0a 02       	add	r2,r5
8000af12:	e4 05 16 10 	lsr	r5,r2,0x10
8000af16:	06 3e       	cp.w	lr,r3
8000af18:	ce a3       	brcs	8000aeec <__multiply+0xb0>
8000af1a:	91 02       	st.w	r8[0x0],r2
8000af1c:	2f ca       	sub	r10,-4
8000af1e:	2f c9       	sub	r9,-4
8000af20:	40 18       	lddsp	r8,sp[0x4]
8000af22:	10 3a       	cp.w	r10,r8
8000af24:	cb b3       	brcs	8000ae9a <__multiply+0x5e>
8000af26:	c0 28       	rjmp	8000af2a <__multiply+0xee>
8000af28:	20 17       	sub	r7,1
8000af2a:	58 07       	cp.w	r7,0
8000af2c:	e0 8a 00 05 	brle	8000af36 <__multiply+0xfa>
8000af30:	09 48       	ld.w	r8,--r4
8000af32:	58 08       	cp.w	r8,0
8000af34:	cf a0       	breq	8000af28 <__multiply+0xec>
8000af36:	99 47       	st.w	r12[0x10],r7
8000af38:	2f ed       	sub	sp,-8
8000af3a:	d8 32       	popm	r0-r7,pc

8000af3c <__i2b>:
8000af3c:	d4 21       	pushm	r4-r7,lr
8000af3e:	16 97       	mov	r7,r11
8000af40:	30 1b       	mov	r11,1
8000af42:	c4 9e       	rcall	8000abd4 <_Balloc>
8000af44:	30 19       	mov	r9,1
8000af46:	99 57       	st.w	r12[0x14],r7
8000af48:	99 49       	st.w	r12[0x10],r9
8000af4a:	d8 22       	popm	r4-r7,pc

8000af4c <__multadd>:
8000af4c:	d4 31       	pushm	r0-r7,lr
8000af4e:	30 08       	mov	r8,0
8000af50:	12 95       	mov	r5,r9
8000af52:	16 97       	mov	r7,r11
8000af54:	18 96       	mov	r6,r12
8000af56:	76 44       	ld.w	r4,r11[0x10]
8000af58:	f6 c9 ff ec 	sub	r9,r11,-20
8000af5c:	72 0b       	ld.w	r11,r9[0x0]
8000af5e:	f6 0c 16 10 	lsr	r12,r11,0x10
8000af62:	f7 db c0 10 	bfextu	r11,r11,0x0,0x10
8000af66:	f4 0c 02 4c 	mul	r12,r10,r12
8000af6a:	f4 0b 03 45 	mac	r5,r10,r11
8000af6e:	f7 d5 c0 10 	bfextu	r11,r5,0x0,0x10
8000af72:	b1 85       	lsr	r5,0x10
8000af74:	18 05       	add	r5,r12
8000af76:	ea 0c 15 10 	lsl	r12,r5,0x10
8000af7a:	f8 0b 00 0b 	add	r11,r12,r11
8000af7e:	12 ab       	st.w	r9++,r11
8000af80:	2f f8       	sub	r8,-1
8000af82:	b1 85       	lsr	r5,0x10
8000af84:	08 38       	cp.w	r8,r4
8000af86:	ce b5       	brlt	8000af5c <__multadd+0x10>
8000af88:	58 05       	cp.w	r5,0
8000af8a:	c1 c0       	breq	8000afc2 <__multadd+0x76>
8000af8c:	6e 28       	ld.w	r8,r7[0x8]
8000af8e:	10 34       	cp.w	r4,r8
8000af90:	c1 35       	brlt	8000afb6 <__multadd+0x6a>
8000af92:	6e 1b       	ld.w	r11,r7[0x4]
8000af94:	0c 9c       	mov	r12,r6
8000af96:	2f fb       	sub	r11,-1
8000af98:	c1 ee       	rcall	8000abd4 <_Balloc>
8000af9a:	6e 4a       	ld.w	r10,r7[0x10]
8000af9c:	ee cb ff f4 	sub	r11,r7,-12
8000afa0:	18 93       	mov	r3,r12
8000afa2:	2f ea       	sub	r10,-2
8000afa4:	2f 4c       	sub	r12,-12
8000afa6:	a3 6a       	lsl	r10,0x2
8000afa8:	fe b0 dc ca 	rcall	8000693c <memcpy>
8000afac:	0e 9b       	mov	r11,r7
8000afae:	0c 9c       	mov	r12,r6
8000afb0:	fe b0 fd f8 	rcall	8000aba0 <_Bfree>
8000afb4:	06 97       	mov	r7,r3
8000afb6:	e8 c8 ff ff 	sub	r8,r4,-1
8000afba:	2f b4       	sub	r4,-5
8000afbc:	8f 48       	st.w	r7[0x10],r8
8000afbe:	ee 04 09 25 	st.w	r7[r4<<0x2],r5
8000afc2:	0e 9c       	mov	r12,r7
8000afc4:	d8 32       	popm	r0-r7,pc
8000afc6:	d7 03       	nop

8000afc8 <__pow5mult>:
8000afc8:	d4 31       	pushm	r0-r7,lr
8000afca:	14 96       	mov	r6,r10
8000afcc:	18 97       	mov	r7,r12
8000afce:	16 94       	mov	r4,r11
8000afd0:	f1 da c0 02 	bfextu	r8,r10,0x0,0x2
8000afd4:	c0 90       	breq	8000afe6 <__pow5mult+0x1e>
8000afd6:	20 18       	sub	r8,1
8000afd8:	fe c9 ea 1c 	sub	r9,pc,-5604
8000afdc:	f2 08 03 2a 	ld.w	r10,r9[r8<<0x2]
8000afe0:	30 09       	mov	r9,0
8000afe2:	cb 5f       	rcall	8000af4c <__multadd>
8000afe4:	18 94       	mov	r4,r12
8000afe6:	a3 46       	asr	r6,0x2
8000afe8:	c3 40       	breq	8000b050 <__pow5mult+0x88>
8000afea:	6e 95       	ld.w	r5,r7[0x24]
8000afec:	58 05       	cp.w	r5,0
8000afee:	c0 91       	brne	8000b000 <__pow5mult+0x38>
8000aff0:	31 0c       	mov	r12,16
8000aff2:	fe b0 da 81 	rcall	800064f4 <malloc>
8000aff6:	99 35       	st.w	r12[0xc],r5
8000aff8:	8f 9c       	st.w	r7[0x24],r12
8000affa:	99 15       	st.w	r12[0x4],r5
8000affc:	99 25       	st.w	r12[0x8],r5
8000affe:	99 05       	st.w	r12[0x0],r5
8000b000:	6e 93       	ld.w	r3,r7[0x24]
8000b002:	66 25       	ld.w	r5,r3[0x8]
8000b004:	58 05       	cp.w	r5,0
8000b006:	c0 c1       	brne	8000b01e <__pow5mult+0x56>
8000b008:	e0 6b 02 71 	mov	r11,625
8000b00c:	0e 9c       	mov	r12,r7
8000b00e:	c9 7f       	rcall	8000af3c <__i2b>
8000b010:	87 2c       	st.w	r3[0x8],r12
8000b012:	30 08       	mov	r8,0
8000b014:	18 95       	mov	r5,r12
8000b016:	99 08       	st.w	r12[0x0],r8
8000b018:	c0 38       	rjmp	8000b01e <__pow5mult+0x56>
8000b01a:	06 9c       	mov	r12,r3
8000b01c:	18 95       	mov	r5,r12
8000b01e:	ed b6 00 00 	bld	r6,0x0
8000b022:	c0 b1       	brne	8000b038 <__pow5mult+0x70>
8000b024:	08 9b       	mov	r11,r4
8000b026:	0a 9a       	mov	r10,r5
8000b028:	0e 9c       	mov	r12,r7
8000b02a:	c0 9f       	rcall	8000ae3c <__multiply>
8000b02c:	08 9b       	mov	r11,r4
8000b02e:	18 93       	mov	r3,r12
8000b030:	0e 9c       	mov	r12,r7
8000b032:	06 94       	mov	r4,r3
8000b034:	fe b0 fd b6 	rcall	8000aba0 <_Bfree>
8000b038:	a1 56       	asr	r6,0x1
8000b03a:	c0 b0       	breq	8000b050 <__pow5mult+0x88>
8000b03c:	6a 03       	ld.w	r3,r5[0x0]
8000b03e:	58 03       	cp.w	r3,0
8000b040:	ce d1       	brne	8000b01a <__pow5mult+0x52>
8000b042:	0a 9a       	mov	r10,r5
8000b044:	0a 9b       	mov	r11,r5
8000b046:	0e 9c       	mov	r12,r7
8000b048:	cf ae       	rcall	8000ae3c <__multiply>
8000b04a:	8b 0c       	st.w	r5[0x0],r12
8000b04c:	99 03       	st.w	r12[0x0],r3
8000b04e:	ce 7b       	rjmp	8000b01c <__pow5mult+0x54>
8000b050:	08 9c       	mov	r12,r4
8000b052:	d8 32       	popm	r0-r7,pc

8000b054 <_read_r>:
8000b054:	d4 21       	pushm	r4-r7,lr
8000b056:	16 98       	mov	r8,r11
8000b058:	18 97       	mov	r7,r12
8000b05a:	10 9c       	mov	r12,r8
8000b05c:	30 08       	mov	r8,0
8000b05e:	14 9b       	mov	r11,r10
8000b060:	e0 66 08 24 	mov	r6,2084
8000b064:	12 9a       	mov	r10,r9
8000b066:	8d 08       	st.w	r6[0x0],r8
8000b068:	fe b0 cf 28 	rcall	80004eb8 <_read>
8000b06c:	5b fc       	cp.w	r12,-1
8000b06e:	c0 51       	brne	8000b078 <_read_r+0x24>
8000b070:	6c 08       	ld.w	r8,r6[0x0]
8000b072:	58 08       	cp.w	r8,0
8000b074:	ef f8 1a 03 	st.wne	r7[0xc],r8
8000b078:	d8 22       	popm	r4-r7,pc
8000b07a:	d7 03       	nop

8000b07c <__isinfd>:
8000b07c:	14 98       	mov	r8,r10
8000b07e:	fc 19 7f f0 	movh	r9,0x7ff0
8000b082:	f5 db c0 1f 	bfextu	r10,r11,0x0,0x1f
8000b086:	f0 0b 11 00 	rsub	r11,r8,0
8000b08a:	f7 e8 10 08 	or	r8,r11,r8
8000b08e:	f5 e8 13 f8 	or	r8,r10,r8>>0x1f
8000b092:	f2 08 01 08 	sub	r8,r9,r8
8000b096:	f0 0c 11 00 	rsub	r12,r8,0
8000b09a:	f9 e8 10 08 	or	r8,r12,r8
8000b09e:	f0 0c 14 1f 	asr	r12,r8,0x1f
8000b0a2:	2f fc       	sub	r12,-1
8000b0a4:	5e fc       	retal	r12

8000b0a6 <__isnand>:
8000b0a6:	14 98       	mov	r8,r10
8000b0a8:	f5 db c0 1f 	bfextu	r10,r11,0x0,0x1f
8000b0ac:	f0 0c 11 00 	rsub	r12,r8,0
8000b0b0:	10 4c       	or	r12,r8
8000b0b2:	fc 18 7f f0 	movh	r8,0x7ff0
8000b0b6:	f5 ec 13 fc 	or	r12,r10,r12>>0x1f
8000b0ba:	f0 0c 01 0c 	sub	r12,r8,r12
8000b0be:	bf 9c       	lsr	r12,0x1f
8000b0c0:	5e fc       	retal	r12

8000b0c2 <strlen>:
8000b0c2:	30 09       	mov	r9,0
8000b0c4:	18 98       	mov	r8,r12
8000b0c6:	c0 28       	rjmp	8000b0ca <strlen+0x8>
8000b0c8:	2f f8       	sub	r8,-1
8000b0ca:	11 8a       	ld.ub	r10,r8[0x0]
8000b0cc:	f2 0a 18 00 	cp.b	r10,r9
8000b0d0:	cf c1       	brne	8000b0c8 <strlen+0x6>
8000b0d2:	f0 0c 01 0c 	sub	r12,r8,r12
8000b0d6:	5e fc       	retal	r12

8000b0d8 <_calloc_r>:
8000b0d8:	d4 21       	pushm	r4-r7,lr
8000b0da:	f4 0b 02 4b 	mul	r11,r10,r11
8000b0de:	fe b0 da 13 	rcall	80006504 <_malloc_r>
8000b0e2:	18 97       	mov	r7,r12
8000b0e4:	c2 30       	breq	8000b12a <_calloc_r+0x52>
8000b0e6:	f8 fa ff fc 	ld.w	r10,r12[-4]
8000b0ea:	e0 1a ff fc 	andl	r10,0xfffc
8000b0ee:	20 4a       	sub	r10,4
8000b0f0:	e0 4a 00 24 	cp.w	r10,36
8000b0f4:	e0 8b 00 18 	brhi	8000b124 <_calloc_r+0x4c>
8000b0f8:	18 98       	mov	r8,r12
8000b0fa:	59 3a       	cp.w	r10,19
8000b0fc:	e0 88 00 0f 	brls	8000b11a <_calloc_r+0x42>
8000b100:	30 09       	mov	r9,0
8000b102:	10 a9       	st.w	r8++,r9
8000b104:	10 a9       	st.w	r8++,r9
8000b106:	59 ba       	cp.w	r10,27
8000b108:	e0 88 00 09 	brls	8000b11a <_calloc_r+0x42>
8000b10c:	10 a9       	st.w	r8++,r9
8000b10e:	10 a9       	st.w	r8++,r9
8000b110:	e0 4a 00 24 	cp.w	r10,36
8000b114:	c0 31       	brne	8000b11a <_calloc_r+0x42>
8000b116:	10 a9       	st.w	r8++,r9
8000b118:	10 a9       	st.w	r8++,r9
8000b11a:	30 09       	mov	r9,0
8000b11c:	10 a9       	st.w	r8++,r9
8000b11e:	91 19       	st.w	r8[0x4],r9
8000b120:	91 09       	st.w	r8[0x0],r9
8000b122:	c0 48       	rjmp	8000b12a <_calloc_r+0x52>
8000b124:	30 0b       	mov	r11,0
8000b126:	fe b0 dc af 	rcall	80006a84 <memset>
8000b12a:	0e 9c       	mov	r12,r7
8000b12c:	d8 22       	popm	r4-r7,pc
8000b12e:	d7 03       	nop

8000b130 <_fstat_r>:
8000b130:	d4 21       	pushm	r4-r7,lr
8000b132:	16 98       	mov	r8,r11
8000b134:	18 97       	mov	r7,r12
8000b136:	10 9c       	mov	r12,r8
8000b138:	30 08       	mov	r8,0
8000b13a:	e0 66 08 24 	mov	r6,2084
8000b13e:	14 9b       	mov	r11,r10
8000b140:	8d 08       	st.w	r6[0x0],r8
8000b142:	fe b0 de 5b 	rcall	80006df8 <_fstat>
8000b146:	5b fc       	cp.w	r12,-1
8000b148:	c0 51       	brne	8000b152 <_fstat_r+0x22>
8000b14a:	6c 08       	ld.w	r8,r6[0x0]
8000b14c:	58 08       	cp.w	r8,0
8000b14e:	ef f8 1a 03 	st.wne	r7[0xc],r8
8000b152:	d8 22       	popm	r4-r7,pc

8000b154 <__avr32_f64_mul>:
8000b154:	f5 eb 10 1c 	or	r12,r10,r11<<0x1
8000b158:	e0 80 00 dc 	breq	8000b310 <__avr32_f64_mul_op1_zero>
8000b15c:	d4 21       	pushm	r4-r7,lr
8000b15e:	f7 e9 20 0e 	eor	lr,r11,r9
8000b162:	ef db c2 8b 	bfextu	r7,r11,0x14,0xb
8000b166:	30 15       	mov	r5,1
8000b168:	c4 30       	breq	8000b1ee <__avr32_f64_mul_op1_subnormal>
8000b16a:	ab 6b       	lsl	r11,0xa
8000b16c:	f7 ea 13 6b 	or	r11,r11,r10>>0x16
8000b170:	ab 6a       	lsl	r10,0xa
8000b172:	f7 d5 d3 c2 	bfins	r11,r5,0x1e,0x2
8000b176:	ed d9 c2 8b 	bfextu	r6,r9,0x14,0xb
8000b17a:	c5 c0       	breq	8000b232 <__avr32_f64_mul_op2_subnormal>
8000b17c:	a1 78       	lsl	r8,0x1
8000b17e:	5c f9       	rol	r9
8000b180:	f3 d5 d2 ab 	bfins	r9,r5,0x15,0xb
8000b184:	e0 47 07 ff 	cp.w	r7,2047
8000b188:	c7 70       	breq	8000b276 <__avr32_f64_mul_op_nan_or_inf>
8000b18a:	e0 46 07 ff 	cp.w	r6,2047
8000b18e:	c7 40       	breq	8000b276 <__avr32_f64_mul_op_nan_or_inf>
8000b190:	ee 06 00 0c 	add	r12,r7,r6
8000b194:	e0 2c 03 fe 	sub	r12,1022
8000b198:	f6 08 06 44 	mulu.d	r4,r11,r8
8000b19c:	f4 09 07 44 	macu.d	r4,r10,r9
8000b1a0:	f4 08 06 46 	mulu.d	r6,r10,r8
8000b1a4:	f6 09 06 4a 	mulu.d	r10,r11,r9
8000b1a8:	08 07       	add	r7,r4
8000b1aa:	f4 05 00 4a 	adc	r10,r10,r5
8000b1ae:	5c 0b       	acr	r11
8000b1b0:	ed bb 00 14 	bld	r11,0x14
8000b1b4:	c0 50       	breq	8000b1be <__avr32_f64_mul+0x6a>
8000b1b6:	a1 77       	lsl	r7,0x1
8000b1b8:	5c fa       	rol	r10
8000b1ba:	5c fb       	rol	r11
8000b1bc:	20 1c       	sub	r12,1
8000b1be:	58 0c       	cp.w	r12,0
8000b1c0:	e0 8a 00 6f 	brle	8000b29e <__avr32_f64_mul_res_subnormal>
8000b1c4:	e0 4c 07 ff 	cp.w	r12,2047
8000b1c8:	e0 84 00 9c 	brge	8000b300 <__avr32_f64_mul_res_inf>
8000b1cc:	f7 dc d2 8b 	bfins	r11,r12,0x14,0xb
8000b1d0:	ed ea 11 f6 	or	r6,r6,r10<<0x1f
8000b1d4:	ef e6 12 17 	or	r7,r7,r6>>0x1
8000b1d8:	ee 17 80 00 	eorh	r7,0x8000
8000b1dc:	f1 b7 04 20 	satu	r7,0x1
8000b1e0:	0e 0a       	add	r10,r7
8000b1e2:	5c 0b       	acr	r11
8000b1e4:	ed be 00 1f 	bld	lr,0x1f
8000b1e8:	ef bb 00 1f 	bst	r11,0x1f
8000b1ec:	d8 22       	popm	r4-r7,pc

8000b1ee <__avr32_f64_mul_op1_subnormal>:
8000b1ee:	e4 1b 00 0f 	andh	r11,0xf
8000b1f2:	f4 0c 12 00 	clz	r12,r10
8000b1f6:	f6 06 12 00 	clz	r6,r11
8000b1fa:	f7 bc 03 e1 	sublo	r12,-31
8000b1fe:	f8 06 17 30 	movlo	r6,r12
8000b202:	f7 b6 02 01 	subhs	r6,1
8000b206:	e0 46 00 20 	cp.w	r6,32
8000b20a:	c0 d4       	brge	8000b224 <__avr32_f64_mul_op1_subnormal+0x36>
8000b20c:	ec 0c 11 20 	rsub	r12,r6,32
8000b210:	f6 06 09 4b 	lsl	r11,r11,r6
8000b214:	f4 0c 0a 4c 	lsr	r12,r10,r12
8000b218:	18 4b       	or	r11,r12
8000b21a:	f4 06 09 4a 	lsl	r10,r10,r6
8000b21e:	20 b6       	sub	r6,11
8000b220:	0c 17       	sub	r7,r6
8000b222:	ca ab       	rjmp	8000b176 <__avr32_f64_mul+0x22>
8000b224:	f4 06 09 4b 	lsl	r11,r10,r6
8000b228:	c6 40       	breq	8000b2f0 <__avr32_f64_mul_res_zero>
8000b22a:	30 0a       	mov	r10,0
8000b22c:	20 b6       	sub	r6,11
8000b22e:	0c 17       	sub	r7,r6
8000b230:	ca 3b       	rjmp	8000b176 <__avr32_f64_mul+0x22>

8000b232 <__avr32_f64_mul_op2_subnormal>:
8000b232:	e4 19 00 0f 	andh	r9,0xf
8000b236:	f0 0c 12 00 	clz	r12,r8
8000b23a:	f2 05 12 00 	clz	r5,r9
8000b23e:	f7 bc 03 ea 	sublo	r12,-22
8000b242:	f8 05 17 30 	movlo	r5,r12
8000b246:	f7 b5 02 0a 	subhs	r5,10
8000b24a:	e0 45 00 20 	cp.w	r5,32
8000b24e:	c0 d4       	brge	8000b268 <__avr32_f64_mul_op2_subnormal+0x36>
8000b250:	ea 0c 11 20 	rsub	r12,r5,32
8000b254:	f2 05 09 49 	lsl	r9,r9,r5
8000b258:	f0 0c 0a 4c 	lsr	r12,r8,r12
8000b25c:	18 49       	or	r9,r12
8000b25e:	f0 05 09 48 	lsl	r8,r8,r5
8000b262:	20 25       	sub	r5,2
8000b264:	0a 16       	sub	r6,r5
8000b266:	c8 fb       	rjmp	8000b184 <__avr32_f64_mul+0x30>
8000b268:	f0 05 09 49 	lsl	r9,r8,r5
8000b26c:	c4 20       	breq	8000b2f0 <__avr32_f64_mul_res_zero>
8000b26e:	30 08       	mov	r8,0
8000b270:	20 25       	sub	r5,2
8000b272:	0a 16       	sub	r6,r5
8000b274:	c8 8b       	rjmp	8000b184 <__avr32_f64_mul+0x30>

8000b276 <__avr32_f64_mul_op_nan_or_inf>:
8000b276:	e4 19 00 0f 	andh	r9,0xf
8000b27a:	e4 1b 00 0f 	andh	r11,0xf
8000b27e:	14 4b       	or	r11,r10
8000b280:	10 49       	or	r9,r8
8000b282:	e0 47 07 ff 	cp.w	r7,2047
8000b286:	c0 91       	brne	8000b298 <__avr32_f64_mul_op1_not_naninf>
8000b288:	58 0b       	cp.w	r11,0
8000b28a:	c3 81       	brne	8000b2fa <__avr32_f64_mul_res_nan>
8000b28c:	e0 46 07 ff 	cp.w	r6,2047
8000b290:	c3 81       	brne	8000b300 <__avr32_f64_mul_res_inf>
8000b292:	58 09       	cp.w	r9,0
8000b294:	c3 60       	breq	8000b300 <__avr32_f64_mul_res_inf>
8000b296:	c3 28       	rjmp	8000b2fa <__avr32_f64_mul_res_nan>

8000b298 <__avr32_f64_mul_op1_not_naninf>:
8000b298:	58 09       	cp.w	r9,0
8000b29a:	c3 30       	breq	8000b300 <__avr32_f64_mul_res_inf>
8000b29c:	c2 f8       	rjmp	8000b2fa <__avr32_f64_mul_res_nan>

8000b29e <__avr32_f64_mul_res_subnormal>:
8000b29e:	5c 3c       	neg	r12
8000b2a0:	2f fc       	sub	r12,-1
8000b2a2:	f1 bc 04 c0 	satu	r12,0x6
8000b2a6:	e0 4c 00 20 	cp.w	r12,32
8000b2aa:	c1 14       	brge	8000b2cc <__avr32_f64_mul_res_subnormal+0x2e>
8000b2ac:	f8 08 11 20 	rsub	r8,r12,32
8000b2b0:	0e 46       	or	r6,r7
8000b2b2:	ee 0c 0a 47 	lsr	r7,r7,r12
8000b2b6:	f4 08 09 49 	lsl	r9,r10,r8
8000b2ba:	12 47       	or	r7,r9
8000b2bc:	f4 0c 0a 4a 	lsr	r10,r10,r12
8000b2c0:	f6 08 09 49 	lsl	r9,r11,r8
8000b2c4:	12 4a       	or	r10,r9
8000b2c6:	f6 0c 0a 4b 	lsr	r11,r11,r12
8000b2ca:	c8 3b       	rjmp	8000b1d0 <__avr32_f64_mul+0x7c>
8000b2cc:	f8 08 11 20 	rsub	r8,r12,32
8000b2d0:	f9 b9 00 00 	moveq	r9,0
8000b2d4:	c0 30       	breq	8000b2da <__avr32_f64_mul_res_subnormal+0x3c>
8000b2d6:	f6 08 09 49 	lsl	r9,r11,r8
8000b2da:	0e 46       	or	r6,r7
8000b2dc:	ed ea 10 16 	or	r6,r6,r10<<0x1
8000b2e0:	f4 0c 0a 4a 	lsr	r10,r10,r12
8000b2e4:	f3 ea 10 07 	or	r7,r9,r10
8000b2e8:	f6 0c 0a 4a 	lsr	r10,r11,r12
8000b2ec:	30 0b       	mov	r11,0
8000b2ee:	c7 1b       	rjmp	8000b1d0 <__avr32_f64_mul+0x7c>

8000b2f0 <__avr32_f64_mul_res_zero>:
8000b2f0:	1c 9b       	mov	r11,lr
8000b2f2:	e6 1b 80 00 	andh	r11,0x8000,COH
8000b2f6:	30 0a       	mov	r10,0
8000b2f8:	d8 22       	popm	r4-r7,pc

8000b2fa <__avr32_f64_mul_res_nan>:
8000b2fa:	3f fb       	mov	r11,-1
8000b2fc:	3f fa       	mov	r10,-1
8000b2fe:	d8 22       	popm	r4-r7,pc

8000b300 <__avr32_f64_mul_res_inf>:
8000b300:	f0 6b 00 00 	mov	r11,-1048576
8000b304:	ed be 00 1f 	bld	lr,0x1f
8000b308:	ef bb 00 1f 	bst	r11,0x1f
8000b30c:	30 0a       	mov	r10,0
8000b30e:	d8 22       	popm	r4-r7,pc

8000b310 <__avr32_f64_mul_op1_zero>:
8000b310:	f7 e9 20 0b 	eor	r11,r11,r9
8000b314:	e6 1b 80 00 	andh	r11,0x8000,COH
8000b318:	f9 d9 c2 8b 	bfextu	r12,r9,0x14,0xb
8000b31c:	e0 4c 07 ff 	cp.w	r12,2047
8000b320:	5e 1c       	retne	r12
8000b322:	3f fa       	mov	r10,-1
8000b324:	3f fb       	mov	r11,-1
8000b326:	5e fc       	retal	r12

8000b328 <__avr32_f64_sub_from_add>:
8000b328:	ee 19 80 00 	eorh	r9,0x8000

8000b32c <__avr32_f64_sub>:
8000b32c:	f7 e9 20 0c 	eor	r12,r11,r9
8000b330:	e0 86 00 ca 	brmi	8000b4c4 <__avr32_f64_add_from_sub>
8000b334:	eb cd 40 e0 	pushm	r5-r7,lr
8000b338:	16 9c       	mov	r12,r11
8000b33a:	e6 1c 80 00 	andh	r12,0x8000,COH
8000b33e:	bf db       	cbr	r11,0x1f
8000b340:	bf d9       	cbr	r9,0x1f
8000b342:	10 3a       	cp.w	r10,r8
8000b344:	f2 0b 13 00 	cpc	r11,r9
8000b348:	c0 92       	brcc	8000b35a <__avr32_f64_sub+0x2e>
8000b34a:	16 97       	mov	r7,r11
8000b34c:	12 9b       	mov	r11,r9
8000b34e:	0e 99       	mov	r9,r7
8000b350:	14 97       	mov	r7,r10
8000b352:	10 9a       	mov	r10,r8
8000b354:	0e 98       	mov	r8,r7
8000b356:	ee 1c 80 00 	eorh	r12,0x8000
8000b35a:	f6 07 16 14 	lsr	r7,r11,0x14
8000b35e:	ab 7b       	lsl	r11,0xb
8000b360:	f7 ea 13 5b 	or	r11,r11,r10>>0x15
8000b364:	ab 7a       	lsl	r10,0xb
8000b366:	bf bb       	sbr	r11,0x1f
8000b368:	f2 06 16 14 	lsr	r6,r9,0x14
8000b36c:	c4 40       	breq	8000b3f4 <__avr32_f64_sub_opL_subnormal>
8000b36e:	ab 79       	lsl	r9,0xb
8000b370:	f3 e8 13 59 	or	r9,r9,r8>>0x15
8000b374:	ab 78       	lsl	r8,0xb
8000b376:	bf b9       	sbr	r9,0x1f

8000b378 <__avr32_f64_sub_opL_subnormal_done>:
8000b378:	e0 47 07 ff 	cp.w	r7,2047
8000b37c:	c4 f0       	breq	8000b41a <__avr32_f64_sub_opH_nan_or_inf>
8000b37e:	0e 26       	rsub	r6,r7
8000b380:	c1 20       	breq	8000b3a4 <__avr32_f64_sub_shift_done>
8000b382:	ec 05 11 20 	rsub	r5,r6,32
8000b386:	e0 46 00 20 	cp.w	r6,32
8000b38a:	c7 c2       	brcc	8000b482 <__avr32_f64_sub_longshift>
8000b38c:	f0 05 09 4e 	lsl	lr,r8,r5
8000b390:	f2 05 09 45 	lsl	r5,r9,r5
8000b394:	f0 06 0a 48 	lsr	r8,r8,r6
8000b398:	f2 06 0a 49 	lsr	r9,r9,r6
8000b39c:	0a 48       	or	r8,r5
8000b39e:	58 0e       	cp.w	lr,0
8000b3a0:	5f 1e       	srne	lr
8000b3a2:	1c 48       	or	r8,lr

8000b3a4 <__avr32_f64_sub_shift_done>:
8000b3a4:	10 1a       	sub	r10,r8
8000b3a6:	f6 09 01 4b 	sbc	r11,r11,r9
8000b3aa:	f6 06 12 00 	clz	r6,r11
8000b3ae:	c0 e0       	breq	8000b3ca <__avr32_f64_sub_longnormalize_done>
8000b3b0:	c7 83       	brcs	8000b4a0 <__avr32_f64_sub_longnormalize>
8000b3b2:	ec 0e 11 20 	rsub	lr,r6,32
8000b3b6:	f6 06 09 4b 	lsl	r11,r11,r6
8000b3ba:	f4 0e 0a 4e 	lsr	lr,r10,lr
8000b3be:	1c 4b       	or	r11,lr
8000b3c0:	f4 06 09 4a 	lsl	r10,r10,r6
8000b3c4:	0c 17       	sub	r7,r6
8000b3c6:	e0 8a 00 39 	brle	8000b438 <__avr32_f64_sub_subnormal_result>

8000b3ca <__avr32_f64_sub_longnormalize_done>:
8000b3ca:	f4 09 15 15 	lsl	r9,r10,0x15
8000b3ce:	ab 9a       	lsr	r10,0xb
8000b3d0:	f5 eb 11 5a 	or	r10,r10,r11<<0x15
8000b3d4:	ab 9b       	lsr	r11,0xb
8000b3d6:	f7 d7 d2 8b 	bfins	r11,r7,0x14,0xb
8000b3da:	18 4b       	or	r11,r12

8000b3dc <__avr32_f64_sub_round>:
8000b3dc:	fc 17 80 00 	movh	r7,0x8000
8000b3e0:	ed ba 00 00 	bld	r10,0x0
8000b3e4:	f7 b7 01 ff 	subne	r7,-1
8000b3e8:	0e 39       	cp.w	r9,r7
8000b3ea:	5f 29       	srhs	r9
8000b3ec:	12 0a       	add	r10,r9
8000b3ee:	5c 0b       	acr	r11
8000b3f0:	e3 cd 80 e0 	ldm	sp++,r5-r7,pc

8000b3f4 <__avr32_f64_sub_opL_subnormal>:
8000b3f4:	ab 79       	lsl	r9,0xb
8000b3f6:	f3 e8 13 59 	or	r9,r9,r8>>0x15
8000b3fa:	ab 78       	lsl	r8,0xb
8000b3fc:	f3 e8 10 0e 	or	lr,r9,r8
8000b400:	f9 b6 01 01 	movne	r6,1
8000b404:	ee 0e 11 00 	rsub	lr,r7,0
8000b408:	f9 b7 00 01 	moveq	r7,1
8000b40c:	ef bb 00 1f 	bst	r11,0x1f
8000b410:	f7 ea 10 0e 	or	lr,r11,r10
8000b414:	f9 b7 00 00 	moveq	r7,0
8000b418:	cb 0b       	rjmp	8000b378 <__avr32_f64_sub_opL_subnormal_done>

8000b41a <__avr32_f64_sub_opH_nan_or_inf>:
8000b41a:	bf db       	cbr	r11,0x1f
8000b41c:	f7 ea 10 0e 	or	lr,r11,r10
8000b420:	c0 81       	brne	8000b430 <__avr32_f64_sub_return_nan>
8000b422:	e0 46 07 ff 	cp.w	r6,2047
8000b426:	c0 50       	breq	8000b430 <__avr32_f64_sub_return_nan>
8000b428:	f9 e7 11 4b 	or	r11,r12,r7<<0x14
8000b42c:	e3 cd 80 e0 	ldm	sp++,r5-r7,pc

8000b430 <__avr32_f64_sub_return_nan>:
8000b430:	3f fa       	mov	r10,-1
8000b432:	3f fb       	mov	r11,-1
8000b434:	e3 cd 80 e0 	ldm	sp++,r5-r7,pc

8000b438 <__avr32_f64_sub_subnormal_result>:
8000b438:	5c 37       	neg	r7
8000b43a:	2f f7       	sub	r7,-1
8000b43c:	f1 b7 04 c0 	satu	r7,0x6
8000b440:	e0 47 00 20 	cp.w	r7,32
8000b444:	c1 14       	brge	8000b466 <__avr32_f64_sub_subnormal_result+0x2e>
8000b446:	ee 08 11 20 	rsub	r8,r7,32
8000b44a:	f4 08 09 49 	lsl	r9,r10,r8
8000b44e:	5f 16       	srne	r6
8000b450:	f4 07 0a 4a 	lsr	r10,r10,r7
8000b454:	0c 4a       	or	r10,r6
8000b456:	f6 08 09 49 	lsl	r9,r11,r8
8000b45a:	f5 e9 10 0a 	or	r10,r10,r9
8000b45e:	f4 07 0a 4b 	lsr	r11,r10,r7
8000b462:	30 07       	mov	r7,0
8000b464:	cb 3b       	rjmp	8000b3ca <__avr32_f64_sub_longnormalize_done>
8000b466:	ee 08 11 40 	rsub	r8,r7,64
8000b46a:	f6 08 09 49 	lsl	r9,r11,r8
8000b46e:	14 49       	or	r9,r10
8000b470:	5f 16       	srne	r6
8000b472:	f6 07 0a 4a 	lsr	r10,r11,r7
8000b476:	0c 4a       	or	r10,r6
8000b478:	30 0b       	mov	r11,0
8000b47a:	30 07       	mov	r7,0
8000b47c:	ca 7b       	rjmp	8000b3ca <__avr32_f64_sub_longnormalize_done>
8000b47e:	e3 cd 80 e0 	ldm	sp++,r5-r7,pc

8000b482 <__avr32_f64_sub_longshift>:
8000b482:	f1 b6 04 c0 	satu	r6,0x6
8000b486:	f0 0e 17 00 	moveq	lr,r8
8000b48a:	c0 40       	breq	8000b492 <__avr32_f64_sub_longshift+0x10>
8000b48c:	f2 05 09 4e 	lsl	lr,r9,r5
8000b490:	10 4e       	or	lr,r8
8000b492:	f2 06 0a 48 	lsr	r8,r9,r6
8000b496:	30 09       	mov	r9,0
8000b498:	58 0e       	cp.w	lr,0
8000b49a:	5f 1e       	srne	lr
8000b49c:	1c 48       	or	r8,lr
8000b49e:	c8 3b       	rjmp	8000b3a4 <__avr32_f64_sub_shift_done>

8000b4a0 <__avr32_f64_sub_longnormalize>:
8000b4a0:	f4 06 12 00 	clz	r6,r10
8000b4a4:	f9 b7 03 00 	movlo	r7,0
8000b4a8:	f9 b6 03 00 	movlo	r6,0
8000b4ac:	f9 bc 03 00 	movlo	r12,0
8000b4b0:	f7 b6 02 e0 	subhs	r6,-32
8000b4b4:	f4 06 09 4b 	lsl	r11,r10,r6
8000b4b8:	30 0a       	mov	r10,0
8000b4ba:	0c 17       	sub	r7,r6
8000b4bc:	fe 9a ff be 	brle	8000b438 <__avr32_f64_sub_subnormal_result>
8000b4c0:	c8 5b       	rjmp	8000b3ca <__avr32_f64_sub_longnormalize_done>
8000b4c2:	d7 03       	nop

8000b4c4 <__avr32_f64_add_from_sub>:
8000b4c4:	ee 19 80 00 	eorh	r9,0x8000

8000b4c8 <__avr32_f64_add>:
8000b4c8:	f7 e9 20 0c 	eor	r12,r11,r9
8000b4cc:	fe 96 ff 2e 	brmi	8000b328 <__avr32_f64_sub_from_add>
8000b4d0:	eb cd 40 e0 	pushm	r5-r7,lr
8000b4d4:	16 9c       	mov	r12,r11
8000b4d6:	e6 1c 80 00 	andh	r12,0x8000,COH
8000b4da:	bf db       	cbr	r11,0x1f
8000b4dc:	bf d9       	cbr	r9,0x1f
8000b4de:	12 3b       	cp.w	r11,r9
8000b4e0:	c0 72       	brcc	8000b4ee <__avr32_f64_add+0x26>
8000b4e2:	16 97       	mov	r7,r11
8000b4e4:	12 9b       	mov	r11,r9
8000b4e6:	0e 99       	mov	r9,r7
8000b4e8:	14 97       	mov	r7,r10
8000b4ea:	10 9a       	mov	r10,r8
8000b4ec:	0e 98       	mov	r8,r7
8000b4ee:	30 0e       	mov	lr,0
8000b4f0:	ef db c2 8b 	bfextu	r7,r11,0x14,0xb
8000b4f4:	f7 db c0 14 	bfextu	r11,r11,0x0,0x14
8000b4f8:	b5 ab       	sbr	r11,0x14
8000b4fa:	ed d9 c2 8b 	bfextu	r6,r9,0x14,0xb
8000b4fe:	c6 20       	breq	8000b5c2 <__avr32_f64_add_op2_subnormal>
8000b500:	f3 d9 c0 14 	bfextu	r9,r9,0x0,0x14
8000b504:	b5 a9       	sbr	r9,0x14
8000b506:	e0 47 07 ff 	cp.w	r7,2047
8000b50a:	c2 80       	breq	8000b55a <__avr32_f64_add_opH_nan_or_inf>
8000b50c:	0e 26       	rsub	r6,r7
8000b50e:	c1 20       	breq	8000b532 <__avr32_f64_add_shift_done>
8000b510:	e0 46 00 36 	cp.w	r6,54
8000b514:	c1 52       	brcc	8000b53e <__avr32_f64_add_res_of_done>
8000b516:	ec 05 11 20 	rsub	r5,r6,32
8000b51a:	e0 46 00 20 	cp.w	r6,32
8000b51e:	c3 52       	brcc	8000b588 <__avr32_f64_add_longshift>
8000b520:	f0 05 09 4e 	lsl	lr,r8,r5
8000b524:	f2 05 09 45 	lsl	r5,r9,r5
8000b528:	f0 06 0a 48 	lsr	r8,r8,r6
8000b52c:	f2 06 0a 49 	lsr	r9,r9,r6
8000b530:	0a 48       	or	r8,r5

8000b532 <__avr32_f64_add_shift_done>:
8000b532:	10 0a       	add	r10,r8
8000b534:	f6 09 00 4b 	adc	r11,r11,r9
8000b538:	ed bb 00 15 	bld	r11,0x15
8000b53c:	c3 40       	breq	8000b5a4 <__avr32_f64_add_res_of>

8000b53e <__avr32_f64_add_res_of_done>:
8000b53e:	f7 d7 d2 8b 	bfins	r11,r7,0x14,0xb
8000b542:	18 4b       	or	r11,r12

8000b544 <__avr32_f64_add_round>:
8000b544:	f9 da c0 01 	bfextu	r12,r10,0x0,0x1
8000b548:	18 4e       	or	lr,r12
8000b54a:	ee 1e 80 00 	eorh	lr,0x8000
8000b54e:	f1 be 04 20 	satu	lr,0x1
8000b552:	1c 0a       	add	r10,lr
8000b554:	5c 0b       	acr	r11
8000b556:	e3 cd 80 e0 	ldm	sp++,r5-r7,pc

8000b55a <__avr32_f64_add_opH_nan_or_inf>:
8000b55a:	b5 cb       	cbr	r11,0x14
8000b55c:	f7 ea 10 0e 	or	lr,r11,r10
8000b560:	c1 01       	brne	8000b580 <__avr32_f64_add_return_nan>
8000b562:	e0 46 07 ff 	cp.w	r6,2047
8000b566:	c0 30       	breq	8000b56c <__avr32_f64_add_opL_nan_or_inf>
8000b568:	e3 cd 80 e0 	ldm	sp++,r5-r7,pc

8000b56c <__avr32_f64_add_opL_nan_or_inf>:
8000b56c:	b5 c9       	cbr	r9,0x14
8000b56e:	f3 e8 10 0e 	or	lr,r9,r8
8000b572:	c0 71       	brne	8000b580 <__avr32_f64_add_return_nan>
8000b574:	30 0a       	mov	r10,0
8000b576:	fc 1b 7f f0 	movh	r11,0x7ff0
8000b57a:	18 4b       	or	r11,r12
8000b57c:	e3 cd 80 e0 	ldm	sp++,r5-r7,pc

8000b580 <__avr32_f64_add_return_nan>:
8000b580:	3f fa       	mov	r10,-1
8000b582:	3f fb       	mov	r11,-1
8000b584:	e3 cd 80 e0 	ldm	sp++,r5-r7,pc

8000b588 <__avr32_f64_add_longshift>:
8000b588:	f1 b6 04 c0 	satu	r6,0x6
8000b58c:	f0 0e 17 00 	moveq	lr,r8
8000b590:	c0 60       	breq	8000b59c <__avr32_f64_add_longshift+0x14>
8000b592:	f2 05 09 4e 	lsl	lr,r9,r5
8000b596:	58 08       	cp.w	r8,0
8000b598:	5f 18       	srne	r8
8000b59a:	10 4e       	or	lr,r8
8000b59c:	f2 06 0a 48 	lsr	r8,r9,r6
8000b5a0:	30 09       	mov	r9,0
8000b5a2:	cc 8b       	rjmp	8000b532 <__avr32_f64_add_shift_done>

8000b5a4 <__avr32_f64_add_res_of>:
8000b5a4:	fd ee 10 1e 	or	lr,lr,lr<<0x1
8000b5a8:	a1 9b       	lsr	r11,0x1
8000b5aa:	5d 0a       	ror	r10
8000b5ac:	5d 0e       	ror	lr
8000b5ae:	2f f7       	sub	r7,-1
8000b5b0:	e0 47 07 ff 	cp.w	r7,2047
8000b5b4:	f9 ba 00 00 	moveq	r10,0
8000b5b8:	f9 bb 00 00 	moveq	r11,0
8000b5bc:	f9 be 00 00 	moveq	lr,0
8000b5c0:	cb fb       	rjmp	8000b53e <__avr32_f64_add_res_of_done>

8000b5c2 <__avr32_f64_add_op2_subnormal>:
8000b5c2:	30 16       	mov	r6,1
8000b5c4:	58 07       	cp.w	r7,0
8000b5c6:	ca 01       	brne	8000b506 <__avr32_f64_add+0x3e>
8000b5c8:	b5 cb       	cbr	r11,0x14
8000b5ca:	10 0a       	add	r10,r8
8000b5cc:	f6 09 00 4b 	adc	r11,r11,r9
8000b5d0:	18 4b       	or	r11,r12
8000b5d2:	e3 cd 80 e0 	ldm	sp++,r5-r7,pc
8000b5d6:	d7 03       	nop

8000b5d8 <__avr32_f64_to_u32>:
8000b5d8:	58 0b       	cp.w	r11,0
8000b5da:	5e 6d       	retmi	0

8000b5dc <__avr32_f64_to_s32>:
8000b5dc:	f6 0c 15 01 	lsl	r12,r11,0x1
8000b5e0:	b5 9c       	lsr	r12,0x15
8000b5e2:	e0 2c 03 ff 	sub	r12,1023
8000b5e6:	5e 3d       	retlo	0
8000b5e8:	f8 0c 11 1f 	rsub	r12,r12,31
8000b5ec:	16 99       	mov	r9,r11
8000b5ee:	ab 7b       	lsl	r11,0xb
8000b5f0:	bf bb       	sbr	r11,0x1f
8000b5f2:	f7 ea 13 5b 	or	r11,r11,r10>>0x15
8000b5f6:	f6 0c 0a 4b 	lsr	r11,r11,r12
8000b5fa:	a1 79       	lsl	r9,0x1
8000b5fc:	5e 2b       	reths	r11
8000b5fe:	5c 3b       	neg	r11
8000b600:	5e fb       	retal	r11

8000b602 <__avr32_u32_to_f64>:
8000b602:	f8 cb 00 00 	sub	r11,r12,0
8000b606:	30 0c       	mov	r12,0
8000b608:	c0 38       	rjmp	8000b60e <__avr32_s32_to_f64+0x4>

8000b60a <__avr32_s32_to_f64>:
8000b60a:	18 9b       	mov	r11,r12
8000b60c:	5c 4b       	abs	r11
8000b60e:	30 0a       	mov	r10,0
8000b610:	5e 0b       	reteq	r11
8000b612:	d4 01       	pushm	lr
8000b614:	e0 69 04 1e 	mov	r9,1054
8000b618:	f6 08 12 00 	clz	r8,r11
8000b61c:	c1 70       	breq	8000b64a <__avr32_s32_to_f64+0x40>
8000b61e:	c0 c3       	brcs	8000b636 <__avr32_s32_to_f64+0x2c>
8000b620:	f0 0e 11 20 	rsub	lr,r8,32
8000b624:	f6 08 09 4b 	lsl	r11,r11,r8
8000b628:	f4 0e 0a 4e 	lsr	lr,r10,lr
8000b62c:	1c 4b       	or	r11,lr
8000b62e:	f4 08 09 4a 	lsl	r10,r10,r8
8000b632:	10 19       	sub	r9,r8
8000b634:	c0 b8       	rjmp	8000b64a <__avr32_s32_to_f64+0x40>
8000b636:	f4 08 12 00 	clz	r8,r10
8000b63a:	f9 b8 03 00 	movlo	r8,0
8000b63e:	f7 b8 02 e0 	subhs	r8,-32
8000b642:	f4 08 09 4b 	lsl	r11,r10,r8
8000b646:	30 0a       	mov	r10,0
8000b648:	10 19       	sub	r9,r8
8000b64a:	58 09       	cp.w	r9,0
8000b64c:	e0 89 00 30 	brgt	8000b6ac <__avr32_s32_to_f64+0xa2>
8000b650:	5c 39       	neg	r9
8000b652:	2f f9       	sub	r9,-1
8000b654:	e0 49 00 36 	cp.w	r9,54
8000b658:	c0 43       	brcs	8000b660 <__avr32_s32_to_f64+0x56>
8000b65a:	30 0b       	mov	r11,0
8000b65c:	30 0a       	mov	r10,0
8000b65e:	c2 68       	rjmp	8000b6aa <__avr32_s32_to_f64+0xa0>
8000b660:	2f 69       	sub	r9,-10
8000b662:	f2 08 11 20 	rsub	r8,r9,32
8000b666:	e0 49 00 20 	cp.w	r9,32
8000b66a:	c0 b2       	brcc	8000b680 <__avr32_s32_to_f64+0x76>
8000b66c:	f4 08 09 4e 	lsl	lr,r10,r8
8000b670:	f6 08 09 48 	lsl	r8,r11,r8
8000b674:	f4 09 0a 4a 	lsr	r10,r10,r9
8000b678:	f6 09 0a 4b 	lsr	r11,r11,r9
8000b67c:	10 4b       	or	r11,r8
8000b67e:	c0 88       	rjmp	8000b68e <__avr32_s32_to_f64+0x84>
8000b680:	f6 08 09 4e 	lsl	lr,r11,r8
8000b684:	14 4e       	or	lr,r10
8000b686:	16 9a       	mov	r10,r11
8000b688:	30 0b       	mov	r11,0
8000b68a:	f4 09 0a 4a 	lsr	r10,r10,r9
8000b68e:	ed ba 00 00 	bld	r10,0x0
8000b692:	c0 92       	brcc	8000b6a4 <__avr32_s32_to_f64+0x9a>
8000b694:	1c 7e       	tst	lr,lr
8000b696:	c0 41       	brne	8000b69e <__avr32_s32_to_f64+0x94>
8000b698:	ed ba 00 01 	bld	r10,0x1
8000b69c:	c0 42       	brcc	8000b6a4 <__avr32_s32_to_f64+0x9a>
8000b69e:	2f fa       	sub	r10,-1
8000b6a0:	f7 bb 02 ff 	subhs	r11,-1
8000b6a4:	5c fc       	rol	r12
8000b6a6:	5d 0b       	ror	r11
8000b6a8:	5d 0a       	ror	r10
8000b6aa:	d8 02       	popm	pc
8000b6ac:	e0 68 03 ff 	mov	r8,1023
8000b6b0:	ed ba 00 0b 	bld	r10,0xb
8000b6b4:	f7 b8 00 ff 	subeq	r8,-1
8000b6b8:	10 0a       	add	r10,r8
8000b6ba:	5c 0b       	acr	r11
8000b6bc:	f7 b9 03 fe 	sublo	r9,-2
8000b6c0:	e0 49 07 ff 	cp.w	r9,2047
8000b6c4:	c0 55       	brlt	8000b6ce <__avr32_s32_to_f64+0xc4>
8000b6c6:	30 0a       	mov	r10,0
8000b6c8:	fc 1b ff e0 	movh	r11,0xffe0
8000b6cc:	c0 c8       	rjmp	8000b6e4 <__floatsidf_return_op1>
8000b6ce:	ed bb 00 1f 	bld	r11,0x1f
8000b6d2:	f7 b9 01 01 	subne	r9,1
8000b6d6:	ab 9a       	lsr	r10,0xb
8000b6d8:	f5 eb 11 5a 	or	r10,r10,r11<<0x15
8000b6dc:	a1 7b       	lsl	r11,0x1
8000b6de:	ab 9b       	lsr	r11,0xb
8000b6e0:	f7 e9 11 5b 	or	r11,r11,r9<<0x15

8000b6e4 <__floatsidf_return_op1>:
8000b6e4:	a1 7c       	lsl	r12,0x1
8000b6e6:	5d 0b       	ror	r11
8000b6e8:	d8 02       	popm	pc

8000b6ea <__avr32_f64_cmp_eq>:
8000b6ea:	10 3a       	cp.w	r10,r8
8000b6ec:	f2 0b 13 00 	cpc	r11,r9
8000b6f0:	c0 80       	breq	8000b700 <__avr32_f64_cmp_eq+0x16>
8000b6f2:	a1 7b       	lsl	r11,0x1
8000b6f4:	a1 79       	lsl	r9,0x1
8000b6f6:	14 4b       	or	r11,r10
8000b6f8:	12 4b       	or	r11,r9
8000b6fa:	10 4b       	or	r11,r8
8000b6fc:	5e 0f       	reteq	1
8000b6fe:	5e fd       	retal	0
8000b700:	a1 7b       	lsl	r11,0x1
8000b702:	fc 1c ff e0 	movh	r12,0xffe0
8000b706:	58 0a       	cp.w	r10,0
8000b708:	f8 0b 13 00 	cpc	r11,r12
8000b70c:	5e 8f       	retls	1
8000b70e:	5e fd       	retal	0

8000b710 <__avr32_f64_cmp_ge>:
8000b710:	1a de       	st.w	--sp,lr
8000b712:	1a d7       	st.w	--sp,r7
8000b714:	a1 7b       	lsl	r11,0x1
8000b716:	5f 3c       	srlo	r12
8000b718:	a1 79       	lsl	r9,0x1
8000b71a:	5f 37       	srlo	r7
8000b71c:	5c fc       	rol	r12
8000b71e:	fc 1e ff e0 	movh	lr,0xffe0
8000b722:	58 0a       	cp.w	r10,0
8000b724:	fc 0b 13 00 	cpc	r11,lr
8000b728:	e0 8b 00 1d 	brhi	8000b762 <__avr32_f64_cmp_ge+0x52>
8000b72c:	58 08       	cp.w	r8,0
8000b72e:	fc 09 13 00 	cpc	r9,lr
8000b732:	e0 8b 00 18 	brhi	8000b762 <__avr32_f64_cmp_ge+0x52>
8000b736:	58 0b       	cp.w	r11,0
8000b738:	f5 ba 00 00 	subfeq	r10,0
8000b73c:	c1 50       	breq	8000b766 <__avr32_f64_cmp_ge+0x56>
8000b73e:	1b 07       	ld.w	r7,sp++
8000b740:	1b 0e       	ld.w	lr,sp++
8000b742:	58 3c       	cp.w	r12,3
8000b744:	c0 a0       	breq	8000b758 <__avr32_f64_cmp_ge+0x48>
8000b746:	58 1c       	cp.w	r12,1
8000b748:	c0 33       	brcs	8000b74e <__avr32_f64_cmp_ge+0x3e>
8000b74a:	5e 0f       	reteq	1
8000b74c:	5e 1d       	retne	0
8000b74e:	10 3a       	cp.w	r10,r8
8000b750:	f2 0b 13 00 	cpc	r11,r9
8000b754:	5e 2f       	reths	1
8000b756:	5e 3d       	retlo	0
8000b758:	14 38       	cp.w	r8,r10
8000b75a:	f6 09 13 00 	cpc	r9,r11
8000b75e:	5e 2f       	reths	1
8000b760:	5e 3d       	retlo	0
8000b762:	1b 07       	ld.w	r7,sp++
8000b764:	d8 0a       	popm	pc,r12=0
8000b766:	58 17       	cp.w	r7,1
8000b768:	5f 0c       	sreq	r12
8000b76a:	58 09       	cp.w	r9,0
8000b76c:	f5 b8 00 00 	subfeq	r8,0
8000b770:	1b 07       	ld.w	r7,sp++
8000b772:	1b 0e       	ld.w	lr,sp++
8000b774:	5e 0f       	reteq	1
8000b776:	5e fc       	retal	r12

8000b778 <__avr32_f64_cmp_lt>:
8000b778:	1a de       	st.w	--sp,lr
8000b77a:	1a d7       	st.w	--sp,r7
8000b77c:	a1 7b       	lsl	r11,0x1
8000b77e:	5f 3c       	srlo	r12
8000b780:	a1 79       	lsl	r9,0x1
8000b782:	5f 37       	srlo	r7
8000b784:	5c fc       	rol	r12
8000b786:	fc 1e ff e0 	movh	lr,0xffe0
8000b78a:	58 0a       	cp.w	r10,0
8000b78c:	fc 0b 13 00 	cpc	r11,lr
8000b790:	e0 8b 00 1d 	brhi	8000b7ca <__avr32_f64_cmp_lt+0x52>
8000b794:	58 08       	cp.w	r8,0
8000b796:	fc 09 13 00 	cpc	r9,lr
8000b79a:	e0 8b 00 18 	brhi	8000b7ca <__avr32_f64_cmp_lt+0x52>
8000b79e:	58 0b       	cp.w	r11,0
8000b7a0:	f5 ba 00 00 	subfeq	r10,0
8000b7a4:	c1 50       	breq	8000b7ce <__avr32_f64_cmp_lt+0x56>
8000b7a6:	1b 07       	ld.w	r7,sp++
8000b7a8:	1b 0e       	ld.w	lr,sp++
8000b7aa:	58 3c       	cp.w	r12,3
8000b7ac:	c0 a0       	breq	8000b7c0 <__avr32_f64_cmp_lt+0x48>
8000b7ae:	58 1c       	cp.w	r12,1
8000b7b0:	c0 33       	brcs	8000b7b6 <__avr32_f64_cmp_lt+0x3e>
8000b7b2:	5e 0d       	reteq	0
8000b7b4:	5e 1f       	retne	1
8000b7b6:	10 3a       	cp.w	r10,r8
8000b7b8:	f2 0b 13 00 	cpc	r11,r9
8000b7bc:	5e 2d       	reths	0
8000b7be:	5e 3f       	retlo	1
8000b7c0:	14 38       	cp.w	r8,r10
8000b7c2:	f6 09 13 00 	cpc	r9,r11
8000b7c6:	5e 2d       	reths	0
8000b7c8:	5e 3f       	retlo	1
8000b7ca:	1b 07       	ld.w	r7,sp++
8000b7cc:	d8 0a       	popm	pc,r12=0
8000b7ce:	58 17       	cp.w	r7,1
8000b7d0:	5f 1c       	srne	r12
8000b7d2:	58 09       	cp.w	r9,0
8000b7d4:	f5 b8 00 00 	subfeq	r8,0
8000b7d8:	1b 07       	ld.w	r7,sp++
8000b7da:	1b 0e       	ld.w	lr,sp++
8000b7dc:	5e 0d       	reteq	0
8000b7de:	5e fc       	retal	r12

8000b7e0 <__avr32_f64_div>:
8000b7e0:	eb cd 40 ff 	pushm	r0-r7,lr
8000b7e4:	f7 e9 20 0e 	eor	lr,r11,r9
8000b7e8:	f6 07 16 14 	lsr	r7,r11,0x14
8000b7ec:	a9 7b       	lsl	r11,0x9
8000b7ee:	f7 ea 13 7b 	or	r11,r11,r10>>0x17
8000b7f2:	a9 7a       	lsl	r10,0x9
8000b7f4:	bd bb       	sbr	r11,0x1d
8000b7f6:	e4 1b 3f ff 	andh	r11,0x3fff
8000b7fa:	ab d7       	cbr	r7,0xb
8000b7fc:	e0 80 00 cc 	breq	8000b994 <__avr32_f64_div_round_subnormal+0x54>
8000b800:	e0 47 07 ff 	cp.w	r7,2047
8000b804:	e0 84 00 b5 	brge	8000b96e <__avr32_f64_div_round_subnormal+0x2e>
8000b808:	f2 06 16 14 	lsr	r6,r9,0x14
8000b80c:	a9 79       	lsl	r9,0x9
8000b80e:	f3 e8 13 79 	or	r9,r9,r8>>0x17
8000b812:	a9 78       	lsl	r8,0x9
8000b814:	bd b9       	sbr	r9,0x1d
8000b816:	e4 19 3f ff 	andh	r9,0x3fff
8000b81a:	ab d6       	cbr	r6,0xb
8000b81c:	e0 80 00 e2 	breq	8000b9e0 <__avr32_f64_div_round_subnormal+0xa0>
8000b820:	e0 46 07 ff 	cp.w	r6,2047
8000b824:	e0 84 00 b2 	brge	8000b988 <__avr32_f64_div_round_subnormal+0x48>
8000b828:	0c 17       	sub	r7,r6
8000b82a:	fe 37 fc 01 	sub	r7,-1023
8000b82e:	fc 1c 80 00 	movh	r12,0x8000
8000b832:	f8 03 16 01 	lsr	r3,r12,0x1
8000b836:	e9 d9 c3 62 	bfextu	r4,r9,0x1b,0x2
8000b83a:	5c d4       	com	r4
8000b83c:	e7 d4 d3 82 	bfins	r3,r4,0x1c,0x2
8000b840:	e6 09 06 44 	mulu.d	r4,r3,r9
8000b844:	f8 05 01 25 	sub	r5,r12,r5<<0x2
8000b848:	e6 05 06 44 	mulu.d	r4,r3,r5
8000b84c:	ea 03 15 02 	lsl	r3,r5,0x2
8000b850:	e6 09 06 44 	mulu.d	r4,r3,r9
8000b854:	f8 05 01 25 	sub	r5,r12,r5<<0x2
8000b858:	e6 05 06 44 	mulu.d	r4,r3,r5
8000b85c:	ea 03 15 02 	lsl	r3,r5,0x2
8000b860:	e6 09 06 44 	mulu.d	r4,r3,r9
8000b864:	f8 05 01 25 	sub	r5,r12,r5<<0x2
8000b868:	e6 05 06 44 	mulu.d	r4,r3,r5
8000b86c:	ea 03 15 02 	lsl	r3,r5,0x2
8000b870:	e6 08 06 40 	mulu.d	r0,r3,r8
8000b874:	e4 09 07 40 	macu.d	r0,r2,r9
8000b878:	e6 09 06 44 	mulu.d	r4,r3,r9
8000b87c:	02 04       	add	r4,r1
8000b87e:	5c 05       	acr	r5
8000b880:	a3 65       	lsl	r5,0x2
8000b882:	eb e4 13 e5 	or	r5,r5,r4>>0x1e
8000b886:	a3 64       	lsl	r4,0x2
8000b888:	5c 34       	neg	r4
8000b88a:	f8 05 01 45 	sbc	r5,r12,r5
8000b88e:	e6 04 06 40 	mulu.d	r0,r3,r4
8000b892:	e4 05 07 40 	macu.d	r0,r2,r5
8000b896:	e6 05 06 44 	mulu.d	r4,r3,r5
8000b89a:	02 04       	add	r4,r1
8000b89c:	5c 05       	acr	r5
8000b89e:	ea 03 15 02 	lsl	r3,r5,0x2
8000b8a2:	e7 e4 13 e3 	or	r3,r3,r4>>0x1e
8000b8a6:	e8 02 15 02 	lsl	r2,r4,0x2
8000b8aa:	e6 08 06 40 	mulu.d	r0,r3,r8
8000b8ae:	e4 09 07 40 	macu.d	r0,r2,r9
8000b8b2:	e6 09 06 44 	mulu.d	r4,r3,r9
8000b8b6:	02 04       	add	r4,r1
8000b8b8:	5c 05       	acr	r5
8000b8ba:	a3 65       	lsl	r5,0x2
8000b8bc:	eb e4 13 e5 	or	r5,r5,r4>>0x1e
8000b8c0:	a3 64       	lsl	r4,0x2
8000b8c2:	5c 34       	neg	r4
8000b8c4:	f8 05 01 45 	sbc	r5,r12,r5
8000b8c8:	e6 04 06 40 	mulu.d	r0,r3,r4
8000b8cc:	e4 05 07 40 	macu.d	r0,r2,r5
8000b8d0:	e6 05 06 44 	mulu.d	r4,r3,r5
8000b8d4:	02 04       	add	r4,r1
8000b8d6:	5c 05       	acr	r5
8000b8d8:	ea 03 15 02 	lsl	r3,r5,0x2
8000b8dc:	e7 e4 13 e3 	or	r3,r3,r4>>0x1e
8000b8e0:	e8 02 15 02 	lsl	r2,r4,0x2
8000b8e4:	e6 0a 06 40 	mulu.d	r0,r3,r10
8000b8e8:	e4 0b 07 40 	macu.d	r0,r2,r11
8000b8ec:	e6 0b 06 42 	mulu.d	r2,r3,r11
8000b8f0:	02 02       	add	r2,r1
8000b8f2:	5c 03       	acr	r3
8000b8f4:	ed b3 00 1c 	bld	r3,0x1c
8000b8f8:	c0 90       	breq	8000b90a <__avr32_f64_div+0x12a>
8000b8fa:	a1 72       	lsl	r2,0x1
8000b8fc:	5c f3       	rol	r3
8000b8fe:	20 17       	sub	r7,1
8000b900:	a3 9a       	lsr	r10,0x3
8000b902:	f5 eb 11 da 	or	r10,r10,r11<<0x1d
8000b906:	a3 9b       	lsr	r11,0x3
8000b908:	c0 58       	rjmp	8000b912 <__avr32_f64_div+0x132>
8000b90a:	a5 8a       	lsr	r10,0x4
8000b90c:	f5 eb 11 ca 	or	r10,r10,r11<<0x1c
8000b910:	a5 8b       	lsr	r11,0x4
8000b912:	58 07       	cp.w	r7,0
8000b914:	e0 8a 00 8b 	brle	8000ba2a <__avr32_f64_div_res_subnormal>
8000b918:	e0 12 ff 00 	andl	r2,0xff00
8000b91c:	e8 12 00 80 	orl	r2,0x80
8000b920:	e6 08 06 40 	mulu.d	r0,r3,r8
8000b924:	e4 09 07 40 	macu.d	r0,r2,r9
8000b928:	e4 08 06 44 	mulu.d	r4,r2,r8
8000b92c:	e6 09 06 48 	mulu.d	r8,r3,r9
8000b930:	00 05       	add	r5,r0
8000b932:	f0 01 00 48 	adc	r8,r8,r1
8000b936:	5c 09       	acr	r9
8000b938:	f9 d2 c1 01 	bfextu	r12,r2,0x8,0x1
8000b93c:	58 04       	cp.w	r4,0
8000b93e:	5c 25       	cpc	r5

8000b940 <__avr32_f64_div_round_subnormal>:
8000b940:	f4 08 13 00 	cpc	r8,r10
8000b944:	f6 09 13 00 	cpc	r9,r11
8000b948:	5f 36       	srlo	r6
8000b94a:	f8 06 17 00 	moveq	r6,r12
8000b94e:	e4 0a 16 08 	lsr	r10,r2,0x8
8000b952:	f5 e3 11 8a 	or	r10,r10,r3<<0x18
8000b956:	e6 0b 16 08 	lsr	r11,r3,0x8
8000b95a:	f7 d7 d2 8b 	bfins	r11,r7,0x14,0xb
8000b95e:	ed be 00 1f 	bld	lr,0x1f
8000b962:	ef bb 00 1f 	bst	r11,0x1f
8000b966:	0c 0a       	add	r10,r6
8000b968:	5c 0b       	acr	r11
8000b96a:	e3 cd 80 ff 	ldm	sp++,r0-r7,pc
8000b96e:	e4 1b 00 0f 	andh	r11,0xf
8000b972:	14 4b       	or	r11,r10
8000b974:	e0 81 00 a7 	brne	8000bac2 <__avr32_f64_div_res_subnormal+0x98>
8000b978:	f2 06 16 14 	lsr	r6,r9,0x14
8000b97c:	ab d6       	cbr	r6,0xb
8000b97e:	e0 46 07 ff 	cp.w	r6,2047
8000b982:	e0 81 00 a4 	brne	8000baca <__avr32_f64_div_res_subnormal+0xa0>
8000b986:	c9 e8       	rjmp	8000bac2 <__avr32_f64_div_res_subnormal+0x98>
8000b988:	e4 19 00 0f 	andh	r9,0xf
8000b98c:	10 49       	or	r9,r8
8000b98e:	e0 81 00 9a 	brne	8000bac2 <__avr32_f64_div_res_subnormal+0x98>
8000b992:	c9 28       	rjmp	8000bab6 <__avr32_f64_div_res_subnormal+0x8c>
8000b994:	a3 7b       	lsl	r11,0x3
8000b996:	f7 ea 13 db 	or	r11,r11,r10>>0x1d
8000b99a:	a3 7a       	lsl	r10,0x3
8000b99c:	f5 eb 10 04 	or	r4,r10,r11
8000b9a0:	e0 80 00 a0 	breq	8000bae0 <__avr32_f64_div_op1_zero>
8000b9a4:	f6 04 12 00 	clz	r4,r11
8000b9a8:	c1 70       	breq	8000b9d6 <__avr32_f64_div_round_subnormal+0x96>
8000b9aa:	c0 c3       	brcs	8000b9c2 <__avr32_f64_div_round_subnormal+0x82>
8000b9ac:	e8 05 11 20 	rsub	r5,r4,32
8000b9b0:	f6 04 09 4b 	lsl	r11,r11,r4
8000b9b4:	f4 05 0a 45 	lsr	r5,r10,r5
8000b9b8:	0a 4b       	or	r11,r5
8000b9ba:	f4 04 09 4a 	lsl	r10,r10,r4
8000b9be:	08 17       	sub	r7,r4
8000b9c0:	c0 b8       	rjmp	8000b9d6 <__avr32_f64_div_round_subnormal+0x96>
8000b9c2:	f4 04 12 00 	clz	r4,r10
8000b9c6:	f9 b4 03 00 	movlo	r4,0
8000b9ca:	f7 b4 02 e0 	subhs	r4,-32
8000b9ce:	f4 04 09 4b 	lsl	r11,r10,r4
8000b9d2:	30 0a       	mov	r10,0
8000b9d4:	08 17       	sub	r7,r4
8000b9d6:	a3 8a       	lsr	r10,0x2
8000b9d8:	f5 eb 11 ea 	or	r10,r10,r11<<0x1e
8000b9dc:	a3 8b       	lsr	r11,0x2
8000b9de:	c1 1b       	rjmp	8000b800 <__avr32_f64_div+0x20>
8000b9e0:	a3 79       	lsl	r9,0x3
8000b9e2:	f3 e8 13 d9 	or	r9,r9,r8>>0x1d
8000b9e6:	a3 78       	lsl	r8,0x3
8000b9e8:	f3 e8 10 04 	or	r4,r9,r8
8000b9ec:	c6 f0       	breq	8000baca <__avr32_f64_div_res_subnormal+0xa0>
8000b9ee:	f2 04 12 00 	clz	r4,r9
8000b9f2:	c1 70       	breq	8000ba20 <__avr32_f64_div_round_subnormal+0xe0>
8000b9f4:	c0 c3       	brcs	8000ba0c <__avr32_f64_div_round_subnormal+0xcc>
8000b9f6:	e8 05 11 20 	rsub	r5,r4,32
8000b9fa:	f2 04 09 49 	lsl	r9,r9,r4
8000b9fe:	f0 05 0a 45 	lsr	r5,r8,r5
8000ba02:	0a 49       	or	r9,r5
8000ba04:	f0 04 09 48 	lsl	r8,r8,r4
8000ba08:	08 16       	sub	r6,r4
8000ba0a:	c0 b8       	rjmp	8000ba20 <__avr32_f64_div_round_subnormal+0xe0>
8000ba0c:	f0 04 12 00 	clz	r4,r8
8000ba10:	f9 b4 03 00 	movlo	r4,0
8000ba14:	f7 b4 02 e0 	subhs	r4,-32
8000ba18:	f0 04 09 49 	lsl	r9,r8,r4
8000ba1c:	30 08       	mov	r8,0
8000ba1e:	08 16       	sub	r6,r4
8000ba20:	a3 88       	lsr	r8,0x2
8000ba22:	f1 e9 11 e8 	or	r8,r8,r9<<0x1e
8000ba26:	a3 89       	lsr	r9,0x2
8000ba28:	cf ca       	rjmp	8000b820 <__avr32_f64_div+0x40>

8000ba2a <__avr32_f64_div_res_subnormal>:
8000ba2a:	5c 37       	neg	r7
8000ba2c:	2f f7       	sub	r7,-1
8000ba2e:	f1 b7 04 c0 	satu	r7,0x6
8000ba32:	e0 47 00 20 	cp.w	r7,32
8000ba36:	c1 54       	brge	8000ba60 <__avr32_f64_div_res_subnormal+0x36>
8000ba38:	ee 06 11 20 	rsub	r6,r7,32
8000ba3c:	e4 07 0a 42 	lsr	r2,r2,r7
8000ba40:	e6 06 09 4c 	lsl	r12,r3,r6
8000ba44:	18 42       	or	r2,r12
8000ba46:	e6 07 0a 43 	lsr	r3,r3,r7
8000ba4a:	f4 06 09 41 	lsl	r1,r10,r6
8000ba4e:	f4 07 0a 4a 	lsr	r10,r10,r7
8000ba52:	f6 06 09 4c 	lsl	r12,r11,r6
8000ba56:	18 4a       	or	r10,r12
8000ba58:	f6 07 0a 4b 	lsr	r11,r11,r7
8000ba5c:	30 00       	mov	r0,0
8000ba5e:	c1 58       	rjmp	8000ba88 <__avr32_f64_div_res_subnormal+0x5e>
8000ba60:	ee 06 11 20 	rsub	r6,r7,32
8000ba64:	f9 b0 00 00 	moveq	r0,0
8000ba68:	f9 bc 00 00 	moveq	r12,0
8000ba6c:	c0 50       	breq	8000ba76 <__avr32_f64_div_res_subnormal+0x4c>
8000ba6e:	f4 06 09 40 	lsl	r0,r10,r6
8000ba72:	f6 06 09 4c 	lsl	r12,r11,r6
8000ba76:	e6 07 0a 42 	lsr	r2,r3,r7
8000ba7a:	30 03       	mov	r3,0
8000ba7c:	f4 07 0a 41 	lsr	r1,r10,r7
8000ba80:	18 41       	or	r1,r12
8000ba82:	f6 07 0a 4a 	lsr	r10,r11,r7
8000ba86:	30 0b       	mov	r11,0
8000ba88:	e0 12 ff 00 	andl	r2,0xff00
8000ba8c:	e8 12 00 80 	orl	r2,0x80
8000ba90:	e6 08 06 46 	mulu.d	r6,r3,r8
8000ba94:	e4 09 07 46 	macu.d	r6,r2,r9
8000ba98:	e4 08 06 44 	mulu.d	r4,r2,r8
8000ba9c:	e6 09 06 48 	mulu.d	r8,r3,r9
8000baa0:	0c 05       	add	r5,r6
8000baa2:	f0 07 00 48 	adc	r8,r8,r7
8000baa6:	5c 09       	acr	r9
8000baa8:	30 07       	mov	r7,0
8000baaa:	f9 d2 c1 01 	bfextu	r12,r2,0x8,0x1
8000baae:	00 34       	cp.w	r4,r0
8000bab0:	e2 05 13 00 	cpc	r5,r1
8000bab4:	c4 6b       	rjmp	8000b940 <__avr32_f64_div_round_subnormal>
8000bab6:	1c 9b       	mov	r11,lr
8000bab8:	e6 1b 80 00 	andh	r11,0x8000,COH
8000babc:	30 0a       	mov	r10,0
8000babe:	e3 cd 80 ff 	ldm	sp++,r0-r7,pc
8000bac2:	3f fb       	mov	r11,-1
8000bac4:	30 0a       	mov	r10,0
8000bac6:	e3 cd 80 ff 	ldm	sp++,r0-r7,pc
8000baca:	f5 eb 10 04 	or	r4,r10,r11
8000bace:	c0 90       	breq	8000bae0 <__avr32_f64_div_op1_zero>
8000bad0:	1c 9b       	mov	r11,lr
8000bad2:	e6 1b 80 00 	andh	r11,0x8000,COH
8000bad6:	ea 1b 7f f0 	orh	r11,0x7ff0
8000bada:	30 0a       	mov	r10,0
8000badc:	e3 cd 80 ff 	ldm	sp++,r0-r7,pc

8000bae0 <__avr32_f64_div_op1_zero>:
8000bae0:	f1 e9 10 15 	or	r5,r8,r9<<0x1
8000bae4:	ce f0       	breq	8000bac2 <__avr32_f64_div_res_subnormal+0x98>
8000bae6:	e9 d9 c2 8b 	bfextu	r4,r9,0x14,0xb
8000baea:	e0 44 07 ff 	cp.w	r4,2047
8000baee:	ce 41       	brne	8000bab6 <__avr32_f64_div_res_subnormal+0x8c>
8000baf0:	f1 e9 10 c5 	or	r5,r8,r9<<0xc
8000baf4:	ce 10       	breq	8000bab6 <__avr32_f64_div_res_subnormal+0x8c>
8000baf6:	ce 6b       	rjmp	8000bac2 <__avr32_f64_div_res_subnormal+0x98>

8000baf8 <__avr32_umod64>:
8000baf8:	d4 31       	pushm	r0-r7,lr
8000bafa:	1a 97       	mov	r7,sp
8000bafc:	20 3d       	sub	sp,12
8000bafe:	10 9c       	mov	r12,r8
8000bb00:	12 95       	mov	r5,r9
8000bb02:	14 9e       	mov	lr,r10
8000bb04:	16 91       	mov	r1,r11
8000bb06:	16 96       	mov	r6,r11
8000bb08:	58 09       	cp.w	r9,0
8000bb0a:	e0 81 00 81 	brne	8000bc0c <__avr32_umod64+0x114>
8000bb0e:	16 38       	cp.w	r8,r11
8000bb10:	e0 88 00 12 	brls	8000bb34 <__avr32_umod64+0x3c>
8000bb14:	f0 08 12 00 	clz	r8,r8
8000bb18:	c4 e0       	breq	8000bbb4 <__avr32_umod64+0xbc>
8000bb1a:	f6 08 09 46 	lsl	r6,r11,r8
8000bb1e:	f8 08 09 4c 	lsl	r12,r12,r8
8000bb22:	f0 0b 11 20 	rsub	r11,r8,32
8000bb26:	f4 08 09 4e 	lsl	lr,r10,r8
8000bb2a:	f4 0b 0a 4b 	lsr	r11,r10,r11
8000bb2e:	f7 e6 10 06 	or	r6,r11,r6
8000bb32:	c4 18       	rjmp	8000bbb4 <__avr32_umod64+0xbc>
8000bb34:	58 08       	cp.w	r8,0
8000bb36:	c0 51       	brne	8000bb40 <__avr32_umod64+0x48>
8000bb38:	30 19       	mov	r9,1
8000bb3a:	f2 08 0d 08 	divu	r8,r9,r8
8000bb3e:	10 9c       	mov	r12,r8
8000bb40:	f8 08 12 00 	clz	r8,r12
8000bb44:	c0 31       	brne	8000bb4a <__avr32_umod64+0x52>
8000bb46:	18 16       	sub	r6,r12
8000bb48:	c3 68       	rjmp	8000bbb4 <__avr32_umod64+0xbc>
8000bb4a:	f0 03 11 20 	rsub	r3,r8,32
8000bb4e:	f4 03 0a 4b 	lsr	r11,r10,r3
8000bb52:	f8 08 09 4c 	lsl	r12,r12,r8
8000bb56:	ec 08 09 49 	lsl	r9,r6,r8
8000bb5a:	ec 03 0a 43 	lsr	r3,r6,r3
8000bb5e:	f7 e9 10 09 	or	r9,r11,r9
8000bb62:	f8 05 16 10 	lsr	r5,r12,0x10
8000bb66:	ed dc c0 10 	bfextu	r6,r12,0x0,0x10
8000bb6a:	e6 05 0d 02 	divu	r2,r3,r5
8000bb6e:	f2 0e 16 10 	lsr	lr,r9,0x10
8000bb72:	ec 02 02 4b 	mul	r11,r6,r2
8000bb76:	fd e3 11 0e 	or	lr,lr,r3<<0x10
8000bb7a:	16 3e       	cp.w	lr,r11
8000bb7c:	c0 72       	brcc	8000bb8a <__avr32_umod64+0x92>
8000bb7e:	18 0e       	add	lr,r12
8000bb80:	18 3e       	cp.w	lr,r12
8000bb82:	c0 43       	brcs	8000bb8a <__avr32_umod64+0x92>
8000bb84:	16 3e       	cp.w	lr,r11
8000bb86:	fd dc e3 0e 	addcs	lr,lr,r12
8000bb8a:	fc 0b 01 03 	sub	r3,lr,r11
8000bb8e:	f3 d9 c0 10 	bfextu	r9,r9,0x0,0x10
8000bb92:	e6 05 0d 02 	divu	r2,r3,r5
8000bb96:	f3 e3 11 09 	or	r9,r9,r3<<0x10
8000bb9a:	a5 36       	mul	r6,r2
8000bb9c:	0c 39       	cp.w	r9,r6
8000bb9e:	c0 72       	brcc	8000bbac <__avr32_umod64+0xb4>
8000bba0:	18 09       	add	r9,r12
8000bba2:	18 39       	cp.w	r9,r12
8000bba4:	c0 43       	brcs	8000bbac <__avr32_umod64+0xb4>
8000bba6:	0c 39       	cp.w	r9,r6
8000bba8:	f3 dc e3 09 	addcs	r9,r9,r12
8000bbac:	f2 06 01 06 	sub	r6,r9,r6
8000bbb0:	f4 08 09 4e 	lsl	lr,r10,r8
8000bbb4:	f8 0a 16 10 	lsr	r10,r12,0x10
8000bbb8:	eb dc c0 10 	bfextu	r5,r12,0x0,0x10
8000bbbc:	ec 0a 0d 02 	divu	r2,r6,r10
8000bbc0:	fc 09 16 10 	lsr	r9,lr,0x10
8000bbc4:	ea 02 02 4b 	mul	r11,r5,r2
8000bbc8:	f3 e3 11 09 	or	r9,r9,r3<<0x10
8000bbcc:	16 39       	cp.w	r9,r11
8000bbce:	c0 72       	brcc	8000bbdc <__avr32_umod64+0xe4>
8000bbd0:	18 09       	add	r9,r12
8000bbd2:	18 39       	cp.w	r9,r12
8000bbd4:	c0 43       	brcs	8000bbdc <__avr32_umod64+0xe4>
8000bbd6:	16 39       	cp.w	r9,r11
8000bbd8:	f3 dc e3 09 	addcs	r9,r9,r12
8000bbdc:	f2 0b 01 0b 	sub	r11,r9,r11
8000bbe0:	fd de c0 10 	bfextu	lr,lr,0x0,0x10
8000bbe4:	f6 0a 0d 0a 	divu	r10,r11,r10
8000bbe8:	fd eb 11 0e 	or	lr,lr,r11<<0x10
8000bbec:	ea 0a 02 4a 	mul	r10,r5,r10
8000bbf0:	14 3e       	cp.w	lr,r10
8000bbf2:	c0 72       	brcc	8000bc00 <__avr32_umod64+0x108>
8000bbf4:	18 0e       	add	lr,r12
8000bbf6:	18 3e       	cp.w	lr,r12
8000bbf8:	c0 43       	brcs	8000bc00 <__avr32_umod64+0x108>
8000bbfa:	14 3e       	cp.w	lr,r10
8000bbfc:	fd dc e3 0e 	addcs	lr,lr,r12
8000bc00:	fc 0a 01 0a 	sub	r10,lr,r10
8000bc04:	30 0b       	mov	r11,0
8000bc06:	f4 08 0a 4a 	lsr	r10,r10,r8
8000bc0a:	c7 b8       	rjmp	8000bd00 <__avr32_umod64+0x208>
8000bc0c:	16 39       	cp.w	r9,r11
8000bc0e:	e0 8b 00 79 	brhi	8000bd00 <__avr32_umod64+0x208>
8000bc12:	f2 09 12 00 	clz	r9,r9
8000bc16:	c1 21       	brne	8000bc3a <__avr32_umod64+0x142>
8000bc18:	10 3a       	cp.w	r10,r8
8000bc1a:	5f 2b       	srhs	r11
8000bc1c:	0a 31       	cp.w	r1,r5
8000bc1e:	5f ba       	srhi	r10
8000bc20:	f7 ea 10 0a 	or	r10,r11,r10
8000bc24:	f2 0a 18 00 	cp.b	r10,r9
8000bc28:	c0 60       	breq	8000bc34 <__avr32_umod64+0x13c>
8000bc2a:	fc 08 01 0c 	sub	r12,lr,r8
8000bc2e:	e2 05 01 46 	sbc	r6,r1,r5
8000bc32:	18 9e       	mov	lr,r12
8000bc34:	0c 9b       	mov	r11,r6
8000bc36:	1c 9a       	mov	r10,lr
8000bc38:	c6 48       	rjmp	8000bd00 <__avr32_umod64+0x208>
8000bc3a:	ea 09 09 4c 	lsl	r12,r5,r9
8000bc3e:	f2 06 11 20 	rsub	r6,r9,32
8000bc42:	f6 09 09 4b 	lsl	r11,r11,r9
8000bc46:	f0 09 09 42 	lsl	r2,r8,r9
8000bc4a:	ef 46 ff f4 	st.w	r7[-12],r6
8000bc4e:	f0 06 0a 48 	lsr	r8,r8,r6
8000bc52:	18 48       	or	r8,r12
8000bc54:	e2 06 0a 4c 	lsr	r12,r1,r6
8000bc58:	f4 09 09 43 	lsl	r3,r10,r9
8000bc5c:	fd d8 c0 10 	bfextu	lr,r8,0x0,0x10
8000bc60:	f4 06 0a 4a 	lsr	r10,r10,r6
8000bc64:	16 4a       	or	r10,r11
8000bc66:	f0 0b 16 10 	lsr	r11,r8,0x10
8000bc6a:	f8 0b 0d 04 	divu	r4,r12,r11
8000bc6e:	f4 0c 16 10 	lsr	r12,r10,0x10
8000bc72:	08 91       	mov	r1,r4
8000bc74:	f9 e5 11 0c 	or	r12,r12,r5<<0x10
8000bc78:	e8 0e 02 46 	mul	r6,r4,lr
8000bc7c:	0c 3c       	cp.w	r12,r6
8000bc7e:	c0 a2       	brcc	8000bc92 <__avr32_umod64+0x19a>
8000bc80:	20 11       	sub	r1,1
8000bc82:	10 0c       	add	r12,r8
8000bc84:	10 3c       	cp.w	r12,r8
8000bc86:	c0 63       	brcs	8000bc92 <__avr32_umod64+0x19a>
8000bc88:	0c 3c       	cp.w	r12,r6
8000bc8a:	f7 b1 03 01 	sublo	r1,1
8000bc8e:	f9 d8 e3 0c 	addcs	r12,r12,r8
8000bc92:	0c 1c       	sub	r12,r6
8000bc94:	f5 da c0 10 	bfextu	r10,r10,0x0,0x10
8000bc98:	f8 0b 0d 04 	divu	r4,r12,r11
8000bc9c:	f5 e5 11 0b 	or	r11,r10,r5<<0x10
8000bca0:	08 96       	mov	r6,r4
8000bca2:	e8 0e 02 4e 	mul	lr,r4,lr
8000bca6:	1c 3b       	cp.w	r11,lr
8000bca8:	c0 a2       	brcc	8000bcbc <__avr32_umod64+0x1c4>
8000bcaa:	20 16       	sub	r6,1
8000bcac:	10 0b       	add	r11,r8
8000bcae:	10 3b       	cp.w	r11,r8
8000bcb0:	c0 63       	brcs	8000bcbc <__avr32_umod64+0x1c4>
8000bcb2:	1c 3b       	cp.w	r11,lr
8000bcb4:	f7 b6 03 01 	sublo	r6,1
8000bcb8:	f7 d8 e3 0b 	addcs	r11,r11,r8
8000bcbc:	ed e1 11 01 	or	r1,r6,r1<<0x10
8000bcc0:	1c 1b       	sub	r11,lr
8000bcc2:	e2 02 06 40 	mulu.d	r0,r1,r2
8000bcc6:	00 9e       	mov	lr,r0
8000bcc8:	02 9c       	mov	r12,r1
8000bcca:	16 3c       	cp.w	r12,r11
8000bccc:	e0 8b 00 08 	brhi	8000bcdc <__avr32_umod64+0x1e4>
8000bcd0:	5f 06       	sreq	r6
8000bcd2:	06 30       	cp.w	r0,r3
8000bcd4:	5f ba       	srhi	r10
8000bcd6:	ed ea 00 0a 	and	r10,r6,r10
8000bcda:	c0 60       	breq	8000bce6 <__avr32_umod64+0x1ee>
8000bcdc:	fc 02 01 04 	sub	r4,lr,r2
8000bce0:	f8 08 01 4c 	sbc	r12,r12,r8
8000bce4:	08 9e       	mov	lr,r4
8000bce6:	e6 0e 01 0a 	sub	r10,r3,lr
8000bcea:	f6 0c 01 4c 	sbc	r12,r11,r12
8000bcee:	ee f1 ff f4 	ld.w	r1,r7[-12]
8000bcf2:	f8 09 0a 4b 	lsr	r11,r12,r9
8000bcf6:	f4 09 0a 4a 	lsr	r10,r10,r9
8000bcfa:	f8 01 09 4c 	lsl	r12,r12,r1
8000bcfe:	18 4a       	or	r10,r12
8000bd00:	2f dd       	sub	sp,-12
8000bd02:	d8 32       	popm	r0-r7,pc

8000bd04 <__do_global_ctors_aux>:
8000bd04:	d4 21       	pushm	r4-r7,lr
8000bd06:	30 c7       	mov	r7,12
8000bd08:	c0 28       	rjmp	8000bd0c <__do_global_ctors_aux+0x8>
8000bd0a:	5d 18       	icall	r8
8000bd0c:	20 47       	sub	r7,4
8000bd0e:	6e 08       	ld.w	r8,r7[0x0]
8000bd10:	5b f8       	cp.w	r8,-1
8000bd12:	cf c1       	brne	8000bd0a <__do_global_ctors_aux+0x6>
8000bd14:	d8 22       	popm	r4-r7,pc
8000bd16:	d7 03       	nop

Disassembly of section .exception:

8000be00 <_evba>:
8000be00:	c0 08       	rjmp	8000be00 <_evba>
	...

8000be04 <_handle_TLB_Multiple_Hit>:
8000be04:	c0 08       	rjmp	8000be04 <_handle_TLB_Multiple_Hit>
	...

8000be08 <_handle_Bus_Error_Data_Fetch>:
8000be08:	c0 08       	rjmp	8000be08 <_handle_Bus_Error_Data_Fetch>
	...

8000be0c <_handle_Bus_Error_Instruction_Fetch>:
8000be0c:	c0 08       	rjmp	8000be0c <_handle_Bus_Error_Instruction_Fetch>
	...

8000be10 <_handle_NMI>:
8000be10:	c0 08       	rjmp	8000be10 <_handle_NMI>
	...

8000be14 <_handle_Instruction_Address>:
8000be14:	c0 08       	rjmp	8000be14 <_handle_Instruction_Address>
	...

8000be18 <_handle_ITLB_Protection>:
8000be18:	c0 08       	rjmp	8000be18 <_handle_ITLB_Protection>
	...

8000be1c <_handle_Breakpoint>:
8000be1c:	c0 08       	rjmp	8000be1c <_handle_Breakpoint>
	...

8000be20 <_handle_Illegal_Opcode>:
8000be20:	c0 08       	rjmp	8000be20 <_handle_Illegal_Opcode>
	...

8000be24 <_handle_Unimplemented_Instruction>:
8000be24:	c0 08       	rjmp	8000be24 <_handle_Unimplemented_Instruction>
	...

8000be28 <_handle_Privilege_Violation>:
8000be28:	c0 08       	rjmp	8000be28 <_handle_Privilege_Violation>
	...

8000be2c <_handle_Floating_Point>:
8000be2c:	c0 08       	rjmp	8000be2c <_handle_Floating_Point>
	...

8000be30 <_handle_Coprocessor_Absent>:
8000be30:	c0 08       	rjmp	8000be30 <_handle_Coprocessor_Absent>
	...

8000be34 <_handle_Data_Address_Read>:
8000be34:	c0 08       	rjmp	8000be34 <_handle_Data_Address_Read>
	...

8000be38 <_handle_Data_Address_Write>:
8000be38:	c0 08       	rjmp	8000be38 <_handle_Data_Address_Write>
	...

8000be3c <_handle_DTLB_Protection_Read>:
8000be3c:	c0 08       	rjmp	8000be3c <_handle_DTLB_Protection_Read>
	...

8000be40 <_handle_DTLB_Protection_Write>:
8000be40:	c0 08       	rjmp	8000be40 <_handle_DTLB_Protection_Write>
	...

8000be44 <_handle_DTLB_Modified>:
8000be44:	c0 08       	rjmp	8000be44 <_handle_DTLB_Modified>
	...

8000be50 <_handle_ITLB_Miss>:
8000be50:	c0 08       	rjmp	8000be50 <_handle_ITLB_Miss>
	...

8000be60 <_handle_DTLB_Miss_Read>:
8000be60:	c0 08       	rjmp	8000be60 <_handle_DTLB_Miss_Read>
	...

8000be70 <_handle_DTLB_Miss_Write>:
8000be70:	c0 08       	rjmp	8000be70 <_handle_DTLB_Miss_Write>
	...

8000bf00 <_handle_Supervisor_Call>:
8000bf00:	fe cf 73 6c 	sub	pc,pc,29548

8000bf04 <_int0>:
8000bf04:	30 0c       	mov	r12,0
8000bf06:	fe b0 c0 d7 	rcall	800040b4 <_get_interrupt_handler>
8000bf0a:	58 0c       	cp.w	r12,0
8000bf0c:	f8 0f 17 10 	movne	pc,r12
8000bf10:	d6 03       	rete

8000bf12 <_int1>:
8000bf12:	30 1c       	mov	r12,1
8000bf14:	fe b0 c0 d0 	rcall	800040b4 <_get_interrupt_handler>
8000bf18:	58 0c       	cp.w	r12,0
8000bf1a:	f8 0f 17 10 	movne	pc,r12
8000bf1e:	d6 03       	rete

8000bf20 <_int2>:
8000bf20:	30 2c       	mov	r12,2
8000bf22:	fe b0 c0 c9 	rcall	800040b4 <_get_interrupt_handler>
8000bf26:	58 0c       	cp.w	r12,0
8000bf28:	f8 0f 17 10 	movne	pc,r12
8000bf2c:	d6 03       	rete

8000bf2e <_int3>:
8000bf2e:	30 3c       	mov	r12,3
8000bf30:	fe b0 c0 c2 	rcall	800040b4 <_get_interrupt_handler>
8000bf34:	58 0c       	cp.w	r12,0
8000bf36:	f8 0f 17 10 	movne	pc,r12
8000bf3a:	d6 03       	rete
8000bf3c:	d7 03       	nop
8000bf3e:	d7 03       	nop
8000bf40:	d7 03       	nop
8000bf42:	d7 03       	nop
8000bf44:	d7 03       	nop
8000bf46:	d7 03       	nop
8000bf48:	d7 03       	nop
8000bf4a:	d7 03       	nop
8000bf4c:	d7 03       	nop
8000bf4e:	d7 03       	nop
8000bf50:	d7 03       	nop
8000bf52:	d7 03       	nop
8000bf54:	d7 03       	nop
8000bf56:	d7 03       	nop
8000bf58:	d7 03       	nop
8000bf5a:	d7 03       	nop
8000bf5c:	d7 03       	nop
8000bf5e:	d7 03       	nop
8000bf60:	d7 03       	nop
8000bf62:	d7 03       	nop
8000bf64:	d7 03       	nop
8000bf66:	d7 03       	nop
8000bf68:	d7 03       	nop
8000bf6a:	d7 03       	nop
8000bf6c:	d7 03       	nop
8000bf6e:	d7 03       	nop
8000bf70:	d7 03       	nop
8000bf72:	d7 03       	nop
8000bf74:	d7 03       	nop
8000bf76:	d7 03       	nop
8000bf78:	d7 03       	nop
8000bf7a:	d7 03       	nop
8000bf7c:	d7 03       	nop
8000bf7e:	d7 03       	nop
8000bf80:	d7 03       	nop
8000bf82:	d7 03       	nop
8000bf84:	d7 03       	nop
8000bf86:	d7 03       	nop
8000bf88:	d7 03       	nop
8000bf8a:	d7 03       	nop
8000bf8c:	d7 03       	nop
8000bf8e:	d7 03       	nop
8000bf90:	d7 03       	nop
8000bf92:	d7 03       	nop
8000bf94:	d7 03       	nop
8000bf96:	d7 03       	nop
8000bf98:	d7 03       	nop
8000bf9a:	d7 03       	nop
8000bf9c:	d7 03       	nop
8000bf9e:	d7 03       	nop
8000bfa0:	d7 03       	nop
8000bfa2:	d7 03       	nop
8000bfa4:	d7 03       	nop
8000bfa6:	d7 03       	nop
8000bfa8:	d7 03       	nop
8000bfaa:	d7 03       	nop
8000bfac:	d7 03       	nop
8000bfae:	d7 03       	nop
8000bfb0:	d7 03       	nop
8000bfb2:	d7 03       	nop
8000bfb4:	d7 03       	nop
8000bfb6:	d7 03       	nop
8000bfb8:	d7 03       	nop
8000bfba:	d7 03       	nop
8000bfbc:	d7 03       	nop
8000bfbe:	d7 03       	nop
8000bfc0:	d7 03       	nop
8000bfc2:	d7 03       	nop
8000bfc4:	d7 03       	nop
8000bfc6:	d7 03       	nop
8000bfc8:	d7 03       	nop
8000bfca:	d7 03       	nop
8000bfcc:	d7 03       	nop
8000bfce:	d7 03       	nop
8000bfd0:	d7 03       	nop
8000bfd2:	d7 03       	nop
8000bfd4:	d7 03       	nop
8000bfd6:	d7 03       	nop
8000bfd8:	d7 03       	nop
8000bfda:	d7 03       	nop
8000bfdc:	d7 03       	nop
8000bfde:	d7 03       	nop
8000bfe0:	d7 03       	nop
8000bfe2:	d7 03       	nop
8000bfe4:	d7 03       	nop
8000bfe6:	d7 03       	nop
8000bfe8:	d7 03       	nop
8000bfea:	d7 03       	nop
8000bfec:	d7 03       	nop
8000bfee:	d7 03       	nop
8000bff0:	d7 03       	nop
8000bff2:	d7 03       	nop
8000bff4:	d7 03       	nop
8000bff6:	d7 03       	nop
8000bff8:	d7 03       	nop
8000bffa:	d7 03       	nop
8000bffc:	d7 03       	nop
8000bffe:	d7 03       	nop

Disassembly of section .fini:

8000c000 <_fini>:
8000c000:	eb cd 40 40 	pushm	r6,lr
8000c004:	48 26       	lddpc	r6,8000c00c <_fini+0xc>
8000c006:	1e 26       	rsub	r6,pc
8000c008:	c0 48       	rjmp	8000c010 <_fini+0x10>
8000c00a:	d7 03       	nop
8000c00c:	80 00       	ld.sh	r0,r0[0x0]
8000c00e:	bf ea       	*unknown*
8000c010:	fe b0 b0 3e 	rcall	8000208c <__do_global_dtors_aux>
8000c014:	e3 cd 80 40 	ldm	sp++,r6,pc
