
GccBoardProject5.elf:     file format elf32-avr32

Sections:
Idx Name          Size      VMA       LMA       File off  Algn
  0 .reset        00002008  80000000  80000000  00000400  2**2
                  CONTENTS, ALLOC, LOAD, READONLY, CODE
  1 .rela.got     00000000  80002008  80002008  00002408  2**2
                  CONTENTS, ALLOC, LOAD, READONLY, DATA
  2 .text         00007a98  80002008  80002008  00002408  2**2
                  CONTENTS, ALLOC, LOAD, READONLY, CODE
  3 .exception    00000200  80009c00  80009c00  0000a000  2**9
                  CONTENTS, ALLOC, LOAD, READONLY, CODE
  4 .rodata       000006d8  80009e00  80009e00  0000a200  2**2
                  CONTENTS, ALLOC, LOAD, READONLY, DATA
  5 .dalign       00000004  00000004  00000004  00000000  2**0
                  ALLOC
  6 .data         00000508  00000008  8000a4d8  0000ac08  2**2
                  CONTENTS, ALLOC, LOAD, DATA
  7 .bss          00000150  00000510  00000510  00000000  2**2
                  ALLOC
  8 .heap         0000e9a0  00000660  00000660  00000000  2**0
                  ALLOC
  9 .comment      00000030  00000000  00000000  0000b110  2**0
                  CONTENTS, READONLY
 10 .debug_aranges 00000cf8  00000000  00000000  0000b140  2**3
                  CONTENTS, READONLY, DEBUGGING
 11 .debug_pubnames 000016b2  00000000  00000000  0000be38  2**0
                  CONTENTS, READONLY, DEBUGGING
 12 .debug_info   0001f20f  00000000  00000000  0000d4ea  2**0
                  CONTENTS, READONLY, DEBUGGING
 13 .debug_abbrev 00004d4a  00000000  00000000  0002c6f9  2**0
                  CONTENTS, READONLY, DEBUGGING
 14 .debug_line   0000da50  00000000  00000000  00031443  2**0
                  CONTENTS, READONLY, DEBUGGING
 15 .debug_frame  000021f0  00000000  00000000  0003ee94  2**2
                  CONTENTS, READONLY, DEBUGGING
 16 .debug_str    00003f62  00000000  00000000  00041084  2**0
                  CONTENTS, READONLY, DEBUGGING
 17 .debug_loc    000095f8  00000000  00000000  00044fe6  2**0
                  CONTENTS, READONLY, DEBUGGING
 18 .debug_macinfo 0094d696  00000000  00000000  0004e5de  2**0
                  CONTENTS, READONLY, DEBUGGING
 19 .stack        00001000  0000f000  0000f000  00000000  2**0
                  ALLOC
 20 .debug_ranges 00000d90  00000000  00000000  0099bc78  2**3
                  CONTENTS, READONLY, DEBUGGING

Disassembly of section .reset:

80000000 <_start>:
80000000:	fe cf c3 1c 	sub	pc,pc,-15588

80000004 <_trampoline>:
80000004:	e0 8f 10 00 	bral	80002004 <program_start>
	...

80002004 <program_start>:
80002004:	fe cf e3 20 	sub	pc,pc,-7392

Disassembly of section .text:

80002008 <sysclk_get_main_hz>:
80002008:	eb cd 40 80 	pushm	r7,lr
8000200c:	1a 97       	mov	r7,sp
8000200e:	e0 78 c2 00 	mov	r8,115200
80002012:	10 9c       	mov	r12,r8
80002014:	e3 cd 80 80 	ldm	sp++,r7,pc

80002018 <sysclk_get_cpu_hz>:
80002018:	eb cd 40 80 	pushm	r7,lr
8000201c:	1a 97       	mov	r7,sp
8000201e:	f0 1f 00 04 	mcall	8000202c <sysclk_get_cpu_hz+0x14>
80002022:	18 98       	mov	r8,r12
80002024:	10 9c       	mov	r12,r8
80002026:	e3 cd 80 80 	ldm	sp++,r7,pc
8000202a:	00 00       	add	r0,r0
8000202c:	80 00       	ld.sh	r0,r0[0x0]
8000202e:	20 08       	sub	r8,0

80002030 <dip204_init>:
80002030:	eb cd 40 8f 	pushm	r0-r3,r7,lr
80002034:	1a 97       	mov	r7,sp
80002036:	fa cd 01 ac 	sub	sp,sp,428
8000203a:	ef 4c fe b8 	st.w	r7[-328],r12
8000203e:	16 98       	mov	r8,r11
80002040:	ef 68 fe b4 	st.b	r7[-332],r8
80002044:	ee f8 fe b8 	ld.w	r8,r7[-328]
80002048:	58 18       	cp.w	r8,1
8000204a:	c6 41       	brne	80002112 <dip204_init+0xe2>
8000204c:	fe f9 0a 84 	ld.w	r9,pc[2692]
80002050:	30 68       	mov	r8,6
80002052:	93 08       	st.w	r9[0x0],r8
80002054:	30 2b       	mov	r11,2
80002056:	33 2c       	mov	r12,50
80002058:	f0 1f 02 9f 	mcall	80002ad4 <dip204_init+0xaa4>
8000205c:	30 08       	mov	r8,0
8000205e:	ef 48 ff 14 	st.w	r7[-236],r8
80002062:	30 08       	mov	r8,0
80002064:	ef 48 ff 10 	st.w	r7[-240],r8
80002068:	30 08       	mov	r8,0
8000206a:	ef 48 ff 1c 	st.w	r7[-228],r8
8000206e:	30 08       	mov	r8,0
80002070:	ef 48 ff 18 	st.w	r7[-232],r8
80002074:	ee c8 00 f0 	sub	r8,r7,240
80002078:	10 9c       	mov	r12,r8
8000207a:	f0 1f 02 98 	mcall	80002ad8 <dip204_init+0xaa8>
8000207e:	ef 39 fe b4 	ld.ub	r9,r7[-332]
80002082:	30 08       	mov	r8,0
80002084:	f0 09 18 00 	cp.b	r9,r8
80002088:	c0 30       	breq	8000208e <dip204_init+0x5e>
8000208a:	33 18       	mov	r8,49
8000208c:	c0 28       	rjmp	80002090 <dip204_init+0x60>
8000208e:	30 18       	mov	r8,1
80002090:	fe f9 0a 4c 	ld.w	r9,pc[2636]
80002094:	b2 08       	st.h	r9[0x0],r8
80002096:	fe fa 0a 4a 	ld.w	r10,pc[2634]
8000209a:	74 08       	ld.w	r8,r10[0x0]
8000209c:	30 09       	mov	r9,0
8000209e:	f1 d9 d1 01 	bfins	r8,r9,0x8,0x1
800020a2:	95 08       	st.w	r10[0x0],r8
800020a4:	fe fa 0a 3c 	ld.w	r10,pc[2620]
800020a8:	74 08       	ld.w	r8,r10[0x0]
800020aa:	30 09       	mov	r9,0
800020ac:	f1 d9 d1 21 	bfins	r8,r9,0x9,0x1
800020b0:	95 08       	st.w	r10[0x0],r8
800020b2:	fe fa 0a 2e 	ld.w	r10,pc[2606]
800020b6:	74 08       	ld.w	r8,r10[0x0]
800020b8:	30 19       	mov	r9,1
800020ba:	f1 d9 d1 41 	bfins	r8,r9,0xa,0x1
800020be:	95 08       	st.w	r10[0x0],r8
800020c0:	fe fa 0a 20 	ld.w	r10,pc[2592]
800020c4:	74 08       	ld.w	r8,r10[0x0]
800020c6:	30 89       	mov	r9,8
800020c8:	f1 d9 d0 04 	bfins	r8,r9,0x0,0x4
800020cc:	95 08       	st.w	r10[0x0],r8
800020ce:	fe f8 0a 0e 	ld.w	r8,pc[2574]
800020d2:	90 08       	ld.sh	r8,r8[0x0]
800020d4:	f3 d8 c0 10 	bfextu	r9,r8,0x0,0x10
800020d8:	fe f8 0a 08 	ld.w	r8,pc[2568]
800020dc:	91 19       	st.w	r8[0x4],r9
800020de:	fe f9 0a 02 	ld.w	r9,pc[2562]
800020e2:	33 28       	mov	r8,50
800020e4:	93 28       	st.w	r9[0x8],r8
800020e6:	fe f9 09 fa 	ld.w	r9,pc[2554]
800020ea:	30 08       	mov	r8,0
800020ec:	93 48       	st.w	r9[0x10],r8
800020ee:	fe f8 09 e2 	ld.w	r8,pc[2530]
800020f2:	70 08       	ld.w	r8,r8[0x0]
800020f4:	fe fb 09 ec 	ld.w	r11,pc[2540]
800020f8:	10 9c       	mov	r12,r8
800020fa:	f0 1f 02 7b 	mcall	80002ae4 <dip204_init+0xab4>
800020fe:	fe f8 09 d2 	ld.w	r8,pc[2514]
80002102:	70 09       	ld.w	r9,r8[0x0]
80002104:	30 18       	mov	r8,1
80002106:	f0 09 09 48 	lsl	r8,r8,r9
8000210a:	10 9c       	mov	r12,r8
8000210c:	f0 1f 02 77 	mcall	80002ae8 <dip204_init+0xab8>
80002110:	c0 e8       	rjmp	8000212c <dip204_init+0xfc>
80002112:	ef 39 fe b4 	ld.ub	r9,r7[-332]
80002116:	30 08       	mov	r8,0
80002118:	f0 09 18 00 	cp.b	r9,r8
8000211c:	c0 50       	breq	80002126 <dip204_init+0xf6>
8000211e:	33 2c       	mov	r12,50
80002120:	f0 1f 02 73 	mcall	80002aec <dip204_init+0xabc>
80002124:	c0 48       	rjmp	8000212c <dip204_init+0xfc>
80002126:	33 2c       	mov	r12,50
80002128:	f0 1f 02 72 	mcall	80002af0 <dip204_init+0xac0>
8000212c:	f0 1f 02 72 	mcall	80002af4 <dip204_init+0xac4>
80002130:	18 99       	mov	r9,r12
80002132:	31 48       	mov	r8,20
80002134:	ef 48 ff 24 	st.w	r7[-220],r8
80002138:	ef 49 ff 20 	st.w	r7[-224],r9
8000213c:	ee f8 ff 24 	ld.w	r8,r7[-220]
80002140:	ef 48 ff 2c 	st.w	r7[-212],r8
80002144:	ee f8 ff 20 	ld.w	r8,r7[-224]
80002148:	ef 48 ff 28 	st.w	r7[-216],r8
8000214c:	ee f0 ff 2c 	ld.w	r0,r7[-212]
80002150:	30 01       	mov	r1,0
80002152:	ee f2 ff 28 	ld.w	r2,r7[-216]
80002156:	30 03       	mov	r3,0
80002158:	e2 02 02 49 	mul	r9,r1,r2
8000215c:	e6 00 02 48 	mul	r8,r3,r0
80002160:	10 09       	add	r9,r8
80002162:	e0 02 06 4a 	mulu.d	r10,r0,r2
80002166:	16 09       	add	r9,r11
80002168:	12 9b       	mov	r11,r9
8000216a:	e0 68 03 e7 	mov	r8,999
8000216e:	30 09       	mov	r9,0
80002170:	10 0a       	add	r10,r8
80002172:	f6 09 00 4b 	adc	r11,r11,r9
80002176:	e0 68 03 e8 	mov	r8,1000
8000217a:	30 09       	mov	r9,0
8000217c:	f0 1f 02 5f 	mcall	80002af8 <dip204_init+0xac8>
80002180:	14 98       	mov	r8,r10
80002182:	16 99       	mov	r9,r11
80002184:	ef 48 ff 34 	st.w	r7[-204],r8
80002188:	ee c8 01 44 	sub	r8,r7,324
8000218c:	ef 48 ff 30 	st.w	r7[-208],r8
80002190:	e1 b8 00 42 	mfsr	r8,0x108
80002194:	10 99       	mov	r9,r8
80002196:	ee f8 ff 30 	ld.w	r8,r7[-208]
8000219a:	91 09       	st.w	r8[0x0],r9
8000219c:	ee f8 ff 30 	ld.w	r8,r7[-208]
800021a0:	70 09       	ld.w	r9,r8[0x0]
800021a2:	ee f8 ff 34 	ld.w	r8,r7[-204]
800021a6:	10 09       	add	r9,r8
800021a8:	ee f8 ff 30 	ld.w	r8,r7[-208]
800021ac:	91 19       	st.w	r8[0x4],r9
800021ae:	ee f9 ff 30 	ld.w	r9,r7[-208]
800021b2:	30 08       	mov	r8,0
800021b4:	f3 68 00 08 	st.b	r9[8],r8
800021b8:	ee c8 01 44 	sub	r8,r7,324
800021bc:	ef 48 ff 38 	st.w	r7[-200],r8
800021c0:	e1 b8 00 42 	mfsr	r8,0x108
800021c4:	ef 48 ff 3c 	st.w	r7[-196],r8
800021c8:	ee f8 ff 38 	ld.w	r8,r7[-200]
800021cc:	f1 39 00 08 	ld.ub	r9,r8[8]
800021d0:	30 28       	mov	r8,2
800021d2:	f0 09 18 00 	cp.b	r9,r8
800021d6:	c0 31       	brne	800021dc <dip204_init+0x1ac>
800021d8:	30 08       	mov	r8,0
800021da:	c4 38       	rjmp	80002260 <dip204_init+0x230>
800021dc:	ee f8 ff 38 	ld.w	r8,r7[-200]
800021e0:	f1 39 00 08 	ld.ub	r9,r8[8]
800021e4:	30 18       	mov	r8,1
800021e6:	f0 09 18 00 	cp.b	r9,r8
800021ea:	c0 31       	brne	800021f0 <dip204_init+0x1c0>
800021ec:	30 18       	mov	r8,1
800021ee:	c3 98       	rjmp	80002260 <dip204_init+0x230>
800021f0:	ee f8 ff 38 	ld.w	r8,r7[-200]
800021f4:	70 09       	ld.w	r9,r8[0x0]
800021f6:	ee f8 ff 38 	ld.w	r8,r7[-200]
800021fa:	70 18       	ld.w	r8,r8[0x4]
800021fc:	10 39       	cp.w	r9,r8
800021fe:	e0 88 00 1a 	brls	80002232 <dip204_init+0x202>
80002202:	ee f8 ff 38 	ld.w	r8,r7[-200]
80002206:	70 09       	ld.w	r9,r8[0x0]
80002208:	ee f8 ff 3c 	ld.w	r8,r7[-196]
8000220c:	12 38       	cp.w	r8,r9
8000220e:	c1 02       	brcc	8000222e <dip204_init+0x1fe>
80002210:	ee f8 ff 38 	ld.w	r8,r7[-200]
80002214:	70 19       	ld.w	r9,r8[0x4]
80002216:	ee f8 ff 3c 	ld.w	r8,r7[-196]
8000221a:	12 38       	cp.w	r8,r9
8000221c:	e0 88 00 09 	brls	8000222e <dip204_init+0x1fe>
80002220:	ee f9 ff 38 	ld.w	r9,r7[-200]
80002224:	30 18       	mov	r8,1
80002226:	f3 68 00 08 	st.b	r9[8],r8
8000222a:	30 18       	mov	r8,1
8000222c:	c1 a8       	rjmp	80002260 <dip204_init+0x230>
8000222e:	30 08       	mov	r8,0
80002230:	c1 88       	rjmp	80002260 <dip204_init+0x230>
80002232:	ee f8 ff 38 	ld.w	r8,r7[-200]
80002236:	70 09       	ld.w	r9,r8[0x0]
80002238:	ee f8 ff 3c 	ld.w	r8,r7[-196]
8000223c:	12 38       	cp.w	r8,r9
8000223e:	c0 93       	brcs	80002250 <dip204_init+0x220>
80002240:	ee f8 ff 38 	ld.w	r8,r7[-200]
80002244:	70 19       	ld.w	r9,r8[0x4]
80002246:	ee f8 ff 3c 	ld.w	r8,r7[-196]
8000224a:	12 38       	cp.w	r8,r9
8000224c:	e0 88 00 09 	brls	8000225e <dip204_init+0x22e>
80002250:	ee f9 ff 38 	ld.w	r9,r7[-200]
80002254:	30 18       	mov	r8,1
80002256:	f3 68 00 08 	st.b	r9[8],r8
8000225a:	30 18       	mov	r8,1
8000225c:	c0 28       	rjmp	80002260 <dip204_init+0x230>
8000225e:	30 08       	mov	r8,0
80002260:	58 08       	cp.w	r8,0
80002262:	ca b0       	breq	800021b8 <dip204_init+0x188>
80002264:	f0 1f 02 26 	mcall	80002afc <dip204_init+0xacc>
80002268:	e0 6c 00 f8 	mov	r12,248
8000226c:	f0 1f 02 25 	mcall	80002b00 <dip204_init+0xad0>
80002270:	33 4c       	mov	r12,52
80002272:	f0 1f 02 24 	mcall	80002b00 <dip204_init+0xad0>
80002276:	f0 1f 02 20 	mcall	80002af4 <dip204_init+0xac4>
8000227a:	18 99       	mov	r9,r12
8000227c:	30 18       	mov	r8,1
8000227e:	ef 48 ff 44 	st.w	r7[-188],r8
80002282:	ef 49 ff 40 	st.w	r7[-192],r9
80002286:	ee f8 ff 44 	ld.w	r8,r7[-188]
8000228a:	ef 48 ff 4c 	st.w	r7[-180],r8
8000228e:	ee f8 ff 40 	ld.w	r8,r7[-192]
80002292:	ef 48 ff 48 	st.w	r7[-184],r8
80002296:	ee fc ff 4c 	ld.w	r12,r7[-180]
8000229a:	ef 4c fe 60 	st.w	r7[-416],r12
8000229e:	30 0b       	mov	r11,0
800022a0:	ef 4b fe 5c 	st.w	r7[-420],r11
800022a4:	ee fa ff 48 	ld.w	r10,r7[-184]
800022a8:	ef 4a fe 58 	st.w	r7[-424],r10
800022ac:	30 09       	mov	r9,0
800022ae:	ef 49 fe 54 	st.w	r7[-428],r9
800022b2:	ee f9 fe 5c 	ld.w	r9,r7[-420]
800022b6:	ee f8 fe 58 	ld.w	r8,r7[-424]
800022ba:	b1 39       	mul	r9,r8
800022bc:	ee f8 fe 54 	ld.w	r8,r7[-428]
800022c0:	ee fc fe 60 	ld.w	r12,r7[-416]
800022c4:	b9 38       	mul	r8,r12
800022c6:	10 09       	add	r9,r8
800022c8:	ee f8 fe 60 	ld.w	r8,r7[-416]
800022cc:	ee fc fe 58 	ld.w	r12,r7[-424]
800022d0:	f0 0c 06 4a 	mulu.d	r10,r8,r12
800022d4:	16 09       	add	r9,r11
800022d6:	12 9b       	mov	r11,r9
800022d8:	e0 68 03 e7 	mov	r8,999
800022dc:	30 09       	mov	r9,0
800022de:	10 0a       	add	r10,r8
800022e0:	f6 09 00 4b 	adc	r11,r11,r9
800022e4:	e0 68 03 e8 	mov	r8,1000
800022e8:	30 09       	mov	r9,0
800022ea:	f0 1f 02 04 	mcall	80002af8 <dip204_init+0xac8>
800022ee:	14 98       	mov	r8,r10
800022f0:	16 99       	mov	r9,r11
800022f2:	ef 48 ff 54 	st.w	r7[-172],r8
800022f6:	ee c8 01 38 	sub	r8,r7,312
800022fa:	ef 48 ff 50 	st.w	r7[-176],r8
800022fe:	e1 b8 00 42 	mfsr	r8,0x108
80002302:	10 99       	mov	r9,r8
80002304:	ee f8 ff 50 	ld.w	r8,r7[-176]
80002308:	91 09       	st.w	r8[0x0],r9
8000230a:	ee f8 ff 50 	ld.w	r8,r7[-176]
8000230e:	70 09       	ld.w	r9,r8[0x0]
80002310:	ee f8 ff 54 	ld.w	r8,r7[-172]
80002314:	10 09       	add	r9,r8
80002316:	ee f8 ff 50 	ld.w	r8,r7[-176]
8000231a:	91 19       	st.w	r8[0x4],r9
8000231c:	ee f9 ff 50 	ld.w	r9,r7[-176]
80002320:	30 08       	mov	r8,0
80002322:	f3 68 00 08 	st.b	r9[8],r8
80002326:	ee c8 01 38 	sub	r8,r7,312
8000232a:	ef 48 ff 58 	st.w	r7[-168],r8
8000232e:	e1 b8 00 42 	mfsr	r8,0x108
80002332:	ef 48 ff 5c 	st.w	r7[-164],r8
80002336:	ee f8 ff 58 	ld.w	r8,r7[-168]
8000233a:	f1 39 00 08 	ld.ub	r9,r8[8]
8000233e:	30 28       	mov	r8,2
80002340:	f0 09 18 00 	cp.b	r9,r8
80002344:	c0 31       	brne	8000234a <dip204_init+0x31a>
80002346:	30 08       	mov	r8,0
80002348:	c4 38       	rjmp	800023ce <dip204_init+0x39e>
8000234a:	ee f8 ff 58 	ld.w	r8,r7[-168]
8000234e:	f1 39 00 08 	ld.ub	r9,r8[8]
80002352:	30 18       	mov	r8,1
80002354:	f0 09 18 00 	cp.b	r9,r8
80002358:	c0 31       	brne	8000235e <dip204_init+0x32e>
8000235a:	30 18       	mov	r8,1
8000235c:	c3 98       	rjmp	800023ce <dip204_init+0x39e>
8000235e:	ee f8 ff 58 	ld.w	r8,r7[-168]
80002362:	70 09       	ld.w	r9,r8[0x0]
80002364:	ee f8 ff 58 	ld.w	r8,r7[-168]
80002368:	70 18       	ld.w	r8,r8[0x4]
8000236a:	10 39       	cp.w	r9,r8
8000236c:	e0 88 00 1a 	brls	800023a0 <dip204_init+0x370>
80002370:	ee f8 ff 58 	ld.w	r8,r7[-168]
80002374:	70 09       	ld.w	r9,r8[0x0]
80002376:	ee f8 ff 5c 	ld.w	r8,r7[-164]
8000237a:	12 38       	cp.w	r8,r9
8000237c:	c1 02       	brcc	8000239c <dip204_init+0x36c>
8000237e:	ee f8 ff 58 	ld.w	r8,r7[-168]
80002382:	70 19       	ld.w	r9,r8[0x4]
80002384:	ee f8 ff 5c 	ld.w	r8,r7[-164]
80002388:	12 38       	cp.w	r8,r9
8000238a:	e0 88 00 09 	brls	8000239c <dip204_init+0x36c>
8000238e:	ee f9 ff 58 	ld.w	r9,r7[-168]
80002392:	30 18       	mov	r8,1
80002394:	f3 68 00 08 	st.b	r9[8],r8
80002398:	30 18       	mov	r8,1
8000239a:	c1 a8       	rjmp	800023ce <dip204_init+0x39e>
8000239c:	30 08       	mov	r8,0
8000239e:	c1 88       	rjmp	800023ce <dip204_init+0x39e>
800023a0:	ee f8 ff 58 	ld.w	r8,r7[-168]
800023a4:	70 09       	ld.w	r9,r8[0x0]
800023a6:	ee f8 ff 5c 	ld.w	r8,r7[-164]
800023aa:	12 38       	cp.w	r8,r9
800023ac:	c0 93       	brcs	800023be <dip204_init+0x38e>
800023ae:	ee f8 ff 58 	ld.w	r8,r7[-168]
800023b2:	70 19       	ld.w	r9,r8[0x4]
800023b4:	ee f8 ff 5c 	ld.w	r8,r7[-164]
800023b8:	12 38       	cp.w	r8,r9
800023ba:	e0 88 00 09 	brls	800023cc <dip204_init+0x39c>
800023be:	ee f9 ff 58 	ld.w	r9,r7[-168]
800023c2:	30 18       	mov	r8,1
800023c4:	f3 68 00 08 	st.b	r9[8],r8
800023c8:	30 18       	mov	r8,1
800023ca:	c0 28       	rjmp	800023ce <dip204_init+0x39e>
800023cc:	30 08       	mov	r8,0
800023ce:	58 08       	cp.w	r8,0
800023d0:	ca b0       	breq	80002326 <dip204_init+0x2f6>
800023d2:	30 9c       	mov	r12,9
800023d4:	f0 1f 01 cb 	mcall	80002b00 <dip204_init+0xad0>
800023d8:	f0 1f 01 c7 	mcall	80002af4 <dip204_init+0xac4>
800023dc:	18 99       	mov	r9,r12
800023de:	30 18       	mov	r8,1
800023e0:	ef 48 ff 64 	st.w	r7[-156],r8
800023e4:	ef 49 ff 60 	st.w	r7[-160],r9
800023e8:	ee f8 ff 64 	ld.w	r8,r7[-156]
800023ec:	ef 48 ff 6c 	st.w	r7[-148],r8
800023f0:	ee f8 ff 60 	ld.w	r8,r7[-160]
800023f4:	ef 48 ff 68 	st.w	r7[-152],r8
800023f8:	ee fb ff 6c 	ld.w	r11,r7[-148]
800023fc:	ef 4b fe 70 	st.w	r7[-400],r11
80002400:	30 0a       	mov	r10,0
80002402:	ef 4a fe 6c 	st.w	r7[-404],r10
80002406:	ee f9 ff 68 	ld.w	r9,r7[-152]
8000240a:	ef 49 fe 68 	st.w	r7[-408],r9
8000240e:	30 08       	mov	r8,0
80002410:	ef 48 fe 64 	st.w	r7[-412],r8
80002414:	ee f9 fe 6c 	ld.w	r9,r7[-404]
80002418:	ee fc fe 68 	ld.w	r12,r7[-408]
8000241c:	b9 39       	mul	r9,r12
8000241e:	ee f8 fe 64 	ld.w	r8,r7[-412]
80002422:	ee fb fe 70 	ld.w	r11,r7[-400]
80002426:	b7 38       	mul	r8,r11
80002428:	10 09       	add	r9,r8
8000242a:	ee f8 fe 70 	ld.w	r8,r7[-400]
8000242e:	ee fc fe 68 	ld.w	r12,r7[-408]
80002432:	f0 0c 06 4a 	mulu.d	r10,r8,r12
80002436:	16 09       	add	r9,r11
80002438:	12 9b       	mov	r11,r9
8000243a:	e0 68 03 e7 	mov	r8,999
8000243e:	30 09       	mov	r9,0
80002440:	10 0a       	add	r10,r8
80002442:	f6 09 00 4b 	adc	r11,r11,r9
80002446:	e0 68 03 e8 	mov	r8,1000
8000244a:	30 09       	mov	r9,0
8000244c:	f0 1f 01 ab 	mcall	80002af8 <dip204_init+0xac8>
80002450:	14 98       	mov	r8,r10
80002452:	16 99       	mov	r9,r11
80002454:	ef 48 ff 74 	st.w	r7[-140],r8
80002458:	ee c8 01 2c 	sub	r8,r7,300
8000245c:	ef 48 ff 70 	st.w	r7[-144],r8
80002460:	e1 b8 00 42 	mfsr	r8,0x108
80002464:	10 99       	mov	r9,r8
80002466:	ee f8 ff 70 	ld.w	r8,r7[-144]
8000246a:	91 09       	st.w	r8[0x0],r9
8000246c:	ee f8 ff 70 	ld.w	r8,r7[-144]
80002470:	70 09       	ld.w	r9,r8[0x0]
80002472:	ee f8 ff 74 	ld.w	r8,r7[-140]
80002476:	10 09       	add	r9,r8
80002478:	ee f8 ff 70 	ld.w	r8,r7[-144]
8000247c:	91 19       	st.w	r8[0x4],r9
8000247e:	ee f9 ff 70 	ld.w	r9,r7[-144]
80002482:	30 08       	mov	r8,0
80002484:	f3 68 00 08 	st.b	r9[8],r8
80002488:	ee c8 01 2c 	sub	r8,r7,300
8000248c:	ef 48 ff 78 	st.w	r7[-136],r8
80002490:	e1 b8 00 42 	mfsr	r8,0x108
80002494:	ef 48 ff 7c 	st.w	r7[-132],r8
80002498:	ee f8 ff 78 	ld.w	r8,r7[-136]
8000249c:	f1 39 00 08 	ld.ub	r9,r8[8]
800024a0:	30 28       	mov	r8,2
800024a2:	f0 09 18 00 	cp.b	r9,r8
800024a6:	c0 31       	brne	800024ac <dip204_init+0x47c>
800024a8:	30 08       	mov	r8,0
800024aa:	c4 38       	rjmp	80002530 <dip204_init+0x500>
800024ac:	ee f8 ff 78 	ld.w	r8,r7[-136]
800024b0:	f1 39 00 08 	ld.ub	r9,r8[8]
800024b4:	30 18       	mov	r8,1
800024b6:	f0 09 18 00 	cp.b	r9,r8
800024ba:	c0 31       	brne	800024c0 <dip204_init+0x490>
800024bc:	30 18       	mov	r8,1
800024be:	c3 98       	rjmp	80002530 <dip204_init+0x500>
800024c0:	ee f8 ff 78 	ld.w	r8,r7[-136]
800024c4:	70 09       	ld.w	r9,r8[0x0]
800024c6:	ee f8 ff 78 	ld.w	r8,r7[-136]
800024ca:	70 18       	ld.w	r8,r8[0x4]
800024cc:	10 39       	cp.w	r9,r8
800024ce:	e0 88 00 1a 	brls	80002502 <dip204_init+0x4d2>
800024d2:	ee f8 ff 78 	ld.w	r8,r7[-136]
800024d6:	70 09       	ld.w	r9,r8[0x0]
800024d8:	ee f8 ff 7c 	ld.w	r8,r7[-132]
800024dc:	12 38       	cp.w	r8,r9
800024de:	c1 02       	brcc	800024fe <dip204_init+0x4ce>
800024e0:	ee f8 ff 78 	ld.w	r8,r7[-136]
800024e4:	70 19       	ld.w	r9,r8[0x4]
800024e6:	ee f8 ff 7c 	ld.w	r8,r7[-132]
800024ea:	12 38       	cp.w	r8,r9
800024ec:	e0 88 00 09 	brls	800024fe <dip204_init+0x4ce>
800024f0:	ee f9 ff 78 	ld.w	r9,r7[-136]
800024f4:	30 18       	mov	r8,1
800024f6:	f3 68 00 08 	st.b	r9[8],r8
800024fa:	30 18       	mov	r8,1
800024fc:	c1 a8       	rjmp	80002530 <dip204_init+0x500>
800024fe:	30 08       	mov	r8,0
80002500:	c1 88       	rjmp	80002530 <dip204_init+0x500>
80002502:	ee f8 ff 78 	ld.w	r8,r7[-136]
80002506:	70 09       	ld.w	r9,r8[0x0]
80002508:	ee f8 ff 7c 	ld.w	r8,r7[-132]
8000250c:	12 38       	cp.w	r8,r9
8000250e:	c0 93       	brcs	80002520 <dip204_init+0x4f0>
80002510:	ee f8 ff 78 	ld.w	r8,r7[-136]
80002514:	70 19       	ld.w	r9,r8[0x4]
80002516:	ee f8 ff 7c 	ld.w	r8,r7[-132]
8000251a:	12 38       	cp.w	r8,r9
8000251c:	e0 88 00 09 	brls	8000252e <dip204_init+0x4fe>
80002520:	ee f9 ff 78 	ld.w	r9,r7[-136]
80002524:	30 18       	mov	r8,1
80002526:	f3 68 00 08 	st.b	r9[8],r8
8000252a:	30 18       	mov	r8,1
8000252c:	c0 28       	rjmp	80002530 <dip204_init+0x500>
8000252e:	30 08       	mov	r8,0
80002530:	58 08       	cp.w	r8,0
80002532:	ca b0       	breq	80002488 <dip204_init+0x458>
80002534:	33 0c       	mov	r12,48
80002536:	f0 1f 01 73 	mcall	80002b00 <dip204_init+0xad0>
8000253a:	f0 1f 01 6f 	mcall	80002af4 <dip204_init+0xac4>
8000253e:	18 99       	mov	r9,r12
80002540:	30 18       	mov	r8,1
80002542:	ef 48 ff 84 	st.w	r7[-124],r8
80002546:	ef 49 ff 80 	st.w	r7[-128],r9
8000254a:	ee f8 ff 84 	ld.w	r8,r7[-124]
8000254e:	ef 48 ff 8c 	st.w	r7[-116],r8
80002552:	ee f8 ff 80 	ld.w	r8,r7[-128]
80002556:	ef 48 ff 88 	st.w	r7[-120],r8
8000255a:	ee fb ff 8c 	ld.w	r11,r7[-116]
8000255e:	ef 4b fe 80 	st.w	r7[-384],r11
80002562:	30 0a       	mov	r10,0
80002564:	ef 4a fe 7c 	st.w	r7[-388],r10
80002568:	ee f9 ff 88 	ld.w	r9,r7[-120]
8000256c:	ef 49 fe 78 	st.w	r7[-392],r9
80002570:	30 08       	mov	r8,0
80002572:	ef 48 fe 74 	st.w	r7[-396],r8
80002576:	ee f9 fe 7c 	ld.w	r9,r7[-388]
8000257a:	ee fc fe 78 	ld.w	r12,r7[-392]
8000257e:	b9 39       	mul	r9,r12
80002580:	ee f8 fe 74 	ld.w	r8,r7[-396]
80002584:	ee fb fe 80 	ld.w	r11,r7[-384]
80002588:	b7 38       	mul	r8,r11
8000258a:	10 09       	add	r9,r8
8000258c:	ee f8 fe 80 	ld.w	r8,r7[-384]
80002590:	ee fc fe 78 	ld.w	r12,r7[-392]
80002594:	f0 0c 06 4a 	mulu.d	r10,r8,r12
80002598:	16 09       	add	r9,r11
8000259a:	12 9b       	mov	r11,r9
8000259c:	e0 68 03 e7 	mov	r8,999
800025a0:	30 09       	mov	r9,0
800025a2:	10 0a       	add	r10,r8
800025a4:	f6 09 00 4b 	adc	r11,r11,r9
800025a8:	e0 68 03 e8 	mov	r8,1000
800025ac:	30 09       	mov	r9,0
800025ae:	f0 1f 01 53 	mcall	80002af8 <dip204_init+0xac8>
800025b2:	14 98       	mov	r8,r10
800025b4:	16 99       	mov	r9,r11
800025b6:	ef 48 ff 94 	st.w	r7[-108],r8
800025ba:	ee c8 01 20 	sub	r8,r7,288
800025be:	ef 48 ff 90 	st.w	r7[-112],r8
800025c2:	e1 b8 00 42 	mfsr	r8,0x108
800025c6:	10 99       	mov	r9,r8
800025c8:	ee f8 ff 90 	ld.w	r8,r7[-112]
800025cc:	91 09       	st.w	r8[0x0],r9
800025ce:	ee f8 ff 90 	ld.w	r8,r7[-112]
800025d2:	70 09       	ld.w	r9,r8[0x0]
800025d4:	ee f8 ff 94 	ld.w	r8,r7[-108]
800025d8:	10 09       	add	r9,r8
800025da:	ee f8 ff 90 	ld.w	r8,r7[-112]
800025de:	91 19       	st.w	r8[0x4],r9
800025e0:	ee f9 ff 90 	ld.w	r9,r7[-112]
800025e4:	30 08       	mov	r8,0
800025e6:	f3 68 00 08 	st.b	r9[8],r8
800025ea:	ee c8 01 20 	sub	r8,r7,288
800025ee:	ef 48 ff 98 	st.w	r7[-104],r8
800025f2:	e1 b8 00 42 	mfsr	r8,0x108
800025f6:	ef 48 ff 9c 	st.w	r7[-100],r8
800025fa:	ee f8 ff 98 	ld.w	r8,r7[-104]
800025fe:	f1 39 00 08 	ld.ub	r9,r8[8]
80002602:	30 28       	mov	r8,2
80002604:	f0 09 18 00 	cp.b	r9,r8
80002608:	c0 31       	brne	8000260e <dip204_init+0x5de>
8000260a:	30 08       	mov	r8,0
8000260c:	c4 38       	rjmp	80002692 <dip204_init+0x662>
8000260e:	ee f8 ff 98 	ld.w	r8,r7[-104]
80002612:	f1 39 00 08 	ld.ub	r9,r8[8]
80002616:	30 18       	mov	r8,1
80002618:	f0 09 18 00 	cp.b	r9,r8
8000261c:	c0 31       	brne	80002622 <dip204_init+0x5f2>
8000261e:	30 18       	mov	r8,1
80002620:	c3 98       	rjmp	80002692 <dip204_init+0x662>
80002622:	ee f8 ff 98 	ld.w	r8,r7[-104]
80002626:	70 09       	ld.w	r9,r8[0x0]
80002628:	ee f8 ff 98 	ld.w	r8,r7[-104]
8000262c:	70 18       	ld.w	r8,r8[0x4]
8000262e:	10 39       	cp.w	r9,r8
80002630:	e0 88 00 1a 	brls	80002664 <dip204_init+0x634>
80002634:	ee f8 ff 98 	ld.w	r8,r7[-104]
80002638:	70 08       	ld.w	r8,r8[0x0]
8000263a:	ee f9 ff 9c 	ld.w	r9,r7[-100]
8000263e:	10 39       	cp.w	r9,r8
80002640:	c1 02       	brcc	80002660 <dip204_init+0x630>
80002642:	ee f8 ff 98 	ld.w	r8,r7[-104]
80002646:	70 18       	ld.w	r8,r8[0x4]
80002648:	ee f9 ff 9c 	ld.w	r9,r7[-100]
8000264c:	10 39       	cp.w	r9,r8
8000264e:	e0 88 00 09 	brls	80002660 <dip204_init+0x630>
80002652:	ee f9 ff 98 	ld.w	r9,r7[-104]
80002656:	30 18       	mov	r8,1
80002658:	f3 68 00 08 	st.b	r9[8],r8
8000265c:	30 18       	mov	r8,1
8000265e:	c1 a8       	rjmp	80002692 <dip204_init+0x662>
80002660:	30 08       	mov	r8,0
80002662:	c1 88       	rjmp	80002692 <dip204_init+0x662>
80002664:	ee f8 ff 98 	ld.w	r8,r7[-104]
80002668:	70 08       	ld.w	r8,r8[0x0]
8000266a:	ee f9 ff 9c 	ld.w	r9,r7[-100]
8000266e:	10 39       	cp.w	r9,r8
80002670:	c0 93       	brcs	80002682 <dip204_init+0x652>
80002672:	ee f8 ff 98 	ld.w	r8,r7[-104]
80002676:	70 18       	ld.w	r8,r8[0x4]
80002678:	ee f9 ff 9c 	ld.w	r9,r7[-100]
8000267c:	10 39       	cp.w	r9,r8
8000267e:	e0 88 00 09 	brls	80002690 <dip204_init+0x660>
80002682:	ee f9 ff 98 	ld.w	r9,r7[-104]
80002686:	30 18       	mov	r8,1
80002688:	f3 68 00 08 	st.b	r9[8],r8
8000268c:	30 18       	mov	r8,1
8000268e:	c0 28       	rjmp	80002692 <dip204_init+0x662>
80002690:	30 08       	mov	r8,0
80002692:	58 08       	cp.w	r8,0
80002694:	ca b0       	breq	800025ea <dip204_init+0x5ba>
80002696:	30 fc       	mov	r12,15
80002698:	f0 1f 01 1a 	mcall	80002b00 <dip204_init+0xad0>
8000269c:	f0 1f 01 16 	mcall	80002af4 <dip204_init+0xac4>
800026a0:	18 98       	mov	r8,r12
800026a2:	30 19       	mov	r9,1
800026a4:	ef 49 ff a4 	st.w	r7[-92],r9
800026a8:	ef 48 ff a0 	st.w	r7[-96],r8
800026ac:	ee f8 ff a4 	ld.w	r8,r7[-92]
800026b0:	ef 48 ff ac 	st.w	r7[-84],r8
800026b4:	ee f8 ff a0 	ld.w	r8,r7[-96]
800026b8:	ef 48 ff a8 	st.w	r7[-88],r8
800026bc:	ee fb ff ac 	ld.w	r11,r7[-84]
800026c0:	ef 4b fe 90 	st.w	r7[-368],r11
800026c4:	30 0a       	mov	r10,0
800026c6:	ef 4a fe 8c 	st.w	r7[-372],r10
800026ca:	ee f9 ff a8 	ld.w	r9,r7[-88]
800026ce:	ef 49 fe 88 	st.w	r7[-376],r9
800026d2:	30 08       	mov	r8,0
800026d4:	ef 48 fe 84 	st.w	r7[-380],r8
800026d8:	ee fa fe 8c 	ld.w	r10,r7[-372]
800026dc:	ee fc fe 88 	ld.w	r12,r7[-376]
800026e0:	b9 3a       	mul	r10,r12
800026e2:	ee f8 fe 84 	ld.w	r8,r7[-380]
800026e6:	ee fb fe 90 	ld.w	r11,r7[-368]
800026ea:	b7 38       	mul	r8,r11
800026ec:	10 0a       	add	r10,r8
800026ee:	ee fc fe 90 	ld.w	r12,r7[-368]
800026f2:	ee fb fe 88 	ld.w	r11,r7[-376]
800026f6:	f8 0b 06 48 	mulu.d	r8,r12,r11
800026fa:	12 0a       	add	r10,r9
800026fc:	14 99       	mov	r9,r10
800026fe:	e0 6a 03 e7 	mov	r10,999
80002702:	30 0b       	mov	r11,0
80002704:	f0 0a 00 0a 	add	r10,r8,r10
80002708:	f2 0b 00 4b 	adc	r11,r9,r11
8000270c:	e0 68 03 e8 	mov	r8,1000
80002710:	30 09       	mov	r9,0
80002712:	f0 1f 00 fa 	mcall	80002af8 <dip204_init+0xac8>
80002716:	14 98       	mov	r8,r10
80002718:	16 99       	mov	r9,r11
8000271a:	ef 48 ff b4 	st.w	r7[-76],r8
8000271e:	ee c8 01 14 	sub	r8,r7,276
80002722:	ef 48 ff b0 	st.w	r7[-80],r8
80002726:	e1 b8 00 42 	mfsr	r8,0x108
8000272a:	10 99       	mov	r9,r8
8000272c:	ee f8 ff b0 	ld.w	r8,r7[-80]
80002730:	91 09       	st.w	r8[0x0],r9
80002732:	ee f8 ff b0 	ld.w	r8,r7[-80]
80002736:	70 09       	ld.w	r9,r8[0x0]
80002738:	ee f8 ff b4 	ld.w	r8,r7[-76]
8000273c:	10 09       	add	r9,r8
8000273e:	ee f8 ff b0 	ld.w	r8,r7[-80]
80002742:	91 19       	st.w	r8[0x4],r9
80002744:	ee f9 ff b0 	ld.w	r9,r7[-80]
80002748:	30 08       	mov	r8,0
8000274a:	f3 68 00 08 	st.b	r9[8],r8
8000274e:	ee c8 01 14 	sub	r8,r7,276
80002752:	ef 48 ff b8 	st.w	r7[-72],r8
80002756:	e1 b8 00 42 	mfsr	r8,0x108
8000275a:	ef 48 ff bc 	st.w	r7[-68],r8
8000275e:	ee f8 ff b8 	ld.w	r8,r7[-72]
80002762:	f1 39 00 08 	ld.ub	r9,r8[8]
80002766:	30 28       	mov	r8,2
80002768:	f0 09 18 00 	cp.b	r9,r8
8000276c:	c0 31       	brne	80002772 <dip204_init+0x742>
8000276e:	30 08       	mov	r8,0
80002770:	c4 38       	rjmp	800027f6 <dip204_init+0x7c6>
80002772:	ee f8 ff b8 	ld.w	r8,r7[-72]
80002776:	f1 39 00 08 	ld.ub	r9,r8[8]
8000277a:	30 18       	mov	r8,1
8000277c:	f0 09 18 00 	cp.b	r9,r8
80002780:	c0 31       	brne	80002786 <dip204_init+0x756>
80002782:	30 18       	mov	r8,1
80002784:	c3 98       	rjmp	800027f6 <dip204_init+0x7c6>
80002786:	ee f8 ff b8 	ld.w	r8,r7[-72]
8000278a:	70 09       	ld.w	r9,r8[0x0]
8000278c:	ee f8 ff b8 	ld.w	r8,r7[-72]
80002790:	70 18       	ld.w	r8,r8[0x4]
80002792:	10 39       	cp.w	r9,r8
80002794:	e0 88 00 1a 	brls	800027c8 <dip204_init+0x798>
80002798:	ee f8 ff b8 	ld.w	r8,r7[-72]
8000279c:	70 08       	ld.w	r8,r8[0x0]
8000279e:	ee f9 ff bc 	ld.w	r9,r7[-68]
800027a2:	10 39       	cp.w	r9,r8
800027a4:	c1 02       	brcc	800027c4 <dip204_init+0x794>
800027a6:	ee f8 ff b8 	ld.w	r8,r7[-72]
800027aa:	70 18       	ld.w	r8,r8[0x4]
800027ac:	ee f9 ff bc 	ld.w	r9,r7[-68]
800027b0:	10 39       	cp.w	r9,r8
800027b2:	e0 88 00 09 	brls	800027c4 <dip204_init+0x794>
800027b6:	ee f9 ff b8 	ld.w	r9,r7[-72]
800027ba:	30 18       	mov	r8,1
800027bc:	f3 68 00 08 	st.b	r9[8],r8
800027c0:	30 18       	mov	r8,1
800027c2:	c1 a8       	rjmp	800027f6 <dip204_init+0x7c6>
800027c4:	30 08       	mov	r8,0
800027c6:	c1 88       	rjmp	800027f6 <dip204_init+0x7c6>
800027c8:	ee f8 ff b8 	ld.w	r8,r7[-72]
800027cc:	70 08       	ld.w	r8,r8[0x0]
800027ce:	ee f9 ff bc 	ld.w	r9,r7[-68]
800027d2:	10 39       	cp.w	r9,r8
800027d4:	c0 93       	brcs	800027e6 <dip204_init+0x7b6>
800027d6:	ee f8 ff b8 	ld.w	r8,r7[-72]
800027da:	70 18       	ld.w	r8,r8[0x4]
800027dc:	ee f9 ff bc 	ld.w	r9,r7[-68]
800027e0:	10 39       	cp.w	r9,r8
800027e2:	e0 88 00 09 	brls	800027f4 <dip204_init+0x7c4>
800027e6:	ee f9 ff b8 	ld.w	r9,r7[-72]
800027ea:	30 18       	mov	r8,1
800027ec:	f3 68 00 08 	st.b	r9[8],r8
800027f0:	30 18       	mov	r8,1
800027f2:	c0 28       	rjmp	800027f6 <dip204_init+0x7c6>
800027f4:	30 08       	mov	r8,0
800027f6:	58 08       	cp.w	r8,0
800027f8:	ca b0       	breq	8000274e <dip204_init+0x71e>
800027fa:	30 1c       	mov	r12,1
800027fc:	f0 1f 00 c1 	mcall	80002b00 <dip204_init+0xad0>
80002800:	f0 1f 00 bd 	mcall	80002af4 <dip204_init+0xac4>
80002804:	18 98       	mov	r8,r12
80002806:	30 59       	mov	r9,5
80002808:	ef 49 ff c4 	st.w	r7[-60],r9
8000280c:	ef 48 ff c0 	st.w	r7[-64],r8
80002810:	ee f8 ff c4 	ld.w	r8,r7[-60]
80002814:	ef 48 ff cc 	st.w	r7[-52],r8
80002818:	ee f8 ff c0 	ld.w	r8,r7[-64]
8000281c:	ef 48 ff c8 	st.w	r7[-56],r8
80002820:	ee fa ff cc 	ld.w	r10,r7[-52]
80002824:	ef 4a fe a0 	st.w	r7[-352],r10
80002828:	30 09       	mov	r9,0
8000282a:	ef 49 fe 9c 	st.w	r7[-356],r9
8000282e:	ee f8 ff c8 	ld.w	r8,r7[-56]
80002832:	ef 48 fe 98 	st.w	r7[-360],r8
80002836:	30 0c       	mov	r12,0
80002838:	ef 4c fe 94 	st.w	r7[-364],r12
8000283c:	ee fa fe 9c 	ld.w	r10,r7[-356]
80002840:	ee fb fe 98 	ld.w	r11,r7[-360]
80002844:	b7 3a       	mul	r10,r11
80002846:	ee f8 fe 94 	ld.w	r8,r7[-364]
8000284a:	ee f9 fe a0 	ld.w	r9,r7[-352]
8000284e:	b3 38       	mul	r8,r9
80002850:	10 0a       	add	r10,r8
80002852:	ee fc fe a0 	ld.w	r12,r7[-352]
80002856:	ee fb fe 98 	ld.w	r11,r7[-360]
8000285a:	f8 0b 06 48 	mulu.d	r8,r12,r11
8000285e:	12 0a       	add	r10,r9
80002860:	14 99       	mov	r9,r10
80002862:	e0 6a 03 e7 	mov	r10,999
80002866:	30 0b       	mov	r11,0
80002868:	f0 0a 00 0a 	add	r10,r8,r10
8000286c:	f2 0b 00 4b 	adc	r11,r9,r11
80002870:	e0 68 03 e8 	mov	r8,1000
80002874:	30 09       	mov	r9,0
80002876:	f0 1f 00 a1 	mcall	80002af8 <dip204_init+0xac8>
8000287a:	14 98       	mov	r8,r10
8000287c:	16 99       	mov	r9,r11
8000287e:	ef 48 ff d4 	st.w	r7[-44],r8
80002882:	ee c8 01 08 	sub	r8,r7,264
80002886:	ef 48 ff d0 	st.w	r7[-48],r8
8000288a:	e1 b8 00 42 	mfsr	r8,0x108
8000288e:	10 99       	mov	r9,r8
80002890:	ee f8 ff d0 	ld.w	r8,r7[-48]
80002894:	91 09       	st.w	r8[0x0],r9
80002896:	ee f8 ff d0 	ld.w	r8,r7[-48]
8000289a:	70 09       	ld.w	r9,r8[0x0]
8000289c:	ee f8 ff d4 	ld.w	r8,r7[-44]
800028a0:	10 09       	add	r9,r8
800028a2:	ee f8 ff d0 	ld.w	r8,r7[-48]
800028a6:	91 19       	st.w	r8[0x4],r9
800028a8:	ee f9 ff d0 	ld.w	r9,r7[-48]
800028ac:	30 08       	mov	r8,0
800028ae:	f3 68 00 08 	st.b	r9[8],r8
800028b2:	ee c8 01 08 	sub	r8,r7,264
800028b6:	ef 48 ff d8 	st.w	r7[-40],r8
800028ba:	e1 b8 00 42 	mfsr	r8,0x108
800028be:	ef 48 ff dc 	st.w	r7[-36],r8
800028c2:	ee f8 ff d8 	ld.w	r8,r7[-40]
800028c6:	f1 39 00 08 	ld.ub	r9,r8[8]
800028ca:	30 28       	mov	r8,2
800028cc:	f0 09 18 00 	cp.b	r9,r8
800028d0:	c0 31       	brne	800028d6 <dip204_init+0x8a6>
800028d2:	30 08       	mov	r8,0
800028d4:	c4 38       	rjmp	8000295a <dip204_init+0x92a>
800028d6:	ee f8 ff d8 	ld.w	r8,r7[-40]
800028da:	f1 39 00 08 	ld.ub	r9,r8[8]
800028de:	30 18       	mov	r8,1
800028e0:	f0 09 18 00 	cp.b	r9,r8
800028e4:	c0 31       	brne	800028ea <dip204_init+0x8ba>
800028e6:	30 18       	mov	r8,1
800028e8:	c3 98       	rjmp	8000295a <dip204_init+0x92a>
800028ea:	ee f8 ff d8 	ld.w	r8,r7[-40]
800028ee:	70 09       	ld.w	r9,r8[0x0]
800028f0:	ee f8 ff d8 	ld.w	r8,r7[-40]
800028f4:	70 18       	ld.w	r8,r8[0x4]
800028f6:	10 39       	cp.w	r9,r8
800028f8:	e0 88 00 1a 	brls	8000292c <dip204_init+0x8fc>
800028fc:	ee f8 ff d8 	ld.w	r8,r7[-40]
80002900:	70 08       	ld.w	r8,r8[0x0]
80002902:	ee f9 ff dc 	ld.w	r9,r7[-36]
80002906:	10 39       	cp.w	r9,r8
80002908:	c1 02       	brcc	80002928 <dip204_init+0x8f8>
8000290a:	ee f8 ff d8 	ld.w	r8,r7[-40]
8000290e:	70 18       	ld.w	r8,r8[0x4]
80002910:	ee f9 ff dc 	ld.w	r9,r7[-36]
80002914:	10 39       	cp.w	r9,r8
80002916:	e0 88 00 09 	brls	80002928 <dip204_init+0x8f8>
8000291a:	ee f9 ff d8 	ld.w	r9,r7[-40]
8000291e:	30 18       	mov	r8,1
80002920:	f3 68 00 08 	st.b	r9[8],r8
80002924:	30 18       	mov	r8,1
80002926:	c1 a8       	rjmp	8000295a <dip204_init+0x92a>
80002928:	30 08       	mov	r8,0
8000292a:	c1 88       	rjmp	8000295a <dip204_init+0x92a>
8000292c:	ee f8 ff d8 	ld.w	r8,r7[-40]
80002930:	70 08       	ld.w	r8,r8[0x0]
80002932:	ee f9 ff dc 	ld.w	r9,r7[-36]
80002936:	10 39       	cp.w	r9,r8
80002938:	c0 93       	brcs	8000294a <dip204_init+0x91a>
8000293a:	ee f8 ff d8 	ld.w	r8,r7[-40]
8000293e:	70 18       	ld.w	r8,r8[0x4]
80002940:	ee f9 ff dc 	ld.w	r9,r7[-36]
80002944:	10 39       	cp.w	r9,r8
80002946:	e0 88 00 09 	brls	80002958 <dip204_init+0x928>
8000294a:	ee f9 ff d8 	ld.w	r9,r7[-40]
8000294e:	30 18       	mov	r8,1
80002950:	f3 68 00 08 	st.b	r9[8],r8
80002954:	30 18       	mov	r8,1
80002956:	c0 28       	rjmp	8000295a <dip204_init+0x92a>
80002958:	30 08       	mov	r8,0
8000295a:	58 08       	cp.w	r8,0
8000295c:	ca b0       	breq	800028b2 <dip204_init+0x882>
8000295e:	30 6c       	mov	r12,6
80002960:	f0 1f 00 68 	mcall	80002b00 <dip204_init+0xad0>
80002964:	f0 1f 00 64 	mcall	80002af4 <dip204_init+0xac4>
80002968:	18 98       	mov	r8,r12
8000296a:	30 19       	mov	r9,1
8000296c:	ef 49 ff e4 	st.w	r7[-28],r9
80002970:	ef 48 ff e0 	st.w	r7[-32],r8
80002974:	ee f8 ff e4 	ld.w	r8,r7[-28]
80002978:	ef 48 ff ec 	st.w	r7[-20],r8
8000297c:	ee f8 ff e0 	ld.w	r8,r7[-32]
80002980:	ef 48 ff e8 	st.w	r7[-24],r8
80002984:	ee fa ff ec 	ld.w	r10,r7[-20]
80002988:	ef 4a fe b0 	st.w	r7[-336],r10
8000298c:	30 09       	mov	r9,0
8000298e:	ef 49 fe ac 	st.w	r7[-340],r9
80002992:	ee f8 ff e8 	ld.w	r8,r7[-24]
80002996:	ef 48 fe a8 	st.w	r7[-344],r8
8000299a:	30 0c       	mov	r12,0
8000299c:	ef 4c fe a4 	st.w	r7[-348],r12
800029a0:	ee fa fe ac 	ld.w	r10,r7[-340]
800029a4:	ee fb fe a8 	ld.w	r11,r7[-344]
800029a8:	b7 3a       	mul	r10,r11
800029aa:	ee f8 fe a4 	ld.w	r8,r7[-348]
800029ae:	ee f9 fe b0 	ld.w	r9,r7[-336]
800029b2:	b3 38       	mul	r8,r9
800029b4:	10 0a       	add	r10,r8
800029b6:	ee fc fe b0 	ld.w	r12,r7[-336]
800029ba:	ee fb fe a8 	ld.w	r11,r7[-344]
800029be:	f8 0b 06 48 	mulu.d	r8,r12,r11
800029c2:	12 0a       	add	r10,r9
800029c4:	14 99       	mov	r9,r10
800029c6:	e0 6a 03 e7 	mov	r10,999
800029ca:	30 0b       	mov	r11,0
800029cc:	f0 0a 00 0a 	add	r10,r8,r10
800029d0:	f2 0b 00 4b 	adc	r11,r9,r11
800029d4:	e0 68 03 e8 	mov	r8,1000
800029d8:	30 09       	mov	r9,0
800029da:	f0 1f 00 48 	mcall	80002af8 <dip204_init+0xac8>
800029de:	14 98       	mov	r8,r10
800029e0:	16 99       	mov	r9,r11
800029e2:	ef 48 ff f4 	st.w	r7[-12],r8
800029e6:	ee c8 00 fc 	sub	r8,r7,252
800029ea:	ef 48 ff f0 	st.w	r7[-16],r8
800029ee:	e1 b8 00 42 	mfsr	r8,0x108
800029f2:	10 99       	mov	r9,r8
800029f4:	ee f8 ff f0 	ld.w	r8,r7[-16]
800029f8:	91 09       	st.w	r8[0x0],r9
800029fa:	ee f8 ff f0 	ld.w	r8,r7[-16]
800029fe:	70 09       	ld.w	r9,r8[0x0]
80002a00:	ee f8 ff f4 	ld.w	r8,r7[-12]
80002a04:	10 09       	add	r9,r8
80002a06:	ee f8 ff f0 	ld.w	r8,r7[-16]
80002a0a:	91 19       	st.w	r8[0x4],r9
80002a0c:	ee f9 ff f0 	ld.w	r9,r7[-16]
80002a10:	30 08       	mov	r8,0
80002a12:	f3 68 00 08 	st.b	r9[8],r8
80002a16:	ee c8 00 fc 	sub	r8,r7,252
80002a1a:	ef 48 ff f8 	st.w	r7[-8],r8
80002a1e:	e1 b8 00 42 	mfsr	r8,0x108
80002a22:	ef 48 ff fc 	st.w	r7[-4],r8
80002a26:	ee f8 ff f8 	ld.w	r8,r7[-8]
80002a2a:	f1 39 00 08 	ld.ub	r9,r8[8]
80002a2e:	30 28       	mov	r8,2
80002a30:	f0 09 18 00 	cp.b	r9,r8
80002a34:	c0 31       	brne	80002a3a <dip204_init+0xa0a>
80002a36:	30 08       	mov	r8,0
80002a38:	c4 38       	rjmp	80002abe <dip204_init+0xa8e>
80002a3a:	ee f8 ff f8 	ld.w	r8,r7[-8]
80002a3e:	f1 39 00 08 	ld.ub	r9,r8[8]
80002a42:	30 18       	mov	r8,1
80002a44:	f0 09 18 00 	cp.b	r9,r8
80002a48:	c0 31       	brne	80002a4e <dip204_init+0xa1e>
80002a4a:	30 18       	mov	r8,1
80002a4c:	c3 98       	rjmp	80002abe <dip204_init+0xa8e>
80002a4e:	ee f8 ff f8 	ld.w	r8,r7[-8]
80002a52:	70 09       	ld.w	r9,r8[0x0]
80002a54:	ee f8 ff f8 	ld.w	r8,r7[-8]
80002a58:	70 18       	ld.w	r8,r8[0x4]
80002a5a:	10 39       	cp.w	r9,r8
80002a5c:	e0 88 00 1a 	brls	80002a90 <dip204_init+0xa60>
80002a60:	ee f8 ff f8 	ld.w	r8,r7[-8]
80002a64:	70 08       	ld.w	r8,r8[0x0]
80002a66:	ee f9 ff fc 	ld.w	r9,r7[-4]
80002a6a:	10 39       	cp.w	r9,r8
80002a6c:	c1 02       	brcc	80002a8c <dip204_init+0xa5c>
80002a6e:	ee f8 ff f8 	ld.w	r8,r7[-8]
80002a72:	70 18       	ld.w	r8,r8[0x4]
80002a74:	ee f9 ff fc 	ld.w	r9,r7[-4]
80002a78:	10 39       	cp.w	r9,r8
80002a7a:	e0 88 00 09 	brls	80002a8c <dip204_init+0xa5c>
80002a7e:	ee f9 ff f8 	ld.w	r9,r7[-8]
80002a82:	30 18       	mov	r8,1
80002a84:	f3 68 00 08 	st.b	r9[8],r8
80002a88:	30 18       	mov	r8,1
80002a8a:	c1 a8       	rjmp	80002abe <dip204_init+0xa8e>
80002a8c:	30 08       	mov	r8,0
80002a8e:	c1 88       	rjmp	80002abe <dip204_init+0xa8e>
80002a90:	ee f8 ff f8 	ld.w	r8,r7[-8]
80002a94:	70 08       	ld.w	r8,r8[0x0]
80002a96:	ee f9 ff fc 	ld.w	r9,r7[-4]
80002a9a:	10 39       	cp.w	r9,r8
80002a9c:	c0 93       	brcs	80002aae <dip204_init+0xa7e>
80002a9e:	ee f8 ff f8 	ld.w	r8,r7[-8]
80002aa2:	70 18       	ld.w	r8,r8[0x4]
80002aa4:	ee f9 ff fc 	ld.w	r9,r7[-4]
80002aa8:	10 39       	cp.w	r9,r8
80002aaa:	e0 88 00 09 	brls	80002abc <dip204_init+0xa8c>
80002aae:	ee f9 ff f8 	ld.w	r9,r7[-8]
80002ab2:	30 18       	mov	r8,1
80002ab4:	f3 68 00 08 	st.b	r9[8],r8
80002ab8:	30 18       	mov	r8,1
80002aba:	c0 28       	rjmp	80002abe <dip204_init+0xa8e>
80002abc:	30 08       	mov	r8,0
80002abe:	58 08       	cp.w	r8,0
80002ac0:	ca b0       	breq	80002a16 <dip204_init+0x9e6>
80002ac2:	f0 1f 00 11 	mcall	80002b04 <dip204_init+0xad4>
80002ac6:	f0 1f 00 11 	mcall	80002b08 <dip204_init+0xad8>
80002aca:	29 5d       	sub	sp,-428
80002acc:	e3 cd 80 8f 	ldm	sp++,r0-r3,r7,pc
80002ad0:	00 00       	add	r0,r0
80002ad2:	00 08       	add	r8,r0
80002ad4:	80 00       	ld.sh	r0,r0[0x0]
80002ad6:	32 a8       	mov	r8,42
80002ad8:	80 00       	ld.sh	r0,r0[0x0]
80002ada:	36 cc       	mov	r12,108
80002adc:	00 00       	add	r0,r0
80002ade:	05 10       	ld.sh	r0,r2++
80002ae0:	00 00       	add	r0,r0
80002ae2:	05 14       	ld.sh	r4,r2++
80002ae4:	80 00       	ld.sh	r0,r0[0x0]
80002ae6:	37 60       	mov	r0,118
80002ae8:	80 00       	ld.sh	r0,r0[0x0]
80002aea:	37 e8       	mov	r8,126
80002aec:	80 00       	ld.sh	r0,r0[0x0]
80002aee:	34 20       	mov	r0,66
80002af0:	80 00       	ld.sh	r0,r0[0x0]
80002af2:	33 b8       	mov	r8,59
80002af4:	80 00       	ld.sh	r0,r0[0x0]
80002af6:	20 18       	sub	r8,1
80002af8:	80 00       	ld.sh	r0,r0[0x0]
80002afa:	41 c4       	lddsp	r4,sp[0x70]
80002afc:	80 00       	ld.sh	r0,r0[0x0]
80002afe:	2e 78       	sub	r8,-25
80002b00:	80 00       	ld.sh	r0,r0[0x0]
80002b02:	2e a8       	sub	r8,-22
80002b04:	80 00       	ld.sh	r0,r0[0x0]
80002b06:	2f 8c       	sub	r12,-8
80002b08:	80 00       	ld.sh	r0,r0[0x0]
80002b0a:	2e 90       	sub	r0,-23

80002b0c <dip204_hide_cursor>:
80002b0c:	eb cd 40 80 	pushm	r7,lr
80002b10:	1a 97       	mov	r7,sp
80002b12:	f0 1f 00 08 	mcall	80002b30 <dip204_hide_cursor+0x24>
80002b16:	e0 6c 00 f8 	mov	r12,248
80002b1a:	f0 1f 00 07 	mcall	80002b34 <dip204_hide_cursor+0x28>
80002b1e:	30 cc       	mov	r12,12
80002b20:	f0 1f 00 05 	mcall	80002b34 <dip204_hide_cursor+0x28>
80002b24:	f0 1f 00 05 	mcall	80002b38 <dip204_hide_cursor+0x2c>
80002b28:	f0 1f 00 05 	mcall	80002b3c <dip204_hide_cursor+0x30>
80002b2c:	e3 cd 80 80 	ldm	sp++,r7,pc
80002b30:	80 00       	ld.sh	r0,r0[0x0]
80002b32:	2e 78       	sub	r8,-25
80002b34:	80 00       	ld.sh	r0,r0[0x0]
80002b36:	2e a8       	sub	r8,-22
80002b38:	80 00       	ld.sh	r0,r0[0x0]
80002b3a:	2f 8c       	sub	r12,-8
80002b3c:	80 00       	ld.sh	r0,r0[0x0]
80002b3e:	2e 90       	sub	r0,-23

80002b40 <dip204_set_cursor_position>:
80002b40:	eb cd 40 80 	pushm	r7,lr
80002b44:	1a 97       	mov	r7,sp
80002b46:	20 3d       	sub	sp,12
80002b48:	18 99       	mov	r9,r12
80002b4a:	16 98       	mov	r8,r11
80002b4c:	ef 69 ff f8 	st.b	r7[-8],r9
80002b50:	ef 68 ff f4 	st.b	r7[-12],r8
80002b54:	30 08       	mov	r8,0
80002b56:	ef 68 ff ff 	st.b	r7[-1],r8
80002b5a:	f0 1f 00 18 	mcall	80002bb8 <dip204_set_cursor_position+0x78>
80002b5e:	ef 39 ff f8 	ld.ub	r9,r7[-8]
80002b62:	31 48       	mov	r8,20
80002b64:	f0 09 18 00 	cp.b	r9,r8
80002b68:	e0 8b 00 17 	brhi	80002b96 <dip204_set_cursor_position+0x56>
80002b6c:	ef 39 ff f4 	ld.ub	r9,r7[-12]
80002b70:	30 48       	mov	r8,4
80002b72:	f0 09 18 00 	cp.b	r9,r8
80002b76:	e0 8b 00 10 	brhi	80002b96 <dip204_set_cursor_position+0x56>
80002b7a:	ef 38 ff f4 	ld.ub	r8,r7[-12]
80002b7e:	20 18       	sub	r8,1
80002b80:	5c 58       	castu.b	r8
80002b82:	a5 78       	lsl	r8,0x5
80002b84:	5c 58       	castu.b	r8
80002b86:	ef 39 ff f8 	ld.ub	r9,r7[-8]
80002b8a:	f2 08 00 08 	add	r8,r9,r8
80002b8e:	5c 58       	castu.b	r8
80002b90:	28 18       	sub	r8,-127
80002b92:	ef 68 ff ff 	st.b	r7[-1],r8
80002b96:	e0 6c 00 f8 	mov	r12,248
80002b9a:	f0 1f 00 09 	mcall	80002bbc <dip204_set_cursor_position+0x7c>
80002b9e:	ef 38 ff ff 	ld.ub	r8,r7[-1]
80002ba2:	10 9c       	mov	r12,r8
80002ba4:	f0 1f 00 06 	mcall	80002bbc <dip204_set_cursor_position+0x7c>
80002ba8:	f0 1f 00 06 	mcall	80002bc0 <dip204_set_cursor_position+0x80>
80002bac:	f0 1f 00 06 	mcall	80002bc4 <dip204_set_cursor_position+0x84>
80002bb0:	2f dd       	sub	sp,-12
80002bb2:	e3 cd 80 80 	ldm	sp++,r7,pc
80002bb6:	00 00       	add	r0,r0
80002bb8:	80 00       	ld.sh	r0,r0[0x0]
80002bba:	2e 78       	sub	r8,-25
80002bbc:	80 00       	ld.sh	r0,r0[0x0]
80002bbe:	2e a8       	sub	r8,-22
80002bc0:	80 00       	ld.sh	r0,r0[0x0]
80002bc2:	2f 8c       	sub	r12,-8
80002bc4:	80 00       	ld.sh	r0,r0[0x0]
80002bc6:	2e 90       	sub	r0,-23

80002bc8 <dip204_clear_display>:
80002bc8:	eb cd 40 8f 	pushm	r0-r3,r7,lr
80002bcc:	1a 97       	mov	r7,sp
80002bce:	20 bd       	sub	sp,44
80002bd0:	f0 1f 00 57 	mcall	80002d2c <dip204_clear_display+0x164>
80002bd4:	e0 6c 00 f8 	mov	r12,248
80002bd8:	f0 1f 00 56 	mcall	80002d30 <dip204_clear_display+0x168>
80002bdc:	30 1c       	mov	r12,1
80002bde:	f0 1f 00 55 	mcall	80002d30 <dip204_clear_display+0x168>
80002be2:	f0 1f 00 55 	mcall	80002d34 <dip204_clear_display+0x16c>
80002be6:	18 98       	mov	r8,r12
80002be8:	30 49       	mov	r9,4
80002bea:	ef 49 ff e4 	st.w	r7[-28],r9
80002bee:	ef 48 ff e0 	st.w	r7[-32],r8
80002bf2:	ee f8 ff e4 	ld.w	r8,r7[-28]
80002bf6:	ef 48 ff ec 	st.w	r7[-20],r8
80002bfa:	ee f8 ff e0 	ld.w	r8,r7[-32]
80002bfe:	ef 48 ff e8 	st.w	r7[-24],r8
80002c02:	ee f0 ff ec 	ld.w	r0,r7[-20]
80002c06:	30 01       	mov	r1,0
80002c08:	ee f2 ff e8 	ld.w	r2,r7[-24]
80002c0c:	30 03       	mov	r3,0
80002c0e:	e2 02 02 4a 	mul	r10,r1,r2
80002c12:	e6 00 02 48 	mul	r8,r3,r0
80002c16:	10 0a       	add	r10,r8
80002c18:	e0 02 06 48 	mulu.d	r8,r0,r2
80002c1c:	12 0a       	add	r10,r9
80002c1e:	14 99       	mov	r9,r10
80002c20:	e0 6a 03 e7 	mov	r10,999
80002c24:	30 0b       	mov	r11,0
80002c26:	f0 0a 00 0a 	add	r10,r8,r10
80002c2a:	f2 0b 00 4b 	adc	r11,r9,r11
80002c2e:	e0 68 03 e8 	mov	r8,1000
80002c32:	30 09       	mov	r9,0
80002c34:	f0 1f 00 41 	mcall	80002d38 <dip204_clear_display+0x170>
80002c38:	14 98       	mov	r8,r10
80002c3a:	16 99       	mov	r9,r11
80002c3c:	ef 48 ff f4 	st.w	r7[-12],r8
80002c40:	ee c8 00 2c 	sub	r8,r7,44
80002c44:	ef 48 ff f0 	st.w	r7[-16],r8
80002c48:	e1 b8 00 42 	mfsr	r8,0x108
80002c4c:	10 99       	mov	r9,r8
80002c4e:	ee f8 ff f0 	ld.w	r8,r7[-16]
80002c52:	91 09       	st.w	r8[0x0],r9
80002c54:	ee f8 ff f0 	ld.w	r8,r7[-16]
80002c58:	70 09       	ld.w	r9,r8[0x0]
80002c5a:	ee f8 ff f4 	ld.w	r8,r7[-12]
80002c5e:	10 09       	add	r9,r8
80002c60:	ee f8 ff f0 	ld.w	r8,r7[-16]
80002c64:	91 19       	st.w	r8[0x4],r9
80002c66:	ee f9 ff f0 	ld.w	r9,r7[-16]
80002c6a:	30 08       	mov	r8,0
80002c6c:	f3 68 00 08 	st.b	r9[8],r8
80002c70:	ee c8 00 2c 	sub	r8,r7,44
80002c74:	ef 48 ff f8 	st.w	r7[-8],r8
80002c78:	e1 b8 00 42 	mfsr	r8,0x108
80002c7c:	ef 48 ff fc 	st.w	r7[-4],r8
80002c80:	ee f8 ff f8 	ld.w	r8,r7[-8]
80002c84:	f1 39 00 08 	ld.ub	r9,r8[8]
80002c88:	30 28       	mov	r8,2
80002c8a:	f0 09 18 00 	cp.b	r9,r8
80002c8e:	c0 31       	brne	80002c94 <dip204_clear_display+0xcc>
80002c90:	30 08       	mov	r8,0
80002c92:	c4 38       	rjmp	80002d18 <dip204_clear_display+0x150>
80002c94:	ee f8 ff f8 	ld.w	r8,r7[-8]
80002c98:	f1 39 00 08 	ld.ub	r9,r8[8]
80002c9c:	30 18       	mov	r8,1
80002c9e:	f0 09 18 00 	cp.b	r9,r8
80002ca2:	c0 31       	brne	80002ca8 <dip204_clear_display+0xe0>
80002ca4:	30 18       	mov	r8,1
80002ca6:	c3 98       	rjmp	80002d18 <dip204_clear_display+0x150>
80002ca8:	ee f8 ff f8 	ld.w	r8,r7[-8]
80002cac:	70 09       	ld.w	r9,r8[0x0]
80002cae:	ee f8 ff f8 	ld.w	r8,r7[-8]
80002cb2:	70 18       	ld.w	r8,r8[0x4]
80002cb4:	10 39       	cp.w	r9,r8
80002cb6:	e0 88 00 1a 	brls	80002cea <dip204_clear_display+0x122>
80002cba:	ee f8 ff f8 	ld.w	r8,r7[-8]
80002cbe:	70 08       	ld.w	r8,r8[0x0]
80002cc0:	ee f9 ff fc 	ld.w	r9,r7[-4]
80002cc4:	10 39       	cp.w	r9,r8
80002cc6:	c1 02       	brcc	80002ce6 <dip204_clear_display+0x11e>
80002cc8:	ee f8 ff f8 	ld.w	r8,r7[-8]
80002ccc:	70 18       	ld.w	r8,r8[0x4]
80002cce:	ee f9 ff fc 	ld.w	r9,r7[-4]
80002cd2:	10 39       	cp.w	r9,r8
80002cd4:	e0 88 00 09 	brls	80002ce6 <dip204_clear_display+0x11e>
80002cd8:	ee f9 ff f8 	ld.w	r9,r7[-8]
80002cdc:	30 18       	mov	r8,1
80002cde:	f3 68 00 08 	st.b	r9[8],r8
80002ce2:	30 18       	mov	r8,1
80002ce4:	c1 a8       	rjmp	80002d18 <dip204_clear_display+0x150>
80002ce6:	30 08       	mov	r8,0
80002ce8:	c1 88       	rjmp	80002d18 <dip204_clear_display+0x150>
80002cea:	ee f8 ff f8 	ld.w	r8,r7[-8]
80002cee:	70 08       	ld.w	r8,r8[0x0]
80002cf0:	ee f9 ff fc 	ld.w	r9,r7[-4]
80002cf4:	10 39       	cp.w	r9,r8
80002cf6:	c0 93       	brcs	80002d08 <dip204_clear_display+0x140>
80002cf8:	ee f8 ff f8 	ld.w	r8,r7[-8]
80002cfc:	70 18       	ld.w	r8,r8[0x4]
80002cfe:	ee f9 ff fc 	ld.w	r9,r7[-4]
80002d02:	10 39       	cp.w	r9,r8
80002d04:	e0 88 00 09 	brls	80002d16 <dip204_clear_display+0x14e>
80002d08:	ee f9 ff f8 	ld.w	r9,r7[-8]
80002d0c:	30 18       	mov	r8,1
80002d0e:	f3 68 00 08 	st.b	r9[8],r8
80002d12:	30 18       	mov	r8,1
80002d14:	c0 28       	rjmp	80002d18 <dip204_clear_display+0x150>
80002d16:	30 08       	mov	r8,0
80002d18:	58 08       	cp.w	r8,0
80002d1a:	ca b0       	breq	80002c70 <dip204_clear_display+0xa8>
80002d1c:	f0 1f 00 08 	mcall	80002d3c <dip204_clear_display+0x174>
80002d20:	f0 1f 00 08 	mcall	80002d40 <dip204_clear_display+0x178>
80002d24:	2f 5d       	sub	sp,-44
80002d26:	e3 cd 80 8f 	ldm	sp++,r0-r3,r7,pc
80002d2a:	00 00       	add	r0,r0
80002d2c:	80 00       	ld.sh	r0,r0[0x0]
80002d2e:	2e 78       	sub	r8,-25
80002d30:	80 00       	ld.sh	r0,r0[0x0]
80002d32:	2e a8       	sub	r8,-22
80002d34:	80 00       	ld.sh	r0,r0[0x0]
80002d36:	20 18       	sub	r8,1
80002d38:	80 00       	ld.sh	r0,r0[0x0]
80002d3a:	41 c4       	lddsp	r4,sp[0x70]
80002d3c:	80 00       	ld.sh	r0,r0[0x0]
80002d3e:	2f 8c       	sub	r12,-8
80002d40:	80 00       	ld.sh	r0,r0[0x0]
80002d42:	2e 90       	sub	r0,-23

80002d44 <dip204_write_string>:
80002d44:	eb cd 40 80 	pushm	r7,lr
80002d48:	1a 97       	mov	r7,sp
80002d4a:	20 2d       	sub	sp,8
80002d4c:	ef 4c ff f8 	st.w	r7[-8],r12
80002d50:	30 08       	mov	r8,0
80002d52:	ef 68 ff ff 	st.b	r7[-1],r8
80002d56:	f0 1f 00 14 	mcall	80002da4 <dip204_write_string+0x60>
80002d5a:	c1 68       	rjmp	80002d86 <dip204_write_string+0x42>
80002d5c:	e0 6c 00 fa 	mov	r12,250
80002d60:	f0 1f 00 12 	mcall	80002da8 <dip204_write_string+0x64>
80002d64:	ef 38 ff ff 	ld.ub	r8,r7[-1]
80002d68:	ee f9 ff f8 	ld.w	r9,r7[-8]
80002d6c:	f2 08 00 08 	add	r8,r9,r8
80002d70:	11 88       	ld.ub	r8,r8[0x0]
80002d72:	10 9c       	mov	r12,r8
80002d74:	f0 1f 00 0d 	mcall	80002da8 <dip204_write_string+0x64>
80002d78:	ef 38 ff ff 	ld.ub	r8,r7[-1]
80002d7c:	2f f8       	sub	r8,-1
80002d7e:	ef 68 ff ff 	st.b	r7[-1],r8
80002d82:	f0 1f 00 0b 	mcall	80002dac <dip204_write_string+0x68>
80002d86:	ef 38 ff ff 	ld.ub	r8,r7[-1]
80002d8a:	ee f9 ff f8 	ld.w	r9,r7[-8]
80002d8e:	f2 08 00 08 	add	r8,r9,r8
80002d92:	11 88       	ld.ub	r8,r8[0x0]
80002d94:	58 08       	cp.w	r8,0
80002d96:	ce 31       	brne	80002d5c <dip204_write_string+0x18>
80002d98:	f0 1f 00 06 	mcall	80002db0 <dip204_write_string+0x6c>
80002d9c:	2f ed       	sub	sp,-8
80002d9e:	e3 cd 80 80 	ldm	sp++,r7,pc
80002da2:	00 00       	add	r0,r0
80002da4:	80 00       	ld.sh	r0,r0[0x0]
80002da6:	2e 78       	sub	r8,-25
80002da8:	80 00       	ld.sh	r0,r0[0x0]
80002daa:	2e a8       	sub	r8,-22
80002dac:	80 00       	ld.sh	r0,r0[0x0]
80002dae:	2f 8c       	sub	r12,-8
80002db0:	80 00       	ld.sh	r0,r0[0x0]
80002db2:	2e 90       	sub	r0,-23

80002db4 <dip204_printf_string>:
80002db4:	eb cd 40 80 	pushm	r7,lr
80002db8:	1a 97       	mov	r7,sp
80002dba:	20 9d       	sub	sp,36
80002dbc:	ee c9 ff f8 	sub	r9,r7,-8
80002dc0:	ef 4c ff dc 	st.w	r7[-36],r12
80002dc4:	30 08       	mov	r8,0
80002dc6:	ef 68 ff ff 	st.b	r7[-1],r8
80002dca:	f2 c8 00 00 	sub	r8,r9,0
80002dce:	ef 48 ff f8 	st.w	r7[-8],r8
80002dd2:	ee f9 ff f8 	ld.w	r9,r7[-8]
80002dd6:	ee c8 00 20 	sub	r8,r7,32
80002dda:	12 9a       	mov	r10,r9
80002ddc:	ee fb ff dc 	ld.w	r11,r7[-36]
80002de0:	10 9c       	mov	r12,r8
80002de2:	f0 1f 00 21 	mcall	80002e64 <dip204_printf_string+0xb0>
80002de6:	18 98       	mov	r8,r12
80002de8:	ef 68 ff ff 	st.b	r7[-1],r8
80002dec:	c0 d8       	rjmp	80002e06 <dip204_printf_string+0x52>
80002dee:	ef 38 ff ff 	ld.ub	r8,r7[-1]
80002df2:	ee 08 00 09 	add	r9,r7,r8
80002df6:	30 08       	mov	r8,0
80002df8:	f3 68 ff e0 	st.b	r9[-32],r8
80002dfc:	ef 38 ff ff 	ld.ub	r8,r7[-1]
80002e00:	2f f8       	sub	r8,-1
80002e02:	ef 68 ff ff 	st.b	r7[-1],r8
80002e06:	ef 39 ff ff 	ld.ub	r9,r7[-1]
80002e0a:	31 38       	mov	r8,19
80002e0c:	f0 09 18 00 	cp.b	r9,r8
80002e10:	fe 98 ff ef 	brls	80002dee <dip204_printf_string+0x3a>
80002e14:	f0 1f 00 15 	mcall	80002e68 <dip204_printf_string+0xb4>
80002e18:	30 08       	mov	r8,0
80002e1a:	ef 68 ff ff 	st.b	r7[-1],r8
80002e1e:	c1 58       	rjmp	80002e48 <dip204_printf_string+0x94>
80002e20:	e0 6c 00 fa 	mov	r12,250
80002e24:	f0 1f 00 12 	mcall	80002e6c <dip204_printf_string+0xb8>
80002e28:	ef 38 ff ff 	ld.ub	r8,r7[-1]
80002e2c:	ee 08 00 08 	add	r8,r7,r8
80002e30:	f1 38 ff e0 	ld.ub	r8,r8[-32]
80002e34:	10 9c       	mov	r12,r8
80002e36:	f0 1f 00 0e 	mcall	80002e6c <dip204_printf_string+0xb8>
80002e3a:	ef 38 ff ff 	ld.ub	r8,r7[-1]
80002e3e:	2f f8       	sub	r8,-1
80002e40:	ef 68 ff ff 	st.b	r7[-1],r8
80002e44:	f0 1f 00 0b 	mcall	80002e70 <dip204_printf_string+0xbc>
80002e48:	ef 38 ff ff 	ld.ub	r8,r7[-1]
80002e4c:	ee 08 00 08 	add	r8,r7,r8
80002e50:	f1 38 ff e0 	ld.ub	r8,r8[-32]
80002e54:	58 08       	cp.w	r8,0
80002e56:	ce 51       	brne	80002e20 <dip204_printf_string+0x6c>
80002e58:	f0 1f 00 07 	mcall	80002e74 <dip204_printf_string+0xc0>
80002e5c:	2f 7d       	sub	sp,-36
80002e5e:	e3 cd 80 80 	ldm	sp++,r7,pc
80002e62:	00 00       	add	r0,r0
80002e64:	80 00       	ld.sh	r0,r0[0x0]
80002e66:	45 9c       	lddsp	r12,sp[0x164]
80002e68:	80 00       	ld.sh	r0,r0[0x0]
80002e6a:	2e 78       	sub	r8,-25
80002e6c:	80 00       	ld.sh	r0,r0[0x0]
80002e6e:	2e a8       	sub	r8,-22
80002e70:	80 00       	ld.sh	r0,r0[0x0]
80002e72:	2f 8c       	sub	r12,-8
80002e74:	80 00       	ld.sh	r0,r0[0x0]
80002e76:	2e 90       	sub	r0,-23

80002e78 <dip204_select>:
80002e78:	eb cd 40 80 	pushm	r7,lr
80002e7c:	1a 97       	mov	r7,sp
80002e7e:	30 2b       	mov	r11,2
80002e80:	fe 7c 28 00 	mov	r12,-55296
80002e84:	f0 1f 00 02 	mcall	80002e8c <dip204_select+0x14>
80002e88:	e3 cd 80 80 	ldm	sp++,r7,pc
80002e8c:	80 00       	ld.sh	r0,r0[0x0]
80002e8e:	39 8e       	mov	lr,-104

80002e90 <dip204_unselect>:
80002e90:	eb cd 40 80 	pushm	r7,lr
80002e94:	1a 97       	mov	r7,sp
80002e96:	30 2b       	mov	r11,2
80002e98:	fe 7c 28 00 	mov	r12,-55296
80002e9c:	f0 1f 00 02 	mcall	80002ea4 <dip204_unselect+0x14>
80002ea0:	e3 cd 80 80 	ldm	sp++,r7,pc
80002ea4:	80 00       	ld.sh	r0,r0[0x0]
80002ea6:	3a 26       	mov	r6,-94

80002ea8 <dip204_write_byte>:
80002ea8:	eb cd 40 80 	pushm	r7,lr
80002eac:	1a 97       	mov	r7,sp
80002eae:	20 3d       	sub	sp,12
80002eb0:	18 98       	mov	r8,r12
80002eb2:	ef 68 ff f4 	st.b	r7[-12],r8
80002eb6:	ef 38 ff f4 	ld.ub	r8,r7[-12]
80002eba:	f0 c8 00 f8 	sub	r8,r8,248
80002ebe:	58 68       	cp.w	r8,6
80002ec0:	e0 8b 00 10 	brhi	80002ee0 <dip204_write_byte+0x38>
80002ec4:	30 19       	mov	r9,1
80002ec6:	f2 08 09 48 	lsl	r8,r9,r8
80002eca:	e2 18 00 55 	andl	r8,0x55,COH
80002ece:	c0 90       	breq	80002ee0 <dip204_write_byte+0x38>
80002ed0:	ef 38 ff f4 	ld.ub	r8,r7[-12]
80002ed4:	10 9b       	mov	r11,r8
80002ed6:	fe 7c 28 00 	mov	r12,-55296
80002eda:	f0 1f 00 15 	mcall	80002f2c <dip204_write_byte+0x84>
80002ede:	c2 48       	rjmp	80002f26 <dip204_write_byte+0x7e>
80002ee0:	ef 38 ff f4 	ld.ub	r8,r7[-12]
80002ee4:	ef 48 ff fc 	st.w	r7[-4],r8
80002ee8:	ee f8 ff fc 	ld.w	r8,r7[-4]
80002eec:	5c 98       	brev	r8
80002eee:	ef 48 ff fc 	st.w	r7[-4],r8
80002ef2:	ee f8 ff fc 	ld.w	r8,r7[-4]
80002ef6:	b9 88       	lsr	r8,0x18
80002ef8:	ef 68 ff fb 	st.b	r7[-5],r8
80002efc:	ef 38 ff fb 	ld.ub	r8,r7[-5]
80002f00:	e2 18 00 f0 	andl	r8,0xf0,COH
80002f04:	10 9b       	mov	r11,r8
80002f06:	fe 7c 28 00 	mov	r12,-55296
80002f0a:	f0 1f 00 09 	mcall	80002f2c <dip204_write_byte+0x84>
80002f0e:	ef 38 ff fb 	ld.ub	r8,r7[-5]
80002f12:	a5 68       	lsl	r8,0x4
80002f14:	5c 88       	casts.h	r8
80002f16:	5c 78       	castu.h	r8
80002f18:	f1 d8 c0 08 	bfextu	r8,r8,0x0,0x8
80002f1c:	10 9b       	mov	r11,r8
80002f1e:	fe 7c 28 00 	mov	r12,-55296
80002f22:	f0 1f 00 03 	mcall	80002f2c <dip204_write_byte+0x84>
80002f26:	2f dd       	sub	sp,-12
80002f28:	e3 cd 80 80 	ldm	sp++,r7,pc
80002f2c:	80 00       	ld.sh	r0,r0[0x0]
80002f2e:	3c 2e       	mov	lr,-62

80002f30 <dip204_read_byte>:
80002f30:	eb cd 40 80 	pushm	r7,lr
80002f34:	1a 97       	mov	r7,sp
80002f36:	20 3d       	sub	sp,12
80002f38:	ef 4c ff f4 	st.w	r7[-12],r12
80002f3c:	30 08       	mov	r8,0
80002f3e:	ef 58 ff fa 	st.h	r7[-6],r8
80002f42:	30 0b       	mov	r11,0
80002f44:	fe 7c 28 00 	mov	r12,-55296
80002f48:	f0 1f 00 0f 	mcall	80002f84 <dip204_read_byte+0x54>
80002f4c:	ee c8 00 06 	sub	r8,r7,6
80002f50:	10 9b       	mov	r11,r8
80002f52:	fe 7c 28 00 	mov	r12,-55296
80002f56:	f0 1f 00 0d 	mcall	80002f88 <dip204_read_byte+0x58>
80002f5a:	ef 08 ff fa 	ld.sh	r8,r7[-6]
80002f5e:	5c 58       	castu.b	r8
80002f60:	ef 48 ff fc 	st.w	r7[-4],r8
80002f64:	ee f8 ff fc 	ld.w	r8,r7[-4]
80002f68:	5c 98       	brev	r8
80002f6a:	ef 48 ff fc 	st.w	r7[-4],r8
80002f6e:	ee f8 ff fc 	ld.w	r8,r7[-4]
80002f72:	b9 88       	lsr	r8,0x18
80002f74:	5c 58       	castu.b	r8
80002f76:	ee f9 ff f4 	ld.w	r9,r7[-12]
80002f7a:	b2 88       	st.b	r9[0x0],r8
80002f7c:	2f dd       	sub	sp,-12
80002f7e:	e3 cd 80 80 	ldm	sp++,r7,pc
80002f82:	00 00       	add	r0,r0
80002f84:	80 00       	ld.sh	r0,r0[0x0]
80002f86:	3c 2e       	mov	lr,-62
80002f88:	80 00       	ld.sh	r0,r0[0x0]
80002f8a:	3c 86       	mov	r6,-56

80002f8c <dip204_wait_busy>:
80002f8c:	eb cd 40 80 	pushm	r7,lr
80002f90:	1a 97       	mov	r7,sp
80002f92:	20 1d       	sub	sp,4
80002f94:	30 08       	mov	r8,0
80002f96:	ef 68 ff ff 	st.b	r7[-1],r8
80002f9a:	e0 6c 00 fc 	mov	r12,252
80002f9e:	f0 1f 00 09 	mcall	80002fc0 <dip204_wait_busy+0x34>
80002fa2:	ee c8 00 01 	sub	r8,r7,1
80002fa6:	10 9c       	mov	r12,r8
80002fa8:	f0 1f 00 07 	mcall	80002fc4 <dip204_wait_busy+0x38>
80002fac:	ef 38 ff ff 	ld.ub	r8,r7[-1]
80002fb0:	10 99       	mov	r9,r8
80002fb2:	30 08       	mov	r8,0
80002fb4:	f0 09 18 00 	cp.b	r9,r8
80002fb8:	cf 55       	brlt	80002fa2 <dip204_wait_busy+0x16>
80002fba:	2f fd       	sub	sp,-4
80002fbc:	e3 cd 80 80 	ldm	sp++,r7,pc
80002fc0:	80 00       	ld.sh	r0,r0[0x0]
80002fc2:	2e a8       	sub	r8,-22
80002fc4:	80 00       	ld.sh	r0,r0[0x0]
80002fc6:	2f 30       	sub	r0,-13

80002fc8 <adc_configure>:
 * If not called, ADC channels will have side effects
 *
 * \param *adc Base address of the ADC
 */
void adc_configure(volatile avr32_adc_t *adc)
{
80002fc8:	eb cd 40 80 	pushm	r7,lr
80002fcc:	1a 97       	mov	r7,sp
80002fce:	20 1d       	sub	sp,4
80002fd0:	ef 4c ff fc 	st.w	r7[-4],r12
	adc->mr |= 1 << AVR32_ADC_LOWRES_OFFSET;
#endif

	/* Set Sample/Hold time to max so that the ADC capacitor should be
	 * loaded entirely */
	adc->mr |= 0xF << AVR32_ADC_SHTIM_OFFSET;
80002fd4:	ee f8 ff fc 	ld.w	r8,r7[-4]
80002fd8:	70 18       	ld.w	r8,r8[0x4]
80002fda:	10 99       	mov	r9,r8
80002fdc:	ea 19 0f 00 	orh	r9,0xf00
80002fe0:	ee f8 ff fc 	ld.w	r8,r7[-4]
80002fe4:	91 19       	st.w	r8[0x4],r9

	/* Set Startup to max so that the ADC capacitor should be loaded
	 * entirely */
	adc->mr |= 0x1F << AVR32_ADC_STARTUP_OFFSET;
80002fe6:	ee f8 ff fc 	ld.w	r8,r7[-4]
80002fea:	70 18       	ld.w	r8,r8[0x4]
80002fec:	10 99       	mov	r9,r8
80002fee:	ea 19 00 1f 	orh	r9,0x1f
80002ff2:	ee f8 ff fc 	ld.w	r8,r7[-4]
80002ff6:	91 19       	st.w	r8[0x4],r9
}
80002ff8:	2f fd       	sub	sp,-4
80002ffa:	e3 cd 80 80 	ldm	sp++,r7,pc

80002ffe <adc_start>:

/** \brief Start analog to digital conversion
 * \param *adc Base address of the ADC
 */
void adc_start(volatile avr32_adc_t *adc)
{
80002ffe:	eb cd 40 80 	pushm	r7,lr
80003002:	1a 97       	mov	r7,sp
80003004:	20 1d       	sub	sp,4
80003006:	ef 4c ff fc 	st.w	r7[-4],r12
	Assert( adc != NULL );

	/* start conversion */
	adc->cr = AVR32_ADC_START_MASK;
8000300a:	ee f8 ff fc 	ld.w	r8,r7[-4]
8000300e:	30 29       	mov	r9,2
80003010:	91 09       	st.w	r8[0x0],r9
}
80003012:	2f fd       	sub	sp,-4
80003014:	e3 cd 80 80 	ldm	sp++,r7,pc

80003018 <adc_enable>:
 *
 * \param *adc Base address of the ADC
 * \param  channel   channel to enable (0 to 7)
 */
void adc_enable(volatile avr32_adc_t *adc, uint16_t channel)
{
80003018:	eb cd 40 80 	pushm	r7,lr
8000301c:	1a 97       	mov	r7,sp
8000301e:	20 2d       	sub	sp,8
80003020:	ef 4c ff fc 	st.w	r7[-4],r12
80003024:	16 98       	mov	r8,r11
80003026:	ef 58 ff f8 	st.h	r7[-8],r8
	Assert( adc != NULL );
	Assert( channel <= AVR32_ADC_CHANNELS_MSB ); /* check if channel exist
	                                              **/

	/* enable channel */
	adc->cher = (1 << channel);
8000302a:	ef 18 ff f8 	ld.uh	r8,r7[-8]
8000302e:	30 19       	mov	r9,1
80003030:	f2 08 09 48 	lsl	r8,r9,r8
80003034:	10 99       	mov	r9,r8
80003036:	ee f8 ff fc 	ld.w	r8,r7[-4]
8000303a:	91 49       	st.w	r8[0x10],r9
}
8000303c:	2f ed       	sub	sp,-8
8000303e:	e3 cd 80 80 	ldm	sp++,r7,pc

80003042 <adc_check_eoc>:
 * \param  channel   channel to check (0 to 7)
 * \return bool      true if conversion not running
 *                   false if conversion running
 */
bool adc_check_eoc(volatile avr32_adc_t *adc, uint16_t channel)
{
80003042:	eb cd 40 80 	pushm	r7,lr
80003046:	1a 97       	mov	r7,sp
80003048:	20 2d       	sub	sp,8
8000304a:	ef 4c ff fc 	st.w	r7[-4],r12
8000304e:	16 98       	mov	r8,r11
80003050:	ef 58 ff f8 	st.h	r7[-8],r8
	Assert( adc != NULL );
	Assert( channel <= AVR32_ADC_CHANNELS_MSB ); /* check if channel exist
	                                              **/

	/* get SR register : EOC bit for channel */
	return ((adc->sr & (1 << channel)) ? true : false);
80003054:	ee f8 ff fc 	ld.w	r8,r7[-4]
80003058:	70 79       	ld.w	r9,r8[0x1c]
8000305a:	ef 18 ff f8 	ld.uh	r8,r7[-8]
8000305e:	30 1a       	mov	r10,1
80003060:	f4 08 09 48 	lsl	r8,r10,r8
80003064:	f3 e8 00 08 	and	r8,r9,r8
80003068:	5f 18       	srne	r8
8000306a:	5c 58       	castu.b	r8
}
8000306c:	10 9c       	mov	r12,r8
8000306e:	2f ed       	sub	sp,-8
80003070:	e3 cd 80 80 	ldm	sp++,r7,pc

80003074 <adc_get_value>:
 * \param *adc Base address of the ADC
 * \param  channel   channel to handle (0 to 7)
 * \return The value acquired (unsigned long)
 */
uint32_t adc_get_value(volatile avr32_adc_t *adc, uint16_t channel)
{
80003074:	eb cd 40 80 	pushm	r7,lr
80003078:	1a 97       	mov	r7,sp
8000307a:	20 2d       	sub	sp,8
8000307c:	ef 4c ff fc 	st.w	r7[-4],r12
80003080:	16 98       	mov	r8,r11
80003082:	ef 58 ff f8 	st.h	r7[-8],r8
	Assert( adc != NULL );
	Assert( channel <= AVR32_ADC_CHANNELS_MSB );

	/* wait for end of conversion */
	while (adc_check_eoc(adc, channel) != true) {
80003086:	ef 18 ff f8 	ld.uh	r8,r7[-8]
8000308a:	10 9b       	mov	r11,r8
8000308c:	ee fc ff fc 	ld.w	r12,r7[-4]
80003090:	f0 1f 00 0b 	mcall	800030bc <adc_get_value+0x48>
80003094:	18 98       	mov	r8,r12
80003096:	ec 18 00 01 	eorl	r8,0x1
8000309a:	5c 58       	castu.b	r8
8000309c:	cf 51       	brne	80003086 <adc_get_value+0x12>
	}

	return *((uint32_t *)((&(adc->cdr0)) + channel));
8000309e:	ee f8 ff fc 	ld.w	r8,r7[-4]
800030a2:	f0 c9 ff d0 	sub	r9,r8,-48
800030a6:	ef 18 ff f8 	ld.uh	r8,r7[-8]
800030aa:	a3 68       	lsl	r8,0x2
800030ac:	f2 08 00 08 	add	r8,r9,r8
800030b0:	70 08       	ld.w	r8,r8[0x0]
}
800030b2:	10 9c       	mov	r12,r8
800030b4:	2f ed       	sub	sp,-8
800030b6:	e3 cd 80 80 	ldm	sp++,r7,pc
800030ba:	00 00       	add	r0,r0
800030bc:	80 00       	ld.sh	r0,r0[0x0]
800030be:	30 42       	mov	r2,4

800030c0 <LED_Set_Intensity>:
800030c0:	eb cd 40 80 	pushm	r7,lr
800030c4:	1a 97       	mov	r7,sp
800030c6:	20 6d       	sub	sp,24
800030c8:	ef 4c ff ec 	st.w	r7[-20],r12
800030cc:	16 98       	mov	r8,r11
800030ce:	ef 68 ff e8 	st.b	r7[-24],r8
800030d2:	4d 98       	lddpc	r8,80003234 <LED_Set_Intensity+0x174>
800030d4:	21 08       	sub	r8,16
800030d6:	ef 48 ff f0 	st.w	r7[-16],r8
800030da:	ee f8 ff ec 	ld.w	r8,r7[-20]
800030de:	f1 d8 c0 08 	bfextu	r8,r8,0x0,0x8
800030e2:	ef 48 ff ec 	st.w	r7[-20],r8
800030e6:	c9 e8       	rjmp	80003222 <LED_Set_Intensity+0x162>
800030e8:	ee f8 ff ec 	ld.w	r8,r7[-20]
800030ec:	58 08       	cp.w	r8,0
800030ee:	c0 a0       	breq	80003102 <LED_Set_Intensity+0x42>
800030f0:	ee f8 ff ec 	ld.w	r8,r7[-20]
800030f4:	5c 98       	brev	r8
800030f6:	f0 08 12 00 	clz	r8,r8
800030fa:	5c 58       	castu.b	r8
800030fc:	2f f8       	sub	r8,-1
800030fe:	5c 58       	castu.b	r8
80003100:	c0 28       	rjmp	80003104 <LED_Set_Intensity+0x44>
80003102:	32 18       	mov	r8,33
80003104:	ef 68 ff ff 	st.b	r7[-1],r8
80003108:	ef 38 ff ff 	ld.ub	r8,r7[-1]
8000310c:	a5 68       	lsl	r8,0x4
8000310e:	ee f9 ff f0 	ld.w	r9,r7[-16]
80003112:	f2 08 00 08 	add	r8,r9,r8
80003116:	ef 48 ff f0 	st.w	r7[-16],r8
8000311a:	ee f8 ff f0 	ld.w	r8,r7[-16]
8000311e:	70 28       	ld.w	r8,r8[0x8]
80003120:	58 08       	cp.w	r8,0
80003122:	c7 75       	brlt	80003210 <LED_Set_Intensity+0x150>
80003124:	ee f8 ff f0 	ld.w	r8,r7[-16]
80003128:	70 28       	ld.w	r8,r8[0x8]
8000312a:	a5 78       	lsl	r8,0x5
8000312c:	e0 28 ce 00 	sub	r8,52736
80003130:	ef 48 ff f4 	st.w	r7[-12],r8
80003134:	fe 78 30 00 	mov	r8,-53248
80003138:	70 39       	ld.w	r9,r8[0xc]
8000313a:	ee f8 ff f0 	ld.w	r8,r7[-16]
8000313e:	70 28       	ld.w	r8,r8[0x8]
80003140:	30 1a       	mov	r10,1
80003142:	f4 08 09 48 	lsl	r8,r10,r8
80003146:	f3 e8 00 08 	and	r8,r9,r8
8000314a:	c1 91       	brne	8000317c <LED_Set_Intensity+0xbc>
8000314c:	ee f8 ff f4 	ld.w	r8,r7[-12]
80003150:	30 09       	mov	r9,0
80003152:	91 09       	st.w	r8[0x0],r9
80003154:	ee f8 ff f4 	ld.w	r8,r7[-12]
80003158:	e0 69 00 ff 	mov	r9,255
8000315c:	91 29       	st.w	r8[0x8],r9
8000315e:	ef 39 ff e8 	ld.ub	r9,r7[-24]
80003162:	ee f8 ff f4 	ld.w	r8,r7[-12]
80003166:	91 19       	st.w	r8[0x4],r9
80003168:	fe 78 30 00 	mov	r8,-53248
8000316c:	ee f9 ff f0 	ld.w	r9,r7[-16]
80003170:	72 29       	ld.w	r9,r9[0x8]
80003172:	30 1a       	mov	r10,1
80003174:	f4 09 09 49 	lsl	r9,r10,r9
80003178:	91 19       	st.w	r8[0x4],r9
8000317a:	c1 58       	rjmp	800031a4 <LED_Set_Intensity+0xe4>
8000317c:	fe 78 30 00 	mov	r8,-53248
80003180:	70 78       	ld.w	r8,r8[0x1c]
80003182:	fe 78 30 00 	mov	r8,-53248
80003186:	70 79       	ld.w	r9,r8[0x1c]
80003188:	ee f8 ff f0 	ld.w	r8,r7[-16]
8000318c:	70 28       	ld.w	r8,r8[0x8]
8000318e:	30 1a       	mov	r10,1
80003190:	f4 08 09 48 	lsl	r8,r10,r8
80003194:	f3 e8 00 08 	and	r8,r9,r8
80003198:	cf 50       	breq	80003182 <LED_Set_Intensity+0xc2>
8000319a:	ef 39 ff e8 	ld.ub	r9,r7[-24]
8000319e:	ee f8 ff f4 	ld.w	r8,r7[-12]
800031a2:	91 49       	st.w	r8[0x10],r9
800031a4:	ee f8 ff f0 	ld.w	r8,r7[-16]
800031a8:	70 08       	ld.w	r8,r8[0x0]
800031aa:	a9 68       	lsl	r8,0x8
800031ac:	e0 28 f0 00 	sub	r8,61440
800031b0:	ef 48 ff f8 	st.w	r7[-8],r8
800031b4:	ee f8 ff f0 	ld.w	r8,r7[-16]
800031b8:	70 38       	ld.w	r8,r8[0xc]
800031ba:	f1 d8 c0 01 	bfextu	r8,r8,0x0,0x1
800031be:	5c 58       	castu.b	r8
800031c0:	c0 80       	breq	800031d0 <LED_Set_Intensity+0x110>
800031c2:	ee f8 ff f0 	ld.w	r8,r7[-16]
800031c6:	70 19       	ld.w	r9,r8[0x4]
800031c8:	ee f8 ff f8 	ld.w	r8,r7[-8]
800031cc:	91 59       	st.w	r8[0x14],r9
800031ce:	c0 78       	rjmp	800031dc <LED_Set_Intensity+0x11c>
800031d0:	ee f8 ff f0 	ld.w	r8,r7[-16]
800031d4:	70 19       	ld.w	r9,r8[0x4]
800031d6:	ee f8 ff f8 	ld.w	r8,r7[-8]
800031da:	91 69       	st.w	r8[0x18],r9
800031dc:	ee f8 ff f0 	ld.w	r8,r7[-16]
800031e0:	70 38       	ld.w	r8,r8[0xc]
800031e2:	e2 18 00 02 	andl	r8,0x2,COH
800031e6:	c0 80       	breq	800031f6 <LED_Set_Intensity+0x136>
800031e8:	ee f8 ff f0 	ld.w	r8,r7[-16]
800031ec:	70 19       	ld.w	r9,r8[0x4]
800031ee:	ee f8 ff f8 	ld.w	r8,r7[-8]
800031f2:	91 99       	st.w	r8[0x24],r9
800031f4:	c0 78       	rjmp	80003202 <LED_Set_Intensity+0x142>
800031f6:	ee f8 ff f0 	ld.w	r8,r7[-16]
800031fa:	70 19       	ld.w	r9,r8[0x4]
800031fc:	ee f8 ff f8 	ld.w	r8,r7[-8]
80003200:	91 a9       	st.w	r8[0x28],r9
80003202:	ee f8 ff f0 	ld.w	r8,r7[-16]
80003206:	70 19       	ld.w	r9,r8[0x4]
80003208:	ee f8 ff f8 	ld.w	r8,r7[-8]
8000320c:	91 29       	st.w	r8[0x8],r9
8000320e:	c0 28       	rjmp	80003212 <LED_Set_Intensity+0x152>
80003210:	d7 03       	nop
80003212:	ef 38 ff ff 	ld.ub	r8,r7[-1]
80003216:	ee f9 ff ec 	ld.w	r9,r7[-20]
8000321a:	f2 08 0a 48 	lsr	r8,r9,r8
8000321e:	ef 48 ff ec 	st.w	r7[-20],r8
80003222:	ee f8 ff ec 	ld.w	r8,r7[-20]
80003226:	58 08       	cp.w	r8,0
80003228:	fe 91 ff 60 	brne	800030e8 <LED_Set_Intensity+0x28>
8000322c:	2f ad       	sub	sp,-24
8000322e:	e3 cd 80 80 	ldm	sp++,r7,pc
80003232:	00 00       	add	r0,r0
80003234:	80 00       	ld.sh	r0,r0[0x0]
80003236:	9e 00       	ld.sh	r0,pc[0x0]

80003238 <gpio_enable_module>:
80003238:	eb cd 40 80 	pushm	r7,lr
8000323c:	1a 97       	mov	r7,sp
8000323e:	20 4d       	sub	sp,16
80003240:	ef 4c ff f4 	st.w	r7[-12],r12
80003244:	ef 4b ff f0 	st.w	r7[-16],r11
80003248:	30 08       	mov	r8,0
8000324a:	ef 48 ff f8 	st.w	r7[-8],r8
8000324e:	30 08       	mov	r8,0
80003250:	ef 48 ff fc 	st.w	r7[-4],r8
80003254:	c1 c8       	rjmp	8000328c <gpio_enable_module+0x54>
80003256:	ee f8 ff f4 	ld.w	r8,r7[-12]
8000325a:	70 19       	ld.w	r9,r8[0x4]
8000325c:	ee f8 ff f4 	ld.w	r8,r7[-12]
80003260:	70 08       	ld.w	r8,r8[0x0]
80003262:	12 9b       	mov	r11,r9
80003264:	10 9c       	mov	r12,r8
80003266:	f0 1f 00 10 	mcall	800032a4 <gpio_enable_module+0x6c>
8000326a:	18 98       	mov	r8,r12
8000326c:	ee f9 ff f8 	ld.w	r9,r7[-8]
80003270:	f3 e8 10 08 	or	r8,r9,r8
80003274:	ef 48 ff f8 	st.w	r7[-8],r8
80003278:	ee f8 ff f4 	ld.w	r8,r7[-12]
8000327c:	2f 88       	sub	r8,-8
8000327e:	ef 48 ff f4 	st.w	r7[-12],r8
80003282:	ee f8 ff fc 	ld.w	r8,r7[-4]
80003286:	2f f8       	sub	r8,-1
80003288:	ef 48 ff fc 	st.w	r7[-4],r8
8000328c:	ee f9 ff fc 	ld.w	r9,r7[-4]
80003290:	ee f8 ff f0 	ld.w	r8,r7[-16]
80003294:	10 39       	cp.w	r9,r8
80003296:	ce 03       	brcs	80003256 <gpio_enable_module+0x1e>
80003298:	ee f8 ff f8 	ld.w	r8,r7[-8]
8000329c:	10 9c       	mov	r12,r8
8000329e:	2f cd       	sub	sp,-16
800032a0:	e3 cd 80 80 	ldm	sp++,r7,pc
800032a4:	80 00       	ld.sh	r0,r0[0x0]
800032a6:	32 a8       	mov	r8,42

800032a8 <gpio_enable_module_pin>:
800032a8:	eb cd 40 80 	pushm	r7,lr
800032ac:	1a 97       	mov	r7,sp
800032ae:	20 3d       	sub	sp,12
800032b0:	ef 4c ff f8 	st.w	r7[-8],r12
800032b4:	ef 4b ff f4 	st.w	r7[-12],r11
800032b8:	ee f8 ff f8 	ld.w	r8,r7[-8]
800032bc:	a5 98       	lsr	r8,0x5
800032be:	a9 68       	lsl	r8,0x8
800032c0:	e0 28 f0 00 	sub	r8,61440
800032c4:	ef 48 ff fc 	st.w	r7[-4],r8
800032c8:	ee f8 ff f4 	ld.w	r8,r7[-12]
800032cc:	58 18       	cp.w	r8,1
800032ce:	c1 e0       	breq	8000330a <gpio_enable_module_pin+0x62>
800032d0:	c0 63       	brcs	800032dc <gpio_enable_module_pin+0x34>
800032d2:	58 28       	cp.w	r8,2
800032d4:	c3 20       	breq	80003338 <gpio_enable_module_pin+0x90>
800032d6:	58 38       	cp.w	r8,3
800032d8:	c4 70       	breq	80003366 <gpio_enable_module_pin+0xbe>
800032da:	c5 d8       	rjmp	80003394 <gpio_enable_module_pin+0xec>
800032dc:	ee f8 ff f8 	ld.w	r8,r7[-8]
800032e0:	f1 d8 c0 05 	bfextu	r8,r8,0x0,0x5
800032e4:	30 19       	mov	r9,1
800032e6:	f2 08 09 48 	lsl	r8,r9,r8
800032ea:	10 99       	mov	r9,r8
800032ec:	ee f8 ff fc 	ld.w	r8,r7[-4]
800032f0:	91 69       	st.w	r8[0x18],r9
800032f2:	ee f8 ff f8 	ld.w	r8,r7[-8]
800032f6:	f1 d8 c0 05 	bfextu	r8,r8,0x0,0x5
800032fa:	30 19       	mov	r9,1
800032fc:	f2 08 09 48 	lsl	r8,r9,r8
80003300:	10 99       	mov	r9,r8
80003302:	ee f8 ff fc 	ld.w	r8,r7[-4]
80003306:	91 a9       	st.w	r8[0x28],r9
80003308:	c4 88       	rjmp	80003398 <gpio_enable_module_pin+0xf0>
8000330a:	ee f8 ff f8 	ld.w	r8,r7[-8]
8000330e:	f1 d8 c0 05 	bfextu	r8,r8,0x0,0x5
80003312:	30 19       	mov	r9,1
80003314:	f2 08 09 48 	lsl	r8,r9,r8
80003318:	10 99       	mov	r9,r8
8000331a:	ee f8 ff fc 	ld.w	r8,r7[-4]
8000331e:	91 59       	st.w	r8[0x14],r9
80003320:	ee f8 ff f8 	ld.w	r8,r7[-8]
80003324:	f1 d8 c0 05 	bfextu	r8,r8,0x0,0x5
80003328:	30 19       	mov	r9,1
8000332a:	f2 08 09 48 	lsl	r8,r9,r8
8000332e:	10 99       	mov	r9,r8
80003330:	ee f8 ff fc 	ld.w	r8,r7[-4]
80003334:	91 a9       	st.w	r8[0x28],r9
80003336:	c3 18       	rjmp	80003398 <gpio_enable_module_pin+0xf0>
80003338:	ee f8 ff f8 	ld.w	r8,r7[-8]
8000333c:	f1 d8 c0 05 	bfextu	r8,r8,0x0,0x5
80003340:	30 19       	mov	r9,1
80003342:	f2 08 09 48 	lsl	r8,r9,r8
80003346:	10 99       	mov	r9,r8
80003348:	ee f8 ff fc 	ld.w	r8,r7[-4]
8000334c:	91 69       	st.w	r8[0x18],r9
8000334e:	ee f8 ff f8 	ld.w	r8,r7[-8]
80003352:	f1 d8 c0 05 	bfextu	r8,r8,0x0,0x5
80003356:	30 19       	mov	r9,1
80003358:	f2 08 09 48 	lsl	r8,r9,r8
8000335c:	10 99       	mov	r9,r8
8000335e:	ee f8 ff fc 	ld.w	r8,r7[-4]
80003362:	91 99       	st.w	r8[0x24],r9
80003364:	c1 a8       	rjmp	80003398 <gpio_enable_module_pin+0xf0>
80003366:	ee f8 ff f8 	ld.w	r8,r7[-8]
8000336a:	f1 d8 c0 05 	bfextu	r8,r8,0x0,0x5
8000336e:	30 19       	mov	r9,1
80003370:	f2 08 09 48 	lsl	r8,r9,r8
80003374:	10 99       	mov	r9,r8
80003376:	ee f8 ff fc 	ld.w	r8,r7[-4]
8000337a:	91 59       	st.w	r8[0x14],r9
8000337c:	ee f8 ff f8 	ld.w	r8,r7[-8]
80003380:	f1 d8 c0 05 	bfextu	r8,r8,0x0,0x5
80003384:	30 19       	mov	r9,1
80003386:	f2 08 09 48 	lsl	r8,r9,r8
8000338a:	10 99       	mov	r9,r8
8000338c:	ee f8 ff fc 	ld.w	r8,r7[-4]
80003390:	91 99       	st.w	r8[0x24],r9
80003392:	c0 38       	rjmp	80003398 <gpio_enable_module_pin+0xf0>
80003394:	30 18       	mov	r8,1
80003396:	c0 d8       	rjmp	800033b0 <gpio_enable_module_pin+0x108>
80003398:	ee f8 ff f8 	ld.w	r8,r7[-8]
8000339c:	f1 d8 c0 05 	bfextu	r8,r8,0x0,0x5
800033a0:	30 19       	mov	r9,1
800033a2:	f2 08 09 48 	lsl	r8,r9,r8
800033a6:	10 99       	mov	r9,r8
800033a8:	ee f8 ff fc 	ld.w	r8,r7[-4]
800033ac:	91 29       	st.w	r8[0x8],r9
800033ae:	30 08       	mov	r8,0
800033b0:	10 9c       	mov	r12,r8
800033b2:	2f dd       	sub	sp,-12
800033b4:	e3 cd 80 80 	ldm	sp++,r7,pc

800033b8 <gpio_set_gpio_pin>:
800033b8:	eb cd 40 80 	pushm	r7,lr
800033bc:	1a 97       	mov	r7,sp
800033be:	20 2d       	sub	sp,8
800033c0:	ef 4c ff f8 	st.w	r7[-8],r12
800033c4:	ee f8 ff f8 	ld.w	r8,r7[-8]
800033c8:	a5 98       	lsr	r8,0x5
800033ca:	a9 68       	lsl	r8,0x8
800033cc:	e0 28 f0 00 	sub	r8,61440
800033d0:	ef 48 ff fc 	st.w	r7[-4],r8
800033d4:	ee f8 ff f8 	ld.w	r8,r7[-8]
800033d8:	f1 d8 c0 05 	bfextu	r8,r8,0x0,0x5
800033dc:	30 19       	mov	r9,1
800033de:	f2 08 09 48 	lsl	r8,r9,r8
800033e2:	10 99       	mov	r9,r8
800033e4:	ee f8 ff fc 	ld.w	r8,r7[-4]
800033e8:	f1 49 00 54 	st.w	r8[84],r9
800033ec:	ee f8 ff f8 	ld.w	r8,r7[-8]
800033f0:	f1 d8 c0 05 	bfextu	r8,r8,0x0,0x5
800033f4:	30 19       	mov	r9,1
800033f6:	f2 08 09 48 	lsl	r8,r9,r8
800033fa:	10 99       	mov	r9,r8
800033fc:	ee f8 ff fc 	ld.w	r8,r7[-4]
80003400:	f1 49 00 44 	st.w	r8[68],r9
80003404:	ee f8 ff f8 	ld.w	r8,r7[-8]
80003408:	f1 d8 c0 05 	bfextu	r8,r8,0x0,0x5
8000340c:	30 19       	mov	r9,1
8000340e:	f2 08 09 48 	lsl	r8,r9,r8
80003412:	10 99       	mov	r9,r8
80003414:	ee f8 ff fc 	ld.w	r8,r7[-4]
80003418:	91 19       	st.w	r8[0x4],r9
8000341a:	2f ed       	sub	sp,-8
8000341c:	e3 cd 80 80 	ldm	sp++,r7,pc

80003420 <gpio_clr_gpio_pin>:
80003420:	eb cd 40 80 	pushm	r7,lr
80003424:	1a 97       	mov	r7,sp
80003426:	20 2d       	sub	sp,8
80003428:	ef 4c ff f8 	st.w	r7[-8],r12
8000342c:	ee f8 ff f8 	ld.w	r8,r7[-8]
80003430:	a5 98       	lsr	r8,0x5
80003432:	a9 68       	lsl	r8,0x8
80003434:	e0 28 f0 00 	sub	r8,61440
80003438:	ef 48 ff fc 	st.w	r7[-4],r8
8000343c:	ee f8 ff f8 	ld.w	r8,r7[-8]
80003440:	f1 d8 c0 05 	bfextu	r8,r8,0x0,0x5
80003444:	30 19       	mov	r9,1
80003446:	f2 08 09 48 	lsl	r8,r9,r8
8000344a:	10 99       	mov	r9,r8
8000344c:	ee f8 ff fc 	ld.w	r8,r7[-4]
80003450:	f1 49 00 58 	st.w	r8[88],r9
80003454:	ee f8 ff f8 	ld.w	r8,r7[-8]
80003458:	f1 d8 c0 05 	bfextu	r8,r8,0x0,0x5
8000345c:	30 19       	mov	r9,1
8000345e:	f2 08 09 48 	lsl	r8,r9,r8
80003462:	10 99       	mov	r9,r8
80003464:	ee f8 ff fc 	ld.w	r8,r7[-4]
80003468:	f1 49 00 44 	st.w	r8[68],r9
8000346c:	ee f8 ff f8 	ld.w	r8,r7[-8]
80003470:	f1 d8 c0 05 	bfextu	r8,r8,0x0,0x5
80003474:	30 19       	mov	r9,1
80003476:	f2 08 09 48 	lsl	r8,r9,r8
8000347a:	10 99       	mov	r9,r8
8000347c:	ee f8 ff fc 	ld.w	r8,r7[-4]
80003480:	91 19       	st.w	r8[0x4],r9
80003482:	2f ed       	sub	sp,-8
80003484:	e3 cd 80 80 	ldm	sp++,r7,pc

80003488 <_get_interrupt_handler>:
80003488:	eb cd 40 80 	pushm	r7,lr
8000348c:	1a 97       	mov	r7,sp
8000348e:	20 3d       	sub	sp,12
80003490:	ef 4c ff f4 	st.w	r7[-12],r12
80003494:	fe 78 08 00 	mov	r8,-63488
80003498:	ee f9 ff f4 	ld.w	r9,r7[-12]
8000349c:	f2 09 11 03 	rsub	r9,r9,3
800034a0:	28 09       	sub	r9,-128
800034a2:	f0 09 03 28 	ld.w	r8,r8[r9<<0x2]
800034a6:	ef 48 ff f8 	st.w	r7[-8],r8
800034aa:	fe 78 08 00 	mov	r8,-63488
800034ae:	ee f9 ff f8 	ld.w	r9,r7[-8]
800034b2:	2c 09       	sub	r9,-64
800034b4:	f0 09 03 28 	ld.w	r8,r8[r9<<0x2]
800034b8:	ef 48 ff fc 	st.w	r7[-4],r8
800034bc:	ee f8 ff fc 	ld.w	r8,r7[-4]
800034c0:	58 08       	cp.w	r8,0
800034c2:	c1 90       	breq	800034f4 <_get_interrupt_handler+0x6c>
800034c4:	ee f9 ff f8 	ld.w	r9,r7[-8]
800034c8:	48 e8       	lddpc	r8,80003500 <_get_interrupt_handler+0x78>
800034ca:	a1 79       	lsl	r9,0x1
800034cc:	2f f9       	sub	r9,-1
800034ce:	f0 09 03 29 	ld.w	r9,r8[r9<<0x2]
800034d2:	ee f8 ff fc 	ld.w	r8,r7[-4]
800034d6:	58 08       	cp.w	r8,0
800034d8:	c0 90       	breq	800034ea <_get_interrupt_handler+0x62>
800034da:	ee f8 ff fc 	ld.w	r8,r7[-4]
800034de:	f0 08 12 00 	clz	r8,r8
800034e2:	f0 08 11 1f 	rsub	r8,r8,31
800034e6:	a3 68       	lsl	r8,0x2
800034e8:	c0 28       	rjmp	800034ec <_get_interrupt_handler+0x64>
800034ea:	3f c8       	mov	r8,-4
800034ec:	f2 08 00 08 	add	r8,r9,r8
800034f0:	70 08       	ld.w	r8,r8[0x0]
800034f2:	c0 28       	rjmp	800034f6 <_get_interrupt_handler+0x6e>
800034f4:	30 08       	mov	r8,0
800034f6:	10 9c       	mov	r12,r8
800034f8:	2f dd       	sub	sp,-12
800034fa:	e3 cd 80 80 	ldm	sp++,r7,pc
800034fe:	00 00       	add	r0,r0
80003500:	80 00       	ld.sh	r0,r0[0x0]
80003502:	9e 80       	ld.uh	r0,pc[0x0]

80003504 <pm_set_osc0_mode>:
80003504:	eb cd 40 80 	pushm	r7,lr
80003508:	1a 97       	mov	r7,sp
8000350a:	20 3d       	sub	sp,12
8000350c:	ef 4c ff f8 	st.w	r7[-8],r12
80003510:	ef 4b ff f4 	st.w	r7[-12],r11
80003514:	ee f8 ff f8 	ld.w	r8,r7[-8]
80003518:	70 a8       	ld.w	r8,r8[0x28]
8000351a:	30 09       	mov	r9,0
8000351c:	ef 49 ff fc 	st.w	r7[-4],r9
80003520:	ef 48 ff fc 	st.w	r7[-4],r8
80003524:	ee f8 ff f4 	ld.w	r8,r7[-12]
80003528:	5c 58       	castu.b	r8
8000352a:	f1 d8 c0 03 	bfextu	r8,r8,0x0,0x3
8000352e:	f3 d8 c0 08 	bfextu	r9,r8,0x0,0x8
80003532:	ee f8 ff fc 	ld.w	r8,r7[-4]
80003536:	f1 d9 d0 03 	bfins	r8,r9,0x0,0x3
8000353a:	ef 48 ff fc 	st.w	r7[-4],r8
8000353e:	ee f9 ff fc 	ld.w	r9,r7[-4]
80003542:	ee f8 ff f8 	ld.w	r8,r7[-8]
80003546:	91 a9       	st.w	r8[0x28],r9
80003548:	2f dd       	sub	sp,-12
8000354a:	e3 cd 80 80 	ldm	sp++,r7,pc
8000354e:	d7 03       	nop

80003550 <pm_enable_osc0_crystal>:
80003550:	eb cd 40 80 	pushm	r7,lr
80003554:	1a 97       	mov	r7,sp
80003556:	20 2d       	sub	sp,8
80003558:	ef 4c ff fc 	st.w	r7[-4],r12
8000355c:	ef 4b ff f8 	st.w	r7[-8],r11
80003560:	ee f8 ff f8 	ld.w	r8,r7[-8]
80003564:	ec 58 bb 9f 	cp.w	r8,899999
80003568:	e0 88 00 1a 	brls	8000359c <pm_enable_osc0_crystal+0x4c>
8000356c:	ee f8 ff f8 	ld.w	r8,r7[-8]
80003570:	e0 69 c6 bf 	mov	r9,50879
80003574:	ea 19 00 2d 	orh	r9,0x2d
80003578:	12 38       	cp.w	r8,r9
8000357a:	e0 88 00 0f 	brls	80003598 <pm_enable_osc0_crystal+0x48>
8000357e:	ee f8 ff f8 	ld.w	r8,r7[-8]
80003582:	e0 69 11 ff 	mov	r9,4607
80003586:	ea 19 00 7a 	orh	r9,0x7a
8000358a:	12 38       	cp.w	r8,r9
8000358c:	e0 8b 00 04 	brhi	80003594 <pm_enable_osc0_crystal+0x44>
80003590:	30 68       	mov	r8,6
80003592:	c0 28       	rjmp	80003596 <pm_enable_osc0_crystal+0x46>
80003594:	30 78       	mov	r8,7
80003596:	c0 28       	rjmp	8000359a <pm_enable_osc0_crystal+0x4a>
80003598:	30 58       	mov	r8,5
8000359a:	c0 28       	rjmp	8000359e <pm_enable_osc0_crystal+0x4e>
8000359c:	30 48       	mov	r8,4
8000359e:	10 9b       	mov	r11,r8
800035a0:	ee fc ff fc 	ld.w	r12,r7[-4]
800035a4:	f0 1f 00 03 	mcall	800035b0 <pm_enable_osc0_crystal+0x60>
800035a8:	2f ed       	sub	sp,-8
800035aa:	e3 cd 80 80 	ldm	sp++,r7,pc
800035ae:	00 00       	add	r0,r0
800035b0:	80 00       	ld.sh	r0,r0[0x0]
800035b2:	35 04       	mov	r4,80

800035b4 <pm_enable_clk0>:
800035b4:	eb cd 40 80 	pushm	r7,lr
800035b8:	1a 97       	mov	r7,sp
800035ba:	20 2d       	sub	sp,8
800035bc:	ef 4c ff fc 	st.w	r7[-4],r12
800035c0:	ef 4b ff f8 	st.w	r7[-8],r11
800035c4:	ee fb ff f8 	ld.w	r11,r7[-8]
800035c8:	ee fc ff fc 	ld.w	r12,r7[-4]
800035cc:	f0 1f 00 05 	mcall	800035e0 <pm_enable_clk0+0x2c>
800035d0:	ee fc ff fc 	ld.w	r12,r7[-4]
800035d4:	f0 1f 00 04 	mcall	800035e4 <pm_enable_clk0+0x30>
800035d8:	2f ed       	sub	sp,-8
800035da:	e3 cd 80 80 	ldm	sp++,r7,pc
800035de:	00 00       	add	r0,r0
800035e0:	80 00       	ld.sh	r0,r0[0x0]
800035e2:	35 e8       	mov	r8,94
800035e4:	80 00       	ld.sh	r0,r0[0x0]
800035e6:	36 42       	mov	r2,100

800035e8 <pm_enable_clk0_no_wait>:
800035e8:	eb cd 40 80 	pushm	r7,lr
800035ec:	1a 97       	mov	r7,sp
800035ee:	20 3d       	sub	sp,12
800035f0:	ef 4c ff f8 	st.w	r7[-8],r12
800035f4:	ef 4b ff f4 	st.w	r7[-12],r11
800035f8:	ee f8 ff f8 	ld.w	r8,r7[-8]
800035fc:	70 a8       	ld.w	r8,r8[0x28]
800035fe:	30 09       	mov	r9,0
80003600:	ef 49 ff fc 	st.w	r7[-4],r9
80003604:	ef 48 ff fc 	st.w	r7[-4],r8
80003608:	ee f8 ff f4 	ld.w	r8,r7[-12]
8000360c:	5c 58       	castu.b	r8
8000360e:	f1 d8 c0 03 	bfextu	r8,r8,0x0,0x3
80003612:	f3 d8 c0 08 	bfextu	r9,r8,0x0,0x8
80003616:	ee f8 ff fc 	ld.w	r8,r7[-4]
8000361a:	f1 d9 d1 03 	bfins	r8,r9,0x8,0x3
8000361e:	ef 48 ff fc 	st.w	r7[-4],r8
80003622:	ee f9 ff fc 	ld.w	r9,r7[-4]
80003626:	ee f8 ff f8 	ld.w	r8,r7[-8]
8000362a:	91 a9       	st.w	r8[0x28],r9
8000362c:	ee f8 ff f8 	ld.w	r8,r7[-8]
80003630:	70 08       	ld.w	r8,r8[0x0]
80003632:	10 99       	mov	r9,r8
80003634:	a3 a9       	sbr	r9,0x2
80003636:	ee f8 ff f8 	ld.w	r8,r7[-8]
8000363a:	91 09       	st.w	r8[0x0],r9
8000363c:	2f dd       	sub	sp,-12
8000363e:	e3 cd 80 80 	ldm	sp++,r7,pc

80003642 <pm_wait_for_clk0_ready>:
80003642:	eb cd 40 80 	pushm	r7,lr
80003646:	1a 97       	mov	r7,sp
80003648:	20 1d       	sub	sp,4
8000364a:	ef 4c ff fc 	st.w	r7[-4],r12
8000364e:	ee f8 ff fc 	ld.w	r8,r7[-4]
80003652:	71 58       	ld.w	r8,r8[0x54]
80003654:	e2 18 00 80 	andl	r8,0x80,COH
80003658:	cf b0       	breq	8000364e <pm_wait_for_clk0_ready+0xc>
8000365a:	2f fd       	sub	sp,-4
8000365c:	e3 cd 80 80 	ldm	sp++,r7,pc

80003660 <pm_switch_to_clock>:
80003660:	eb cd 40 80 	pushm	r7,lr
80003664:	1a 97       	mov	r7,sp
80003666:	20 3d       	sub	sp,12
80003668:	ef 4c ff f8 	st.w	r7[-8],r12
8000366c:	ef 4b ff f4 	st.w	r7[-12],r11
80003670:	ee f8 ff f8 	ld.w	r8,r7[-8]
80003674:	70 08       	ld.w	r8,r8[0x0]
80003676:	30 09       	mov	r9,0
80003678:	ef 49 ff fc 	st.w	r7[-4],r9
8000367c:	ef 48 ff fc 	st.w	r7[-4],r8
80003680:	ee f8 ff f4 	ld.w	r8,r7[-12]
80003684:	5c 58       	castu.b	r8
80003686:	f1 d8 c0 02 	bfextu	r8,r8,0x0,0x2
8000368a:	f3 d8 c0 08 	bfextu	r9,r8,0x0,0x8
8000368e:	ee f8 ff fc 	ld.w	r8,r7[-4]
80003692:	f1 d9 d0 02 	bfins	r8,r9,0x0,0x2
80003696:	ef 48 ff fc 	st.w	r7[-4],r8
8000369a:	ee f9 ff fc 	ld.w	r9,r7[-4]
8000369e:	ee f8 ff f8 	ld.w	r8,r7[-8]
800036a2:	91 09       	st.w	r8[0x0],r9
800036a4:	2f dd       	sub	sp,-12
800036a6:	e3 cd 80 80 	ldm	sp++,r7,pc

800036aa <cpu_irq_is_enabled_flags>:
800036aa:	eb cd 40 80 	pushm	r7,lr
800036ae:	1a 97       	mov	r7,sp
800036b0:	20 1d       	sub	sp,4
800036b2:	ef 4c ff fc 	st.w	r7[-4],r12
800036b6:	ee f8 ff fc 	ld.w	r8,r7[-4]
800036ba:	e6 18 00 01 	andh	r8,0x1,COH
800036be:	5f 08       	sreq	r8
800036c0:	5c 58       	castu.b	r8
800036c2:	10 9c       	mov	r12,r8
800036c4:	2f fd       	sub	sp,-4
800036c6:	e3 cd 80 80 	ldm	sp++,r7,pc
800036ca:	d7 03       	nop

800036cc <pwm_init>:
800036cc:	eb cd 40 80 	pushm	r7,lr
800036d0:	1a 97       	mov	r7,sp
800036d2:	20 3d       	sub	sp,12
800036d4:	ef 4c ff f4 	st.w	r7[-12],r12
800036d8:	fe 78 30 00 	mov	r8,-53248
800036dc:	ef 48 ff f8 	st.w	r7[-8],r8
800036e0:	e1 b8 00 00 	mfsr	r8,0x0
800036e4:	10 9c       	mov	r12,r8
800036e6:	f0 1f 00 1e 	mcall	8000375c <pwm_init+0x90>
800036ea:	18 98       	mov	r8,r12
800036ec:	ef 68 ff ff 	st.b	r7[-1],r8
800036f0:	ee f8 ff f4 	ld.w	r8,r7[-12]
800036f4:	58 08       	cp.w	r8,0
800036f6:	c0 31       	brne	800036fc <pwm_init+0x30>
800036f8:	30 18       	mov	r8,1
800036fa:	c2 c8       	rjmp	80003752 <pwm_init+0x86>
800036fc:	ef 39 ff ff 	ld.ub	r9,r7[-1]
80003700:	30 08       	mov	r8,0
80003702:	f0 09 18 00 	cp.b	r9,r8
80003706:	c0 20       	breq	8000370a <pwm_init+0x3e>
80003708:	d3 03       	ssrf	0x10
8000370a:	ee f8 ff f8 	ld.w	r8,r7[-8]
8000370e:	37 f9       	mov	r9,127
80003710:	91 59       	st.w	r8[0x14],r9
80003712:	ee f8 ff f8 	ld.w	r8,r7[-8]
80003716:	70 78       	ld.w	r8,r8[0x1c]
80003718:	ef 39 ff ff 	ld.ub	r9,r7[-1]
8000371c:	30 08       	mov	r8,0
8000371e:	f0 09 18 00 	cp.b	r9,r8
80003722:	c0 20       	breq	80003726 <pwm_init+0x5a>
80003724:	d5 03       	csrf	0x10
80003726:	ee f8 ff f4 	ld.w	r8,r7[-12]
8000372a:	70 19       	ld.w	r9,r8[0x4]
8000372c:	ee f8 ff f4 	ld.w	r8,r7[-12]
80003730:	70 08       	ld.w	r8,r8[0x0]
80003732:	b1 68       	lsl	r8,0x10
80003734:	10 49       	or	r9,r8
80003736:	ee f8 ff f4 	ld.w	r8,r7[-12]
8000373a:	70 38       	ld.w	r8,r8[0xc]
8000373c:	a9 68       	lsl	r8,0x8
8000373e:	10 49       	or	r9,r8
80003740:	ee f8 ff f4 	ld.w	r8,r7[-12]
80003744:	70 28       	ld.w	r8,r8[0x8]
80003746:	b9 68       	lsl	r8,0x18
80003748:	10 49       	or	r9,r8
8000374a:	ee f8 ff f8 	ld.w	r8,r7[-8]
8000374e:	91 09       	st.w	r8[0x0],r9
80003750:	30 08       	mov	r8,0
80003752:	10 9c       	mov	r12,r8
80003754:	2f dd       	sub	sp,-12
80003756:	e3 cd 80 80 	ldm	sp++,r7,pc
8000375a:	00 00       	add	r0,r0
8000375c:	80 00       	ld.sh	r0,r0[0x0]
8000375e:	36 aa       	mov	r10,106

80003760 <pwm_channel_init>:
80003760:	eb cd 40 80 	pushm	r7,lr
80003764:	1a 97       	mov	r7,sp
80003766:	20 3d       	sub	sp,12
80003768:	ef 4c ff f8 	st.w	r7[-8],r12
8000376c:	ef 4b ff f4 	st.w	r7[-12],r11
80003770:	fe 78 30 00 	mov	r8,-53248
80003774:	ef 48 ff fc 	st.w	r7[-4],r8
80003778:	ee f8 ff f4 	ld.w	r8,r7[-12]
8000377c:	58 08       	cp.w	r8,0
8000377e:	c0 31       	brne	80003784 <pwm_channel_init+0x24>
80003780:	30 18       	mov	r8,1
80003782:	c2 f8       	rjmp	800037e0 <pwm_channel_init+0x80>
80003784:	ee f8 ff f8 	ld.w	r8,r7[-8]
80003788:	58 68       	cp.w	r8,6
8000378a:	e0 88 00 04 	brls	80003792 <pwm_channel_init+0x32>
8000378e:	30 18       	mov	r8,1
80003790:	c2 88       	rjmp	800037e0 <pwm_channel_init+0x80>
80003792:	ee f8 ff f8 	ld.w	r8,r7[-8]
80003796:	ee f9 ff f4 	ld.w	r9,r7[-12]
8000379a:	72 09       	ld.w	r9,r9[0x0]
8000379c:	ee fa ff fc 	ld.w	r10,r7[-4]
800037a0:	2f 08       	sub	r8,-16
800037a2:	a5 78       	lsl	r8,0x5
800037a4:	f4 08 00 08 	add	r8,r10,r8
800037a8:	91 09       	st.w	r8[0x0],r9
800037aa:	ee f8 ff f8 	ld.w	r8,r7[-8]
800037ae:	ee f9 ff f4 	ld.w	r9,r7[-12]
800037b2:	72 19       	ld.w	r9,r9[0x4]
800037b4:	ee fa ff fc 	ld.w	r10,r7[-4]
800037b8:	a5 78       	lsl	r8,0x5
800037ba:	f4 08 00 08 	add	r8,r10,r8
800037be:	f0 c8 fd fc 	sub	r8,r8,-516
800037c2:	91 09       	st.w	r8[0x0],r9
800037c4:	ee f8 ff f8 	ld.w	r8,r7[-8]
800037c8:	ee f9 ff f4 	ld.w	r9,r7[-12]
800037cc:	72 29       	ld.w	r9,r9[0x8]
800037ce:	ee fa ff fc 	ld.w	r10,r7[-4]
800037d2:	a5 78       	lsl	r8,0x5
800037d4:	f4 08 00 08 	add	r8,r10,r8
800037d8:	f0 c8 fd f8 	sub	r8,r8,-520
800037dc:	91 09       	st.w	r8[0x0],r9
800037de:	30 08       	mov	r8,0
800037e0:	10 9c       	mov	r12,r8
800037e2:	2f dd       	sub	sp,-12
800037e4:	e3 cd 80 80 	ldm	sp++,r7,pc

800037e8 <pwm_start_channels>:
800037e8:	eb cd 40 80 	pushm	r7,lr
800037ec:	1a 97       	mov	r7,sp
800037ee:	20 1d       	sub	sp,4
800037f0:	ef 4c ff fc 	st.w	r7[-4],r12
800037f4:	ee f8 ff fc 	ld.w	r8,r7[-4]
800037f8:	e0 18 ff 80 	andl	r8,0xff80
800037fc:	c0 30       	breq	80003802 <pwm_start_channels+0x1a>
800037fe:	30 18       	mov	r8,1
80003800:	c0 78       	rjmp	8000380e <pwm_start_channels+0x26>
80003802:	fe 78 30 00 	mov	r8,-53248
80003806:	ee f9 ff fc 	ld.w	r9,r7[-4]
8000380a:	91 19       	st.w	r8[0x4],r9
8000380c:	30 08       	mov	r8,0
8000380e:	10 9c       	mov	r12,r8
80003810:	2f fd       	sub	sp,-4
80003812:	e3 cd 80 80 	ldm	sp++,r7,pc

80003816 <getBaudDiv>:
80003816:	eb cd 40 80 	pushm	r7,lr
8000381a:	1a 97       	mov	r7,sp
8000381c:	20 3d       	sub	sp,12
8000381e:	ef 4c ff f8 	st.w	r7[-8],r12
80003822:	ef 4b ff f4 	st.w	r7[-12],r11
80003826:	ee f9 ff f4 	ld.w	r9,r7[-12]
8000382a:	ee f8 ff f8 	ld.w	r8,r7[-8]
8000382e:	f2 08 00 08 	add	r8,r9,r8
80003832:	20 18       	sub	r8,1
80003834:	ee f9 ff f8 	ld.w	r9,r7[-8]
80003838:	f0 09 0d 08 	divu	r8,r8,r9
8000383c:	ef 48 ff fc 	st.w	r7[-4],r8
80003840:	ee f8 ff fc 	ld.w	r8,r7[-4]
80003844:	58 08       	cp.w	r8,0
80003846:	c0 70       	breq	80003854 <getBaudDiv+0x3e>
80003848:	ee f8 ff fc 	ld.w	r8,r7[-4]
8000384c:	e0 48 00 ff 	cp.w	r8,255
80003850:	e0 88 00 04 	brls	80003858 <getBaudDiv+0x42>
80003854:	3f f8       	mov	r8,-1
80003856:	c0 48       	rjmp	8000385e <getBaudDiv+0x48>
80003858:	ee f8 ff fc 	ld.w	r8,r7[-4]
8000385c:	5c 88       	casts.h	r8
8000385e:	10 9c       	mov	r12,r8
80003860:	2f dd       	sub	sp,-12
80003862:	e3 cd 80 80 	ldm	sp++,r7,pc

80003866 <spi_initMaster>:
80003866:	eb cd 40 80 	pushm	r7,lr
8000386a:	1a 97       	mov	r7,sp
8000386c:	20 3d       	sub	sp,12
8000386e:	ef 4c ff f8 	st.w	r7[-8],r12
80003872:	ef 4b ff f4 	st.w	r7[-12],r11
80003876:	ee f8 ff f4 	ld.w	r8,r7[-12]
8000387a:	f1 39 00 0d 	ld.ub	r9,r8[13]
8000387e:	30 18       	mov	r8,1
80003880:	f0 09 18 00 	cp.b	r9,r8
80003884:	e0 88 00 04 	brls	8000388c <spi_initMaster+0x26>
80003888:	30 28       	mov	r8,2
8000388a:	c3 48       	rjmp	800038f2 <spi_initMaster+0x8c>
8000388c:	ee f8 ff f8 	ld.w	r8,r7[-8]
80003890:	e0 69 00 80 	mov	r9,128
80003894:	91 09       	st.w	r8[0x0],r9
80003896:	ee f8 ff f8 	ld.w	r8,r7[-8]
8000389a:	70 18       	ld.w	r8,r8[0x4]
8000389c:	ef 48 ff fc 	st.w	r7[-4],r8
800038a0:	ee f8 ff fc 	ld.w	r8,r7[-4]
800038a4:	30 19       	mov	r9,1
800038a6:	f1 d9 d0 01 	bfins	r8,r9,0x0,0x1
800038aa:	ef 48 ff fc 	st.w	r7[-4],r8
800038ae:	ee f8 ff f4 	ld.w	r8,r7[-12]
800038b2:	f1 38 00 0d 	ld.ub	r8,r8[13]
800038b6:	f1 d8 c0 01 	bfextu	r8,r8,0x0,0x1
800038ba:	f3 d8 c0 08 	bfextu	r9,r8,0x0,0x8
800038be:	ee f8 ff fc 	ld.w	r8,r7[-4]
800038c2:	f1 d9 d0 81 	bfins	r8,r9,0x4,0x1
800038c6:	ef 48 ff fc 	st.w	r7[-4],r8
800038ca:	ee f8 ff fc 	ld.w	r8,r7[-4]
800038ce:	30 09       	mov	r9,0
800038d0:	f1 d9 d0 e1 	bfins	r8,r9,0x7,0x1
800038d4:	ef 48 ff fc 	st.w	r7[-4],r8
800038d8:	ee f8 ff fc 	ld.w	r8,r7[-4]
800038dc:	30 f9       	mov	r9,15
800038de:	f1 d9 d2 04 	bfins	r8,r9,0x10,0x4
800038e2:	ef 48 ff fc 	st.w	r7[-4],r8
800038e6:	ee f9 ff fc 	ld.w	r9,r7[-4]
800038ea:	ee f8 ff f8 	ld.w	r8,r7[-8]
800038ee:	91 19       	st.w	r8[0x4],r9
800038f0:	30 08       	mov	r8,0
800038f2:	10 9c       	mov	r12,r8
800038f4:	2f dd       	sub	sp,-12
800038f6:	e3 cd 80 80 	ldm	sp++,r7,pc

800038fa <spi_selectionMode>:
800038fa:	eb cd 40 80 	pushm	r7,lr
800038fe:	1a 97       	mov	r7,sp
80003900:	20 5d       	sub	sp,20
80003902:	ef 4c ff f8 	st.w	r7[-8],r12
80003906:	12 98       	mov	r8,r9
80003908:	16 99       	mov	r9,r11
8000390a:	ef 69 ff f4 	st.b	r7[-12],r9
8000390e:	14 99       	mov	r9,r10
80003910:	ef 69 ff f0 	st.b	r7[-16],r9
80003914:	ef 68 ff ec 	st.b	r7[-20],r8
80003918:	ef 39 ff f4 	ld.ub	r9,r7[-12]
8000391c:	30 18       	mov	r8,1
8000391e:	f0 09 18 00 	cp.b	r9,r8
80003922:	e0 8b 00 09 	brhi	80003934 <spi_selectionMode+0x3a>
80003926:	ef 39 ff f0 	ld.ub	r9,r7[-16]
8000392a:	30 18       	mov	r8,1
8000392c:	f0 09 18 00 	cp.b	r9,r8
80003930:	e0 88 00 04 	brls	80003938 <spi_selectionMode+0x3e>
80003934:	30 28       	mov	r8,2
80003936:	c2 88       	rjmp	80003986 <spi_selectionMode+0x8c>
80003938:	ee f8 ff f8 	ld.w	r8,r7[-8]
8000393c:	70 18       	ld.w	r8,r8[0x4]
8000393e:	ef 48 ff fc 	st.w	r7[-4],r8
80003942:	ef 38 ff f4 	ld.ub	r8,r7[-12]
80003946:	f1 d8 c0 01 	bfextu	r8,r8,0x0,0x1
8000394a:	f3 d8 c0 08 	bfextu	r9,r8,0x0,0x8
8000394e:	ee f8 ff fc 	ld.w	r8,r7[-4]
80003952:	f1 d9 d0 21 	bfins	r8,r9,0x1,0x1
80003956:	ef 48 ff fc 	st.w	r7[-4],r8
8000395a:	ef 38 ff f0 	ld.ub	r8,r7[-16]
8000395e:	f1 d8 c0 01 	bfextu	r8,r8,0x0,0x1
80003962:	f3 d8 c0 08 	bfextu	r9,r8,0x0,0x8
80003966:	ee f8 ff fc 	ld.w	r8,r7[-4]
8000396a:	f1 d9 d0 41 	bfins	r8,r9,0x2,0x1
8000396e:	ef 48 ff fc 	st.w	r7[-4],r8
80003972:	ef 38 ff ec 	ld.ub	r8,r7[-20]
80003976:	ef 68 ff fc 	st.b	r7[-4],r8
8000397a:	ee f9 ff fc 	ld.w	r9,r7[-4]
8000397e:	ee f8 ff f8 	ld.w	r8,r7[-8]
80003982:	91 19       	st.w	r8[0x4],r9
80003984:	30 08       	mov	r8,0
80003986:	10 9c       	mov	r12,r8
80003988:	2f bd       	sub	sp,-20
8000398a:	e3 cd 80 80 	ldm	sp++,r7,pc

8000398e <spi_selectChip>:
8000398e:	eb cd 40 80 	pushm	r7,lr
80003992:	1a 97       	mov	r7,sp
80003994:	20 2d       	sub	sp,8
80003996:	ef 4c ff fc 	st.w	r7[-4],r12
8000399a:	16 98       	mov	r8,r11
8000399c:	ef 68 ff f8 	st.b	r7[-8],r8
800039a0:	ee f8 ff fc 	ld.w	r8,r7[-4]
800039a4:	70 18       	ld.w	r8,r8[0x4]
800039a6:	10 99       	mov	r9,r8
800039a8:	ea 19 00 0f 	orh	r9,0xf
800039ac:	ee f8 ff fc 	ld.w	r8,r7[-4]
800039b0:	91 19       	st.w	r8[0x4],r9
800039b2:	ee f8 ff fc 	ld.w	r8,r7[-4]
800039b6:	70 18       	ld.w	r8,r8[0x4]
800039b8:	e2 18 00 04 	andl	r8,0x4,COH
800039bc:	c1 90       	breq	800039ee <spi_selectChip+0x60>
800039be:	ef 39 ff f8 	ld.ub	r9,r7[-8]
800039c2:	30 e8       	mov	r8,14
800039c4:	f0 09 18 00 	cp.b	r9,r8
800039c8:	e0 88 00 04 	brls	800039d0 <spi_selectChip+0x42>
800039cc:	30 28       	mov	r8,2
800039ce:	c2 88       	rjmp	80003a1e <spi_selectChip+0x90>
800039d0:	ee f8 ff fc 	ld.w	r8,r7[-4]
800039d4:	70 19       	ld.w	r9,r8[0x4]
800039d6:	ef 38 ff f8 	ld.ub	r8,r7[-8]
800039da:	b1 68       	lsl	r8,0x10
800039dc:	ea 18 ff f0 	orh	r8,0xfff0
800039e0:	e8 18 ff ff 	orl	r8,0xffff
800039e4:	10 69       	and	r9,r8
800039e6:	ee f8 ff fc 	ld.w	r8,r7[-4]
800039ea:	91 19       	st.w	r8[0x4],r9
800039ec:	c1 88       	rjmp	80003a1c <spi_selectChip+0x8e>
800039ee:	ef 39 ff f8 	ld.ub	r9,r7[-8]
800039f2:	30 38       	mov	r8,3
800039f4:	f0 09 18 00 	cp.b	r9,r8
800039f8:	e0 88 00 04 	brls	80003a00 <spi_selectChip+0x72>
800039fc:	30 28       	mov	r8,2
800039fe:	c1 08       	rjmp	80003a1e <spi_selectChip+0x90>
80003a00:	ee f8 ff fc 	ld.w	r8,r7[-4]
80003a04:	70 19       	ld.w	r9,r8[0x4]
80003a06:	ef 38 ff f8 	ld.ub	r8,r7[-8]
80003a0a:	2f 08       	sub	r8,-16
80003a0c:	30 1a       	mov	r10,1
80003a0e:	f4 08 09 48 	lsl	r8,r10,r8
80003a12:	5c d8       	com	r8
80003a14:	10 69       	and	r9,r8
80003a16:	ee f8 ff fc 	ld.w	r8,r7[-4]
80003a1a:	91 19       	st.w	r8[0x4],r9
80003a1c:	30 08       	mov	r8,0
80003a1e:	10 9c       	mov	r12,r8
80003a20:	2f ed       	sub	sp,-8
80003a22:	e3 cd 80 80 	ldm	sp++,r7,pc

80003a26 <spi_unselectChip>:
80003a26:	eb cd 40 80 	pushm	r7,lr
80003a2a:	1a 97       	mov	r7,sp
80003a2c:	20 3d       	sub	sp,12
80003a2e:	ef 4c ff f8 	st.w	r7[-8],r12
80003a32:	16 98       	mov	r8,r11
80003a34:	ef 68 ff f4 	st.b	r7[-12],r8
80003a38:	e0 68 3a 98 	mov	r8,15000
80003a3c:	ef 48 ff fc 	st.w	r7[-4],r8
80003a40:	c0 f8       	rjmp	80003a5e <spi_unselectChip+0x38>
80003a42:	ee f8 ff fc 	ld.w	r8,r7[-4]
80003a46:	58 08       	cp.w	r8,0
80003a48:	5f 08       	sreq	r8
80003a4a:	5c 58       	castu.b	r8
80003a4c:	ee f9 ff fc 	ld.w	r9,r7[-4]
80003a50:	20 19       	sub	r9,1
80003a52:	ef 49 ff fc 	st.w	r7[-4],r9
80003a56:	58 08       	cp.w	r8,0
80003a58:	c0 30       	breq	80003a5e <spi_unselectChip+0x38>
80003a5a:	30 18       	mov	r8,1
80003a5c:	c1 68       	rjmp	80003a88 <spi_unselectChip+0x62>
80003a5e:	ee f8 ff f8 	ld.w	r8,r7[-8]
80003a62:	70 48       	ld.w	r8,r8[0x10]
80003a64:	e2 18 02 00 	andl	r8,0x200,COH
80003a68:	ce d0       	breq	80003a42 <spi_unselectChip+0x1c>
80003a6a:	ee f8 ff f8 	ld.w	r8,r7[-8]
80003a6e:	70 18       	ld.w	r8,r8[0x4]
80003a70:	10 99       	mov	r9,r8
80003a72:	ea 19 00 0f 	orh	r9,0xf
80003a76:	ee f8 ff f8 	ld.w	r8,r7[-8]
80003a7a:	91 19       	st.w	r8[0x4],r9
80003a7c:	ee f8 ff f8 	ld.w	r8,r7[-8]
80003a80:	fc 19 01 00 	movh	r9,0x100
80003a84:	91 09       	st.w	r8[0x0],r9
80003a86:	30 08       	mov	r8,0
80003a88:	10 9c       	mov	r12,r8
80003a8a:	2f dd       	sub	sp,-12
80003a8c:	e3 cd 80 80 	ldm	sp++,r7,pc

80003a90 <spi_setupChipReg>:
80003a90:	eb cd 40 80 	pushm	r7,lr
80003a94:	1a 97       	mov	r7,sp
80003a96:	20 5d       	sub	sp,20
80003a98:	ef 4c ff f4 	st.w	r7[-12],r12
80003a9c:	ef 4b ff f0 	st.w	r7[-16],r11
80003aa0:	ef 4a ff ec 	st.w	r7[-20],r10
80003aa4:	ee f8 ff f0 	ld.w	r8,r7[-16]
80003aa8:	f1 39 00 0c 	ld.ub	r9,r8[12]
80003aac:	30 38       	mov	r8,3
80003aae:	f0 09 18 00 	cp.b	r9,r8
80003ab2:	e0 8b 00 1d 	brhi	80003aec <spi_setupChipReg+0x5c>
80003ab6:	ee f8 ff f0 	ld.w	r8,r7[-16]
80003aba:	f1 39 00 0b 	ld.ub	r9,r8[11]
80003abe:	30 18       	mov	r8,1
80003ac0:	f0 09 18 00 	cp.b	r9,r8
80003ac4:	e0 8b 00 14 	brhi	80003aec <spi_setupChipReg+0x5c>
80003ac8:	ee f8 ff f0 	ld.w	r8,r7[-16]
80003acc:	f1 39 00 08 	ld.ub	r9,r8[8]
80003ad0:	30 78       	mov	r8,7
80003ad2:	f0 09 18 00 	cp.b	r9,r8
80003ad6:	e0 88 00 0b 	brls	80003aec <spi_setupChipReg+0x5c>
80003ada:	ee f8 ff f0 	ld.w	r8,r7[-16]
80003ade:	f1 39 00 08 	ld.ub	r9,r8[8]
80003ae2:	31 08       	mov	r8,16
80003ae4:	f0 09 18 00 	cp.b	r9,r8
80003ae8:	e0 88 00 04 	brls	80003af0 <spi_setupChipReg+0x60>
80003aec:	30 28       	mov	r8,2
80003aee:	c8 d8       	rjmp	80003c08 <spi_setupChipReg+0x178>
80003af0:	ee f8 ff f0 	ld.w	r8,r7[-16]
80003af4:	70 18       	ld.w	r8,r8[0x4]
80003af6:	ee fb ff ec 	ld.w	r11,r7[-20]
80003afa:	10 9c       	mov	r12,r8
80003afc:	f0 1f 00 45 	mcall	80003c10 <spi_setupChipReg+0x180>
80003b00:	18 98       	mov	r8,r12
80003b02:	ef 48 ff fc 	st.w	r7[-4],r8
80003b06:	ee f8 ff fc 	ld.w	r8,r7[-4]
80003b0a:	58 08       	cp.w	r8,0
80003b0c:	c0 34       	brge	80003b12 <spi_setupChipReg+0x82>
80003b0e:	30 28       	mov	r8,2
80003b10:	c7 c8       	rjmp	80003c08 <spi_setupChipReg+0x178>
80003b12:	30 08       	mov	r8,0
80003b14:	ef 48 ff f8 	st.w	r7[-8],r8
80003b18:	ee f8 ff f0 	ld.w	r8,r7[-16]
80003b1c:	f1 38 00 0c 	ld.ub	r8,r8[12]
80003b20:	a1 98       	lsr	r8,0x1
80003b22:	5c 58       	castu.b	r8
80003b24:	f1 d8 c0 01 	bfextu	r8,r8,0x0,0x1
80003b28:	f3 d8 c0 08 	bfextu	r9,r8,0x0,0x8
80003b2c:	ee f8 ff f8 	ld.w	r8,r7[-8]
80003b30:	f1 d9 d0 01 	bfins	r8,r9,0x0,0x1
80003b34:	ef 48 ff f8 	st.w	r7[-8],r8
80003b38:	ee f8 ff f0 	ld.w	r8,r7[-16]
80003b3c:	f1 38 00 0c 	ld.ub	r8,r8[12]
80003b40:	f1 d8 c0 01 	bfextu	r8,r8,0x0,0x1
80003b44:	5f 08       	sreq	r8
80003b46:	f3 d8 c0 08 	bfextu	r9,r8,0x0,0x8
80003b4a:	ee f8 ff f8 	ld.w	r8,r7[-8]
80003b4e:	f1 d9 d0 21 	bfins	r8,r9,0x1,0x1
80003b52:	ef 48 ff f8 	st.w	r7[-8],r8
80003b56:	ee f8 ff f0 	ld.w	r8,r7[-16]
80003b5a:	f1 38 00 0b 	ld.ub	r8,r8[11]
80003b5e:	f1 d8 c0 01 	bfextu	r8,r8,0x0,0x1
80003b62:	f3 d8 c0 08 	bfextu	r9,r8,0x0,0x8
80003b66:	ee f8 ff f8 	ld.w	r8,r7[-8]
80003b6a:	f1 d9 d0 61 	bfins	r8,r9,0x3,0x1
80003b6e:	ef 48 ff f8 	st.w	r7[-8],r8
80003b72:	ee f8 ff f0 	ld.w	r8,r7[-16]
80003b76:	f1 38 00 08 	ld.ub	r8,r8[8]
80003b7a:	20 88       	sub	r8,8
80003b7c:	5c 58       	castu.b	r8
80003b7e:	f1 d8 c0 04 	bfextu	r8,r8,0x0,0x4
80003b82:	f3 d8 c0 08 	bfextu	r9,r8,0x0,0x8
80003b86:	ee f8 ff f8 	ld.w	r8,r7[-8]
80003b8a:	f1 d9 d0 84 	bfins	r8,r9,0x4,0x4
80003b8e:	ef 48 ff f8 	st.w	r7[-8],r8
80003b92:	ee f8 ff fc 	ld.w	r8,r7[-4]
80003b96:	5c 58       	castu.b	r8
80003b98:	ef 68 ff fa 	st.b	r7[-6],r8
80003b9c:	ee f8 ff f0 	ld.w	r8,r7[-16]
80003ba0:	f1 38 00 09 	ld.ub	r8,r8[9]
80003ba4:	ef 68 ff f9 	st.b	r7[-7],r8
80003ba8:	ee f8 ff f0 	ld.w	r8,r7[-16]
80003bac:	f1 38 00 0a 	ld.ub	r8,r8[10]
80003bb0:	ef 68 ff f8 	st.b	r7[-8],r8
80003bb4:	ee f8 ff f0 	ld.w	r8,r7[-16]
80003bb8:	11 88       	ld.ub	r8,r8[0x0]
80003bba:	58 18       	cp.w	r8,1
80003bbc:	c1 10       	breq	80003bde <spi_setupChipReg+0x14e>
80003bbe:	e0 89 00 05 	brgt	80003bc8 <spi_setupChipReg+0x138>
80003bc2:	58 08       	cp.w	r8,0
80003bc4:	c0 70       	breq	80003bd2 <spi_setupChipReg+0x142>
80003bc6:	c1 e8       	rjmp	80003c02 <spi_setupChipReg+0x172>
80003bc8:	58 28       	cp.w	r8,2
80003bca:	c1 00       	breq	80003bea <spi_setupChipReg+0x15a>
80003bcc:	58 38       	cp.w	r8,3
80003bce:	c1 40       	breq	80003bf6 <spi_setupChipReg+0x166>
80003bd0:	c1 98       	rjmp	80003c02 <spi_setupChipReg+0x172>
80003bd2:	ee f9 ff f8 	ld.w	r9,r7[-8]
80003bd6:	ee f8 ff f4 	ld.w	r8,r7[-12]
80003bda:	91 c9       	st.w	r8[0x30],r9
80003bdc:	c1 58       	rjmp	80003c06 <spi_setupChipReg+0x176>
80003bde:	ee f9 ff f8 	ld.w	r9,r7[-8]
80003be2:	ee f8 ff f4 	ld.w	r8,r7[-12]
80003be6:	91 d9       	st.w	r8[0x34],r9
80003be8:	c0 f8       	rjmp	80003c06 <spi_setupChipReg+0x176>
80003bea:	ee f9 ff f8 	ld.w	r9,r7[-8]
80003bee:	ee f8 ff f4 	ld.w	r8,r7[-12]
80003bf2:	91 e9       	st.w	r8[0x38],r9
80003bf4:	c0 98       	rjmp	80003c06 <spi_setupChipReg+0x176>
80003bf6:	ee f9 ff f8 	ld.w	r9,r7[-8]
80003bfa:	ee f8 ff f4 	ld.w	r8,r7[-12]
80003bfe:	91 f9       	st.w	r8[0x3c],r9
80003c00:	c0 38       	rjmp	80003c06 <spi_setupChipReg+0x176>
80003c02:	30 28       	mov	r8,2
80003c04:	c0 28       	rjmp	80003c08 <spi_setupChipReg+0x178>
80003c06:	30 08       	mov	r8,0
80003c08:	10 9c       	mov	r12,r8
80003c0a:	2f bd       	sub	sp,-20
80003c0c:	e3 cd 80 80 	ldm	sp++,r7,pc
80003c10:	80 00       	ld.sh	r0,r0[0x0]
80003c12:	38 16       	mov	r6,-127

80003c14 <spi_enable>:
80003c14:	eb cd 40 80 	pushm	r7,lr
80003c18:	1a 97       	mov	r7,sp
80003c1a:	20 1d       	sub	sp,4
80003c1c:	ef 4c ff fc 	st.w	r7[-4],r12
80003c20:	ee f8 ff fc 	ld.w	r8,r7[-4]
80003c24:	30 19       	mov	r9,1
80003c26:	91 09       	st.w	r8[0x0],r9
80003c28:	2f fd       	sub	sp,-4
80003c2a:	e3 cd 80 80 	ldm	sp++,r7,pc

80003c2e <spi_write>:
80003c2e:	eb cd 40 80 	pushm	r7,lr
80003c32:	1a 97       	mov	r7,sp
80003c34:	20 3d       	sub	sp,12
80003c36:	ef 4c ff f8 	st.w	r7[-8],r12
80003c3a:	16 98       	mov	r8,r11
80003c3c:	ef 58 ff f4 	st.h	r7[-12],r8
80003c40:	e0 68 3a 98 	mov	r8,15000
80003c44:	ef 48 ff fc 	st.w	r7[-4],r8
80003c48:	c0 f8       	rjmp	80003c66 <spi_write+0x38>
80003c4a:	ee f8 ff fc 	ld.w	r8,r7[-4]
80003c4e:	58 08       	cp.w	r8,0
80003c50:	5f 08       	sreq	r8
80003c52:	5c 58       	castu.b	r8
80003c54:	ee f9 ff fc 	ld.w	r9,r7[-4]
80003c58:	20 19       	sub	r9,1
80003c5a:	ef 49 ff fc 	st.w	r7[-4],r9
80003c5e:	58 08       	cp.w	r8,0
80003c60:	c0 30       	breq	80003c66 <spi_write+0x38>
80003c62:	30 18       	mov	r8,1
80003c64:	c0 d8       	rjmp	80003c7e <spi_write+0x50>
80003c66:	ee f8 ff f8 	ld.w	r8,r7[-8]
80003c6a:	70 48       	ld.w	r8,r8[0x10]
80003c6c:	e2 18 00 02 	andl	r8,0x2,COH
80003c70:	ce d0       	breq	80003c4a <spi_write+0x1c>
80003c72:	ef 19 ff f4 	ld.uh	r9,r7[-12]
80003c76:	ee f8 ff f8 	ld.w	r8,r7[-8]
80003c7a:	91 39       	st.w	r8[0xc],r9
80003c7c:	30 08       	mov	r8,0
80003c7e:	10 9c       	mov	r12,r8
80003c80:	2f dd       	sub	sp,-12
80003c82:	e3 cd 80 80 	ldm	sp++,r7,pc

80003c86 <spi_read>:
80003c86:	eb cd 40 80 	pushm	r7,lr
80003c8a:	1a 97       	mov	r7,sp
80003c8c:	20 3d       	sub	sp,12
80003c8e:	ef 4c ff f8 	st.w	r7[-8],r12
80003c92:	ef 4b ff f4 	st.w	r7[-12],r11
80003c96:	e0 68 3a 98 	mov	r8,15000
80003c9a:	ef 48 ff fc 	st.w	r7[-4],r8
80003c9e:	c0 f8       	rjmp	80003cbc <spi_read+0x36>
80003ca0:	ee f8 ff fc 	ld.w	r8,r7[-4]
80003ca4:	58 08       	cp.w	r8,0
80003ca6:	5f 08       	sreq	r8
80003ca8:	5c 58       	castu.b	r8
80003caa:	ee f9 ff fc 	ld.w	r9,r7[-4]
80003cae:	20 19       	sub	r9,1
80003cb0:	ef 49 ff fc 	st.w	r7[-4],r9
80003cb4:	58 08       	cp.w	r8,0
80003cb6:	c0 30       	breq	80003cbc <spi_read+0x36>
80003cb8:	30 18       	mov	r8,1
80003cba:	c1 18       	rjmp	80003cdc <spi_read+0x56>
80003cbc:	ee f8 ff f8 	ld.w	r8,r7[-8]
80003cc0:	70 48       	ld.w	r8,r8[0x10]
80003cc2:	e2 18 02 01 	andl	r8,0x201,COH
80003cc6:	e0 48 02 01 	cp.w	r8,513
80003cca:	ce b1       	brne	80003ca0 <spi_read+0x1a>
80003ccc:	ee f8 ff f8 	ld.w	r8,r7[-8]
80003cd0:	70 28       	ld.w	r8,r8[0x8]
80003cd2:	5c 88       	casts.h	r8
80003cd4:	ee f9 ff f4 	ld.w	r9,r7[-12]
80003cd8:	b2 08       	st.h	r9[0x0],r8
80003cda:	30 08       	mov	r8,0
80003cdc:	10 9c       	mov	r12,r8
80003cde:	2f dd       	sub	sp,-12
80003ce0:	e3 cd 80 80 	ldm	sp++,r7,pc

80003ce4 <_stext>:
80003ce4:	e0 7d 00 00 	mov	sp,65536
80003ce8:	fe c0 a0 e8 	sub	r0,pc,-24344
80003cec:	e3 b0 00 01 	mtsr	0x4,r0
80003cf0:	d5 53       	csrf	0x15
80003cf2:	30 80       	mov	r0,8
80003cf4:	e0 61 05 10 	mov	r1,1296
80003cf8:	02 30       	cp.w	r0,r1
80003cfa:	c0 72       	brcc	80003d08 <idata_load_loop_end>
80003cfc:	fe c2 98 24 	sub	r2,pc,-26588

80003d00 <idata_load_loop>:
80003d00:	a5 05       	ld.d	r4,r2++
80003d02:	a1 24       	st.d	r0++,r4
80003d04:	02 30       	cp.w	r0,r1
80003d06:	cf d3       	brcs	80003d00 <idata_load_loop>

80003d08 <idata_load_loop_end>:
80003d08:	e0 60 05 10 	mov	r0,1296
80003d0c:	e0 61 06 60 	mov	r1,1632
80003d10:	02 30       	cp.w	r0,r1
80003d12:	c0 62       	brcc	80003d1e <udata_clear_loop_end>
80003d14:	30 02       	mov	r2,0
80003d16:	30 03       	mov	r3,0

80003d18 <udata_clear_loop>:
80003d18:	a1 22       	st.d	r0++,r2
80003d1a:	02 30       	cp.w	r0,r1
80003d1c:	cf e3       	brcs	80003d18 <udata_clear_loop>

80003d1e <udata_clear_loop_end>:
80003d1e:	fe cf fd 72 	sub	pc,pc,-654
80003d22:	d7 03       	nop

80003d24 <sysclk_get_main_hz>:
80003d24:	eb cd 40 80 	pushm	r7,lr
80003d28:	1a 97       	mov	r7,sp
80003d2a:	e0 78 c2 00 	mov	r8,115200
80003d2e:	10 9c       	mov	r12,r8
80003d30:	e3 cd 80 80 	ldm	sp++,r7,pc

80003d34 <sysclk_get_cpu_hz>:
80003d34:	eb cd 40 80 	pushm	r7,lr
80003d38:	1a 97       	mov	r7,sp
80003d3a:	f0 1f 00 04 	mcall	80003d48 <sysclk_get_cpu_hz+0x14>
80003d3e:	18 98       	mov	r8,r12
80003d40:	10 9c       	mov	r12,r8
80003d42:	e3 cd 80 80 	ldm	sp++,r7,pc
80003d46:	00 00       	add	r0,r0
80003d48:	80 00       	ld.sh	r0,r0[0x0]
80003d4a:	3d 24       	mov	r4,-46

80003d4c <display_init>:
80003d4c:	eb cd 40 8f 	pushm	r0-r3,r7,lr
80003d50:	1a 97       	mov	r7,sp
80003d52:	21 0d       	sub	sp,64
80003d54:	fe 78 0c 00 	mov	r8,-62464
80003d58:	ef 48 ff dc 	st.w	r7[-36],r8
80003d5c:	4f 68       	lddpc	r8,80003f34 <display_init+0x1e8>
80003d5e:	ee ca 00 34 	sub	r10,r7,52
80003d62:	10 9b       	mov	r11,r8
80003d64:	f6 e8 00 00 	ld.d	r8,r11[0]
80003d68:	f4 e9 00 00 	st.d	r10[0],r8
80003d6c:	f6 e8 00 08 	ld.d	r8,r11[8]
80003d70:	f4 e9 00 08 	st.d	r10[8],r8
80003d74:	e0 6b 1b 00 	mov	r11,6912
80003d78:	ea 1b 00 b7 	orh	r11,0xb7
80003d7c:	ee fc ff dc 	ld.w	r12,r7[-36]
80003d80:	f0 1f 00 6e 	mcall	80003f38 <display_init+0x1ec>
80003d84:	30 3b       	mov	r11,3
80003d86:	ee fc ff dc 	ld.w	r12,r7[-36]
80003d8a:	f0 1f 00 6d 	mcall	80003f3c <display_init+0x1f0>
80003d8e:	30 1b       	mov	r11,1
80003d90:	ee fc ff dc 	ld.w	r12,r7[-36]
80003d94:	f0 1f 00 6b 	mcall	80003f40 <display_init+0x1f4>
80003d98:	f0 1f 00 6b 	mcall	80003f44 <display_init+0x1f8>
80003d9c:	18 98       	mov	r8,r12
80003d9e:	30 19       	mov	r9,1
80003da0:	ef 49 ff e4 	st.w	r7[-28],r9
80003da4:	ef 48 ff e0 	st.w	r7[-32],r8
80003da8:	ee f8 ff e4 	ld.w	r8,r7[-28]
80003dac:	ef 48 ff ec 	st.w	r7[-20],r8
80003db0:	ee f8 ff e0 	ld.w	r8,r7[-32]
80003db4:	ef 48 ff e8 	st.w	r7[-24],r8
80003db8:	ee f0 ff ec 	ld.w	r0,r7[-20]
80003dbc:	30 01       	mov	r1,0
80003dbe:	ee f2 ff e8 	ld.w	r2,r7[-24]
80003dc2:	30 03       	mov	r3,0
80003dc4:	e2 02 02 4a 	mul	r10,r1,r2
80003dc8:	e6 00 02 48 	mul	r8,r3,r0
80003dcc:	10 0a       	add	r10,r8
80003dce:	e0 02 06 48 	mulu.d	r8,r0,r2
80003dd2:	12 0a       	add	r10,r9
80003dd4:	14 99       	mov	r9,r10
80003dd6:	e0 6a 03 e7 	mov	r10,999
80003dda:	30 0b       	mov	r11,0
80003ddc:	f0 0a 00 0a 	add	r10,r8,r10
80003de0:	f2 0b 00 4b 	adc	r11,r9,r11
80003de4:	e0 68 03 e8 	mov	r8,1000
80003de8:	30 09       	mov	r9,0
80003dea:	f0 1f 00 58 	mcall	80003f48 <display_init+0x1fc>
80003dee:	14 98       	mov	r8,r10
80003df0:	16 99       	mov	r9,r11
80003df2:	ef 48 ff f4 	st.w	r7[-12],r8
80003df6:	ee c8 00 40 	sub	r8,r7,64
80003dfa:	ef 48 ff f0 	st.w	r7[-16],r8
80003dfe:	e1 b8 00 42 	mfsr	r8,0x108
80003e02:	10 99       	mov	r9,r8
80003e04:	ee f8 ff f0 	ld.w	r8,r7[-16]
80003e08:	91 09       	st.w	r8[0x0],r9
80003e0a:	ee f8 ff f0 	ld.w	r8,r7[-16]
80003e0e:	70 09       	ld.w	r9,r8[0x0]
80003e10:	ee f8 ff f4 	ld.w	r8,r7[-12]
80003e14:	10 09       	add	r9,r8
80003e16:	ee f8 ff f0 	ld.w	r8,r7[-16]
80003e1a:	91 19       	st.w	r8[0x4],r9
80003e1c:	ee f9 ff f0 	ld.w	r9,r7[-16]
80003e20:	30 08       	mov	r8,0
80003e22:	f3 68 00 08 	st.b	r9[8],r8
80003e26:	ee c8 00 40 	sub	r8,r7,64
80003e2a:	ef 48 ff f8 	st.w	r7[-8],r8
80003e2e:	e1 b8 00 42 	mfsr	r8,0x108
80003e32:	ef 48 ff fc 	st.w	r7[-4],r8
80003e36:	ee f8 ff f8 	ld.w	r8,r7[-8]
80003e3a:	f1 39 00 08 	ld.ub	r9,r8[8]
80003e3e:	30 28       	mov	r8,2
80003e40:	f0 09 18 00 	cp.b	r9,r8
80003e44:	c0 31       	brne	80003e4a <display_init+0xfe>
80003e46:	30 08       	mov	r8,0
80003e48:	c4 38       	rjmp	80003ece <display_init+0x182>
80003e4a:	ee f8 ff f8 	ld.w	r8,r7[-8]
80003e4e:	f1 39 00 08 	ld.ub	r9,r8[8]
80003e52:	30 18       	mov	r8,1
80003e54:	f0 09 18 00 	cp.b	r9,r8
80003e58:	c0 31       	brne	80003e5e <display_init+0x112>
80003e5a:	30 18       	mov	r8,1
80003e5c:	c3 98       	rjmp	80003ece <display_init+0x182>
80003e5e:	ee f8 ff f8 	ld.w	r8,r7[-8]
80003e62:	70 09       	ld.w	r9,r8[0x0]
80003e64:	ee f8 ff f8 	ld.w	r8,r7[-8]
80003e68:	70 18       	ld.w	r8,r8[0x4]
80003e6a:	10 39       	cp.w	r9,r8
80003e6c:	e0 88 00 1a 	brls	80003ea0 <display_init+0x154>
80003e70:	ee f8 ff f8 	ld.w	r8,r7[-8]
80003e74:	70 08       	ld.w	r8,r8[0x0]
80003e76:	ee f9 ff fc 	ld.w	r9,r7[-4]
80003e7a:	10 39       	cp.w	r9,r8
80003e7c:	c1 02       	brcc	80003e9c <display_init+0x150>
80003e7e:	ee f8 ff f8 	ld.w	r8,r7[-8]
80003e82:	70 18       	ld.w	r8,r8[0x4]
80003e84:	ee f9 ff fc 	ld.w	r9,r7[-4]
80003e88:	10 39       	cp.w	r9,r8
80003e8a:	e0 88 00 09 	brls	80003e9c <display_init+0x150>
80003e8e:	ee f9 ff f8 	ld.w	r9,r7[-8]
80003e92:	30 18       	mov	r8,1
80003e94:	f3 68 00 08 	st.b	r9[8],r8
80003e98:	30 18       	mov	r8,1
80003e9a:	c1 a8       	rjmp	80003ece <display_init+0x182>
80003e9c:	30 08       	mov	r8,0
80003e9e:	c1 88       	rjmp	80003ece <display_init+0x182>
80003ea0:	ee f8 ff f8 	ld.w	r8,r7[-8]
80003ea4:	70 08       	ld.w	r8,r8[0x0]
80003ea6:	ee f9 ff fc 	ld.w	r9,r7[-4]
80003eaa:	10 39       	cp.w	r9,r8
80003eac:	c0 93       	brcs	80003ebe <display_init+0x172>
80003eae:	ee f8 ff f8 	ld.w	r8,r7[-8]
80003eb2:	70 18       	ld.w	r8,r8[0x4]
80003eb4:	ee f9 ff fc 	ld.w	r9,r7[-4]
80003eb8:	10 39       	cp.w	r9,r8
80003eba:	e0 88 00 09 	brls	80003ecc <display_init+0x180>
80003ebe:	ee f9 ff f8 	ld.w	r9,r7[-8]
80003ec2:	30 18       	mov	r8,1
80003ec4:	f3 68 00 08 	st.b	r9[8],r8
80003ec8:	30 18       	mov	r8,1
80003eca:	c0 28       	rjmp	80003ece <display_init+0x182>
80003ecc:	30 08       	mov	r8,0
80003ece:	58 08       	cp.w	r8,0
80003ed0:	ca b0       	breq	80003e26 <display_init+0xda>
80003ed2:	30 4b       	mov	r11,4
80003ed4:	49 ec       	lddpc	r12,80003f4c <display_init+0x200>
80003ed6:	f0 1f 00 1f 	mcall	80003f50 <display_init+0x204>
80003eda:	ee c8 00 34 	sub	r8,r7,52
80003ede:	10 9b       	mov	r11,r8
80003ee0:	fe 7c 28 00 	mov	r12,-55296
80003ee4:	f0 1f 00 1c 	mcall	80003f54 <display_init+0x208>
80003ee8:	30 09       	mov	r9,0
80003eea:	30 0a       	mov	r10,0
80003eec:	30 0b       	mov	r11,0
80003eee:	fe 7c 28 00 	mov	r12,-55296
80003ef2:	f0 1f 00 1a 	mcall	80003f58 <display_init+0x20c>
80003ef6:	fe 7c 28 00 	mov	r12,-55296
80003efa:	f0 1f 00 19 	mcall	80003f5c <display_init+0x210>
80003efe:	ee c8 00 34 	sub	r8,r7,52
80003f02:	e0 6a 1b 00 	mov	r10,6912
80003f06:	ea 1a 00 b7 	orh	r10,0xb7
80003f0a:	10 9b       	mov	r11,r8
80003f0c:	fe 7c 28 00 	mov	r12,-55296
80003f10:	f0 1f 00 14 	mcall	80003f60 <display_init+0x214>
80003f14:	30 1b       	mov	r11,1
80003f16:	30 0c       	mov	r12,0
80003f18:	f0 1f 00 13 	mcall	80003f64 <display_init+0x218>
80003f1c:	f0 1f 00 13 	mcall	80003f68 <display_init+0x21c>
80003f20:	f0 1f 00 13 	mcall	80003f6c <display_init+0x220>
80003f24:	30 1b       	mov	r11,1
80003f26:	30 1c       	mov	r12,1
80003f28:	f0 1f 00 12 	mcall	80003f70 <display_init+0x224>
80003f2c:	2f 0d       	sub	sp,-64
80003f2e:	e3 cd 80 8f 	ldm	sp++,r0-r3,r7,pc
80003f32:	00 00       	add	r0,r0
80003f34:	80 00       	ld.sh	r0,r0[0x0]
80003f36:	9f 20       	st.w	pc[0x8],r0
80003f38:	80 00       	ld.sh	r0,r0[0x0]
80003f3a:	35 50       	mov	r0,85
80003f3c:	80 00       	ld.sh	r0,r0[0x0]
80003f3e:	35 b4       	mov	r4,91
80003f40:	80 00       	ld.sh	r0,r0[0x0]
80003f42:	36 60       	mov	r0,102
80003f44:	80 00       	ld.sh	r0,r0[0x0]
80003f46:	3d 34       	mov	r4,-45
80003f48:	80 00       	ld.sh	r0,r0[0x0]
80003f4a:	41 c4       	lddsp	r4,sp[0x70]
80003f4c:	80 00       	ld.sh	r0,r0[0x0]
80003f4e:	9f 30       	st.w	pc[0xc],r0
80003f50:	80 00       	ld.sh	r0,r0[0x0]
80003f52:	32 38       	mov	r8,35
80003f54:	80 00       	ld.sh	r0,r0[0x0]
80003f56:	38 66       	mov	r6,-122
80003f58:	80 00       	ld.sh	r0,r0[0x0]
80003f5a:	38 fa       	mov	r10,-113
80003f5c:	80 00       	ld.sh	r0,r0[0x0]
80003f5e:	3c 14       	mov	r4,-63
80003f60:	80 00       	ld.sh	r0,r0[0x0]
80003f62:	3a 90       	mov	r0,-87
80003f64:	80 00       	ld.sh	r0,r0[0x0]
80003f66:	20 30       	sub	r0,3
80003f68:	80 00       	ld.sh	r0,r0[0x0]
80003f6a:	2b c8       	sub	r8,-68
80003f6c:	80 00       	ld.sh	r0,r0[0x0]
80003f6e:	2b 0c       	sub	r12,-80
80003f70:	80 00       	ld.sh	r0,r0[0x0]
80003f72:	2b 40       	sub	r0,-76
80003f74:	54 65       	stdsp	sp[0x118],r5
80003f76:	6d 70       	ld.w	r0,r6[0x5c]
80003f78:	65 72       	ld.w	r2,r2[0x5c]
80003f7a:	61 74       	ld.w	r4,r0[0x5c]
80003f7c:	75 72       	ld.w	r2,r10[0x5c]
80003f7e:	65 3a       	ld.w	r10,r2[0x4c]
80003f80:	00 00       	add	r0,r0
80003f82:	00 00       	add	r0,r0
80003f84:	50 6f       	stdsp	sp[0x18],pc
80003f86:	74 65       	ld.w	r5,r10[0x18]
80003f88:	6e 74       	ld.w	r4,r7[0x1c]
80003f8a:	69 6f       	ld.w	pc,r4[0x58]
80003f8c:	6d 65       	ld.w	r5,r6[0x58]
80003f8e:	74 65       	ld.w	r5,r10[0x18]
80003f90:	72 3a       	ld.w	r10,r9[0xc]
80003f92:	00 00       	add	r0,r0
80003f94:	4c 69       	lddpc	r9,800040ac <main+0x100>
80003f96:	67 68       	ld.w	r8,r3[0x58]
80003f98:	74 3a       	ld.w	r10,r10[0xc]
80003f9a:	00 00       	add	r0,r0
80003f9c:	25 30       	sub	r0,83
80003f9e:	33 64       	mov	r4,54
80003fa0:	00 00       	add	r0,r0
80003fa2:	00 00       	add	r0,r0
80003fa4:	25 30       	sub	r0,83
80003fa6:	34 64       	mov	r4,70
80003fa8:	00 00       	add	r0,r0
	...

80003fac <main>:
#include "board.h"
#include "adc.h"
#include "display_init.h"

int main(void)
{
80003fac:	eb cd 40 80 	pushm	r7,lr
80003fb0:	1a 97       	mov	r7,sp
80003fb2:	20 cd       	sub	sp,48
	int pot_value, temp_value, light_value;
	int potentiometer, temperature, light;
	const char * temp = "Temperature:";
80003fb4:	4f 58       	lddpc	r8,80004188 <main+0x1dc>
80003fb6:	ef 48 ff e8 	st.w	r7[-24],r8
	const char * pot = "Potentiometer:";
80003fba:	4f 58       	lddpc	r8,8000418c <main+0x1e0>
80003fbc:	ef 48 ff ec 	st.w	r7[-20],r8
	const char * lig = "Light:";
80003fc0:	4f 48       	lddpc	r8,80004190 <main+0x1e4>
80003fc2:	ef 48 ff f0 	st.w	r7[-16],r8
	// For the dip204 cursor position
	unsigned int column = 1;
80003fc6:	30 18       	mov	r8,1
80003fc8:	ef 48 ff f4 	st.w	r7[-12],r8
	unsigned int line = 1;
80003fcc:	30 18       	mov	r8,1
80003fce:	ef 48 ff f8 	st.w	r7[-8],r8
	
	// Configure the ADC module and enable the potentiometer, temperature and light channel
	adc_configure(&AVR32_ADC);
80003fd2:	fe 7c 3c 00 	mov	r12,-50176
80003fd6:	f0 1f 00 70 	mcall	80004194 <main+0x1e8>
	adc_enable(&AVR32_ADC, ADC_POTENTIOMETER_CHANNEL);
80003fda:	30 1b       	mov	r11,1
80003fdc:	fe 7c 3c 00 	mov	r12,-50176
80003fe0:	f0 1f 00 6e 	mcall	80004198 <main+0x1ec>
	adc_enable(&AVR32_ADC, ADC_TEMPERATURE_CHANNEL);
80003fe4:	30 0b       	mov	r11,0
80003fe6:	fe 7c 3c 00 	mov	r12,-50176
80003fea:	f0 1f 00 6c 	mcall	80004198 <main+0x1ec>
	adc_enable(&AVR32_ADC, ADC_LIGHT_CHANNEL);
80003fee:	30 2b       	mov	r11,2
80003ff0:	fe 7c 3c 00 	mov	r12,-50176
80003ff4:	f0 1f 00 69 	mcall	80004198 <main+0x1ec>
	
	display_init();
80003ff8:	f0 1f 00 69 	mcall	8000419c <main+0x1f0>
	
	//Clear the screen
	dip204_clear_display();
80003ffc:	f0 1f 00 69 	mcall	800041a0 <main+0x1f4>
	
	dip204_set_cursor_position(column, line);
80004000:	ee f8 ff f8 	ld.w	r8,r7[-8]
80004004:	5c 58       	castu.b	r8
80004006:	10 99       	mov	r9,r8
80004008:	ee f8 ff f4 	ld.w	r8,r7[-12]
8000400c:	5c 58       	castu.b	r8
8000400e:	12 9b       	mov	r11,r9
80004010:	10 9c       	mov	r12,r8
80004012:	f0 1f 00 65 	mcall	800041a4 <main+0x1f8>
	dip204_write_string(pot);
80004016:	ee fc ff ec 	ld.w	r12,r7[-20]
8000401a:	f0 1f 00 64 	mcall	800041a8 <main+0x1fc>
	dip204_set_cursor_position(column, line+1);
8000401e:	ee f8 ff f8 	ld.w	r8,r7[-8]
80004022:	5c 58       	castu.b	r8
80004024:	2f f8       	sub	r8,-1
80004026:	5c 58       	castu.b	r8
80004028:	10 99       	mov	r9,r8
8000402a:	ee f8 ff f4 	ld.w	r8,r7[-12]
8000402e:	5c 58       	castu.b	r8
80004030:	12 9b       	mov	r11,r9
80004032:	10 9c       	mov	r12,r8
80004034:	f0 1f 00 5c 	mcall	800041a4 <main+0x1f8>
	dip204_write_string(temp);
80004038:	ee fc ff e8 	ld.w	r12,r7[-24]
8000403c:	f0 1f 00 5b 	mcall	800041a8 <main+0x1fc>
	dip204_set_cursor_position(column, line+2);
80004040:	ee f8 ff f8 	ld.w	r8,r7[-8]
80004044:	5c 58       	castu.b	r8
80004046:	2f e8       	sub	r8,-2
80004048:	5c 58       	castu.b	r8
8000404a:	10 99       	mov	r9,r8
8000404c:	ee f8 ff f4 	ld.w	r8,r7[-12]
80004050:	5c 58       	castu.b	r8
80004052:	12 9b       	mov	r11,r9
80004054:	10 9c       	mov	r12,r8
80004056:	f0 1f 00 54 	mcall	800041a4 <main+0x1f8>
	dip204_write_string(lig);
8000405a:	ee fc ff f0 	ld.w	r12,r7[-16]
8000405e:	f0 1f 00 53 	mcall	800041a8 <main+0x1fc>
	
	
	while(true)
	{
		// Start a ADC sampling of all active channels
		adc_start(&AVR32_ADC);
80004062:	fe 7c 3c 00 	mov	r12,-50176
80004066:	f0 1f 00 52 	mcall	800041ac <main+0x200>
		
		
		
		// Get the potentiometer value
		pot_value = adc_get_value(&AVR32_ADC, ADC_POTENTIOMETER_CHANNEL);
8000406a:	30 1b       	mov	r11,1
8000406c:	fe 7c 3c 00 	mov	r12,-50176
80004070:	f0 1f 00 50 	mcall	800041b0 <main+0x204>
80004074:	18 98       	mov	r8,r12
80004076:	ef 48 ff d0 	st.w	r7[-48],r8
		//Get the temperature value
		temp_value = adc_get_value(&AVR32_ADC, ADC_TEMPERATURE_CHANNEL);
8000407a:	30 0b       	mov	r11,0
8000407c:	fe 7c 3c 00 	mov	r12,-50176
80004080:	f0 1f 00 4c 	mcall	800041b0 <main+0x204>
80004084:	18 98       	mov	r8,r12
80004086:	ef 48 ff d4 	st.w	r7[-44],r8
		//Get the light sensor value
		light_value = adc_get_value(&AVR32_ADC, ADC_LIGHT_CHANNEL);
8000408a:	30 2b       	mov	r11,2
8000408c:	fe 7c 3c 00 	mov	r12,-50176
80004090:	f0 1f 00 48 	mcall	800041b0 <main+0x204>
80004094:	18 98       	mov	r8,r12
80004096:	ef 48 ff d8 	st.w	r7[-40],r8

		// Convert the potentiometer value to a value btwn 0-255
		potentiometer = pot_value * 255 / 1024;
8000409a:	ee f9 ff d0 	ld.w	r9,r7[-48]
8000409e:	12 98       	mov	r8,r9
800040a0:	a9 68       	lsl	r8,0x8
800040a2:	12 18       	sub	r8,r9
800040a4:	f0 c9 fc 01 	sub	r9,r8,-1023
800040a8:	58 08       	cp.w	r8,0
800040aa:	f2 08 17 50 	movlt	r8,r9
800040ae:	ab 48       	asr	r8,0xa
800040b0:	ef 48 ff dc 	st.w	r7[-36],r8
		dip204_set_cursor_position(column+15, line); //First column and line
800040b4:	ee f8 ff f8 	ld.w	r8,r7[-8]
800040b8:	5c 58       	castu.b	r8
800040ba:	10 99       	mov	r9,r8
800040bc:	ee f8 ff f4 	ld.w	r8,r7[-12]
800040c0:	5c 58       	castu.b	r8
800040c2:	2f 18       	sub	r8,-15
800040c4:	5c 58       	castu.b	r8
800040c6:	12 9b       	mov	r11,r9
800040c8:	10 9c       	mov	r12,r8
800040ca:	f0 1f 00 37 	mcall	800041a4 <main+0x1f8>
		dip204_printf_string("%03d", potentiometer); //print value
800040ce:	ee f8 ff dc 	ld.w	r8,r7[-36]
800040d2:	1a d8       	st.w	--sp,r8
800040d4:	4b 8c       	lddpc	r12,800041b4 <main+0x208>
800040d6:	f0 1f 00 39 	mcall	800041b8 <main+0x20c>
800040da:	2f fd       	sub	sp,-4
		// Convert the temperature value to a value btwn 0-255
		temperature = temp_value;// * 600 / 1024;
800040dc:	ee f8 ff d4 	ld.w	r8,r7[-44]
800040e0:	ef 48 ff e0 	st.w	r7[-32],r8
		dip204_set_cursor_position(column+13, line+1);	//First column second line
800040e4:	ee f8 ff f8 	ld.w	r8,r7[-8]
800040e8:	5c 58       	castu.b	r8
800040ea:	2f f8       	sub	r8,-1
800040ec:	5c 58       	castu.b	r8
800040ee:	10 99       	mov	r9,r8
800040f0:	ee f8 ff f4 	ld.w	r8,r7[-12]
800040f4:	5c 58       	castu.b	r8
800040f6:	2f 38       	sub	r8,-13
800040f8:	5c 58       	castu.b	r8
800040fa:	12 9b       	mov	r11,r9
800040fc:	10 9c       	mov	r12,r8
800040fe:	f0 1f 00 2a 	mcall	800041a4 <main+0x1f8>
		dip204_printf_string("%04d", temperature); //print value
80004102:	ee f8 ff e0 	ld.w	r8,r7[-32]
80004106:	1a d8       	st.w	--sp,r8
80004108:	4a dc       	lddpc	r12,800041bc <main+0x210>
8000410a:	f0 1f 00 2c 	mcall	800041b8 <main+0x20c>
8000410e:	2f fd       	sub	sp,-4
		//Convert the light value to a value btwn 0-255
		light = light_value;// * 255 / 1024;
80004110:	ee f8 ff d8 	ld.w	r8,r7[-40]
80004114:	ef 48 ff e4 	st.w	r7[-28],r8
		dip204_set_cursor_position(column+7, line+2);	//First column third line
80004118:	ee f8 ff f8 	ld.w	r8,r7[-8]
8000411c:	5c 58       	castu.b	r8
8000411e:	2f e8       	sub	r8,-2
80004120:	5c 58       	castu.b	r8
80004122:	10 99       	mov	r9,r8
80004124:	ee f8 ff f4 	ld.w	r8,r7[-12]
80004128:	5c 58       	castu.b	r8
8000412a:	2f 98       	sub	r8,-7
8000412c:	5c 58       	castu.b	r8
8000412e:	12 9b       	mov	r11,r9
80004130:	10 9c       	mov	r12,r8
80004132:	f0 1f 00 1d 	mcall	800041a4 <main+0x1f8>
		dip204_printf_string("%04d", light); //print value
80004136:	ee f8 ff e4 	ld.w	r8,r7[-28]
8000413a:	1a d8       	st.w	--sp,r8
8000413c:	4a 0c       	lddpc	r12,800041bc <main+0x210>
8000413e:	f0 1f 00 1f 	mcall	800041b8 <main+0x20c>
80004142:	2f fd       	sub	sp,-4
		int i = 0;
80004144:	30 08       	mov	r8,0
80004146:	ef 48 ff fc 	st.w	r7[-4],r8
		
		// Delay
		while (i < 1000*potentiometer)
8000414a:	c0 68       	rjmp	80004156 <main+0x1aa>
		{
			i++;
8000414c:	ee f8 ff fc 	ld.w	r8,r7[-4]
80004150:	2f f8       	sub	r8,-1
80004152:	ef 48 ff fc 	st.w	r7[-4],r8
		dip204_set_cursor_position(column+7, line+2);	//First column third line
		dip204_printf_string("%04d", light); //print value
		int i = 0;
		
		// Delay
		while (i < 1000*potentiometer)
80004156:	ee f9 ff dc 	ld.w	r9,r7[-36]
8000415a:	e0 68 03 e8 	mov	r8,1000
8000415e:	b1 39       	mul	r9,r8
80004160:	ee f8 ff fc 	ld.w	r8,r7[-4]
80004164:	10 39       	cp.w	r9,r8
80004166:	fe 99 ff f3 	brgt	8000414c <main+0x1a0>
		{
			i++;
		}
		
		// Set the intensity of the LED
		LED_Set_Intensity(LED4, potentiometer);	//Red light
8000416a:	ee f8 ff dc 	ld.w	r8,r7[-36]
8000416e:	5c 58       	castu.b	r8
80004170:	10 9b       	mov	r11,r8
80004172:	31 0c       	mov	r12,16
80004174:	f0 1f 00 13 	mcall	800041c0 <main+0x214>
		//LED_Set_Intensity(LED5, brightness_LED5); //Green light
		LED_Set_Intensity(LED6, potentiometer);	//Red light
80004178:	ee f8 ff dc 	ld.w	r8,r7[-36]
8000417c:	5c 58       	castu.b	r8
8000417e:	10 9b       	mov	r11,r8
80004180:	34 0c       	mov	r12,64
80004182:	f0 1f 00 10 	mcall	800041c0 <main+0x214>
		//LED_Set_Intensity(LED7, brightness_LED5);	//Green light
	}
80004186:	c6 eb       	rjmp	80004062 <main+0xb6>
80004188:	80 00       	ld.sh	r0,r0[0x0]
8000418a:	3f 74       	mov	r4,-9
8000418c:	80 00       	ld.sh	r0,r0[0x0]
8000418e:	3f 84       	mov	r4,-8
80004190:	80 00       	ld.sh	r0,r0[0x0]
80004192:	3f 94       	mov	r4,-7
80004194:	80 00       	ld.sh	r0,r0[0x0]
80004196:	2f c8       	sub	r8,-4
80004198:	80 00       	ld.sh	r0,r0[0x0]
8000419a:	30 18       	mov	r8,1
8000419c:	80 00       	ld.sh	r0,r0[0x0]
8000419e:	3d 4c       	mov	r12,-44
800041a0:	80 00       	ld.sh	r0,r0[0x0]
800041a2:	2b c8       	sub	r8,-68
800041a4:	80 00       	ld.sh	r0,r0[0x0]
800041a6:	2b 40       	sub	r0,-76
800041a8:	80 00       	ld.sh	r0,r0[0x0]
800041aa:	2d 44       	sub	r4,-44
800041ac:	80 00       	ld.sh	r0,r0[0x0]
800041ae:	2f fe       	sub	lr,-1
800041b0:	80 00       	ld.sh	r0,r0[0x0]
800041b2:	30 74       	mov	r4,7
800041b4:	80 00       	ld.sh	r0,r0[0x0]
800041b6:	3f 9c       	mov	r12,-7
800041b8:	80 00       	ld.sh	r0,r0[0x0]
800041ba:	2d b4       	sub	r4,-37
800041bc:	80 00       	ld.sh	r0,r0[0x0]
800041be:	3f a4       	mov	r4,-6
800041c0:	80 00       	ld.sh	r0,r0[0x0]
800041c2:	30 c0       	mov	r0,12

800041c4 <__avr32_udiv64>:
800041c4:	d4 31       	pushm	r0-r7,lr
800041c6:	1a 97       	mov	r7,sp
800041c8:	20 3d       	sub	sp,12
800041ca:	10 9c       	mov	r12,r8
800041cc:	12 9e       	mov	lr,r9
800041ce:	14 93       	mov	r3,r10
800041d0:	58 09       	cp.w	r9,0
800041d2:	e0 81 00 bd 	brne	8000434c <__avr32_udiv64+0x188>
800041d6:	16 38       	cp.w	r8,r11
800041d8:	e0 88 00 40 	brls	80004258 <__avr32_udiv64+0x94>
800041dc:	f0 08 12 00 	clz	r8,r8
800041e0:	c0 d0       	breq	800041fa <__avr32_udiv64+0x36>
800041e2:	f6 08 09 4b 	lsl	r11,r11,r8
800041e6:	f0 09 11 20 	rsub	r9,r8,32
800041ea:	f8 08 09 4c 	lsl	r12,r12,r8
800041ee:	f4 09 0a 49 	lsr	r9,r10,r9
800041f2:	f4 08 09 43 	lsl	r3,r10,r8
800041f6:	f3 eb 10 0b 	or	r11,r9,r11
800041fa:	f8 0e 16 10 	lsr	lr,r12,0x10
800041fe:	f5 dc c0 10 	bfextu	r10,r12,0x0,0x10
80004202:	f6 0e 0d 00 	divu	r0,r11,lr
80004206:	e6 0b 16 10 	lsr	r11,r3,0x10
8000420a:	00 99       	mov	r9,r0
8000420c:	f7 e1 11 0b 	or	r11,r11,r1<<0x10
80004210:	e0 0a 02 48 	mul	r8,r0,r10
80004214:	10 3b       	cp.w	r11,r8
80004216:	c0 a2       	brcc	8000422a <__avr32_udiv64+0x66>
80004218:	20 19       	sub	r9,1
8000421a:	18 0b       	add	r11,r12
8000421c:	18 3b       	cp.w	r11,r12
8000421e:	c0 63       	brcs	8000422a <__avr32_udiv64+0x66>
80004220:	10 3b       	cp.w	r11,r8
80004222:	f7 b9 03 01 	sublo	r9,1
80004226:	f7 dc e3 0b 	addcs	r11,r11,r12
8000422a:	f6 08 01 01 	sub	r1,r11,r8
8000422e:	e7 d3 c0 10 	bfextu	r3,r3,0x0,0x10
80004232:	e2 0e 0d 00 	divu	r0,r1,lr
80004236:	e7 e1 11 03 	or	r3,r3,r1<<0x10
8000423a:	00 98       	mov	r8,r0
8000423c:	e0 0a 02 4a 	mul	r10,r0,r10
80004240:	14 33       	cp.w	r3,r10
80004242:	c0 82       	brcc	80004252 <__avr32_udiv64+0x8e>
80004244:	20 18       	sub	r8,1
80004246:	18 03       	add	r3,r12
80004248:	18 33       	cp.w	r3,r12
8000424a:	c0 43       	brcs	80004252 <__avr32_udiv64+0x8e>
8000424c:	14 33       	cp.w	r3,r10
8000424e:	f7 b8 03 01 	sublo	r8,1
80004252:	f1 e9 11 08 	or	r8,r8,r9<<0x10
80004256:	cd f8       	rjmp	80004414 <__avr32_udiv64+0x250>
80004258:	58 08       	cp.w	r8,0
8000425a:	c0 51       	brne	80004264 <__avr32_udiv64+0xa0>
8000425c:	30 19       	mov	r9,1
8000425e:	f2 08 0d 08 	divu	r8,r9,r8
80004262:	10 9c       	mov	r12,r8
80004264:	f8 06 12 00 	clz	r6,r12
80004268:	c0 41       	brne	80004270 <__avr32_udiv64+0xac>
8000426a:	18 1b       	sub	r11,r12
8000426c:	30 19       	mov	r9,1
8000426e:	c4 08       	rjmp	800042ee <__avr32_udiv64+0x12a>
80004270:	ec 01 11 20 	rsub	r1,r6,32
80004274:	f4 01 0a 49 	lsr	r9,r10,r1
80004278:	f8 06 09 4c 	lsl	r12,r12,r6
8000427c:	f6 06 09 48 	lsl	r8,r11,r6
80004280:	f6 01 0a 41 	lsr	r1,r11,r1
80004284:	f3 e8 10 08 	or	r8,r9,r8
80004288:	f8 03 16 10 	lsr	r3,r12,0x10
8000428c:	eb dc c0 10 	bfextu	r5,r12,0x0,0x10
80004290:	e2 03 0d 00 	divu	r0,r1,r3
80004294:	f0 0b 16 10 	lsr	r11,r8,0x10
80004298:	00 9e       	mov	lr,r0
8000429a:	f7 e1 11 0b 	or	r11,r11,r1<<0x10
8000429e:	e0 05 02 49 	mul	r9,r0,r5
800042a2:	12 3b       	cp.w	r11,r9
800042a4:	c0 a2       	brcc	800042b8 <__avr32_udiv64+0xf4>
800042a6:	20 1e       	sub	lr,1
800042a8:	18 0b       	add	r11,r12
800042aa:	18 3b       	cp.w	r11,r12
800042ac:	c0 63       	brcs	800042b8 <__avr32_udiv64+0xf4>
800042ae:	12 3b       	cp.w	r11,r9
800042b0:	f7 be 03 01 	sublo	lr,1
800042b4:	f7 dc e3 0b 	addcs	r11,r11,r12
800042b8:	12 1b       	sub	r11,r9
800042ba:	f1 d8 c0 10 	bfextu	r8,r8,0x0,0x10
800042be:	f6 03 0d 02 	divu	r2,r11,r3
800042c2:	f1 e3 11 08 	or	r8,r8,r3<<0x10
800042c6:	04 99       	mov	r9,r2
800042c8:	e4 05 02 4b 	mul	r11,r2,r5
800042cc:	16 38       	cp.w	r8,r11
800042ce:	c0 a2       	brcc	800042e2 <__avr32_udiv64+0x11e>
800042d0:	20 19       	sub	r9,1
800042d2:	18 08       	add	r8,r12
800042d4:	18 38       	cp.w	r8,r12
800042d6:	c0 63       	brcs	800042e2 <__avr32_udiv64+0x11e>
800042d8:	16 38       	cp.w	r8,r11
800042da:	f7 b9 03 01 	sublo	r9,1
800042de:	f1 dc e3 08 	addcs	r8,r8,r12
800042e2:	f4 06 09 43 	lsl	r3,r10,r6
800042e6:	f0 0b 01 0b 	sub	r11,r8,r11
800042ea:	f3 ee 11 09 	or	r9,r9,lr<<0x10
800042ee:	f8 06 16 10 	lsr	r6,r12,0x10
800042f2:	fd dc c0 10 	bfextu	lr,r12,0x0,0x10
800042f6:	f6 06 0d 00 	divu	r0,r11,r6
800042fa:	e6 0b 16 10 	lsr	r11,r3,0x10
800042fe:	00 9a       	mov	r10,r0
80004300:	f7 e1 11 0b 	or	r11,r11,r1<<0x10
80004304:	e0 0e 02 48 	mul	r8,r0,lr
80004308:	10 3b       	cp.w	r11,r8
8000430a:	c0 a2       	brcc	8000431e <__avr32_udiv64+0x15a>
8000430c:	20 1a       	sub	r10,1
8000430e:	18 0b       	add	r11,r12
80004310:	18 3b       	cp.w	r11,r12
80004312:	c0 63       	brcs	8000431e <__avr32_udiv64+0x15a>
80004314:	10 3b       	cp.w	r11,r8
80004316:	f7 ba 03 01 	sublo	r10,1
8000431a:	f7 dc e3 0b 	addcs	r11,r11,r12
8000431e:	f6 08 01 01 	sub	r1,r11,r8
80004322:	e7 d3 c0 10 	bfextu	r3,r3,0x0,0x10
80004326:	e2 06 0d 00 	divu	r0,r1,r6
8000432a:	e7 e1 11 03 	or	r3,r3,r1<<0x10
8000432e:	00 98       	mov	r8,r0
80004330:	e0 0e 02 4b 	mul	r11,r0,lr
80004334:	16 33       	cp.w	r3,r11
80004336:	c0 82       	brcc	80004346 <__avr32_udiv64+0x182>
80004338:	20 18       	sub	r8,1
8000433a:	18 03       	add	r3,r12
8000433c:	18 33       	cp.w	r3,r12
8000433e:	c0 43       	brcs	80004346 <__avr32_udiv64+0x182>
80004340:	16 33       	cp.w	r3,r11
80004342:	f7 b8 03 01 	sublo	r8,1
80004346:	f1 ea 11 08 	or	r8,r8,r10<<0x10
8000434a:	c6 98       	rjmp	8000441c <__avr32_udiv64+0x258>
8000434c:	16 39       	cp.w	r9,r11
8000434e:	e0 8b 00 65 	brhi	80004418 <__avr32_udiv64+0x254>
80004352:	f2 09 12 00 	clz	r9,r9
80004356:	c0 b1       	brne	8000436c <__avr32_udiv64+0x1a8>
80004358:	10 3a       	cp.w	r10,r8
8000435a:	5f 2a       	srhs	r10
8000435c:	1c 3b       	cp.w	r11,lr
8000435e:	5f b8       	srhi	r8
80004360:	10 4a       	or	r10,r8
80004362:	f2 0a 18 00 	cp.b	r10,r9
80004366:	c5 90       	breq	80004418 <__avr32_udiv64+0x254>
80004368:	30 18       	mov	r8,1
8000436a:	c5 98       	rjmp	8000441c <__avr32_udiv64+0x258>
8000436c:	f0 09 09 46 	lsl	r6,r8,r9
80004370:	f2 03 11 20 	rsub	r3,r9,32
80004374:	fc 09 09 4e 	lsl	lr,lr,r9
80004378:	f0 03 0a 48 	lsr	r8,r8,r3
8000437c:	f6 09 09 4c 	lsl	r12,r11,r9
80004380:	f4 03 0a 42 	lsr	r2,r10,r3
80004384:	ef 46 ff f4 	st.w	r7[-12],r6
80004388:	f6 03 0a 43 	lsr	r3,r11,r3
8000438c:	18 42       	or	r2,r12
8000438e:	f1 ee 10 0c 	or	r12,r8,lr
80004392:	f8 01 16 10 	lsr	r1,r12,0x10
80004396:	ed dc c0 10 	bfextu	r6,r12,0x0,0x10
8000439a:	e6 01 0d 04 	divu	r4,r3,r1
8000439e:	e4 03 16 10 	lsr	r3,r2,0x10
800043a2:	08 9e       	mov	lr,r4
800043a4:	e7 e5 11 03 	or	r3,r3,r5<<0x10
800043a8:	e8 06 02 48 	mul	r8,r4,r6
800043ac:	10 33       	cp.w	r3,r8
800043ae:	c0 a2       	brcc	800043c2 <__avr32_udiv64+0x1fe>
800043b0:	20 1e       	sub	lr,1
800043b2:	18 03       	add	r3,r12
800043b4:	18 33       	cp.w	r3,r12
800043b6:	c0 63       	brcs	800043c2 <__avr32_udiv64+0x1fe>
800043b8:	10 33       	cp.w	r3,r8
800043ba:	f7 be 03 01 	sublo	lr,1
800043be:	e7 dc e3 03 	addcs	r3,r3,r12
800043c2:	10 13       	sub	r3,r8
800043c4:	f7 d2 c0 10 	bfextu	r11,r2,0x0,0x10
800043c8:	e6 01 0d 00 	divu	r0,r3,r1
800043cc:	f7 e1 11 0b 	or	r11,r11,r1<<0x10
800043d0:	00 98       	mov	r8,r0
800043d2:	e0 06 02 46 	mul	r6,r0,r6
800043d6:	0c 3b       	cp.w	r11,r6
800043d8:	c0 a2       	brcc	800043ec <__avr32_udiv64+0x228>
800043da:	20 18       	sub	r8,1
800043dc:	18 0b       	add	r11,r12
800043de:	18 3b       	cp.w	r11,r12
800043e0:	c0 63       	brcs	800043ec <__avr32_udiv64+0x228>
800043e2:	0c 3b       	cp.w	r11,r6
800043e4:	f7 dc e3 0b 	addcs	r11,r11,r12
800043e8:	f7 b8 03 01 	sublo	r8,1
800043ec:	f1 ee 11 08 	or	r8,r8,lr<<0x10
800043f0:	ee f4 ff f4 	ld.w	r4,r7[-12]
800043f4:	0c 1b       	sub	r11,r6
800043f6:	f0 04 06 42 	mulu.d	r2,r8,r4
800043fa:	06 95       	mov	r5,r3
800043fc:	16 35       	cp.w	r5,r11
800043fe:	e0 8b 00 0a 	brhi	80004412 <__avr32_udiv64+0x24e>
80004402:	5f 0b       	sreq	r11
80004404:	f4 09 09 49 	lsl	r9,r10,r9
80004408:	12 32       	cp.w	r2,r9
8000440a:	5f b9       	srhi	r9
8000440c:	f7 e9 00 09 	and	r9,r11,r9
80004410:	c0 60       	breq	8000441c <__avr32_udiv64+0x258>
80004412:	20 18       	sub	r8,1
80004414:	30 09       	mov	r9,0
80004416:	c0 38       	rjmp	8000441c <__avr32_udiv64+0x258>
80004418:	30 09       	mov	r9,0
8000441a:	12 98       	mov	r8,r9
8000441c:	10 9a       	mov	r10,r8
8000441e:	12 93       	mov	r3,r9
80004420:	10 92       	mov	r2,r8
80004422:	12 9b       	mov	r11,r9
80004424:	2f dd       	sub	sp,-12
80004426:	d8 32       	popm	r0-r7,pc

80004428 <memcpy>:
80004428:	58 8a       	cp.w	r10,8
8000442a:	c2 f5       	brlt	80004488 <memcpy+0x60>
8000442c:	f9 eb 10 09 	or	r9,r12,r11
80004430:	e2 19 00 03 	andl	r9,0x3,COH
80004434:	e0 81 00 97 	brne	80004562 <memcpy+0x13a>
80004438:	e0 4a 00 20 	cp.w	r10,32
8000443c:	c3 b4       	brge	800044b2 <memcpy+0x8a>
8000443e:	f4 08 14 02 	asr	r8,r10,0x2
80004442:	f0 09 11 08 	rsub	r9,r8,8
80004446:	fe 09 00 2f 	add	pc,pc,r9<<0x2
8000444a:	76 69       	ld.w	r9,r11[0x18]
8000444c:	99 69       	st.w	r12[0x18],r9
8000444e:	76 59       	ld.w	r9,r11[0x14]
80004450:	99 59       	st.w	r12[0x14],r9
80004452:	76 49       	ld.w	r9,r11[0x10]
80004454:	99 49       	st.w	r12[0x10],r9
80004456:	76 39       	ld.w	r9,r11[0xc]
80004458:	99 39       	st.w	r12[0xc],r9
8000445a:	76 29       	ld.w	r9,r11[0x8]
8000445c:	99 29       	st.w	r12[0x8],r9
8000445e:	76 19       	ld.w	r9,r11[0x4]
80004460:	99 19       	st.w	r12[0x4],r9
80004462:	76 09       	ld.w	r9,r11[0x0]
80004464:	99 09       	st.w	r12[0x0],r9
80004466:	f6 08 00 2b 	add	r11,r11,r8<<0x2
8000446a:	f8 08 00 28 	add	r8,r12,r8<<0x2
8000446e:	e0 1a 00 03 	andl	r10,0x3
80004472:	f4 0a 11 04 	rsub	r10,r10,4
80004476:	fe 0a 00 2f 	add	pc,pc,r10<<0x2
8000447a:	17 a9       	ld.ub	r9,r11[0x2]
8000447c:	b0 a9       	st.b	r8[0x2],r9
8000447e:	17 99       	ld.ub	r9,r11[0x1]
80004480:	b0 99       	st.b	r8[0x1],r9
80004482:	17 89       	ld.ub	r9,r11[0x0]
80004484:	b0 89       	st.b	r8[0x0],r9
80004486:	5e fc       	retal	r12
80004488:	f4 0a 11 09 	rsub	r10,r10,9
8000448c:	fe 0a 00 2f 	add	pc,pc,r10<<0x2
80004490:	17 f9       	ld.ub	r9,r11[0x7]
80004492:	b8 f9       	st.b	r12[0x7],r9
80004494:	17 e9       	ld.ub	r9,r11[0x6]
80004496:	b8 e9       	st.b	r12[0x6],r9
80004498:	17 d9       	ld.ub	r9,r11[0x5]
8000449a:	b8 d9       	st.b	r12[0x5],r9
8000449c:	17 c9       	ld.ub	r9,r11[0x4]
8000449e:	b8 c9       	st.b	r12[0x4],r9
800044a0:	17 b9       	ld.ub	r9,r11[0x3]
800044a2:	b8 b9       	st.b	r12[0x3],r9
800044a4:	17 a9       	ld.ub	r9,r11[0x2]
800044a6:	b8 a9       	st.b	r12[0x2],r9
800044a8:	17 99       	ld.ub	r9,r11[0x1]
800044aa:	b8 99       	st.b	r12[0x1],r9
800044ac:	17 89       	ld.ub	r9,r11[0x0]
800044ae:	b8 89       	st.b	r12[0x0],r9
800044b0:	5e fc       	retal	r12
800044b2:	eb cd 40 c0 	pushm	r6-r7,lr
800044b6:	18 99       	mov	r9,r12
800044b8:	22 0a       	sub	r10,32
800044ba:	b7 07       	ld.d	r6,r11++
800044bc:	b3 26       	st.d	r9++,r6
800044be:	b7 07       	ld.d	r6,r11++
800044c0:	b3 26       	st.d	r9++,r6
800044c2:	b7 07       	ld.d	r6,r11++
800044c4:	b3 26       	st.d	r9++,r6
800044c6:	b7 07       	ld.d	r6,r11++
800044c8:	b3 26       	st.d	r9++,r6
800044ca:	22 0a       	sub	r10,32
800044cc:	cf 74       	brge	800044ba <memcpy+0x92>
800044ce:	2f 0a       	sub	r10,-16
800044d0:	c0 65       	brlt	800044dc <memcpy+0xb4>
800044d2:	b7 07       	ld.d	r6,r11++
800044d4:	b3 26       	st.d	r9++,r6
800044d6:	b7 07       	ld.d	r6,r11++
800044d8:	b3 26       	st.d	r9++,r6
800044da:	21 0a       	sub	r10,16
800044dc:	5c 3a       	neg	r10
800044de:	fe 0a 00 3f 	add	pc,pc,r10<<0x3
800044e2:	d7 03       	nop
800044e4:	d7 03       	nop
800044e6:	f7 36 00 0e 	ld.ub	r6,r11[14]
800044ea:	f3 66 00 0e 	st.b	r9[14],r6
800044ee:	f7 36 00 0d 	ld.ub	r6,r11[13]
800044f2:	f3 66 00 0d 	st.b	r9[13],r6
800044f6:	f7 36 00 0c 	ld.ub	r6,r11[12]
800044fa:	f3 66 00 0c 	st.b	r9[12],r6
800044fe:	f7 36 00 0b 	ld.ub	r6,r11[11]
80004502:	f3 66 00 0b 	st.b	r9[11],r6
80004506:	f7 36 00 0a 	ld.ub	r6,r11[10]
8000450a:	f3 66 00 0a 	st.b	r9[10],r6
8000450e:	f7 36 00 09 	ld.ub	r6,r11[9]
80004512:	f3 66 00 09 	st.b	r9[9],r6
80004516:	f7 36 00 08 	ld.ub	r6,r11[8]
8000451a:	f3 66 00 08 	st.b	r9[8],r6
8000451e:	f7 36 00 07 	ld.ub	r6,r11[7]
80004522:	f3 66 00 07 	st.b	r9[7],r6
80004526:	f7 36 00 06 	ld.ub	r6,r11[6]
8000452a:	f3 66 00 06 	st.b	r9[6],r6
8000452e:	f7 36 00 05 	ld.ub	r6,r11[5]
80004532:	f3 66 00 05 	st.b	r9[5],r6
80004536:	f7 36 00 04 	ld.ub	r6,r11[4]
8000453a:	f3 66 00 04 	st.b	r9[4],r6
8000453e:	f7 36 00 03 	ld.ub	r6,r11[3]
80004542:	f3 66 00 03 	st.b	r9[3],r6
80004546:	f7 36 00 02 	ld.ub	r6,r11[2]
8000454a:	f3 66 00 02 	st.b	r9[2],r6
8000454e:	f7 36 00 01 	ld.ub	r6,r11[1]
80004552:	f3 66 00 01 	st.b	r9[1],r6
80004556:	f7 36 00 00 	ld.ub	r6,r11[0]
8000455a:	f3 66 00 00 	st.b	r9[0],r6
8000455e:	e3 cd 80 c0 	ldm	sp++,r6-r7,pc
80004562:	20 1a       	sub	r10,1
80004564:	f6 0a 07 09 	ld.ub	r9,r11[r10]
80004568:	f8 0a 0b 09 	st.b	r12[r10],r9
8000456c:	cf b1       	brne	80004562 <memcpy+0x13a>
8000456e:	5e fc       	retal	r12

80004570 <_vsprintf_r>:
80004570:	d4 01       	pushm	lr
80004572:	21 7d       	sub	sp,92
80004574:	e0 68 ff ff 	mov	r8,65535
80004578:	ea 18 7f ff 	orh	r8,0x7fff
8000457c:	50 58       	stdsp	sp[0x14],r8
8000457e:	50 28       	stdsp	sp[0x8],r8
80004580:	e0 68 02 08 	mov	r8,520
80004584:	ba 68       	st.h	sp[0xc],r8
80004586:	3f f8       	mov	r8,-1
80004588:	50 4b       	stdsp	sp[0x10],r11
8000458a:	50 0b       	stdsp	sp[0x0],r11
8000458c:	ba 78       	st.h	sp[0xe],r8
8000458e:	1a 9b       	mov	r11,sp
80004590:	ca 8d       	rcall	800048e0 <_vfprintf_r>
80004592:	30 09       	mov	r9,0
80004594:	40 08       	lddsp	r8,sp[0x0]
80004596:	b0 89       	st.b	r8[0x0],r9
80004598:	2e 9d       	sub	sp,-92
8000459a:	d8 02       	popm	pc

8000459c <vsprintf>:
8000459c:	d4 01       	pushm	lr
8000459e:	e0 68 00 fc 	mov	r8,252
800045a2:	14 99       	mov	r9,r10
800045a4:	16 9a       	mov	r10,r11
800045a6:	18 9b       	mov	r11,r12
800045a8:	70 0c       	ld.w	r12,r8[0x0]
800045aa:	ce 3f       	rcall	80004570 <_vsprintf_r>
800045ac:	d8 02       	popm	pc
800045ae:	d7 03       	nop

800045b0 <get_arg>:
800045b0:	d4 31       	pushm	r0-r7,lr
800045b2:	20 8d       	sub	sp,32
800045b4:	fa c4 ff bc 	sub	r4,sp,-68
800045b8:	50 4b       	stdsp	sp[0x10],r11
800045ba:	68 2e       	ld.w	lr,r4[0x8]
800045bc:	50 58       	stdsp	sp[0x14],r8
800045be:	12 96       	mov	r6,r9
800045c0:	7c 0b       	ld.w	r11,lr[0x0]
800045c2:	70 05       	ld.w	r5,r8[0x0]
800045c4:	50 6e       	stdsp	sp[0x18],lr
800045c6:	58 0b       	cp.w	r11,0
800045c8:	f4 0b 17 00 	moveq	r11,r10
800045cc:	68 03       	ld.w	r3,r4[0x0]
800045ce:	68 11       	ld.w	r1,r4[0x4]
800045d0:	40 49       	lddsp	r9,sp[0x10]
800045d2:	30 08       	mov	r8,0
800045d4:	c2 89       	rjmp	80004824 <get_arg+0x274>
800045d6:	2f fb       	sub	r11,-1
800045d8:	32 5c       	mov	r12,37
800045da:	17 8a       	ld.ub	r10,r11[0x0]
800045dc:	f8 0a 18 00 	cp.b	r10,r12
800045e0:	5f 1e       	srne	lr
800045e2:	f0 0a 18 00 	cp.b	r10,r8
800045e6:	5f 1c       	srne	r12
800045e8:	fd ec 00 0c 	and	r12,lr,r12
800045ec:	f0 0c 18 00 	cp.b	r12,r8
800045f0:	cf 31       	brne	800045d6 <get_arg+0x26>
800045f2:	58 0a       	cp.w	r10,0
800045f4:	e0 80 01 25 	breq	8000483e <get_arg+0x28e>
800045f8:	30 0c       	mov	r12,0
800045fa:	3f fa       	mov	r10,-1
800045fc:	18 90       	mov	r0,r12
800045fe:	50 3a       	stdsp	sp[0xc],r10
80004600:	18 94       	mov	r4,r12
80004602:	18 92       	mov	r2,r12
80004604:	f8 0c 00 3c 	add	r12,r12,r12<<0x3
80004608:	16 97       	mov	r7,r11
8000460a:	50 7c       	stdsp	sp[0x1c],r12
8000460c:	fe cc a3 e0 	sub	r12,pc,-23584
80004610:	0f 3a       	ld.ub	r10,r7++
80004612:	f8 0a 07 0e 	ld.ub	lr,r12[r10]
80004616:	40 7c       	lddsp	r12,sp[0x1c]
80004618:	1c 0c       	add	r12,lr
8000461a:	fe ce a4 b6 	sub	lr,pc,-23370
8000461e:	fc 0c 07 0e 	ld.ub	lr,lr[r12]
80004622:	20 1e       	sub	lr,1
80004624:	50 0e       	stdsp	sp[0x0],lr
80004626:	fe ce a5 2e 	sub	lr,pc,-23250
8000462a:	fc 0c 07 0c 	ld.ub	r12,lr[r12]
8000462e:	50 7c       	stdsp	sp[0x1c],r12
80004630:	40 0c       	lddsp	r12,sp[0x0]
80004632:	58 7c       	cp.w	r12,7
80004634:	e0 8b 00 f1 	brhi	80004816 <get_arg+0x266>
80004638:	fe ce a6 e0 	sub	lr,pc,-22816
8000463c:	fc 0c 03 2f 	ld.w	pc,lr[r12<<0x2]
80004640:	36 8b       	mov	r11,104
80004642:	f6 0a 18 00 	cp.b	r10,r11
80004646:	e0 80 00 e8 	breq	80004816 <get_arg+0x266>
8000464a:	37 1b       	mov	r11,113
8000464c:	f6 0a 18 00 	cp.b	r10,r11
80004650:	c0 70       	breq	8000465e <get_arg+0xae>
80004652:	34 cb       	mov	r11,76
80004654:	f6 0a 18 00 	cp.b	r10,r11
80004658:	c0 51       	brne	80004662 <get_arg+0xb2>
8000465a:	a3 b4       	sbr	r4,0x3
8000465c:	cd d8       	rjmp	80004816 <get_arg+0x266>
8000465e:	a5 b4       	sbr	r4,0x5
80004660:	cd b8       	rjmp	80004816 <get_arg+0x266>
80004662:	08 9a       	mov	r10,r4
80004664:	0e 9b       	mov	r11,r7
80004666:	a5 aa       	sbr	r10,0x4
80004668:	17 3c       	ld.ub	r12,r11++
8000466a:	a5 b4       	sbr	r4,0x5
8000466c:	36 ce       	mov	lr,108
8000466e:	fc 0c 18 00 	cp.b	r12,lr
80004672:	e0 80 00 d3 	breq	80004818 <get_arg+0x268>
80004676:	14 94       	mov	r4,r10
80004678:	cc f8       	rjmp	80004816 <get_arg+0x266>
8000467a:	eb d5 c0 05 	bfextu	r5,r5,0x0,0x5
8000467e:	36 7c       	mov	r12,103
80004680:	f8 0a 18 00 	cp.b	r10,r12
80004684:	e0 8b 00 27 	brhi	800046d2 <get_arg+0x122>
80004688:	36 5b       	mov	r11,101
8000468a:	f6 0a 18 00 	cp.b	r10,r11
8000468e:	c4 82       	brcc	8000471e <get_arg+0x16e>
80004690:	34 fb       	mov	r11,79
80004692:	f6 0a 18 00 	cp.b	r10,r11
80004696:	c4 80       	breq	80004726 <get_arg+0x176>
80004698:	e0 8b 00 0c 	brhi	800046b0 <get_arg+0x100>
8000469c:	34 5b       	mov	r11,69
8000469e:	f6 0a 18 00 	cp.b	r10,r11
800046a2:	c3 e0       	breq	8000471e <get_arg+0x16e>
800046a4:	34 7b       	mov	r11,71
800046a6:	f6 0a 18 00 	cp.b	r10,r11
800046aa:	c3 a0       	breq	8000471e <get_arg+0x16e>
800046ac:	34 4b       	mov	r11,68
800046ae:	c0 88       	rjmp	800046be <get_arg+0x10e>
800046b0:	35 8b       	mov	r11,88
800046b2:	f6 0a 18 00 	cp.b	r10,r11
800046b6:	c2 c0       	breq	8000470e <get_arg+0x15e>
800046b8:	e0 8b 00 07 	brhi	800046c6 <get_arg+0x116>
800046bc:	35 5b       	mov	r11,85
800046be:	f6 0a 18 00 	cp.b	r10,r11
800046c2:	c3 51       	brne	8000472c <get_arg+0x17c>
800046c4:	c3 18       	rjmp	80004726 <get_arg+0x176>
800046c6:	36 3b       	mov	r11,99
800046c8:	f6 0a 18 00 	cp.b	r10,r11
800046cc:	c2 f0       	breq	8000472a <get_arg+0x17a>
800046ce:	36 4b       	mov	r11,100
800046d0:	c0 e8       	rjmp	800046ec <get_arg+0x13c>
800046d2:	37 0b       	mov	r11,112
800046d4:	f6 0a 18 00 	cp.b	r10,r11
800046d8:	c2 50       	breq	80004722 <get_arg+0x172>
800046da:	e0 8b 00 0d 	brhi	800046f4 <get_arg+0x144>
800046de:	36 eb       	mov	r11,110
800046e0:	f6 0a 18 00 	cp.b	r10,r11
800046e4:	c1 f0       	breq	80004722 <get_arg+0x172>
800046e6:	e0 8b 00 14 	brhi	8000470e <get_arg+0x15e>
800046ea:	36 9b       	mov	r11,105
800046ec:	f6 0a 18 00 	cp.b	r10,r11
800046f0:	c1 e1       	brne	8000472c <get_arg+0x17c>
800046f2:	c0 e8       	rjmp	8000470e <get_arg+0x15e>
800046f4:	37 5b       	mov	r11,117
800046f6:	f6 0a 18 00 	cp.b	r10,r11
800046fa:	c0 a0       	breq	8000470e <get_arg+0x15e>
800046fc:	37 8b       	mov	r11,120
800046fe:	f6 0a 18 00 	cp.b	r10,r11
80004702:	c0 60       	breq	8000470e <get_arg+0x15e>
80004704:	37 3b       	mov	r11,115
80004706:	f6 0a 18 00 	cp.b	r10,r11
8000470a:	c1 11       	brne	8000472c <get_arg+0x17c>
8000470c:	c0 b8       	rjmp	80004722 <get_arg+0x172>
8000470e:	ed b4 00 04 	bld	r4,0x4
80004712:	c0 a0       	breq	80004726 <get_arg+0x176>
80004714:	ed b4 00 05 	bld	r4,0x5
80004718:	c0 91       	brne	8000472a <get_arg+0x17a>
8000471a:	30 20       	mov	r0,2
8000471c:	c0 88       	rjmp	8000472c <get_arg+0x17c>
8000471e:	30 40       	mov	r0,4
80004720:	c0 68       	rjmp	8000472c <get_arg+0x17c>
80004722:	30 30       	mov	r0,3
80004724:	c0 48       	rjmp	8000472c <get_arg+0x17c>
80004726:	30 10       	mov	r0,1
80004728:	c0 28       	rjmp	8000472c <get_arg+0x17c>
8000472a:	30 00       	mov	r0,0
8000472c:	40 3b       	lddsp	r11,sp[0xc]
8000472e:	5b fb       	cp.w	r11,-1
80004730:	c0 40       	breq	80004738 <get_arg+0x188>
80004732:	e2 0b 09 20 	st.w	r1[r11<<0x2],r0
80004736:	c7 08       	rjmp	80004816 <get_arg+0x266>
80004738:	58 60       	cp.w	r0,6
8000473a:	e0 8b 00 6e 	brhi	80004816 <get_arg+0x266>
8000473e:	6c 0a       	ld.w	r10,r6[0x0]
80004740:	ea cc ff ff 	sub	r12,r5,-1
80004744:	fe ce a7 cc 	sub	lr,pc,-22580
80004748:	fc 00 03 2f 	ld.w	pc,lr[r0<<0x2]
8000474c:	f4 cb ff f8 	sub	r11,r10,-8
80004750:	8d 0b       	st.w	r6[0x0],r11
80004752:	f4 ea 00 00 	ld.d	r10,r10[0]
80004756:	e6 05 08 3a 	st.d	r3[r5<<0x3],r10
8000475a:	c0 f8       	rjmp	80004778 <get_arg+0x1c8>
8000475c:	f4 cb ff fc 	sub	r11,r10,-4
80004760:	8d 0b       	st.w	r6[0x0],r11
80004762:	74 0a       	ld.w	r10,r10[0x0]
80004764:	e6 05 09 3a 	st.w	r3[r5<<0x3],r10
80004768:	c0 88       	rjmp	80004778 <get_arg+0x1c8>
8000476a:	f4 cb ff f8 	sub	r11,r10,-8
8000476e:	8d 0b       	st.w	r6[0x0],r11
80004770:	f4 ea 00 00 	ld.d	r10,r10[0]
80004774:	e6 05 08 3a 	st.d	r3[r5<<0x3],r10
80004778:	0e 9b       	mov	r11,r7
8000477a:	18 95       	mov	r5,r12
8000477c:	c4 e8       	rjmp	80004818 <get_arg+0x268>
8000477e:	62 0a       	ld.w	r10,r1[0x0]
80004780:	5b fa       	cp.w	r10,-1
80004782:	c0 b1       	brne	80004798 <get_arg+0x1e8>
80004784:	50 19       	stdsp	sp[0x4],r9
80004786:	50 28       	stdsp	sp[0x8],r8
80004788:	e0 6a 00 80 	mov	r10,128
8000478c:	30 0b       	mov	r11,0
8000478e:	02 9c       	mov	r12,r1
80004790:	e0 a0 1d 78 	rcall	80008280 <memset>
80004794:	40 28       	lddsp	r8,sp[0x8]
80004796:	40 19       	lddsp	r9,sp[0x4]
80004798:	e4 cc 00 01 	sub	r12,r2,1
8000479c:	0e 9b       	mov	r11,r7
8000479e:	50 3c       	stdsp	sp[0xc],r12
800047a0:	f2 0c 0c 49 	max	r9,r9,r12
800047a4:	c3 a8       	rjmp	80004818 <get_arg+0x268>
800047a6:	62 0a       	ld.w	r10,r1[0x0]
800047a8:	5b fa       	cp.w	r10,-1
800047aa:	c0 b1       	brne	800047c0 <get_arg+0x210>
800047ac:	50 19       	stdsp	sp[0x4],r9
800047ae:	50 28       	stdsp	sp[0x8],r8
800047b0:	e0 6a 00 80 	mov	r10,128
800047b4:	30 0b       	mov	r11,0
800047b6:	02 9c       	mov	r12,r1
800047b8:	e0 a0 1d 64 	rcall	80008280 <memset>
800047bc:	40 28       	lddsp	r8,sp[0x8]
800047be:	40 19       	lddsp	r9,sp[0x4]
800047c0:	20 12       	sub	r2,1
800047c2:	30 0a       	mov	r10,0
800047c4:	0e 9b       	mov	r11,r7
800047c6:	e2 02 09 2a 	st.w	r1[r2<<0x2],r10
800047ca:	f2 02 0c 49 	max	r9,r9,r2
800047ce:	c2 58       	rjmp	80004818 <get_arg+0x268>
800047d0:	16 97       	mov	r7,r11
800047d2:	6c 0a       	ld.w	r10,r6[0x0]
800047d4:	f4 cb ff fc 	sub	r11,r10,-4
800047d8:	8d 0b       	st.w	r6[0x0],r11
800047da:	74 0a       	ld.w	r10,r10[0x0]
800047dc:	0e 9b       	mov	r11,r7
800047de:	e6 05 09 3a 	st.w	r3[r5<<0x3],r10
800047e2:	2f f5       	sub	r5,-1
800047e4:	c1 a8       	rjmp	80004818 <get_arg+0x268>
800047e6:	f4 c2 00 30 	sub	r2,r10,48
800047ea:	c0 68       	rjmp	800047f6 <get_arg+0x246>
800047ec:	e4 02 00 22 	add	r2,r2,r2<<0x2
800047f0:	2f f7       	sub	r7,-1
800047f2:	f4 02 00 12 	add	r2,r10,r2<<0x1
800047f6:	0f 8a       	ld.ub	r10,r7[0x0]
800047f8:	58 0a       	cp.w	r10,0
800047fa:	c0 e0       	breq	80004816 <get_arg+0x266>
800047fc:	23 0a       	sub	r10,48
800047fe:	58 9a       	cp.w	r10,9
80004800:	fe 98 ff f6 	brls	800047ec <get_arg+0x23c>
80004804:	c0 98       	rjmp	80004816 <get_arg+0x266>
80004806:	2f f7       	sub	r7,-1
80004808:	0f 8a       	ld.ub	r10,r7[0x0]
8000480a:	58 0a       	cp.w	r10,0
8000480c:	c0 50       	breq	80004816 <get_arg+0x266>
8000480e:	23 0a       	sub	r10,48
80004810:	58 9a       	cp.w	r10,9
80004812:	fe 98 ff fa 	brls	80004806 <get_arg+0x256>
80004816:	0e 9b       	mov	r11,r7
80004818:	40 7c       	lddsp	r12,sp[0x1c]
8000481a:	30 ba       	mov	r10,11
8000481c:	f4 0c 18 00 	cp.b	r12,r10
80004820:	fe 91 fe f2 	brne	80004604 <get_arg+0x54>
80004824:	40 42       	lddsp	r2,sp[0x10]
80004826:	17 8c       	ld.ub	r12,r11[0x0]
80004828:	0a 32       	cp.w	r2,r5
8000482a:	5f 4a       	srge	r10
8000482c:	f0 0c 18 00 	cp.b	r12,r8
80004830:	5f 1c       	srne	r12
80004832:	f9 ea 00 0a 	and	r10,r12,r10
80004836:	f0 0a 18 00 	cp.b	r10,r8
8000483a:	fe 91 fe cf 	brne	800045d8 <get_arg+0x28>
8000483e:	30 08       	mov	r8,0
80004840:	40 4e       	lddsp	lr,sp[0x10]
80004842:	17 8a       	ld.ub	r10,r11[0x0]
80004844:	e2 05 00 21 	add	r1,r1,r5<<0x2
80004848:	f0 0a 18 00 	cp.b	r10,r8
8000484c:	fc 09 17 10 	movne	r9,lr
80004850:	e6 05 00 38 	add	r8,r3,r5<<0x3
80004854:	06 9e       	mov	lr,r3
80004856:	c2 a8       	rjmp	800048aa <get_arg+0x2fa>
80004858:	62 0a       	ld.w	r10,r1[0x0]
8000485a:	58 3a       	cp.w	r10,3
8000485c:	c1 e0       	breq	80004898 <get_arg+0x2e8>
8000485e:	e0 89 00 07 	brgt	8000486c <get_arg+0x2bc>
80004862:	58 1a       	cp.w	r10,1
80004864:	c1 a0       	breq	80004898 <get_arg+0x2e8>
80004866:	58 2a       	cp.w	r10,2
80004868:	c1 81       	brne	80004898 <get_arg+0x2e8>
8000486a:	c0 58       	rjmp	80004874 <get_arg+0x2c4>
8000486c:	58 5a       	cp.w	r10,5
8000486e:	c0 c0       	breq	80004886 <get_arg+0x2d6>
80004870:	c0 b5       	brlt	80004886 <get_arg+0x2d6>
80004872:	c1 38       	rjmp	80004898 <get_arg+0x2e8>
80004874:	6c 0a       	ld.w	r10,r6[0x0]
80004876:	f4 cc ff f8 	sub	r12,r10,-8
8000487a:	8d 0c       	st.w	r6[0x0],r12
8000487c:	f4 e2 00 00 	ld.d	r2,r10[0]
80004880:	f0 e3 00 00 	st.d	r8[0],r2
80004884:	c1 08       	rjmp	800048a4 <get_arg+0x2f4>
80004886:	6c 0a       	ld.w	r10,r6[0x0]
80004888:	f4 cc ff f8 	sub	r12,r10,-8
8000488c:	8d 0c       	st.w	r6[0x0],r12
8000488e:	f4 e2 00 00 	ld.d	r2,r10[0]
80004892:	f0 e3 00 00 	st.d	r8[0],r2
80004896:	c0 78       	rjmp	800048a4 <get_arg+0x2f4>
80004898:	6c 0a       	ld.w	r10,r6[0x0]
8000489a:	f4 cc ff fc 	sub	r12,r10,-4
8000489e:	8d 0c       	st.w	r6[0x0],r12
800048a0:	74 0a       	ld.w	r10,r10[0x0]
800048a2:	91 0a       	st.w	r8[0x0],r10
800048a4:	2f f5       	sub	r5,-1
800048a6:	2f 88       	sub	r8,-8
800048a8:	2f c1       	sub	r1,-4
800048aa:	12 35       	cp.w	r5,r9
800048ac:	fe 9a ff d6 	brle	80004858 <get_arg+0x2a8>
800048b0:	1c 93       	mov	r3,lr
800048b2:	40 52       	lddsp	r2,sp[0x14]
800048b4:	40 6e       	lddsp	lr,sp[0x18]
800048b6:	85 05       	st.w	r2[0x0],r5
800048b8:	9d 0b       	st.w	lr[0x0],r11
800048ba:	40 4b       	lddsp	r11,sp[0x10]
800048bc:	e6 0b 00 3c 	add	r12,r3,r11<<0x3
800048c0:	2f 8d       	sub	sp,-32
800048c2:	d8 32       	popm	r0-r7,pc

800048c4 <__sprint_r>:
800048c4:	d4 21       	pushm	r4-r7,lr
800048c6:	14 97       	mov	r7,r10
800048c8:	74 28       	ld.w	r8,r10[0x8]
800048ca:	58 08       	cp.w	r8,0
800048cc:	c0 41       	brne	800048d4 <__sprint_r+0x10>
800048ce:	95 18       	st.w	r10[0x4],r8
800048d0:	10 9c       	mov	r12,r8
800048d2:	d8 22       	popm	r4-r7,pc
800048d4:	e0 a0 18 b4 	rcall	80007a3c <__sfvwrite_r>
800048d8:	30 08       	mov	r8,0
800048da:	8f 18       	st.w	r7[0x4],r8
800048dc:	8f 28       	st.w	r7[0x8],r8
800048de:	d8 22       	popm	r4-r7,pc

800048e0 <_vfprintf_r>:
800048e0:	d4 31       	pushm	r0-r7,lr
800048e2:	fa cd 06 bc 	sub	sp,sp,1724
800048e6:	51 09       	stdsp	sp[0x40],r9
800048e8:	16 91       	mov	r1,r11
800048ea:	14 97       	mov	r7,r10
800048ec:	18 95       	mov	r5,r12
800048ee:	e0 a0 1a 1d 	rcall	80007d28 <_localeconv_r>
800048f2:	78 0c       	ld.w	r12,r12[0x0]
800048f4:	50 cc       	stdsp	sp[0x30],r12
800048f6:	58 05       	cp.w	r5,0
800048f8:	c0 70       	breq	80004906 <_vfprintf_r+0x26>
800048fa:	6a 68       	ld.w	r8,r5[0x18]
800048fc:	58 08       	cp.w	r8,0
800048fe:	c0 41       	brne	80004906 <_vfprintf_r+0x26>
80004900:	0a 9c       	mov	r12,r5
80004902:	e0 a0 17 3d 	rcall	8000777c <__sinit>
80004906:	fe c8 a5 ca 	sub	r8,pc,-23094
8000490a:	10 31       	cp.w	r1,r8
8000490c:	c0 31       	brne	80004912 <_vfprintf_r+0x32>
8000490e:	6a 01       	ld.w	r1,r5[0x0]
80004910:	c0 c8       	rjmp	80004928 <_vfprintf_r+0x48>
80004912:	fe c8 a5 b6 	sub	r8,pc,-23114
80004916:	10 31       	cp.w	r1,r8
80004918:	c0 31       	brne	8000491e <_vfprintf_r+0x3e>
8000491a:	6a 11       	ld.w	r1,r5[0x4]
8000491c:	c0 68       	rjmp	80004928 <_vfprintf_r+0x48>
8000491e:	fe c8 a5 a2 	sub	r8,pc,-23134
80004922:	10 31       	cp.w	r1,r8
80004924:	eb f1 00 02 	ld.weq	r1,r5[0x8]
80004928:	82 68       	ld.sh	r8,r1[0xc]
8000492a:	ed b8 00 03 	bld	r8,0x3
8000492e:	c0 41       	brne	80004936 <_vfprintf_r+0x56>
80004930:	62 48       	ld.w	r8,r1[0x10]
80004932:	58 08       	cp.w	r8,0
80004934:	c0 71       	brne	80004942 <_vfprintf_r+0x62>
80004936:	02 9b       	mov	r11,r1
80004938:	0a 9c       	mov	r12,r5
8000493a:	e0 a0 0f 5d 	rcall	800067f4 <__swsetup_r>
8000493e:	e0 81 0f 54 	brne	800067e6 <_vfprintf_r+0x1f06>
80004942:	82 68       	ld.sh	r8,r1[0xc]
80004944:	10 99       	mov	r9,r8
80004946:	e2 19 00 1a 	andl	r9,0x1a,COH
8000494a:	58 a9       	cp.w	r9,10
8000494c:	c3 c1       	brne	800049c4 <_vfprintf_r+0xe4>
8000494e:	82 79       	ld.sh	r9,r1[0xe]
80004950:	30 0a       	mov	r10,0
80004952:	f4 09 19 00 	cp.h	r9,r10
80004956:	c3 75       	brlt	800049c4 <_vfprintf_r+0xe4>
80004958:	a1 d8       	cbr	r8,0x1
8000495a:	fb 58 05 d0 	st.h	sp[1488],r8
8000495e:	62 88       	ld.w	r8,r1[0x20]
80004960:	fb 48 05 e4 	st.w	sp[1508],r8
80004964:	62 a8       	ld.w	r8,r1[0x28]
80004966:	fb 48 05 ec 	st.w	sp[1516],r8
8000496a:	fa c8 ff bc 	sub	r8,sp,-68
8000496e:	fb 48 05 d4 	st.w	sp[1492],r8
80004972:	fb 48 05 c4 	st.w	sp[1476],r8
80004976:	e0 68 04 00 	mov	r8,1024
8000497a:	fb 48 05 d8 	st.w	sp[1496],r8
8000497e:	fb 48 05 cc 	st.w	sp[1484],r8
80004982:	30 08       	mov	r8,0
80004984:	fb 59 05 d2 	st.h	sp[1490],r9
80004988:	0e 9a       	mov	r10,r7
8000498a:	41 09       	lddsp	r9,sp[0x40]
8000498c:	fa c7 fa 3c 	sub	r7,sp,-1476
80004990:	fb 48 05 dc 	st.w	sp[1500],r8
80004994:	0a 9c       	mov	r12,r5
80004996:	0e 9b       	mov	r11,r7
80004998:	ca 4f       	rcall	800048e0 <_vfprintf_r>
8000499a:	50 bc       	stdsp	sp[0x2c],r12
8000499c:	c0 95       	brlt	800049ae <_vfprintf_r+0xce>
8000499e:	0e 9b       	mov	r11,r7
800049a0:	0a 9c       	mov	r12,r5
800049a2:	e0 a0 16 15 	rcall	800075cc <_fflush_r>
800049a6:	40 be       	lddsp	lr,sp[0x2c]
800049a8:	f9 be 01 ff 	movne	lr,-1
800049ac:	50 be       	stdsp	sp[0x2c],lr
800049ae:	fb 08 05 d0 	ld.sh	r8,sp[1488]
800049b2:	ed b8 00 06 	bld	r8,0x6
800049b6:	e0 81 0f 1a 	brne	800067ea <_vfprintf_r+0x1f0a>
800049ba:	82 68       	ld.sh	r8,r1[0xc]
800049bc:	a7 a8       	sbr	r8,0x6
800049be:	a2 68       	st.h	r1[0xc],r8
800049c0:	e0 8f 0f 15 	bral	800067ea <_vfprintf_r+0x1f0a>
800049c4:	30 08       	mov	r8,0
800049c6:	fb 48 06 b4 	st.w	sp[1716],r8
800049ca:	fb 48 06 90 	st.w	sp[1680],r8
800049ce:	fb 48 06 8c 	st.w	sp[1676],r8
800049d2:	fb 48 06 b0 	st.w	sp[1712],r8
800049d6:	30 08       	mov	r8,0
800049d8:	30 09       	mov	r9,0
800049da:	50 a7       	stdsp	sp[0x28],r7
800049dc:	50 78       	stdsp	sp[0x1c],r8
800049de:	fa c3 f9 e0 	sub	r3,sp,-1568
800049e2:	3f f8       	mov	r8,-1
800049e4:	50 59       	stdsp	sp[0x14],r9
800049e6:	fb 43 06 88 	st.w	sp[1672],r3
800049ea:	fb 48 05 44 	st.w	sp[1348],r8
800049ee:	12 9c       	mov	r12,r9
800049f0:	50 69       	stdsp	sp[0x18],r9
800049f2:	50 d9       	stdsp	sp[0x34],r9
800049f4:	50 e9       	stdsp	sp[0x38],r9
800049f6:	50 b9       	stdsp	sp[0x2c],r9
800049f8:	12 97       	mov	r7,r9
800049fa:	0a 94       	mov	r4,r5
800049fc:	40 a2       	lddsp	r2,sp[0x28]
800049fe:	32 5a       	mov	r10,37
80004a00:	30 08       	mov	r8,0
80004a02:	c0 28       	rjmp	80004a06 <_vfprintf_r+0x126>
80004a04:	2f f2       	sub	r2,-1
80004a06:	05 89       	ld.ub	r9,r2[0x0]
80004a08:	f0 09 18 00 	cp.b	r9,r8
80004a0c:	5f 1b       	srne	r11
80004a0e:	f4 09 18 00 	cp.b	r9,r10
80004a12:	5f 19       	srne	r9
80004a14:	f3 eb 00 0b 	and	r11,r9,r11
80004a18:	f0 0b 18 00 	cp.b	r11,r8
80004a1c:	cf 41       	brne	80004a04 <_vfprintf_r+0x124>
80004a1e:	40 ab       	lddsp	r11,sp[0x28]
80004a20:	e4 0b 01 06 	sub	r6,r2,r11
80004a24:	c1 e0       	breq	80004a60 <_vfprintf_r+0x180>
80004a26:	fa f8 06 90 	ld.w	r8,sp[1680]
80004a2a:	0c 08       	add	r8,r6
80004a2c:	87 0b       	st.w	r3[0x0],r11
80004a2e:	fb 48 06 90 	st.w	sp[1680],r8
80004a32:	87 16       	st.w	r3[0x4],r6
80004a34:	fa f8 06 8c 	ld.w	r8,sp[1676]
80004a38:	2f f8       	sub	r8,-1
80004a3a:	fb 48 06 8c 	st.w	sp[1676],r8
80004a3e:	58 78       	cp.w	r8,7
80004a40:	e0 89 00 04 	brgt	80004a48 <_vfprintf_r+0x168>
80004a44:	2f 83       	sub	r3,-8
80004a46:	c0 a8       	rjmp	80004a5a <_vfprintf_r+0x17a>
80004a48:	fa ca f9 78 	sub	r10,sp,-1672
80004a4c:	02 9b       	mov	r11,r1
80004a4e:	08 9c       	mov	r12,r4
80004a50:	c3 af       	rcall	800048c4 <__sprint_r>
80004a52:	e0 81 0e c6 	brne	800067de <_vfprintf_r+0x1efe>
80004a56:	fa c3 f9 e0 	sub	r3,sp,-1568
80004a5a:	40 ba       	lddsp	r10,sp[0x2c]
80004a5c:	0c 0a       	add	r10,r6
80004a5e:	50 ba       	stdsp	sp[0x2c],r10
80004a60:	05 89       	ld.ub	r9,r2[0x0]
80004a62:	30 08       	mov	r8,0
80004a64:	f0 09 18 00 	cp.b	r9,r8
80004a68:	e0 80 0e aa 	breq	800067bc <_vfprintf_r+0x1edc>
80004a6c:	30 09       	mov	r9,0
80004a6e:	fb 68 06 bb 	st.b	sp[1723],r8
80004a72:	0e 96       	mov	r6,r7
80004a74:	e4 c8 ff ff 	sub	r8,r2,-1
80004a78:	3f fe       	mov	lr,-1
80004a7a:	50 93       	stdsp	sp[0x24],r3
80004a7c:	50 41       	stdsp	sp[0x10],r1
80004a7e:	0e 93       	mov	r3,r7
80004a80:	04 91       	mov	r1,r2
80004a82:	50 89       	stdsp	sp[0x20],r9
80004a84:	50 a8       	stdsp	sp[0x28],r8
80004a86:	50 2e       	stdsp	sp[0x8],lr
80004a88:	50 39       	stdsp	sp[0xc],r9
80004a8a:	12 95       	mov	r5,r9
80004a8c:	12 90       	mov	r0,r9
80004a8e:	10 97       	mov	r7,r8
80004a90:	08 92       	mov	r2,r4
80004a92:	c0 78       	rjmp	80004aa0 <_vfprintf_r+0x1c0>
80004a94:	3f fc       	mov	r12,-1
80004a96:	08 97       	mov	r7,r4
80004a98:	50 2c       	stdsp	sp[0x8],r12
80004a9a:	c0 38       	rjmp	80004aa0 <_vfprintf_r+0x1c0>
80004a9c:	30 0b       	mov	r11,0
80004a9e:	50 3b       	stdsp	sp[0xc],r11
80004aa0:	0f 38       	ld.ub	r8,r7++
80004aa2:	c0 28       	rjmp	80004aa6 <_vfprintf_r+0x1c6>
80004aa4:	12 90       	mov	r0,r9
80004aa6:	f0 c9 00 20 	sub	r9,r8,32
80004aaa:	e0 49 00 58 	cp.w	r9,88
80004aae:	e0 8b 0a 30 	brhi	80005f0e <_vfprintf_r+0x162e>
80004ab2:	fe ca ab 1e 	sub	r10,pc,-21730
80004ab6:	f4 09 03 2f 	ld.w	pc,r10[r9<<0x2]
80004aba:	50 a7       	stdsp	sp[0x28],r7
80004abc:	50 80       	stdsp	sp[0x20],r0
80004abe:	0c 97       	mov	r7,r6
80004ac0:	04 94       	mov	r4,r2
80004ac2:	06 96       	mov	r6,r3
80004ac4:	02 92       	mov	r2,r1
80004ac6:	fe c9 a8 f6 	sub	r9,pc,-22282
80004aca:	40 93       	lddsp	r3,sp[0x24]
80004acc:	10 90       	mov	r0,r8
80004ace:	40 41       	lddsp	r1,sp[0x10]
80004ad0:	50 d9       	stdsp	sp[0x34],r9
80004ad2:	e0 8f 08 8e 	bral	80005bee <_vfprintf_r+0x130e>
80004ad6:	30 08       	mov	r8,0
80004ad8:	fb 39 06 bb 	ld.ub	r9,sp[1723]
80004adc:	f0 09 18 00 	cp.b	r9,r8
80004ae0:	ce 01       	brne	80004aa0 <_vfprintf_r+0x1c0>
80004ae2:	32 08       	mov	r8,32
80004ae4:	c6 e8       	rjmp	80004bc0 <_vfprintf_r+0x2e0>
80004ae6:	a1 a5       	sbr	r5,0x0
80004ae8:	cd cb       	rjmp	80004aa0 <_vfprintf_r+0x1c0>
80004aea:	0f 89       	ld.ub	r9,r7[0x0]
80004aec:	f2 c8 00 30 	sub	r8,r9,48
80004af0:	58 98       	cp.w	r8,9
80004af2:	e0 8b 00 1d 	brhi	80004b2c <_vfprintf_r+0x24c>
80004af6:	ee c8 ff ff 	sub	r8,r7,-1
80004afa:	30 0b       	mov	r11,0
80004afc:	23 09       	sub	r9,48
80004afe:	f6 0b 00 2b 	add	r11,r11,r11<<0x2
80004b02:	f2 0b 00 1b 	add	r11,r9,r11<<0x1
80004b06:	11 39       	ld.ub	r9,r8++
80004b08:	f2 ca 00 30 	sub	r10,r9,48
80004b0c:	58 9a       	cp.w	r10,9
80004b0e:	fe 98 ff f7 	brls	80004afc <_vfprintf_r+0x21c>
80004b12:	e0 49 00 24 	cp.w	r9,36
80004b16:	cc 31       	brne	80004a9c <_vfprintf_r+0x1bc>
80004b18:	e0 4b 00 20 	cp.w	r11,32
80004b1c:	e0 89 0e 60 	brgt	800067dc <_vfprintf_r+0x1efc>
80004b20:	20 1b       	sub	r11,1
80004b22:	fa f9 06 b4 	ld.w	r9,sp[1716]
80004b26:	12 3b       	cp.w	r11,r9
80004b28:	c0 95       	brlt	80004b3a <_vfprintf_r+0x25a>
80004b2a:	c1 08       	rjmp	80004b4a <_vfprintf_r+0x26a>
80004b2c:	fa f9 06 b4 	ld.w	r9,sp[1716]
80004b30:	ec ca ff ff 	sub	r10,r6,-1
80004b34:	12 36       	cp.w	r6,r9
80004b36:	c1 f5       	brlt	80004b74 <_vfprintf_r+0x294>
80004b38:	c2 68       	rjmp	80004b84 <_vfprintf_r+0x2a4>
80004b3a:	fa ce f9 44 	sub	lr,sp,-1724
80004b3e:	10 97       	mov	r7,r8
80004b40:	fc 0b 00 3b 	add	r11,lr,r11<<0x3
80004b44:	f6 f0 fd 88 	ld.w	r0,r11[-632]
80004b48:	c3 58       	rjmp	80004bb2 <_vfprintf_r+0x2d2>
80004b4a:	10 97       	mov	r7,r8
80004b4c:	fa c8 f9 50 	sub	r8,sp,-1712
80004b50:	1a d8       	st.w	--sp,r8
80004b52:	fa c8 fa b8 	sub	r8,sp,-1352
80004b56:	1a d8       	st.w	--sp,r8
80004b58:	fa c8 fb b4 	sub	r8,sp,-1100
80004b5c:	02 9a       	mov	r10,r1
80004b5e:	1a d8       	st.w	--sp,r8
80004b60:	04 9c       	mov	r12,r2
80004b62:	fa c8 f9 40 	sub	r8,sp,-1728
80004b66:	fa c9 ff b4 	sub	r9,sp,-76
80004b6a:	fe b0 fd 23 	rcall	800045b0 <get_arg>
80004b6e:	2f dd       	sub	sp,-12
80004b70:	78 00       	ld.w	r0,r12[0x0]
80004b72:	c2 08       	rjmp	80004bb2 <_vfprintf_r+0x2d2>
80004b74:	fa cc f9 44 	sub	r12,sp,-1724
80004b78:	14 96       	mov	r6,r10
80004b7a:	f8 03 00 38 	add	r8,r12,r3<<0x3
80004b7e:	f0 f0 fd 88 	ld.w	r0,r8[-632]
80004b82:	c1 88       	rjmp	80004bb2 <_vfprintf_r+0x2d2>
80004b84:	41 08       	lddsp	r8,sp[0x40]
80004b86:	59 f9       	cp.w	r9,31
80004b88:	e0 89 00 11 	brgt	80004baa <_vfprintf_r+0x2ca>
80004b8c:	f0 cb ff fc 	sub	r11,r8,-4
80004b90:	51 0b       	stdsp	sp[0x40],r11
80004b92:	70 00       	ld.w	r0,r8[0x0]
80004b94:	fa cb f9 44 	sub	r11,sp,-1724
80004b98:	f6 09 00 38 	add	r8,r11,r9<<0x3
80004b9c:	f1 40 fd 88 	st.w	r8[-632],r0
80004ba0:	2f f9       	sub	r9,-1
80004ba2:	14 96       	mov	r6,r10
80004ba4:	fb 49 06 b4 	st.w	sp[1716],r9
80004ba8:	c0 58       	rjmp	80004bb2 <_vfprintf_r+0x2d2>
80004baa:	70 00       	ld.w	r0,r8[0x0]
80004bac:	14 96       	mov	r6,r10
80004bae:	2f c8       	sub	r8,-4
80004bb0:	51 08       	stdsp	sp[0x40],r8
80004bb2:	58 00       	cp.w	r0,0
80004bb4:	fe 94 ff 76 	brge	80004aa0 <_vfprintf_r+0x1c0>
80004bb8:	5c 30       	neg	r0
80004bba:	a3 a5       	sbr	r5,0x2
80004bbc:	c7 2b       	rjmp	80004aa0 <_vfprintf_r+0x1c0>
80004bbe:	32 b8       	mov	r8,43
80004bc0:	fb 68 06 bb 	st.b	sp[1723],r8
80004bc4:	c6 eb       	rjmp	80004aa0 <_vfprintf_r+0x1c0>
80004bc6:	0f 38       	ld.ub	r8,r7++
80004bc8:	e0 48 00 2a 	cp.w	r8,42
80004bcc:	c0 30       	breq	80004bd2 <_vfprintf_r+0x2f2>
80004bce:	30 09       	mov	r9,0
80004bd0:	c7 98       	rjmp	80004cc2 <_vfprintf_r+0x3e2>
80004bd2:	0f 88       	ld.ub	r8,r7[0x0]
80004bd4:	f0 c9 00 30 	sub	r9,r8,48
80004bd8:	58 99       	cp.w	r9,9
80004bda:	e0 8b 00 1f 	brhi	80004c18 <_vfprintf_r+0x338>
80004bde:	ee c4 ff ff 	sub	r4,r7,-1
80004be2:	30 0b       	mov	r11,0
80004be4:	23 08       	sub	r8,48
80004be6:	f6 0b 00 2b 	add	r11,r11,r11<<0x2
80004bea:	f0 0b 00 1b 	add	r11,r8,r11<<0x1
80004bee:	09 38       	ld.ub	r8,r4++
80004bf0:	f0 c9 00 30 	sub	r9,r8,48
80004bf4:	58 99       	cp.w	r9,9
80004bf6:	fe 98 ff f7 	brls	80004be4 <_vfprintf_r+0x304>
80004bfa:	e0 48 00 24 	cp.w	r8,36
80004bfe:	fe 91 ff 4f 	brne	80004a9c <_vfprintf_r+0x1bc>
80004c02:	e0 4b 00 20 	cp.w	r11,32
80004c06:	e0 89 0d eb 	brgt	800067dc <_vfprintf_r+0x1efc>
80004c0a:	20 1b       	sub	r11,1
80004c0c:	fa f8 06 b4 	ld.w	r8,sp[1716]
80004c10:	10 3b       	cp.w	r11,r8
80004c12:	c0 a5       	brlt	80004c26 <_vfprintf_r+0x346>
80004c14:	c1 18       	rjmp	80004c36 <_vfprintf_r+0x356>
80004c16:	d7 03       	nop
80004c18:	fa fa 06 b4 	ld.w	r10,sp[1716]
80004c1c:	ec c9 ff ff 	sub	r9,r6,-1
80004c20:	14 36       	cp.w	r6,r10
80004c22:	c1 f5       	brlt	80004c60 <_vfprintf_r+0x380>
80004c24:	c2 88       	rjmp	80004c74 <_vfprintf_r+0x394>
80004c26:	fa ca f9 44 	sub	r10,sp,-1724
80004c2a:	f4 0b 00 3b 	add	r11,r10,r11<<0x3
80004c2e:	f6 fb fd 88 	ld.w	r11,r11[-632]
80004c32:	50 2b       	stdsp	sp[0x8],r11
80004c34:	c3 c8       	rjmp	80004cac <_vfprintf_r+0x3cc>
80004c36:	fa c8 f9 50 	sub	r8,sp,-1712
80004c3a:	1a d8       	st.w	--sp,r8
80004c3c:	fa c8 fa b8 	sub	r8,sp,-1352
80004c40:	1a d8       	st.w	--sp,r8
80004c42:	fa c8 fb b4 	sub	r8,sp,-1100
80004c46:	02 9a       	mov	r10,r1
80004c48:	1a d8       	st.w	--sp,r8
80004c4a:	04 9c       	mov	r12,r2
80004c4c:	fa c8 f9 40 	sub	r8,sp,-1728
80004c50:	fa c9 ff b4 	sub	r9,sp,-76
80004c54:	fe b0 fc ae 	rcall	800045b0 <get_arg>
80004c58:	2f dd       	sub	sp,-12
80004c5a:	78 0c       	ld.w	r12,r12[0x0]
80004c5c:	50 2c       	stdsp	sp[0x8],r12
80004c5e:	c2 78       	rjmp	80004cac <_vfprintf_r+0x3cc>
80004c60:	12 96       	mov	r6,r9
80004c62:	0e 94       	mov	r4,r7
80004c64:	fa c9 f9 44 	sub	r9,sp,-1724
80004c68:	f2 03 00 38 	add	r8,r9,r3<<0x3
80004c6c:	f0 f8 fd 88 	ld.w	r8,r8[-632]
80004c70:	50 28       	stdsp	sp[0x8],r8
80004c72:	c1 d8       	rjmp	80004cac <_vfprintf_r+0x3cc>
80004c74:	41 08       	lddsp	r8,sp[0x40]
80004c76:	59 fa       	cp.w	r10,31
80004c78:	e0 89 00 14 	brgt	80004ca0 <_vfprintf_r+0x3c0>
80004c7c:	f0 cb ff fc 	sub	r11,r8,-4
80004c80:	70 08       	ld.w	r8,r8[0x0]
80004c82:	51 0b       	stdsp	sp[0x40],r11
80004c84:	50 28       	stdsp	sp[0x8],r8
80004c86:	fa c6 f9 44 	sub	r6,sp,-1724
80004c8a:	40 2e       	lddsp	lr,sp[0x8]
80004c8c:	ec 0a 00 38 	add	r8,r6,r10<<0x3
80004c90:	f1 4e fd 88 	st.w	r8[-632],lr
80004c94:	2f fa       	sub	r10,-1
80004c96:	0e 94       	mov	r4,r7
80004c98:	fb 4a 06 b4 	st.w	sp[1716],r10
80004c9c:	12 96       	mov	r6,r9
80004c9e:	c0 78       	rjmp	80004cac <_vfprintf_r+0x3cc>
80004ca0:	70 0c       	ld.w	r12,r8[0x0]
80004ca2:	0e 94       	mov	r4,r7
80004ca4:	2f c8       	sub	r8,-4
80004ca6:	50 2c       	stdsp	sp[0x8],r12
80004ca8:	12 96       	mov	r6,r9
80004caa:	51 08       	stdsp	sp[0x40],r8
80004cac:	40 2b       	lddsp	r11,sp[0x8]
80004cae:	58 0b       	cp.w	r11,0
80004cb0:	fe 95 fe f2 	brlt	80004a94 <_vfprintf_r+0x1b4>
80004cb4:	08 97       	mov	r7,r4
80004cb6:	cf 5a       	rjmp	80004aa0 <_vfprintf_r+0x1c0>
80004cb8:	f2 09 00 29 	add	r9,r9,r9<<0x2
80004cbc:	0f 38       	ld.ub	r8,r7++
80004cbe:	f4 09 00 19 	add	r9,r10,r9<<0x1
80004cc2:	f0 ca 00 30 	sub	r10,r8,48
80004cc6:	58 9a       	cp.w	r10,9
80004cc8:	fe 98 ff f8 	brls	80004cb8 <_vfprintf_r+0x3d8>
80004ccc:	3f fa       	mov	r10,-1
80004cce:	f2 0a 0c 49 	max	r9,r9,r10
80004cd2:	50 29       	stdsp	sp[0x8],r9
80004cd4:	ce 9a       	rjmp	80004aa6 <_vfprintf_r+0x1c6>
80004cd6:	a7 b5       	sbr	r5,0x7
80004cd8:	ce 4a       	rjmp	80004aa0 <_vfprintf_r+0x1c0>
80004cda:	30 09       	mov	r9,0
80004cdc:	23 08       	sub	r8,48
80004cde:	f2 09 00 29 	add	r9,r9,r9<<0x2
80004ce2:	f0 09 00 19 	add	r9,r8,r9<<0x1
80004ce6:	0f 38       	ld.ub	r8,r7++
80004ce8:	f0 ca 00 30 	sub	r10,r8,48
80004cec:	58 9a       	cp.w	r10,9
80004cee:	fe 98 ff f7 	brls	80004cdc <_vfprintf_r+0x3fc>
80004cf2:	e0 48 00 24 	cp.w	r8,36
80004cf6:	fe 91 fe d7 	brne	80004aa4 <_vfprintf_r+0x1c4>
80004cfa:	e0 49 00 20 	cp.w	r9,32
80004cfe:	e0 89 0d 6f 	brgt	800067dc <_vfprintf_r+0x1efc>
80004d02:	f2 c3 00 01 	sub	r3,r9,1
80004d06:	30 19       	mov	r9,1
80004d08:	50 39       	stdsp	sp[0xc],r9
80004d0a:	cc ba       	rjmp	80004aa0 <_vfprintf_r+0x1c0>
80004d0c:	a3 b5       	sbr	r5,0x3
80004d0e:	cc 9a       	rjmp	80004aa0 <_vfprintf_r+0x1c0>
80004d10:	a7 a5       	sbr	r5,0x6
80004d12:	cc 7a       	rjmp	80004aa0 <_vfprintf_r+0x1c0>
80004d14:	0a 98       	mov	r8,r5
80004d16:	a5 b5       	sbr	r5,0x5
80004d18:	a5 a8       	sbr	r8,0x4
80004d1a:	0f 89       	ld.ub	r9,r7[0x0]
80004d1c:	36 ce       	mov	lr,108
80004d1e:	fc 09 18 00 	cp.b	r9,lr
80004d22:	f7 b7 00 ff 	subeq	r7,-1
80004d26:	f0 05 17 10 	movne	r5,r8
80004d2a:	cb ba       	rjmp	80004aa0 <_vfprintf_r+0x1c0>
80004d2c:	a5 b5       	sbr	r5,0x5
80004d2e:	cb 9a       	rjmp	80004aa0 <_vfprintf_r+0x1c0>
80004d30:	50 a7       	stdsp	sp[0x28],r7
80004d32:	50 80       	stdsp	sp[0x20],r0
80004d34:	0c 97       	mov	r7,r6
80004d36:	10 90       	mov	r0,r8
80004d38:	06 96       	mov	r6,r3
80004d3a:	04 94       	mov	r4,r2
80004d3c:	40 93       	lddsp	r3,sp[0x24]
80004d3e:	02 92       	mov	r2,r1
80004d40:	0e 99       	mov	r9,r7
80004d42:	40 41       	lddsp	r1,sp[0x10]
80004d44:	fa f8 06 b4 	ld.w	r8,sp[1716]
80004d48:	40 3c       	lddsp	r12,sp[0xc]
80004d4a:	58 0c       	cp.w	r12,0
80004d4c:	c1 d0       	breq	80004d86 <_vfprintf_r+0x4a6>
80004d4e:	10 36       	cp.w	r6,r8
80004d50:	c0 64       	brge	80004d5c <_vfprintf_r+0x47c>
80004d52:	fa cb f9 44 	sub	r11,sp,-1724
80004d56:	f6 06 00 36 	add	r6,r11,r6<<0x3
80004d5a:	c1 d8       	rjmp	80004d94 <_vfprintf_r+0x4b4>
80004d5c:	fa c8 f9 50 	sub	r8,sp,-1712
80004d60:	1a d8       	st.w	--sp,r8
80004d62:	fa c8 fa b8 	sub	r8,sp,-1352
80004d66:	1a d8       	st.w	--sp,r8
80004d68:	fa c8 fb b4 	sub	r8,sp,-1100
80004d6c:	1a d8       	st.w	--sp,r8
80004d6e:	fa c8 f9 40 	sub	r8,sp,-1728
80004d72:	fa c9 ff b4 	sub	r9,sp,-76
80004d76:	04 9a       	mov	r10,r2
80004d78:	0c 9b       	mov	r11,r6
80004d7a:	08 9c       	mov	r12,r4
80004d7c:	fe b0 fc 1a 	rcall	800045b0 <get_arg>
80004d80:	2f dd       	sub	sp,-12
80004d82:	19 b8       	ld.ub	r8,r12[0x3]
80004d84:	c2 28       	rjmp	80004dc8 <_vfprintf_r+0x4e8>
80004d86:	2f f7       	sub	r7,-1
80004d88:	10 39       	cp.w	r9,r8
80004d8a:	c0 84       	brge	80004d9a <_vfprintf_r+0x4ba>
80004d8c:	fa ca f9 44 	sub	r10,sp,-1724
80004d90:	f4 06 00 36 	add	r6,r10,r6<<0x3
80004d94:	ed 38 fd 8b 	ld.ub	r8,r6[-629]
80004d98:	c1 88       	rjmp	80004dc8 <_vfprintf_r+0x4e8>
80004d9a:	41 09       	lddsp	r9,sp[0x40]
80004d9c:	59 f8       	cp.w	r8,31
80004d9e:	e0 89 00 12 	brgt	80004dc2 <_vfprintf_r+0x4e2>
80004da2:	f2 ca ff fc 	sub	r10,r9,-4
80004da6:	51 0a       	stdsp	sp[0x40],r10
80004da8:	72 09       	ld.w	r9,r9[0x0]
80004daa:	fa c6 f9 44 	sub	r6,sp,-1724
80004dae:	ec 08 00 3a 	add	r10,r6,r8<<0x3
80004db2:	2f f8       	sub	r8,-1
80004db4:	f5 49 fd 88 	st.w	r10[-632],r9
80004db8:	fb 48 06 b4 	st.w	sp[1716],r8
80004dbc:	f1 d9 c0 08 	bfextu	r8,r9,0x0,0x8
80004dc0:	c0 48       	rjmp	80004dc8 <_vfprintf_r+0x4e8>
80004dc2:	13 b8       	ld.ub	r8,r9[0x3]
80004dc4:	2f c9       	sub	r9,-4
80004dc6:	51 09       	stdsp	sp[0x40],r9
80004dc8:	fb 68 06 60 	st.b	sp[1632],r8
80004dcc:	30 0e       	mov	lr,0
80004dce:	30 08       	mov	r8,0
80004dd0:	30 12       	mov	r2,1
80004dd2:	fb 68 06 bb 	st.b	sp[1723],r8
80004dd6:	50 2e       	stdsp	sp[0x8],lr
80004dd8:	e0 8f 08 ad 	bral	80005f32 <_vfprintf_r+0x1652>
80004ddc:	50 a7       	stdsp	sp[0x28],r7
80004dde:	50 80       	stdsp	sp[0x20],r0
80004de0:	0c 97       	mov	r7,r6
80004de2:	04 94       	mov	r4,r2
80004de4:	06 96       	mov	r6,r3
80004de6:	02 92       	mov	r2,r1
80004de8:	40 93       	lddsp	r3,sp[0x24]
80004dea:	10 90       	mov	r0,r8
80004dec:	40 41       	lddsp	r1,sp[0x10]
80004dee:	a5 a5       	sbr	r5,0x4
80004df0:	c0 a8       	rjmp	80004e04 <_vfprintf_r+0x524>
80004df2:	50 a7       	stdsp	sp[0x28],r7
80004df4:	50 80       	stdsp	sp[0x20],r0
80004df6:	0c 97       	mov	r7,r6
80004df8:	04 94       	mov	r4,r2
80004dfa:	06 96       	mov	r6,r3
80004dfc:	02 92       	mov	r2,r1
80004dfe:	40 93       	lddsp	r3,sp[0x24]
80004e00:	10 90       	mov	r0,r8
80004e02:	40 41       	lddsp	r1,sp[0x10]
80004e04:	ed b5 00 05 	bld	r5,0x5
80004e08:	c5 11       	brne	80004eaa <_vfprintf_r+0x5ca>
80004e0a:	fa f8 06 b4 	ld.w	r8,sp[1716]
80004e0e:	40 3c       	lddsp	r12,sp[0xc]
80004e10:	58 0c       	cp.w	r12,0
80004e12:	c1 e0       	breq	80004e4e <_vfprintf_r+0x56e>
80004e14:	10 36       	cp.w	r6,r8
80004e16:	c0 64       	brge	80004e22 <_vfprintf_r+0x542>
80004e18:	fa cb f9 44 	sub	r11,sp,-1724
80004e1c:	f6 06 00 36 	add	r6,r11,r6<<0x3
80004e20:	c2 08       	rjmp	80004e60 <_vfprintf_r+0x580>
80004e22:	fa c8 f9 50 	sub	r8,sp,-1712
80004e26:	1a d8       	st.w	--sp,r8
80004e28:	fa c8 fa b8 	sub	r8,sp,-1352
80004e2c:	0c 9b       	mov	r11,r6
80004e2e:	1a d8       	st.w	--sp,r8
80004e30:	fa c8 fb b4 	sub	r8,sp,-1100
80004e34:	1a d8       	st.w	--sp,r8
80004e36:	fa c9 ff b4 	sub	r9,sp,-76
80004e3a:	fa c8 f9 40 	sub	r8,sp,-1728
80004e3e:	04 9a       	mov	r10,r2
80004e40:	08 9c       	mov	r12,r4
80004e42:	fe b0 fb b7 	rcall	800045b0 <get_arg>
80004e46:	2f dd       	sub	sp,-12
80004e48:	78 1b       	ld.w	r11,r12[0x4]
80004e4a:	78 09       	ld.w	r9,r12[0x0]
80004e4c:	c2 b8       	rjmp	80004ea2 <_vfprintf_r+0x5c2>
80004e4e:	ee ca ff ff 	sub	r10,r7,-1
80004e52:	10 37       	cp.w	r7,r8
80004e54:	c0 b4       	brge	80004e6a <_vfprintf_r+0x58a>
80004e56:	fa c9 f9 44 	sub	r9,sp,-1724
80004e5a:	14 97       	mov	r7,r10
80004e5c:	f2 06 00 36 	add	r6,r9,r6<<0x3
80004e60:	ec fb fd 8c 	ld.w	r11,r6[-628]
80004e64:	ec f9 fd 88 	ld.w	r9,r6[-632]
80004e68:	c1 d8       	rjmp	80004ea2 <_vfprintf_r+0x5c2>
80004e6a:	41 09       	lddsp	r9,sp[0x40]
80004e6c:	59 f8       	cp.w	r8,31
80004e6e:	e0 89 00 14 	brgt	80004e96 <_vfprintf_r+0x5b6>
80004e72:	f2 cb ff f8 	sub	r11,r9,-8
80004e76:	51 0b       	stdsp	sp[0x40],r11
80004e78:	fa c6 f9 44 	sub	r6,sp,-1724
80004e7c:	72 1b       	ld.w	r11,r9[0x4]
80004e7e:	ec 08 00 3c 	add	r12,r6,r8<<0x3
80004e82:	72 09       	ld.w	r9,r9[0x0]
80004e84:	f9 4b fd 8c 	st.w	r12[-628],r11
80004e88:	f9 49 fd 88 	st.w	r12[-632],r9
80004e8c:	2f f8       	sub	r8,-1
80004e8e:	14 97       	mov	r7,r10
80004e90:	fb 48 06 b4 	st.w	sp[1716],r8
80004e94:	c0 78       	rjmp	80004ea2 <_vfprintf_r+0x5c2>
80004e96:	f2 c8 ff f8 	sub	r8,r9,-8
80004e9a:	72 1b       	ld.w	r11,r9[0x4]
80004e9c:	14 97       	mov	r7,r10
80004e9e:	51 08       	stdsp	sp[0x40],r8
80004ea0:	72 09       	ld.w	r9,r9[0x0]
80004ea2:	16 98       	mov	r8,r11
80004ea4:	fa e9 00 00 	st.d	sp[0],r8
80004ea8:	ca e8       	rjmp	80005004 <_vfprintf_r+0x724>
80004eaa:	ed b5 00 04 	bld	r5,0x4
80004eae:	c1 71       	brne	80004edc <_vfprintf_r+0x5fc>
80004eb0:	fa f8 06 b4 	ld.w	r8,sp[1716]
80004eb4:	40 3e       	lddsp	lr,sp[0xc]
80004eb6:	58 0e       	cp.w	lr,0
80004eb8:	c0 80       	breq	80004ec8 <_vfprintf_r+0x5e8>
80004eba:	10 36       	cp.w	r6,r8
80004ebc:	c6 94       	brge	80004f8e <_vfprintf_r+0x6ae>
80004ebe:	fa cc f9 44 	sub	r12,sp,-1724
80004ec2:	f8 06 00 36 	add	r6,r12,r6<<0x3
80004ec6:	c8 28       	rjmp	80004fca <_vfprintf_r+0x6ea>
80004ec8:	ee ca ff ff 	sub	r10,r7,-1
80004ecc:	10 37       	cp.w	r7,r8
80004ece:	e0 84 00 81 	brge	80004fd0 <_vfprintf_r+0x6f0>
80004ed2:	fa cb f9 44 	sub	r11,sp,-1724
80004ed6:	f6 06 00 36 	add	r6,r11,r6<<0x3
80004eda:	c7 78       	rjmp	80004fc8 <_vfprintf_r+0x6e8>
80004edc:	ed b5 00 06 	bld	r5,0x6
80004ee0:	c4 b1       	brne	80004f76 <_vfprintf_r+0x696>
80004ee2:	fa f8 06 b4 	ld.w	r8,sp[1716]
80004ee6:	40 3c       	lddsp	r12,sp[0xc]
80004ee8:	58 0c       	cp.w	r12,0
80004eea:	c1 d0       	breq	80004f24 <_vfprintf_r+0x644>
80004eec:	10 36       	cp.w	r6,r8
80004eee:	c0 64       	brge	80004efa <_vfprintf_r+0x61a>
80004ef0:	fa cb f9 44 	sub	r11,sp,-1724
80004ef4:	f6 06 00 36 	add	r6,r11,r6<<0x3
80004ef8:	c1 f8       	rjmp	80004f36 <_vfprintf_r+0x656>
80004efa:	fa c8 f9 50 	sub	r8,sp,-1712
80004efe:	1a d8       	st.w	--sp,r8
80004f00:	fa c8 fa b8 	sub	r8,sp,-1352
80004f04:	1a d8       	st.w	--sp,r8
80004f06:	fa c8 fb b4 	sub	r8,sp,-1100
80004f0a:	1a d8       	st.w	--sp,r8
80004f0c:	fa c8 f9 40 	sub	r8,sp,-1728
80004f10:	fa c9 ff b4 	sub	r9,sp,-76
80004f14:	04 9a       	mov	r10,r2
80004f16:	0c 9b       	mov	r11,r6
80004f18:	08 9c       	mov	r12,r4
80004f1a:	fe b0 fb 4b 	rcall	800045b0 <get_arg>
80004f1e:	2f dd       	sub	sp,-12
80004f20:	98 18       	ld.sh	r8,r12[0x2]
80004f22:	c2 68       	rjmp	80004f6e <_vfprintf_r+0x68e>
80004f24:	ee ca ff ff 	sub	r10,r7,-1
80004f28:	10 37       	cp.w	r7,r8
80004f2a:	c0 94       	brge	80004f3c <_vfprintf_r+0x65c>
80004f2c:	fa c9 f9 44 	sub	r9,sp,-1724
80004f30:	14 97       	mov	r7,r10
80004f32:	f2 06 00 36 	add	r6,r9,r6<<0x3
80004f36:	ed 08 fd 8a 	ld.sh	r8,r6[-630]
80004f3a:	c1 a8       	rjmp	80004f6e <_vfprintf_r+0x68e>
80004f3c:	41 09       	lddsp	r9,sp[0x40]
80004f3e:	59 f8       	cp.w	r8,31
80004f40:	e0 89 00 13 	brgt	80004f66 <_vfprintf_r+0x686>
80004f44:	f2 cb ff fc 	sub	r11,r9,-4
80004f48:	51 0b       	stdsp	sp[0x40],r11
80004f4a:	72 09       	ld.w	r9,r9[0x0]
80004f4c:	fa c6 f9 44 	sub	r6,sp,-1724
80004f50:	ec 08 00 3b 	add	r11,r6,r8<<0x3
80004f54:	2f f8       	sub	r8,-1
80004f56:	f7 49 fd 88 	st.w	r11[-632],r9
80004f5a:	fb 48 06 b4 	st.w	sp[1716],r8
80004f5e:	14 97       	mov	r7,r10
80004f60:	f1 d9 b0 10 	bfexts	r8,r9,0x0,0x10
80004f64:	c0 58       	rjmp	80004f6e <_vfprintf_r+0x68e>
80004f66:	92 18       	ld.sh	r8,r9[0x2]
80004f68:	14 97       	mov	r7,r10
80004f6a:	2f c9       	sub	r9,-4
80004f6c:	51 09       	stdsp	sp[0x40],r9
80004f6e:	50 18       	stdsp	sp[0x4],r8
80004f70:	bf 58       	asr	r8,0x1f
80004f72:	50 08       	stdsp	sp[0x0],r8
80004f74:	c4 88       	rjmp	80005004 <_vfprintf_r+0x724>
80004f76:	fa f8 06 b4 	ld.w	r8,sp[1716]
80004f7a:	40 3c       	lddsp	r12,sp[0xc]
80004f7c:	58 0c       	cp.w	r12,0
80004f7e:	c1 d0       	breq	80004fb8 <_vfprintf_r+0x6d8>
80004f80:	10 36       	cp.w	r6,r8
80004f82:	c0 64       	brge	80004f8e <_vfprintf_r+0x6ae>
80004f84:	fa cb f9 44 	sub	r11,sp,-1724
80004f88:	f6 06 00 36 	add	r6,r11,r6<<0x3
80004f8c:	c1 f8       	rjmp	80004fca <_vfprintf_r+0x6ea>
80004f8e:	fa c8 f9 50 	sub	r8,sp,-1712
80004f92:	1a d8       	st.w	--sp,r8
80004f94:	fa c8 fa b8 	sub	r8,sp,-1352
80004f98:	0c 9b       	mov	r11,r6
80004f9a:	1a d8       	st.w	--sp,r8
80004f9c:	fa c8 fb b4 	sub	r8,sp,-1100
80004fa0:	04 9a       	mov	r10,r2
80004fa2:	1a d8       	st.w	--sp,r8
80004fa4:	08 9c       	mov	r12,r4
80004fa6:	fa c8 f9 40 	sub	r8,sp,-1728
80004faa:	fa c9 ff b4 	sub	r9,sp,-76
80004fae:	fe b0 fb 01 	rcall	800045b0 <get_arg>
80004fb2:	2f dd       	sub	sp,-12
80004fb4:	78 0b       	ld.w	r11,r12[0x0]
80004fb6:	c2 48       	rjmp	80004ffe <_vfprintf_r+0x71e>
80004fb8:	ee ca ff ff 	sub	r10,r7,-1
80004fbc:	10 37       	cp.w	r7,r8
80004fbe:	c0 94       	brge	80004fd0 <_vfprintf_r+0x6f0>
80004fc0:	fa c9 f9 44 	sub	r9,sp,-1724
80004fc4:	f2 06 00 36 	add	r6,r9,r6<<0x3
80004fc8:	14 97       	mov	r7,r10
80004fca:	ec fb fd 88 	ld.w	r11,r6[-632]
80004fce:	c1 88       	rjmp	80004ffe <_vfprintf_r+0x71e>
80004fd0:	41 09       	lddsp	r9,sp[0x40]
80004fd2:	59 f8       	cp.w	r8,31
80004fd4:	e0 89 00 11 	brgt	80004ff6 <_vfprintf_r+0x716>
80004fd8:	f2 cb ff fc 	sub	r11,r9,-4
80004fdc:	51 0b       	stdsp	sp[0x40],r11
80004fde:	fa c6 f9 44 	sub	r6,sp,-1724
80004fe2:	72 0b       	ld.w	r11,r9[0x0]
80004fe4:	ec 08 00 39 	add	r9,r6,r8<<0x3
80004fe8:	f3 4b fd 88 	st.w	r9[-632],r11
80004fec:	2f f8       	sub	r8,-1
80004fee:	14 97       	mov	r7,r10
80004ff0:	fb 48 06 b4 	st.w	sp[1716],r8
80004ff4:	c0 58       	rjmp	80004ffe <_vfprintf_r+0x71e>
80004ff6:	72 0b       	ld.w	r11,r9[0x0]
80004ff8:	14 97       	mov	r7,r10
80004ffa:	2f c9       	sub	r9,-4
80004ffc:	51 09       	stdsp	sp[0x40],r9
80004ffe:	50 1b       	stdsp	sp[0x4],r11
80005000:	bf 5b       	asr	r11,0x1f
80005002:	50 0b       	stdsp	sp[0x0],r11
80005004:	fa ea 00 00 	ld.d	r10,sp[0]
80005008:	58 0a       	cp.w	r10,0
8000500a:	5c 2b       	cpc	r11
8000500c:	c0 e4       	brge	80005028 <_vfprintf_r+0x748>
8000500e:	30 08       	mov	r8,0
80005010:	fa ea 00 00 	ld.d	r10,sp[0]
80005014:	30 09       	mov	r9,0
80005016:	f0 0a 01 0a 	sub	r10,r8,r10
8000501a:	f2 0b 01 4b 	sbc	r11,r9,r11
8000501e:	32 d8       	mov	r8,45
80005020:	fa eb 00 00 	st.d	sp[0],r10
80005024:	fb 68 06 bb 	st.b	sp[1723],r8
80005028:	30 18       	mov	r8,1
8000502a:	e0 8f 06 fa 	bral	80005e1e <_vfprintf_r+0x153e>
8000502e:	50 a7       	stdsp	sp[0x28],r7
80005030:	50 80       	stdsp	sp[0x20],r0
80005032:	0c 97       	mov	r7,r6
80005034:	04 94       	mov	r4,r2
80005036:	06 96       	mov	r6,r3
80005038:	02 92       	mov	r2,r1
8000503a:	40 93       	lddsp	r3,sp[0x24]
8000503c:	10 90       	mov	r0,r8
8000503e:	40 41       	lddsp	r1,sp[0x10]
80005040:	0e 99       	mov	r9,r7
80005042:	ed b5 00 03 	bld	r5,0x3
80005046:	c4 11       	brne	800050c8 <_vfprintf_r+0x7e8>
80005048:	fa f8 06 b4 	ld.w	r8,sp[1716]
8000504c:	40 3a       	lddsp	r10,sp[0xc]
8000504e:	58 0a       	cp.w	r10,0
80005050:	c1 90       	breq	80005082 <_vfprintf_r+0x7a2>
80005052:	10 36       	cp.w	r6,r8
80005054:	c6 45       	brlt	8000511c <_vfprintf_r+0x83c>
80005056:	fa c8 f9 50 	sub	r8,sp,-1712
8000505a:	1a d8       	st.w	--sp,r8
8000505c:	fa c8 fa b8 	sub	r8,sp,-1352
80005060:	1a d8       	st.w	--sp,r8
80005062:	fa c8 fb b4 	sub	r8,sp,-1100
80005066:	0c 9b       	mov	r11,r6
80005068:	1a d8       	st.w	--sp,r8
8000506a:	04 9a       	mov	r10,r2
8000506c:	fa c8 f9 40 	sub	r8,sp,-1728
80005070:	fa c9 ff b4 	sub	r9,sp,-76
80005074:	08 9c       	mov	r12,r4
80005076:	fe b0 fa 9d 	rcall	800045b0 <get_arg>
8000507a:	2f dd       	sub	sp,-12
8000507c:	78 16       	ld.w	r6,r12[0x4]
8000507e:	50 76       	stdsp	sp[0x1c],r6
80005080:	c4 88       	rjmp	80005110 <_vfprintf_r+0x830>
80005082:	2f f7       	sub	r7,-1
80005084:	10 39       	cp.w	r9,r8
80005086:	c0 c4       	brge	8000509e <_vfprintf_r+0x7be>
80005088:	fa ce f9 44 	sub	lr,sp,-1724
8000508c:	fc 06 00 36 	add	r6,lr,r6<<0x3
80005090:	ec fc fd 8c 	ld.w	r12,r6[-628]
80005094:	50 7c       	stdsp	sp[0x1c],r12
80005096:	ec f6 fd 88 	ld.w	r6,r6[-632]
8000509a:	50 56       	stdsp	sp[0x14],r6
8000509c:	c6 68       	rjmp	80005168 <_vfprintf_r+0x888>
8000509e:	41 09       	lddsp	r9,sp[0x40]
800050a0:	59 f8       	cp.w	r8,31
800050a2:	e0 89 00 10 	brgt	800050c2 <_vfprintf_r+0x7e2>
800050a6:	f2 ca ff f8 	sub	r10,r9,-8
800050aa:	72 1b       	ld.w	r11,r9[0x4]
800050ac:	51 0a       	stdsp	sp[0x40],r10
800050ae:	72 09       	ld.w	r9,r9[0x0]
800050b0:	fa ca f9 44 	sub	r10,sp,-1724
800050b4:	50 7b       	stdsp	sp[0x1c],r11
800050b6:	50 59       	stdsp	sp[0x14],r9
800050b8:	f4 08 00 39 	add	r9,r10,r8<<0x3
800050bc:	40 5b       	lddsp	r11,sp[0x14]
800050be:	40 7a       	lddsp	r10,sp[0x1c]
800050c0:	c4 78       	rjmp	8000514e <_vfprintf_r+0x86e>
800050c2:	72 18       	ld.w	r8,r9[0x4]
800050c4:	50 78       	stdsp	sp[0x1c],r8
800050c6:	c4 c8       	rjmp	8000515e <_vfprintf_r+0x87e>
800050c8:	fa f8 06 b4 	ld.w	r8,sp[1716]
800050cc:	40 3e       	lddsp	lr,sp[0xc]
800050ce:	58 0e       	cp.w	lr,0
800050d0:	c2 30       	breq	80005116 <_vfprintf_r+0x836>
800050d2:	10 36       	cp.w	r6,r8
800050d4:	c0 94       	brge	800050e6 <_vfprintf_r+0x806>
800050d6:	fa cc f9 44 	sub	r12,sp,-1724
800050da:	f8 06 00 36 	add	r6,r12,r6<<0x3
800050de:	ec fb fd 8c 	ld.w	r11,r6[-628]
800050e2:	50 7b       	stdsp	sp[0x1c],r11
800050e4:	cd 9b       	rjmp	80005096 <_vfprintf_r+0x7b6>
800050e6:	fa c8 f9 50 	sub	r8,sp,-1712
800050ea:	1a d8       	st.w	--sp,r8
800050ec:	fa c8 fa b8 	sub	r8,sp,-1352
800050f0:	04 9a       	mov	r10,r2
800050f2:	1a d8       	st.w	--sp,r8
800050f4:	fa c8 fb b4 	sub	r8,sp,-1100
800050f8:	0c 9b       	mov	r11,r6
800050fa:	1a d8       	st.w	--sp,r8
800050fc:	08 9c       	mov	r12,r4
800050fe:	fa c8 f9 40 	sub	r8,sp,-1728
80005102:	fa c9 ff b4 	sub	r9,sp,-76
80005106:	fe b0 fa 55 	rcall	800045b0 <get_arg>
8000510a:	2f dd       	sub	sp,-12
8000510c:	78 1a       	ld.w	r10,r12[0x4]
8000510e:	50 7a       	stdsp	sp[0x1c],r10
80005110:	78 0c       	ld.w	r12,r12[0x0]
80005112:	50 5c       	stdsp	sp[0x14],r12
80005114:	c2 a8       	rjmp	80005168 <_vfprintf_r+0x888>
80005116:	2f f7       	sub	r7,-1
80005118:	10 39       	cp.w	r9,r8
8000511a:	c0 94       	brge	8000512c <_vfprintf_r+0x84c>
8000511c:	fa c9 f9 44 	sub	r9,sp,-1724
80005120:	f2 06 00 36 	add	r6,r9,r6<<0x3
80005124:	ec f8 fd 8c 	ld.w	r8,r6[-628]
80005128:	50 78       	stdsp	sp[0x1c],r8
8000512a:	cb 6b       	rjmp	80005096 <_vfprintf_r+0x7b6>
8000512c:	41 09       	lddsp	r9,sp[0x40]
8000512e:	59 f8       	cp.w	r8,31
80005130:	e0 89 00 15 	brgt	8000515a <_vfprintf_r+0x87a>
80005134:	f2 ca ff f8 	sub	r10,r9,-8
80005138:	72 16       	ld.w	r6,r9[0x4]
8000513a:	72 09       	ld.w	r9,r9[0x0]
8000513c:	51 0a       	stdsp	sp[0x40],r10
8000513e:	50 59       	stdsp	sp[0x14],r9
80005140:	fa ce f9 44 	sub	lr,sp,-1724
80005144:	50 76       	stdsp	sp[0x1c],r6
80005146:	fc 08 00 39 	add	r9,lr,r8<<0x3
8000514a:	40 5b       	lddsp	r11,sp[0x14]
8000514c:	0c 9a       	mov	r10,r6
8000514e:	f2 eb fd 88 	st.d	r9[-632],r10
80005152:	2f f8       	sub	r8,-1
80005154:	fb 48 06 b4 	st.w	sp[1716],r8
80005158:	c0 88       	rjmp	80005168 <_vfprintf_r+0x888>
8000515a:	72 1c       	ld.w	r12,r9[0x4]
8000515c:	50 7c       	stdsp	sp[0x1c],r12
8000515e:	f2 c8 ff f8 	sub	r8,r9,-8
80005162:	51 08       	stdsp	sp[0x40],r8
80005164:	72 09       	ld.w	r9,r9[0x0]
80005166:	50 59       	stdsp	sp[0x14],r9
80005168:	40 5b       	lddsp	r11,sp[0x14]
8000516a:	40 7a       	lddsp	r10,sp[0x1c]
8000516c:	e0 a0 1c de 	rcall	80008b28 <__isinfd>
80005170:	18 96       	mov	r6,r12
80005172:	c1 70       	breq	800051a0 <_vfprintf_r+0x8c0>
80005174:	30 08       	mov	r8,0
80005176:	30 09       	mov	r9,0
80005178:	40 5b       	lddsp	r11,sp[0x14]
8000517a:	40 7a       	lddsp	r10,sp[0x1c]
8000517c:	e0 a0 21 cc 	rcall	80009514 <__avr32_f64_cmp_lt>
80005180:	c0 40       	breq	80005188 <_vfprintf_r+0x8a8>
80005182:	32 d8       	mov	r8,45
80005184:	fb 68 06 bb 	st.b	sp[1723],r8
80005188:	fe c8 af a4 	sub	r8,pc,-20572
8000518c:	fe c6 af a4 	sub	r6,pc,-20572
80005190:	a7 d5       	cbr	r5,0x7
80005192:	e0 40 00 47 	cp.w	r0,71
80005196:	f0 06 17 a0 	movle	r6,r8
8000519a:	30 32       	mov	r2,3
8000519c:	e0 8f 06 ce 	bral	80005f38 <_vfprintf_r+0x1658>
800051a0:	40 5b       	lddsp	r11,sp[0x14]
800051a2:	40 7a       	lddsp	r10,sp[0x1c]
800051a4:	e0 a0 1c d7 	rcall	80008b52 <__isnand>
800051a8:	c0 e0       	breq	800051c4 <_vfprintf_r+0x8e4>
800051aa:	50 26       	stdsp	sp[0x8],r6
800051ac:	fe c8 af c0 	sub	r8,pc,-20544
800051b0:	fe c6 af c0 	sub	r6,pc,-20544
800051b4:	a7 d5       	cbr	r5,0x7
800051b6:	e0 40 00 47 	cp.w	r0,71
800051ba:	f0 06 17 a0 	movle	r6,r8
800051be:	30 32       	mov	r2,3
800051c0:	e0 8f 06 c2 	bral	80005f44 <_vfprintf_r+0x1664>
800051c4:	40 2a       	lddsp	r10,sp[0x8]
800051c6:	5b fa       	cp.w	r10,-1
800051c8:	c0 41       	brne	800051d0 <_vfprintf_r+0x8f0>
800051ca:	30 69       	mov	r9,6
800051cc:	50 29       	stdsp	sp[0x8],r9
800051ce:	c1 18       	rjmp	800051f0 <_vfprintf_r+0x910>
800051d0:	e0 40 00 47 	cp.w	r0,71
800051d4:	5f 09       	sreq	r9
800051d6:	e0 40 00 67 	cp.w	r0,103
800051da:	5f 08       	sreq	r8
800051dc:	f3 e8 10 08 	or	r8,r9,r8
800051e0:	f8 08 18 00 	cp.b	r8,r12
800051e4:	c0 60       	breq	800051f0 <_vfprintf_r+0x910>
800051e6:	40 28       	lddsp	r8,sp[0x8]
800051e8:	58 08       	cp.w	r8,0
800051ea:	f9 b8 00 01 	moveq	r8,1
800051ee:	50 28       	stdsp	sp[0x8],r8
800051f0:	40 78       	lddsp	r8,sp[0x1c]
800051f2:	40 59       	lddsp	r9,sp[0x14]
800051f4:	fa e9 06 94 	st.d	sp[1684],r8
800051f8:	a9 a5       	sbr	r5,0x8
800051fa:	fa f8 06 94 	ld.w	r8,sp[1684]
800051fe:	58 08       	cp.w	r8,0
80005200:	c0 65       	brlt	8000520c <_vfprintf_r+0x92c>
80005202:	40 5e       	lddsp	lr,sp[0x14]
80005204:	30 0c       	mov	r12,0
80005206:	50 6e       	stdsp	sp[0x18],lr
80005208:	50 9c       	stdsp	sp[0x24],r12
8000520a:	c0 78       	rjmp	80005218 <_vfprintf_r+0x938>
8000520c:	40 5b       	lddsp	r11,sp[0x14]
8000520e:	32 da       	mov	r10,45
80005210:	ee 1b 80 00 	eorh	r11,0x8000
80005214:	50 9a       	stdsp	sp[0x24],r10
80005216:	50 6b       	stdsp	sp[0x18],r11
80005218:	e0 40 00 46 	cp.w	r0,70
8000521c:	5f 09       	sreq	r9
8000521e:	e0 40 00 66 	cp.w	r0,102
80005222:	5f 08       	sreq	r8
80005224:	f3 e8 10 08 	or	r8,r9,r8
80005228:	50 48       	stdsp	sp[0x10],r8
8000522a:	c0 40       	breq	80005232 <_vfprintf_r+0x952>
8000522c:	40 22       	lddsp	r2,sp[0x8]
8000522e:	30 39       	mov	r9,3
80005230:	c1 08       	rjmp	80005250 <_vfprintf_r+0x970>
80005232:	e0 40 00 45 	cp.w	r0,69
80005236:	5f 09       	sreq	r9
80005238:	e0 40 00 65 	cp.w	r0,101
8000523c:	5f 08       	sreq	r8
8000523e:	40 22       	lddsp	r2,sp[0x8]
80005240:	10 49       	or	r9,r8
80005242:	2f f2       	sub	r2,-1
80005244:	40 46       	lddsp	r6,sp[0x10]
80005246:	ec 09 18 00 	cp.b	r9,r6
8000524a:	fb f2 00 02 	ld.weq	r2,sp[0x8]
8000524e:	30 29       	mov	r9,2
80005250:	fa c8 f9 5c 	sub	r8,sp,-1700
80005254:	1a d8       	st.w	--sp,r8
80005256:	fa c8 f9 54 	sub	r8,sp,-1708
8000525a:	1a d8       	st.w	--sp,r8
8000525c:	fa c8 f9 4c 	sub	r8,sp,-1716
80005260:	08 9c       	mov	r12,r4
80005262:	1a d8       	st.w	--sp,r8
80005264:	04 98       	mov	r8,r2
80005266:	40 9b       	lddsp	r11,sp[0x24]
80005268:	40 aa       	lddsp	r10,sp[0x28]
8000526a:	e0 a0 0b c3 	rcall	800069f0 <_dtoa_r>
8000526e:	e0 40 00 47 	cp.w	r0,71
80005272:	5f 19       	srne	r9
80005274:	e0 40 00 67 	cp.w	r0,103
80005278:	5f 18       	srne	r8
8000527a:	18 96       	mov	r6,r12
8000527c:	2f dd       	sub	sp,-12
8000527e:	f3 e8 00 08 	and	r8,r9,r8
80005282:	c0 41       	brne	8000528a <_vfprintf_r+0x9aa>
80005284:	ed b5 00 00 	bld	r5,0x0
80005288:	c3 01       	brne	800052e8 <_vfprintf_r+0xa08>
8000528a:	ec 02 00 0e 	add	lr,r6,r2
8000528e:	50 3e       	stdsp	sp[0xc],lr
80005290:	40 4c       	lddsp	r12,sp[0x10]
80005292:	58 0c       	cp.w	r12,0
80005294:	c1 50       	breq	800052be <_vfprintf_r+0x9de>
80005296:	0d 89       	ld.ub	r9,r6[0x0]
80005298:	33 08       	mov	r8,48
8000529a:	f0 09 18 00 	cp.b	r9,r8
8000529e:	c0 b1       	brne	800052b4 <_vfprintf_r+0x9d4>
800052a0:	30 08       	mov	r8,0
800052a2:	30 09       	mov	r9,0
800052a4:	40 6b       	lddsp	r11,sp[0x18]
800052a6:	40 7a       	lddsp	r10,sp[0x1c]
800052a8:	e0 a0 20 ef 	rcall	80009486 <__avr32_f64_cmp_eq>
800052ac:	fb b2 00 01 	rsubeq	r2,1
800052b0:	fb f2 0b ab 	st.weq	sp[0x6ac],r2
800052b4:	40 3b       	lddsp	r11,sp[0xc]
800052b6:	fa f8 06 ac 	ld.w	r8,sp[1708]
800052ba:	10 0b       	add	r11,r8
800052bc:	50 3b       	stdsp	sp[0xc],r11
800052be:	40 6b       	lddsp	r11,sp[0x18]
800052c0:	30 08       	mov	r8,0
800052c2:	30 09       	mov	r9,0
800052c4:	40 7a       	lddsp	r10,sp[0x1c]
800052c6:	e0 a0 20 e0 	rcall	80009486 <__avr32_f64_cmp_eq>
800052ca:	c0 90       	breq	800052dc <_vfprintf_r+0x9fc>
800052cc:	40 3a       	lddsp	r10,sp[0xc]
800052ce:	fb 4a 06 a4 	st.w	sp[1700],r10
800052d2:	c0 58       	rjmp	800052dc <_vfprintf_r+0x9fc>
800052d4:	10 c9       	st.b	r8++,r9
800052d6:	fb 48 06 a4 	st.w	sp[1700],r8
800052da:	c0 28       	rjmp	800052de <_vfprintf_r+0x9fe>
800052dc:	33 09       	mov	r9,48
800052de:	fa f8 06 a4 	ld.w	r8,sp[1700]
800052e2:	40 3e       	lddsp	lr,sp[0xc]
800052e4:	1c 38       	cp.w	r8,lr
800052e6:	cf 73       	brcs	800052d4 <_vfprintf_r+0x9f4>
800052e8:	e0 40 00 47 	cp.w	r0,71
800052ec:	5f 09       	sreq	r9
800052ee:	e0 40 00 67 	cp.w	r0,103
800052f2:	5f 08       	sreq	r8
800052f4:	f3 e8 10 08 	or	r8,r9,r8
800052f8:	fa f9 06 a4 	ld.w	r9,sp[1700]
800052fc:	0c 19       	sub	r9,r6
800052fe:	50 69       	stdsp	sp[0x18],r9
80005300:	58 08       	cp.w	r8,0
80005302:	c0 b0       	breq	80005318 <_vfprintf_r+0xa38>
80005304:	fa f8 06 ac 	ld.w	r8,sp[1708]
80005308:	5b d8       	cp.w	r8,-3
8000530a:	c0 55       	brlt	80005314 <_vfprintf_r+0xa34>
8000530c:	40 2c       	lddsp	r12,sp[0x8]
8000530e:	18 38       	cp.w	r8,r12
80005310:	e0 8a 00 6a 	brle	800053e4 <_vfprintf_r+0xb04>
80005314:	20 20       	sub	r0,2
80005316:	c0 58       	rjmp	80005320 <_vfprintf_r+0xa40>
80005318:	e0 40 00 65 	cp.w	r0,101
8000531c:	e0 89 00 46 	brgt	800053a8 <_vfprintf_r+0xac8>
80005320:	fa fb 06 ac 	ld.w	r11,sp[1708]
80005324:	fb 60 06 9c 	st.b	sp[1692],r0
80005328:	20 1b       	sub	r11,1
8000532a:	fb 4b 06 ac 	st.w	sp[1708],r11
8000532e:	c0 47       	brpl	80005336 <_vfprintf_r+0xa56>
80005330:	5c 3b       	neg	r11
80005332:	32 d8       	mov	r8,45
80005334:	c0 28       	rjmp	80005338 <_vfprintf_r+0xa58>
80005336:	32 b8       	mov	r8,43
80005338:	fb 68 06 9d 	st.b	sp[1693],r8
8000533c:	58 9b       	cp.w	r11,9
8000533e:	e0 8a 00 1d 	brle	80005378 <_vfprintf_r+0xa98>
80005342:	fa c9 fa 35 	sub	r9,sp,-1483
80005346:	30 aa       	mov	r10,10
80005348:	12 98       	mov	r8,r9
8000534a:	0e 9c       	mov	r12,r7
8000534c:	0c 92       	mov	r2,r6
8000534e:	f6 0a 0c 06 	divs	r6,r11,r10
80005352:	0e 9b       	mov	r11,r7
80005354:	2d 0b       	sub	r11,-48
80005356:	10 fb       	st.b	--r8,r11
80005358:	0c 9b       	mov	r11,r6
8000535a:	58 96       	cp.w	r6,9
8000535c:	fe 99 ff f9 	brgt	8000534e <_vfprintf_r+0xa6e>
80005360:	2d 0b       	sub	r11,-48
80005362:	18 97       	mov	r7,r12
80005364:	04 96       	mov	r6,r2
80005366:	10 fb       	st.b	--r8,r11
80005368:	fa ca f9 62 	sub	r10,sp,-1694
8000536c:	c0 38       	rjmp	80005372 <_vfprintf_r+0xa92>
8000536e:	11 3b       	ld.ub	r11,r8++
80005370:	14 cb       	st.b	r10++,r11
80005372:	12 38       	cp.w	r8,r9
80005374:	cf d3       	brcs	8000536e <_vfprintf_r+0xa8e>
80005376:	c0 98       	rjmp	80005388 <_vfprintf_r+0xaa8>
80005378:	2d 0b       	sub	r11,-48
8000537a:	33 08       	mov	r8,48
8000537c:	fb 6b 06 9f 	st.b	sp[1695],r11
80005380:	fb 68 06 9e 	st.b	sp[1694],r8
80005384:	fa ca f9 60 	sub	r10,sp,-1696
80005388:	fa c8 f9 64 	sub	r8,sp,-1692
8000538c:	f4 08 01 08 	sub	r8,r10,r8
80005390:	50 e8       	stdsp	sp[0x38],r8
80005392:	10 92       	mov	r2,r8
80005394:	40 6b       	lddsp	r11,sp[0x18]
80005396:	16 02       	add	r2,r11
80005398:	58 1b       	cp.w	r11,1
8000539a:	e0 89 00 05 	brgt	800053a4 <_vfprintf_r+0xac4>
8000539e:	ed b5 00 00 	bld	r5,0x0
800053a2:	c3 51       	brne	8000540c <_vfprintf_r+0xb2c>
800053a4:	2f f2       	sub	r2,-1
800053a6:	c3 38       	rjmp	8000540c <_vfprintf_r+0xb2c>
800053a8:	e0 40 00 66 	cp.w	r0,102
800053ac:	c1 c1       	brne	800053e4 <_vfprintf_r+0xb04>
800053ae:	fa f2 06 ac 	ld.w	r2,sp[1708]
800053b2:	58 02       	cp.w	r2,0
800053b4:	e0 8a 00 0c 	brle	800053cc <_vfprintf_r+0xaec>
800053b8:	40 2a       	lddsp	r10,sp[0x8]
800053ba:	58 0a       	cp.w	r10,0
800053bc:	c0 41       	brne	800053c4 <_vfprintf_r+0xae4>
800053be:	ed b5 00 00 	bld	r5,0x0
800053c2:	c2 51       	brne	8000540c <_vfprintf_r+0xb2c>
800053c4:	2f f2       	sub	r2,-1
800053c6:	40 29       	lddsp	r9,sp[0x8]
800053c8:	12 02       	add	r2,r9
800053ca:	c0 b8       	rjmp	800053e0 <_vfprintf_r+0xb00>
800053cc:	40 28       	lddsp	r8,sp[0x8]
800053ce:	58 08       	cp.w	r8,0
800053d0:	c0 61       	brne	800053dc <_vfprintf_r+0xafc>
800053d2:	ed b5 00 00 	bld	r5,0x0
800053d6:	c0 30       	breq	800053dc <_vfprintf_r+0xafc>
800053d8:	30 12       	mov	r2,1
800053da:	c1 98       	rjmp	8000540c <_vfprintf_r+0xb2c>
800053dc:	40 22       	lddsp	r2,sp[0x8]
800053de:	2f e2       	sub	r2,-2
800053e0:	36 60       	mov	r0,102
800053e2:	c1 58       	rjmp	8000540c <_vfprintf_r+0xb2c>
800053e4:	fa f2 06 ac 	ld.w	r2,sp[1708]
800053e8:	40 6e       	lddsp	lr,sp[0x18]
800053ea:	1c 32       	cp.w	r2,lr
800053ec:	c0 65       	brlt	800053f8 <_vfprintf_r+0xb18>
800053ee:	ed b5 00 00 	bld	r5,0x0
800053f2:	f7 b2 00 ff 	subeq	r2,-1
800053f6:	c0 a8       	rjmp	8000540a <_vfprintf_r+0xb2a>
800053f8:	e4 08 11 02 	rsub	r8,r2,2
800053fc:	40 6c       	lddsp	r12,sp[0x18]
800053fe:	58 02       	cp.w	r2,0
80005400:	f0 02 17 a0 	movle	r2,r8
80005404:	f9 b2 09 01 	movgt	r2,1
80005408:	18 02       	add	r2,r12
8000540a:	36 70       	mov	r0,103
8000540c:	40 9b       	lddsp	r11,sp[0x24]
8000540e:	58 0b       	cp.w	r11,0
80005410:	e0 80 05 94 	breq	80005f38 <_vfprintf_r+0x1658>
80005414:	32 d8       	mov	r8,45
80005416:	fb 68 06 bb 	st.b	sp[1723],r8
8000541a:	e0 8f 05 93 	bral	80005f40 <_vfprintf_r+0x1660>
8000541e:	50 a7       	stdsp	sp[0x28],r7
80005420:	04 94       	mov	r4,r2
80005422:	0c 97       	mov	r7,r6
80005424:	02 92       	mov	r2,r1
80005426:	06 96       	mov	r6,r3
80005428:	40 41       	lddsp	r1,sp[0x10]
8000542a:	40 93       	lddsp	r3,sp[0x24]
8000542c:	0e 99       	mov	r9,r7
8000542e:	ed b5 00 05 	bld	r5,0x5
80005432:	c4 81       	brne	800054c2 <_vfprintf_r+0xbe2>
80005434:	fa f8 06 b4 	ld.w	r8,sp[1716]
80005438:	40 3e       	lddsp	lr,sp[0xc]
8000543a:	58 0e       	cp.w	lr,0
8000543c:	c1 d0       	breq	80005476 <_vfprintf_r+0xb96>
8000543e:	10 36       	cp.w	r6,r8
80005440:	c0 64       	brge	8000544c <_vfprintf_r+0xb6c>
80005442:	fa cc f9 44 	sub	r12,sp,-1724
80005446:	f8 06 00 36 	add	r6,r12,r6<<0x3
8000544a:	c1 d8       	rjmp	80005484 <_vfprintf_r+0xba4>
8000544c:	fa c8 f9 50 	sub	r8,sp,-1712
80005450:	1a d8       	st.w	--sp,r8
80005452:	fa c8 fa b8 	sub	r8,sp,-1352
80005456:	04 9a       	mov	r10,r2
80005458:	1a d8       	st.w	--sp,r8
8000545a:	fa c8 fb b4 	sub	r8,sp,-1100
8000545e:	0c 9b       	mov	r11,r6
80005460:	1a d8       	st.w	--sp,r8
80005462:	08 9c       	mov	r12,r4
80005464:	fa c8 f9 40 	sub	r8,sp,-1728
80005468:	fa c9 ff b4 	sub	r9,sp,-76
8000546c:	fe b0 f8 a2 	rcall	800045b0 <get_arg>
80005470:	2f dd       	sub	sp,-12
80005472:	78 0a       	ld.w	r10,r12[0x0]
80005474:	c2 08       	rjmp	800054b4 <_vfprintf_r+0xbd4>
80005476:	2f f7       	sub	r7,-1
80005478:	10 39       	cp.w	r9,r8
8000547a:	c0 84       	brge	8000548a <_vfprintf_r+0xbaa>
8000547c:	fa cb f9 44 	sub	r11,sp,-1724
80005480:	f6 06 00 36 	add	r6,r11,r6<<0x3
80005484:	ec fa fd 88 	ld.w	r10,r6[-632]
80005488:	c1 68       	rjmp	800054b4 <_vfprintf_r+0xbd4>
8000548a:	41 09       	lddsp	r9,sp[0x40]
8000548c:	59 f8       	cp.w	r8,31
8000548e:	e0 89 00 10 	brgt	800054ae <_vfprintf_r+0xbce>
80005492:	f2 ca ff fc 	sub	r10,r9,-4
80005496:	51 0a       	stdsp	sp[0x40],r10
80005498:	fa c6 f9 44 	sub	r6,sp,-1724
8000549c:	72 0a       	ld.w	r10,r9[0x0]
8000549e:	ec 08 00 39 	add	r9,r6,r8<<0x3
800054a2:	f3 4a fd 88 	st.w	r9[-632],r10
800054a6:	2f f8       	sub	r8,-1
800054a8:	fb 48 06 b4 	st.w	sp[1716],r8
800054ac:	c0 48       	rjmp	800054b4 <_vfprintf_r+0xbd4>
800054ae:	72 0a       	ld.w	r10,r9[0x0]
800054b0:	2f c9       	sub	r9,-4
800054b2:	51 09       	stdsp	sp[0x40],r9
800054b4:	40 be       	lddsp	lr,sp[0x2c]
800054b6:	1c 98       	mov	r8,lr
800054b8:	95 1e       	st.w	r10[0x4],lr
800054ba:	bf 58       	asr	r8,0x1f
800054bc:	95 08       	st.w	r10[0x0],r8
800054be:	fe 9f fa 9f 	bral	800049fc <_vfprintf_r+0x11c>
800054c2:	ed b5 00 04 	bld	r5,0x4
800054c6:	c4 80       	breq	80005556 <_vfprintf_r+0xc76>
800054c8:	e2 15 00 40 	andl	r5,0x40,COH
800054cc:	c4 50       	breq	80005556 <_vfprintf_r+0xc76>
800054ce:	fa f8 06 b4 	ld.w	r8,sp[1716]
800054d2:	40 3c       	lddsp	r12,sp[0xc]
800054d4:	58 0c       	cp.w	r12,0
800054d6:	c1 d0       	breq	80005510 <_vfprintf_r+0xc30>
800054d8:	10 36       	cp.w	r6,r8
800054da:	c0 64       	brge	800054e6 <_vfprintf_r+0xc06>
800054dc:	fa cb f9 44 	sub	r11,sp,-1724
800054e0:	f6 06 00 36 	add	r6,r11,r6<<0x3
800054e4:	c1 d8       	rjmp	8000551e <_vfprintf_r+0xc3e>
800054e6:	fa c8 f9 50 	sub	r8,sp,-1712
800054ea:	1a d8       	st.w	--sp,r8
800054ec:	fa c8 fa b8 	sub	r8,sp,-1352
800054f0:	04 9a       	mov	r10,r2
800054f2:	1a d8       	st.w	--sp,r8
800054f4:	fa c8 fb b4 	sub	r8,sp,-1100
800054f8:	0c 9b       	mov	r11,r6
800054fa:	1a d8       	st.w	--sp,r8
800054fc:	08 9c       	mov	r12,r4
800054fe:	fa c8 f9 40 	sub	r8,sp,-1728
80005502:	fa c9 ff b4 	sub	r9,sp,-76
80005506:	fe b0 f8 55 	rcall	800045b0 <get_arg>
8000550a:	2f dd       	sub	sp,-12
8000550c:	78 0a       	ld.w	r10,r12[0x0]
8000550e:	c2 08       	rjmp	8000554e <_vfprintf_r+0xc6e>
80005510:	2f f7       	sub	r7,-1
80005512:	10 39       	cp.w	r9,r8
80005514:	c0 84       	brge	80005524 <_vfprintf_r+0xc44>
80005516:	fa ca f9 44 	sub	r10,sp,-1724
8000551a:	f4 06 00 36 	add	r6,r10,r6<<0x3
8000551e:	ec fa fd 88 	ld.w	r10,r6[-632]
80005522:	c1 68       	rjmp	8000554e <_vfprintf_r+0xc6e>
80005524:	41 09       	lddsp	r9,sp[0x40]
80005526:	59 f8       	cp.w	r8,31
80005528:	e0 89 00 10 	brgt	80005548 <_vfprintf_r+0xc68>
8000552c:	f2 ca ff fc 	sub	r10,r9,-4
80005530:	51 0a       	stdsp	sp[0x40],r10
80005532:	fa c6 f9 44 	sub	r6,sp,-1724
80005536:	72 0a       	ld.w	r10,r9[0x0]
80005538:	ec 08 00 39 	add	r9,r6,r8<<0x3
8000553c:	f3 4a fd 88 	st.w	r9[-632],r10
80005540:	2f f8       	sub	r8,-1
80005542:	fb 48 06 b4 	st.w	sp[1716],r8
80005546:	c0 48       	rjmp	8000554e <_vfprintf_r+0xc6e>
80005548:	72 0a       	ld.w	r10,r9[0x0]
8000554a:	2f c9       	sub	r9,-4
8000554c:	51 09       	stdsp	sp[0x40],r9
8000554e:	40 be       	lddsp	lr,sp[0x2c]
80005550:	b4 0e       	st.h	r10[0x0],lr
80005552:	fe 9f fa 55 	bral	800049fc <_vfprintf_r+0x11c>
80005556:	fa f8 06 b4 	ld.w	r8,sp[1716]
8000555a:	40 3c       	lddsp	r12,sp[0xc]
8000555c:	58 0c       	cp.w	r12,0
8000555e:	c1 d0       	breq	80005598 <_vfprintf_r+0xcb8>
80005560:	10 36       	cp.w	r6,r8
80005562:	c0 64       	brge	8000556e <_vfprintf_r+0xc8e>
80005564:	fa cb f9 44 	sub	r11,sp,-1724
80005568:	f6 06 00 36 	add	r6,r11,r6<<0x3
8000556c:	c1 d8       	rjmp	800055a6 <_vfprintf_r+0xcc6>
8000556e:	fa c8 f9 50 	sub	r8,sp,-1712
80005572:	1a d8       	st.w	--sp,r8
80005574:	fa c8 fa b8 	sub	r8,sp,-1352
80005578:	04 9a       	mov	r10,r2
8000557a:	1a d8       	st.w	--sp,r8
8000557c:	fa c8 fb b4 	sub	r8,sp,-1100
80005580:	0c 9b       	mov	r11,r6
80005582:	1a d8       	st.w	--sp,r8
80005584:	08 9c       	mov	r12,r4
80005586:	fa c8 f9 40 	sub	r8,sp,-1728
8000558a:	fa c9 ff b4 	sub	r9,sp,-76
8000558e:	fe b0 f8 11 	rcall	800045b0 <get_arg>
80005592:	2f dd       	sub	sp,-12
80005594:	78 0a       	ld.w	r10,r12[0x0]
80005596:	c2 08       	rjmp	800055d6 <_vfprintf_r+0xcf6>
80005598:	2f f7       	sub	r7,-1
8000559a:	10 39       	cp.w	r9,r8
8000559c:	c0 84       	brge	800055ac <_vfprintf_r+0xccc>
8000559e:	fa ca f9 44 	sub	r10,sp,-1724
800055a2:	f4 06 00 36 	add	r6,r10,r6<<0x3
800055a6:	ec fa fd 88 	ld.w	r10,r6[-632]
800055aa:	c1 68       	rjmp	800055d6 <_vfprintf_r+0xcf6>
800055ac:	41 09       	lddsp	r9,sp[0x40]
800055ae:	59 f8       	cp.w	r8,31
800055b0:	e0 89 00 10 	brgt	800055d0 <_vfprintf_r+0xcf0>
800055b4:	f2 ca ff fc 	sub	r10,r9,-4
800055b8:	51 0a       	stdsp	sp[0x40],r10
800055ba:	fa c6 f9 44 	sub	r6,sp,-1724
800055be:	72 0a       	ld.w	r10,r9[0x0]
800055c0:	ec 08 00 39 	add	r9,r6,r8<<0x3
800055c4:	f3 4a fd 88 	st.w	r9[-632],r10
800055c8:	2f f8       	sub	r8,-1
800055ca:	fb 48 06 b4 	st.w	sp[1716],r8
800055ce:	c0 48       	rjmp	800055d6 <_vfprintf_r+0xcf6>
800055d0:	72 0a       	ld.w	r10,r9[0x0]
800055d2:	2f c9       	sub	r9,-4
800055d4:	51 09       	stdsp	sp[0x40],r9
800055d6:	40 be       	lddsp	lr,sp[0x2c]
800055d8:	95 0e       	st.w	r10[0x0],lr
800055da:	fe 9f fa 11 	bral	800049fc <_vfprintf_r+0x11c>
800055de:	50 a7       	stdsp	sp[0x28],r7
800055e0:	50 80       	stdsp	sp[0x20],r0
800055e2:	0c 97       	mov	r7,r6
800055e4:	04 94       	mov	r4,r2
800055e6:	06 96       	mov	r6,r3
800055e8:	02 92       	mov	r2,r1
800055ea:	40 93       	lddsp	r3,sp[0x24]
800055ec:	10 90       	mov	r0,r8
800055ee:	40 41       	lddsp	r1,sp[0x10]
800055f0:	a5 a5       	sbr	r5,0x4
800055f2:	c0 a8       	rjmp	80005606 <_vfprintf_r+0xd26>
800055f4:	50 a7       	stdsp	sp[0x28],r7
800055f6:	50 80       	stdsp	sp[0x20],r0
800055f8:	0c 97       	mov	r7,r6
800055fa:	04 94       	mov	r4,r2
800055fc:	06 96       	mov	r6,r3
800055fe:	02 92       	mov	r2,r1
80005600:	40 93       	lddsp	r3,sp[0x24]
80005602:	10 90       	mov	r0,r8
80005604:	40 41       	lddsp	r1,sp[0x10]
80005606:	ed b5 00 05 	bld	r5,0x5
8000560a:	c5 d1       	brne	800056c4 <_vfprintf_r+0xde4>
8000560c:	fa f8 06 b4 	ld.w	r8,sp[1716]
80005610:	40 3c       	lddsp	r12,sp[0xc]
80005612:	58 0c       	cp.w	r12,0
80005614:	c2 60       	breq	80005660 <_vfprintf_r+0xd80>
80005616:	10 36       	cp.w	r6,r8
80005618:	c0 a4       	brge	8000562c <_vfprintf_r+0xd4c>
8000561a:	fa cb f9 44 	sub	r11,sp,-1724
8000561e:	f6 06 00 36 	add	r6,r11,r6<<0x3
80005622:	ec e8 fd 88 	ld.d	r8,r6[-632]
80005626:	fa e9 00 00 	st.d	sp[0],r8
8000562a:	c1 88       	rjmp	8000565a <_vfprintf_r+0xd7a>
8000562c:	fa c8 f9 50 	sub	r8,sp,-1712
80005630:	1a d8       	st.w	--sp,r8
80005632:	fa c8 fa b8 	sub	r8,sp,-1352
80005636:	04 9a       	mov	r10,r2
80005638:	1a d8       	st.w	--sp,r8
8000563a:	0c 9b       	mov	r11,r6
8000563c:	fa c8 fb b4 	sub	r8,sp,-1100
80005640:	08 9c       	mov	r12,r4
80005642:	1a d8       	st.w	--sp,r8
80005644:	fa c8 f9 40 	sub	r8,sp,-1728
80005648:	fa c9 ff b4 	sub	r9,sp,-76
8000564c:	fe b0 f7 b2 	rcall	800045b0 <get_arg>
80005650:	2f dd       	sub	sp,-12
80005652:	f8 ea 00 00 	ld.d	r10,r12[0]
80005656:	fa eb 00 00 	st.d	sp[0],r10
8000565a:	30 08       	mov	r8,0
8000565c:	e0 8f 03 de 	bral	80005e18 <_vfprintf_r+0x1538>
80005660:	ee ca ff ff 	sub	r10,r7,-1
80005664:	10 37       	cp.w	r7,r8
80005666:	c0 b4       	brge	8000567c <_vfprintf_r+0xd9c>
80005668:	fa c9 f9 44 	sub	r9,sp,-1724
8000566c:	14 97       	mov	r7,r10
8000566e:	f2 06 00 36 	add	r6,r9,r6<<0x3
80005672:	ec ea fd 88 	ld.d	r10,r6[-632]
80005676:	fa eb 00 00 	st.d	sp[0],r10
8000567a:	c1 88       	rjmp	800056aa <_vfprintf_r+0xdca>
8000567c:	41 09       	lddsp	r9,sp[0x40]
8000567e:	59 f8       	cp.w	r8,31
80005680:	e0 89 00 18 	brgt	800056b0 <_vfprintf_r+0xdd0>
80005684:	f2 e6 00 00 	ld.d	r6,r9[0]
80005688:	f2 cb ff f8 	sub	r11,r9,-8
8000568c:	fa e7 00 00 	st.d	sp[0],r6
80005690:	51 0b       	stdsp	sp[0x40],r11
80005692:	fa c6 f9 44 	sub	r6,sp,-1724
80005696:	ec 08 00 39 	add	r9,r6,r8<<0x3
8000569a:	fa e6 00 00 	ld.d	r6,sp[0]
8000569e:	f2 e7 fd 88 	st.d	r9[-632],r6
800056a2:	2f f8       	sub	r8,-1
800056a4:	14 97       	mov	r7,r10
800056a6:	fb 48 06 b4 	st.w	sp[1716],r8
800056aa:	40 38       	lddsp	r8,sp[0xc]
800056ac:	e0 8f 03 b6 	bral	80005e18 <_vfprintf_r+0x1538>
800056b0:	f2 e6 00 00 	ld.d	r6,r9[0]
800056b4:	40 38       	lddsp	r8,sp[0xc]
800056b6:	fa e7 00 00 	st.d	sp[0],r6
800056ba:	2f 89       	sub	r9,-8
800056bc:	14 97       	mov	r7,r10
800056be:	51 09       	stdsp	sp[0x40],r9
800056c0:	e0 8f 03 ac 	bral	80005e18 <_vfprintf_r+0x1538>
800056c4:	ed b5 00 04 	bld	r5,0x4
800056c8:	c1 61       	brne	800056f4 <_vfprintf_r+0xe14>
800056ca:	fa f8 06 b4 	ld.w	r8,sp[1716]
800056ce:	40 3e       	lddsp	lr,sp[0xc]
800056d0:	58 0e       	cp.w	lr,0
800056d2:	c0 80       	breq	800056e2 <_vfprintf_r+0xe02>
800056d4:	10 36       	cp.w	r6,r8
800056d6:	c6 74       	brge	800057a4 <_vfprintf_r+0xec4>
800056d8:	fa cc f9 44 	sub	r12,sp,-1724
800056dc:	f8 06 00 36 	add	r6,r12,r6<<0x3
800056e0:	c8 08       	rjmp	800057e0 <_vfprintf_r+0xf00>
800056e2:	ee ca ff ff 	sub	r10,r7,-1
800056e6:	10 37       	cp.w	r7,r8
800056e8:	c7 f4       	brge	800057e6 <_vfprintf_r+0xf06>
800056ea:	fa cb f9 44 	sub	r11,sp,-1724
800056ee:	f6 06 00 36 	add	r6,r11,r6<<0x3
800056f2:	c7 68       	rjmp	800057de <_vfprintf_r+0xefe>
800056f4:	ed b5 00 06 	bld	r5,0x6
800056f8:	c4 a1       	brne	8000578c <_vfprintf_r+0xeac>
800056fa:	fa f8 06 b4 	ld.w	r8,sp[1716]
800056fe:	40 3c       	lddsp	r12,sp[0xc]
80005700:	58 0c       	cp.w	r12,0
80005702:	c1 d0       	breq	8000573c <_vfprintf_r+0xe5c>
80005704:	10 36       	cp.w	r6,r8
80005706:	c0 64       	brge	80005712 <_vfprintf_r+0xe32>
80005708:	fa cb f9 44 	sub	r11,sp,-1724
8000570c:	f6 06 00 36 	add	r6,r11,r6<<0x3
80005710:	c1 f8       	rjmp	8000574e <_vfprintf_r+0xe6e>
80005712:	fa c8 f9 50 	sub	r8,sp,-1712
80005716:	1a d8       	st.w	--sp,r8
80005718:	fa c8 fa b8 	sub	r8,sp,-1352
8000571c:	1a d8       	st.w	--sp,r8
8000571e:	fa c8 fb b4 	sub	r8,sp,-1100
80005722:	1a d8       	st.w	--sp,r8
80005724:	fa c8 f9 40 	sub	r8,sp,-1728
80005728:	fa c9 ff b4 	sub	r9,sp,-76
8000572c:	04 9a       	mov	r10,r2
8000572e:	0c 9b       	mov	r11,r6
80005730:	08 9c       	mov	r12,r4
80005732:	fe b0 f7 3f 	rcall	800045b0 <get_arg>
80005736:	2f dd       	sub	sp,-12
80005738:	98 18       	ld.sh	r8,r12[0x2]
8000573a:	c2 68       	rjmp	80005786 <_vfprintf_r+0xea6>
8000573c:	ee ca ff ff 	sub	r10,r7,-1
80005740:	10 37       	cp.w	r7,r8
80005742:	c0 94       	brge	80005754 <_vfprintf_r+0xe74>
80005744:	fa c9 f9 44 	sub	r9,sp,-1724
80005748:	14 97       	mov	r7,r10
8000574a:	f2 06 00 36 	add	r6,r9,r6<<0x3
8000574e:	ed 08 fd 8a 	ld.sh	r8,r6[-630]
80005752:	c1 a8       	rjmp	80005786 <_vfprintf_r+0xea6>
80005754:	41 09       	lddsp	r9,sp[0x40]
80005756:	59 f8       	cp.w	r8,31
80005758:	e0 89 00 13 	brgt	8000577e <_vfprintf_r+0xe9e>
8000575c:	f2 cb ff fc 	sub	r11,r9,-4
80005760:	51 0b       	stdsp	sp[0x40],r11
80005762:	72 09       	ld.w	r9,r9[0x0]
80005764:	fa c6 f9 44 	sub	r6,sp,-1724
80005768:	ec 08 00 3b 	add	r11,r6,r8<<0x3
8000576c:	2f f8       	sub	r8,-1
8000576e:	f7 49 fd 88 	st.w	r11[-632],r9
80005772:	fb 48 06 b4 	st.w	sp[1716],r8
80005776:	14 97       	mov	r7,r10
80005778:	f1 d9 b0 10 	bfexts	r8,r9,0x0,0x10
8000577c:	c0 58       	rjmp	80005786 <_vfprintf_r+0xea6>
8000577e:	92 18       	ld.sh	r8,r9[0x2]
80005780:	14 97       	mov	r7,r10
80005782:	2f c9       	sub	r9,-4
80005784:	51 09       	stdsp	sp[0x40],r9
80005786:	5c 78       	castu.h	r8
80005788:	50 18       	stdsp	sp[0x4],r8
8000578a:	c4 68       	rjmp	80005816 <_vfprintf_r+0xf36>
8000578c:	fa f8 06 b4 	ld.w	r8,sp[1716]
80005790:	40 3c       	lddsp	r12,sp[0xc]
80005792:	58 0c       	cp.w	r12,0
80005794:	c1 d0       	breq	800057ce <_vfprintf_r+0xeee>
80005796:	10 36       	cp.w	r6,r8
80005798:	c0 64       	brge	800057a4 <_vfprintf_r+0xec4>
8000579a:	fa cb f9 44 	sub	r11,sp,-1724
8000579e:	f6 06 00 36 	add	r6,r11,r6<<0x3
800057a2:	c1 f8       	rjmp	800057e0 <_vfprintf_r+0xf00>
800057a4:	fa c8 f9 50 	sub	r8,sp,-1712
800057a8:	1a d8       	st.w	--sp,r8
800057aa:	fa c8 fa b8 	sub	r8,sp,-1352
800057ae:	0c 9b       	mov	r11,r6
800057b0:	1a d8       	st.w	--sp,r8
800057b2:	fa c8 fb b4 	sub	r8,sp,-1100
800057b6:	04 9a       	mov	r10,r2
800057b8:	1a d8       	st.w	--sp,r8
800057ba:	08 9c       	mov	r12,r4
800057bc:	fa c8 f9 40 	sub	r8,sp,-1728
800057c0:	fa c9 ff b4 	sub	r9,sp,-76
800057c4:	fe b0 f6 f6 	rcall	800045b0 <get_arg>
800057c8:	2f dd       	sub	sp,-12
800057ca:	78 0b       	ld.w	r11,r12[0x0]
800057cc:	c2 48       	rjmp	80005814 <_vfprintf_r+0xf34>
800057ce:	ee ca ff ff 	sub	r10,r7,-1
800057d2:	10 37       	cp.w	r7,r8
800057d4:	c0 94       	brge	800057e6 <_vfprintf_r+0xf06>
800057d6:	fa c9 f9 44 	sub	r9,sp,-1724
800057da:	f2 06 00 36 	add	r6,r9,r6<<0x3
800057de:	14 97       	mov	r7,r10
800057e0:	ec fb fd 88 	ld.w	r11,r6[-632]
800057e4:	c1 88       	rjmp	80005814 <_vfprintf_r+0xf34>
800057e6:	41 09       	lddsp	r9,sp[0x40]
800057e8:	59 f8       	cp.w	r8,31
800057ea:	e0 89 00 11 	brgt	8000580c <_vfprintf_r+0xf2c>
800057ee:	f2 cb ff fc 	sub	r11,r9,-4
800057f2:	51 0b       	stdsp	sp[0x40],r11
800057f4:	fa c6 f9 44 	sub	r6,sp,-1724
800057f8:	72 0b       	ld.w	r11,r9[0x0]
800057fa:	ec 08 00 39 	add	r9,r6,r8<<0x3
800057fe:	f3 4b fd 88 	st.w	r9[-632],r11
80005802:	2f f8       	sub	r8,-1
80005804:	14 97       	mov	r7,r10
80005806:	fb 48 06 b4 	st.w	sp[1716],r8
8000580a:	c0 58       	rjmp	80005814 <_vfprintf_r+0xf34>
8000580c:	72 0b       	ld.w	r11,r9[0x0]
8000580e:	14 97       	mov	r7,r10
80005810:	2f c9       	sub	r9,-4
80005812:	51 09       	stdsp	sp[0x40],r9
80005814:	50 1b       	stdsp	sp[0x4],r11
80005816:	30 0e       	mov	lr,0
80005818:	50 0e       	stdsp	sp[0x0],lr
8000581a:	1c 98       	mov	r8,lr
8000581c:	e0 8f 02 fe 	bral	80005e18 <_vfprintf_r+0x1538>
80005820:	50 a7       	stdsp	sp[0x28],r7
80005822:	50 80       	stdsp	sp[0x20],r0
80005824:	0c 97       	mov	r7,r6
80005826:	04 94       	mov	r4,r2
80005828:	06 96       	mov	r6,r3
8000582a:	02 92       	mov	r2,r1
8000582c:	40 93       	lddsp	r3,sp[0x24]
8000582e:	40 41       	lddsp	r1,sp[0x10]
80005830:	0e 99       	mov	r9,r7
80005832:	fa f8 06 b4 	ld.w	r8,sp[1716]
80005836:	40 3c       	lddsp	r12,sp[0xc]
80005838:	58 0c       	cp.w	r12,0
8000583a:	c1 d0       	breq	80005874 <_vfprintf_r+0xf94>
8000583c:	10 36       	cp.w	r6,r8
8000583e:	c0 64       	brge	8000584a <_vfprintf_r+0xf6a>
80005840:	fa cb f9 44 	sub	r11,sp,-1724
80005844:	f6 06 00 36 	add	r6,r11,r6<<0x3
80005848:	c1 d8       	rjmp	80005882 <_vfprintf_r+0xfa2>
8000584a:	fa c8 f9 50 	sub	r8,sp,-1712
8000584e:	1a d8       	st.w	--sp,r8
80005850:	fa c8 fa b8 	sub	r8,sp,-1352
80005854:	1a d8       	st.w	--sp,r8
80005856:	fa c8 fb b4 	sub	r8,sp,-1100
8000585a:	1a d8       	st.w	--sp,r8
8000585c:	fa c9 ff b4 	sub	r9,sp,-76
80005860:	fa c8 f9 40 	sub	r8,sp,-1728
80005864:	04 9a       	mov	r10,r2
80005866:	0c 9b       	mov	r11,r6
80005868:	08 9c       	mov	r12,r4
8000586a:	fe b0 f6 a3 	rcall	800045b0 <get_arg>
8000586e:	2f dd       	sub	sp,-12
80005870:	78 09       	ld.w	r9,r12[0x0]
80005872:	c2 18       	rjmp	800058b4 <_vfprintf_r+0xfd4>
80005874:	2f f7       	sub	r7,-1
80005876:	10 39       	cp.w	r9,r8
80005878:	c0 84       	brge	80005888 <_vfprintf_r+0xfa8>
8000587a:	fa ca f9 44 	sub	r10,sp,-1724
8000587e:	f4 06 00 36 	add	r6,r10,r6<<0x3
80005882:	ec f9 fd 88 	ld.w	r9,r6[-632]
80005886:	c1 78       	rjmp	800058b4 <_vfprintf_r+0xfd4>
80005888:	41 09       	lddsp	r9,sp[0x40]
8000588a:	59 f8       	cp.w	r8,31
8000588c:	e0 89 00 10 	brgt	800058ac <_vfprintf_r+0xfcc>
80005890:	f2 ca ff fc 	sub	r10,r9,-4
80005894:	51 0a       	stdsp	sp[0x40],r10
80005896:	fa c6 f9 44 	sub	r6,sp,-1724
8000589a:	72 09       	ld.w	r9,r9[0x0]
8000589c:	ec 08 00 3a 	add	r10,r6,r8<<0x3
800058a0:	f5 49 fd 88 	st.w	r10[-632],r9
800058a4:	2f f8       	sub	r8,-1
800058a6:	fb 48 06 b4 	st.w	sp[1716],r8
800058aa:	c0 58       	rjmp	800058b4 <_vfprintf_r+0xfd4>
800058ac:	f2 c8 ff fc 	sub	r8,r9,-4
800058b0:	51 08       	stdsp	sp[0x40],r8
800058b2:	72 09       	ld.w	r9,r9[0x0]
800058b4:	33 08       	mov	r8,48
800058b6:	fb 68 06 b8 	st.b	sp[1720],r8
800058ba:	37 88       	mov	r8,120
800058bc:	30 0e       	mov	lr,0
800058be:	fb 68 06 b9 	st.b	sp[1721],r8
800058c2:	fe cc b6 ce 	sub	r12,pc,-18738
800058c6:	50 19       	stdsp	sp[0x4],r9
800058c8:	a1 b5       	sbr	r5,0x1
800058ca:	50 0e       	stdsp	sp[0x0],lr
800058cc:	50 dc       	stdsp	sp[0x34],r12
800058ce:	30 28       	mov	r8,2
800058d0:	37 80       	mov	r0,120
800058d2:	e0 8f 02 a3 	bral	80005e18 <_vfprintf_r+0x1538>
800058d6:	50 a7       	stdsp	sp[0x28],r7
800058d8:	50 80       	stdsp	sp[0x20],r0
800058da:	10 90       	mov	r0,r8
800058dc:	30 08       	mov	r8,0
800058de:	fb 68 06 bb 	st.b	sp[1723],r8
800058e2:	0c 97       	mov	r7,r6
800058e4:	04 94       	mov	r4,r2
800058e6:	06 96       	mov	r6,r3
800058e8:	02 92       	mov	r2,r1
800058ea:	40 93       	lddsp	r3,sp[0x24]
800058ec:	40 41       	lddsp	r1,sp[0x10]
800058ee:	0e 99       	mov	r9,r7
800058f0:	fa f8 06 b4 	ld.w	r8,sp[1716]
800058f4:	40 3b       	lddsp	r11,sp[0xc]
800058f6:	58 0b       	cp.w	r11,0
800058f8:	c1 d0       	breq	80005932 <_vfprintf_r+0x1052>
800058fa:	10 36       	cp.w	r6,r8
800058fc:	c0 64       	brge	80005908 <_vfprintf_r+0x1028>
800058fe:	fa ca f9 44 	sub	r10,sp,-1724
80005902:	f4 06 00 36 	add	r6,r10,r6<<0x3
80005906:	c1 d8       	rjmp	80005940 <_vfprintf_r+0x1060>
80005908:	fa c8 f9 50 	sub	r8,sp,-1712
8000590c:	1a d8       	st.w	--sp,r8
8000590e:	fa c8 fa b8 	sub	r8,sp,-1352
80005912:	1a d8       	st.w	--sp,r8
80005914:	fa c8 fb b4 	sub	r8,sp,-1100
80005918:	0c 9b       	mov	r11,r6
8000591a:	1a d8       	st.w	--sp,r8
8000591c:	04 9a       	mov	r10,r2
8000591e:	fa c8 f9 40 	sub	r8,sp,-1728
80005922:	fa c9 ff b4 	sub	r9,sp,-76
80005926:	08 9c       	mov	r12,r4
80005928:	fe b0 f6 44 	rcall	800045b0 <get_arg>
8000592c:	2f dd       	sub	sp,-12
8000592e:	78 06       	ld.w	r6,r12[0x0]
80005930:	c2 08       	rjmp	80005970 <_vfprintf_r+0x1090>
80005932:	2f f7       	sub	r7,-1
80005934:	10 39       	cp.w	r9,r8
80005936:	c0 84       	brge	80005946 <_vfprintf_r+0x1066>
80005938:	fa c9 f9 44 	sub	r9,sp,-1724
8000593c:	f2 06 00 36 	add	r6,r9,r6<<0x3
80005940:	ec f6 fd 88 	ld.w	r6,r6[-632]
80005944:	c1 68       	rjmp	80005970 <_vfprintf_r+0x1090>
80005946:	41 09       	lddsp	r9,sp[0x40]
80005948:	59 f8       	cp.w	r8,31
8000594a:	e0 89 00 10 	brgt	8000596a <_vfprintf_r+0x108a>
8000594e:	f2 ca ff fc 	sub	r10,r9,-4
80005952:	51 0a       	stdsp	sp[0x40],r10
80005954:	72 06       	ld.w	r6,r9[0x0]
80005956:	fa ce f9 44 	sub	lr,sp,-1724
8000595a:	fc 08 00 39 	add	r9,lr,r8<<0x3
8000595e:	f3 46 fd 88 	st.w	r9[-632],r6
80005962:	2f f8       	sub	r8,-1
80005964:	fb 48 06 b4 	st.w	sp[1716],r8
80005968:	c0 48       	rjmp	80005970 <_vfprintf_r+0x1090>
8000596a:	72 06       	ld.w	r6,r9[0x0]
8000596c:	2f c9       	sub	r9,-4
8000596e:	51 09       	stdsp	sp[0x40],r9
80005970:	40 2c       	lddsp	r12,sp[0x8]
80005972:	58 0c       	cp.w	r12,0
80005974:	c1 05       	brlt	80005994 <_vfprintf_r+0x10b4>
80005976:	18 9a       	mov	r10,r12
80005978:	30 0b       	mov	r11,0
8000597a:	0c 9c       	mov	r12,r6
8000597c:	e0 a0 14 58 	rcall	8000822c <memchr>
80005980:	e0 80 02 df 	breq	80005f3e <_vfprintf_r+0x165e>
80005984:	f8 06 01 02 	sub	r2,r12,r6
80005988:	40 2b       	lddsp	r11,sp[0x8]
8000598a:	16 32       	cp.w	r2,r11
8000598c:	e0 89 02 d9 	brgt	80005f3e <_vfprintf_r+0x165e>
80005990:	e0 8f 02 d4 	bral	80005f38 <_vfprintf_r+0x1658>
80005994:	30 0a       	mov	r10,0
80005996:	0c 9c       	mov	r12,r6
80005998:	50 2a       	stdsp	sp[0x8],r10
8000599a:	e0 a0 19 33 	rcall	80008c00 <strlen>
8000599e:	18 92       	mov	r2,r12
800059a0:	e0 8f 02 d2 	bral	80005f44 <_vfprintf_r+0x1664>
800059a4:	50 a7       	stdsp	sp[0x28],r7
800059a6:	50 80       	stdsp	sp[0x20],r0
800059a8:	0c 97       	mov	r7,r6
800059aa:	04 94       	mov	r4,r2
800059ac:	06 96       	mov	r6,r3
800059ae:	02 92       	mov	r2,r1
800059b0:	40 93       	lddsp	r3,sp[0x24]
800059b2:	10 90       	mov	r0,r8
800059b4:	40 41       	lddsp	r1,sp[0x10]
800059b6:	a5 a5       	sbr	r5,0x4
800059b8:	c0 a8       	rjmp	800059cc <_vfprintf_r+0x10ec>
800059ba:	50 a7       	stdsp	sp[0x28],r7
800059bc:	50 80       	stdsp	sp[0x20],r0
800059be:	0c 97       	mov	r7,r6
800059c0:	04 94       	mov	r4,r2
800059c2:	06 96       	mov	r6,r3
800059c4:	02 92       	mov	r2,r1
800059c6:	40 93       	lddsp	r3,sp[0x24]
800059c8:	10 90       	mov	r0,r8
800059ca:	40 41       	lddsp	r1,sp[0x10]
800059cc:	ed b5 00 05 	bld	r5,0x5
800059d0:	c5 61       	brne	80005a7c <_vfprintf_r+0x119c>
800059d2:	fa f8 06 b4 	ld.w	r8,sp[1716]
800059d6:	40 39       	lddsp	r9,sp[0xc]
800059d8:	58 09       	cp.w	r9,0
800059da:	c2 10       	breq	80005a1c <_vfprintf_r+0x113c>
800059dc:	10 36       	cp.w	r6,r8
800059de:	c0 74       	brge	800059ec <_vfprintf_r+0x110c>
800059e0:	fa c8 f9 44 	sub	r8,sp,-1724
800059e4:	f0 06 00 36 	add	r6,r8,r6<<0x3
800059e8:	c2 38       	rjmp	80005a2e <_vfprintf_r+0x114e>
800059ea:	d7 03       	nop
800059ec:	fa c8 f9 50 	sub	r8,sp,-1712
800059f0:	1a d8       	st.w	--sp,r8
800059f2:	fa c8 fa b8 	sub	r8,sp,-1352
800059f6:	1a d8       	st.w	--sp,r8
800059f8:	fa c8 fb b4 	sub	r8,sp,-1100
800059fc:	1a d8       	st.w	--sp,r8
800059fe:	fa c8 f9 40 	sub	r8,sp,-1728
80005a02:	fa c9 ff b4 	sub	r9,sp,-76
80005a06:	04 9a       	mov	r10,r2
80005a08:	0c 9b       	mov	r11,r6
80005a0a:	08 9c       	mov	r12,r4
80005a0c:	fe b0 f5 d2 	rcall	800045b0 <get_arg>
80005a10:	2f dd       	sub	sp,-12
80005a12:	f8 e8 00 00 	ld.d	r8,r12[0]
80005a16:	fa e9 00 00 	st.d	sp[0],r8
80005a1a:	c2 e8       	rjmp	80005a76 <_vfprintf_r+0x1196>
80005a1c:	ee ca ff ff 	sub	r10,r7,-1
80005a20:	10 37       	cp.w	r7,r8
80005a22:	c0 b4       	brge	80005a38 <_vfprintf_r+0x1158>
80005a24:	fa c8 f9 44 	sub	r8,sp,-1724
80005a28:	14 97       	mov	r7,r10
80005a2a:	f0 06 00 36 	add	r6,r8,r6<<0x3
80005a2e:	ec ea fd 88 	ld.d	r10,r6[-632]
80005a32:	fa eb 00 00 	st.d	sp[0],r10
80005a36:	c2 08       	rjmp	80005a76 <_vfprintf_r+0x1196>
80005a38:	41 09       	lddsp	r9,sp[0x40]
80005a3a:	59 f8       	cp.w	r8,31
80005a3c:	e0 89 00 16 	brgt	80005a68 <_vfprintf_r+0x1188>
80005a40:	f2 e6 00 00 	ld.d	r6,r9[0]
80005a44:	f2 cb ff f8 	sub	r11,r9,-8
80005a48:	fa e7 00 00 	st.d	sp[0],r6
80005a4c:	51 0b       	stdsp	sp[0x40],r11
80005a4e:	fa c6 f9 44 	sub	r6,sp,-1724
80005a52:	ec 08 00 39 	add	r9,r6,r8<<0x3
80005a56:	fa e6 00 00 	ld.d	r6,sp[0]
80005a5a:	f2 e7 fd 88 	st.d	r9[-632],r6
80005a5e:	2f f8       	sub	r8,-1
80005a60:	14 97       	mov	r7,r10
80005a62:	fb 48 06 b4 	st.w	sp[1716],r8
80005a66:	c0 88       	rjmp	80005a76 <_vfprintf_r+0x1196>
80005a68:	f2 e6 00 00 	ld.d	r6,r9[0]
80005a6c:	2f 89       	sub	r9,-8
80005a6e:	fa e7 00 00 	st.d	sp[0],r6
80005a72:	51 09       	stdsp	sp[0x40],r9
80005a74:	14 97       	mov	r7,r10
80005a76:	30 18       	mov	r8,1
80005a78:	e0 8f 01 d0 	bral	80005e18 <_vfprintf_r+0x1538>
80005a7c:	ed b5 00 04 	bld	r5,0x4
80005a80:	c1 61       	brne	80005aac <_vfprintf_r+0x11cc>
80005a82:	fa f8 06 b4 	ld.w	r8,sp[1716]
80005a86:	40 3e       	lddsp	lr,sp[0xc]
80005a88:	58 0e       	cp.w	lr,0
80005a8a:	c0 80       	breq	80005a9a <_vfprintf_r+0x11ba>
80005a8c:	10 36       	cp.w	r6,r8
80005a8e:	c6 74       	brge	80005b5c <_vfprintf_r+0x127c>
80005a90:	fa cc f9 44 	sub	r12,sp,-1724
80005a94:	f8 06 00 36 	add	r6,r12,r6<<0x3
80005a98:	c8 08       	rjmp	80005b98 <_vfprintf_r+0x12b8>
80005a9a:	ee ca ff ff 	sub	r10,r7,-1
80005a9e:	10 37       	cp.w	r7,r8
80005aa0:	c7 f4       	brge	80005b9e <_vfprintf_r+0x12be>
80005aa2:	fa cb f9 44 	sub	r11,sp,-1724
80005aa6:	f6 06 00 36 	add	r6,r11,r6<<0x3
80005aaa:	c7 68       	rjmp	80005b96 <_vfprintf_r+0x12b6>
80005aac:	ed b5 00 06 	bld	r5,0x6
80005ab0:	c4 a1       	brne	80005b44 <_vfprintf_r+0x1264>
80005ab2:	fa f8 06 b4 	ld.w	r8,sp[1716]
80005ab6:	40 3c       	lddsp	r12,sp[0xc]
80005ab8:	58 0c       	cp.w	r12,0
80005aba:	c1 d0       	breq	80005af4 <_vfprintf_r+0x1214>
80005abc:	10 36       	cp.w	r6,r8
80005abe:	c0 64       	brge	80005aca <_vfprintf_r+0x11ea>
80005ac0:	fa cb f9 44 	sub	r11,sp,-1724
80005ac4:	f6 06 00 36 	add	r6,r11,r6<<0x3
80005ac8:	c1 f8       	rjmp	80005b06 <_vfprintf_r+0x1226>
80005aca:	fa c8 f9 50 	sub	r8,sp,-1712
80005ace:	1a d8       	st.w	--sp,r8
80005ad0:	fa c8 fa b8 	sub	r8,sp,-1352
80005ad4:	1a d8       	st.w	--sp,r8
80005ad6:	fa c8 fb b4 	sub	r8,sp,-1100
80005ada:	1a d8       	st.w	--sp,r8
80005adc:	fa c8 f9 40 	sub	r8,sp,-1728
80005ae0:	fa c9 ff b4 	sub	r9,sp,-76
80005ae4:	04 9a       	mov	r10,r2
80005ae6:	0c 9b       	mov	r11,r6
80005ae8:	08 9c       	mov	r12,r4
80005aea:	fe b0 f5 63 	rcall	800045b0 <get_arg>
80005aee:	2f dd       	sub	sp,-12
80005af0:	98 18       	ld.sh	r8,r12[0x2]
80005af2:	c2 68       	rjmp	80005b3e <_vfprintf_r+0x125e>
80005af4:	ee ca ff ff 	sub	r10,r7,-1
80005af8:	10 37       	cp.w	r7,r8
80005afa:	c0 94       	brge	80005b0c <_vfprintf_r+0x122c>
80005afc:	fa c9 f9 44 	sub	r9,sp,-1724
80005b00:	14 97       	mov	r7,r10
80005b02:	f2 06 00 36 	add	r6,r9,r6<<0x3
80005b06:	ed 08 fd 8a 	ld.sh	r8,r6[-630]
80005b0a:	c1 a8       	rjmp	80005b3e <_vfprintf_r+0x125e>
80005b0c:	41 09       	lddsp	r9,sp[0x40]
80005b0e:	59 f8       	cp.w	r8,31
80005b10:	e0 89 00 13 	brgt	80005b36 <_vfprintf_r+0x1256>
80005b14:	f2 cb ff fc 	sub	r11,r9,-4
80005b18:	51 0b       	stdsp	sp[0x40],r11
80005b1a:	72 09       	ld.w	r9,r9[0x0]
80005b1c:	fa c6 f9 44 	sub	r6,sp,-1724
80005b20:	ec 08 00 3b 	add	r11,r6,r8<<0x3
80005b24:	2f f8       	sub	r8,-1
80005b26:	f7 49 fd 88 	st.w	r11[-632],r9
80005b2a:	fb 48 06 b4 	st.w	sp[1716],r8
80005b2e:	14 97       	mov	r7,r10
80005b30:	f1 d9 b0 10 	bfexts	r8,r9,0x0,0x10
80005b34:	c0 58       	rjmp	80005b3e <_vfprintf_r+0x125e>
80005b36:	92 18       	ld.sh	r8,r9[0x2]
80005b38:	14 97       	mov	r7,r10
80005b3a:	2f c9       	sub	r9,-4
80005b3c:	51 09       	stdsp	sp[0x40],r9
80005b3e:	5c 78       	castu.h	r8
80005b40:	50 18       	stdsp	sp[0x4],r8
80005b42:	c4 68       	rjmp	80005bce <_vfprintf_r+0x12ee>
80005b44:	fa f8 06 b4 	ld.w	r8,sp[1716]
80005b48:	40 3c       	lddsp	r12,sp[0xc]
80005b4a:	58 0c       	cp.w	r12,0
80005b4c:	c1 d0       	breq	80005b86 <_vfprintf_r+0x12a6>
80005b4e:	10 36       	cp.w	r6,r8
80005b50:	c0 64       	brge	80005b5c <_vfprintf_r+0x127c>
80005b52:	fa cb f9 44 	sub	r11,sp,-1724
80005b56:	f6 06 00 36 	add	r6,r11,r6<<0x3
80005b5a:	c1 f8       	rjmp	80005b98 <_vfprintf_r+0x12b8>
80005b5c:	fa c8 f9 50 	sub	r8,sp,-1712
80005b60:	1a d8       	st.w	--sp,r8
80005b62:	fa c8 fa b8 	sub	r8,sp,-1352
80005b66:	0c 9b       	mov	r11,r6
80005b68:	1a d8       	st.w	--sp,r8
80005b6a:	fa c8 fb b4 	sub	r8,sp,-1100
80005b6e:	04 9a       	mov	r10,r2
80005b70:	1a d8       	st.w	--sp,r8
80005b72:	08 9c       	mov	r12,r4
80005b74:	fa c8 f9 40 	sub	r8,sp,-1728
80005b78:	fa c9 ff b4 	sub	r9,sp,-76
80005b7c:	fe b0 f5 1a 	rcall	800045b0 <get_arg>
80005b80:	2f dd       	sub	sp,-12
80005b82:	78 0b       	ld.w	r11,r12[0x0]
80005b84:	c2 48       	rjmp	80005bcc <_vfprintf_r+0x12ec>
80005b86:	ee ca ff ff 	sub	r10,r7,-1
80005b8a:	10 37       	cp.w	r7,r8
80005b8c:	c0 94       	brge	80005b9e <_vfprintf_r+0x12be>
80005b8e:	fa c9 f9 44 	sub	r9,sp,-1724
80005b92:	f2 06 00 36 	add	r6,r9,r6<<0x3
80005b96:	14 97       	mov	r7,r10
80005b98:	ec fb fd 88 	ld.w	r11,r6[-632]
80005b9c:	c1 88       	rjmp	80005bcc <_vfprintf_r+0x12ec>
80005b9e:	41 09       	lddsp	r9,sp[0x40]
80005ba0:	59 f8       	cp.w	r8,31
80005ba2:	e0 89 00 11 	brgt	80005bc4 <_vfprintf_r+0x12e4>
80005ba6:	f2 cb ff fc 	sub	r11,r9,-4
80005baa:	51 0b       	stdsp	sp[0x40],r11
80005bac:	fa c6 f9 44 	sub	r6,sp,-1724
80005bb0:	72 0b       	ld.w	r11,r9[0x0]
80005bb2:	ec 08 00 39 	add	r9,r6,r8<<0x3
80005bb6:	f3 4b fd 88 	st.w	r9[-632],r11
80005bba:	2f f8       	sub	r8,-1
80005bbc:	14 97       	mov	r7,r10
80005bbe:	fb 48 06 b4 	st.w	sp[1716],r8
80005bc2:	c0 58       	rjmp	80005bcc <_vfprintf_r+0x12ec>
80005bc4:	72 0b       	ld.w	r11,r9[0x0]
80005bc6:	14 97       	mov	r7,r10
80005bc8:	2f c9       	sub	r9,-4
80005bca:	51 09       	stdsp	sp[0x40],r9
80005bcc:	50 1b       	stdsp	sp[0x4],r11
80005bce:	30 0e       	mov	lr,0
80005bd0:	30 18       	mov	r8,1
80005bd2:	50 0e       	stdsp	sp[0x0],lr
80005bd4:	c2 29       	rjmp	80005e18 <_vfprintf_r+0x1538>
80005bd6:	50 a7       	stdsp	sp[0x28],r7
80005bd8:	50 80       	stdsp	sp[0x20],r0
80005bda:	0c 97       	mov	r7,r6
80005bdc:	04 94       	mov	r4,r2
80005bde:	06 96       	mov	r6,r3
80005be0:	02 92       	mov	r2,r1
80005be2:	fe cc b9 ee 	sub	r12,pc,-17938
80005be6:	40 93       	lddsp	r3,sp[0x24]
80005be8:	10 90       	mov	r0,r8
80005bea:	40 41       	lddsp	r1,sp[0x10]
80005bec:	50 dc       	stdsp	sp[0x34],r12
80005bee:	ed b5 00 05 	bld	r5,0x5
80005bf2:	c5 51       	brne	80005c9c <_vfprintf_r+0x13bc>
80005bf4:	fa f8 06 b4 	ld.w	r8,sp[1716]
80005bf8:	40 3b       	lddsp	r11,sp[0xc]
80005bfa:	58 0b       	cp.w	r11,0
80005bfc:	c2 20       	breq	80005c40 <_vfprintf_r+0x1360>
80005bfe:	10 36       	cp.w	r6,r8
80005c00:	c0 a4       	brge	80005c14 <_vfprintf_r+0x1334>
80005c02:	fa ca f9 44 	sub	r10,sp,-1724
80005c06:	f4 06 00 36 	add	r6,r10,r6<<0x3
80005c0a:	ec e8 fd 88 	ld.d	r8,r6[-632]
80005c0e:	fa e9 00 00 	st.d	sp[0],r8
80005c12:	cf 28       	rjmp	80005df6 <_vfprintf_r+0x1516>
80005c14:	fa c8 f9 50 	sub	r8,sp,-1712
80005c18:	1a d8       	st.w	--sp,r8
80005c1a:	fa c8 fa b8 	sub	r8,sp,-1352
80005c1e:	04 9a       	mov	r10,r2
80005c20:	1a d8       	st.w	--sp,r8
80005c22:	0c 9b       	mov	r11,r6
80005c24:	fa c8 fb b4 	sub	r8,sp,-1100
80005c28:	08 9c       	mov	r12,r4
80005c2a:	1a d8       	st.w	--sp,r8
80005c2c:	fa c8 f9 40 	sub	r8,sp,-1728
80005c30:	fa c9 ff b4 	sub	r9,sp,-76
80005c34:	fe b0 f4 be 	rcall	800045b0 <get_arg>
80005c38:	2f dd       	sub	sp,-12
80005c3a:	f8 ea 00 00 	ld.d	r10,r12[0]
80005c3e:	c0 c8       	rjmp	80005c56 <_vfprintf_r+0x1376>
80005c40:	ee ca ff ff 	sub	r10,r7,-1
80005c44:	10 37       	cp.w	r7,r8
80005c46:	c0 b4       	brge	80005c5c <_vfprintf_r+0x137c>
80005c48:	fa c9 f9 44 	sub	r9,sp,-1724
80005c4c:	14 97       	mov	r7,r10
80005c4e:	f2 06 00 36 	add	r6,r9,r6<<0x3
80005c52:	ec ea fd 88 	ld.d	r10,r6[-632]
80005c56:	fa eb 00 00 	st.d	sp[0],r10
80005c5a:	cc e8       	rjmp	80005df6 <_vfprintf_r+0x1516>
80005c5c:	41 09       	lddsp	r9,sp[0x40]
80005c5e:	59 f8       	cp.w	r8,31
80005c60:	e0 89 00 16 	brgt	80005c8c <_vfprintf_r+0x13ac>
80005c64:	f2 e6 00 00 	ld.d	r6,r9[0]
80005c68:	f2 cb ff f8 	sub	r11,r9,-8
80005c6c:	fa e7 00 00 	st.d	sp[0],r6
80005c70:	51 0b       	stdsp	sp[0x40],r11
80005c72:	fa c6 f9 44 	sub	r6,sp,-1724
80005c76:	ec 08 00 39 	add	r9,r6,r8<<0x3
80005c7a:	fa e6 00 00 	ld.d	r6,sp[0]
80005c7e:	f2 e7 fd 88 	st.d	r9[-632],r6
80005c82:	2f f8       	sub	r8,-1
80005c84:	14 97       	mov	r7,r10
80005c86:	fb 48 06 b4 	st.w	sp[1716],r8
80005c8a:	cb 68       	rjmp	80005df6 <_vfprintf_r+0x1516>
80005c8c:	f2 e6 00 00 	ld.d	r6,r9[0]
80005c90:	2f 89       	sub	r9,-8
80005c92:	fa e7 00 00 	st.d	sp[0],r6
80005c96:	51 09       	stdsp	sp[0x40],r9
80005c98:	14 97       	mov	r7,r10
80005c9a:	ca e8       	rjmp	80005df6 <_vfprintf_r+0x1516>
80005c9c:	ed b5 00 04 	bld	r5,0x4
80005ca0:	c1 71       	brne	80005cce <_vfprintf_r+0x13ee>
80005ca2:	fa f8 06 b4 	ld.w	r8,sp[1716]
80005ca6:	40 3e       	lddsp	lr,sp[0xc]
80005ca8:	58 0e       	cp.w	lr,0
80005caa:	c0 80       	breq	80005cba <_vfprintf_r+0x13da>
80005cac:	10 36       	cp.w	r6,r8
80005cae:	c6 94       	brge	80005d80 <_vfprintf_r+0x14a0>
80005cb0:	fa cc f9 44 	sub	r12,sp,-1724
80005cb4:	f8 06 00 36 	add	r6,r12,r6<<0x3
80005cb8:	c8 28       	rjmp	80005dbc <_vfprintf_r+0x14dc>
80005cba:	ee ca ff ff 	sub	r10,r7,-1
80005cbe:	10 37       	cp.w	r7,r8
80005cc0:	e0 84 00 81 	brge	80005dc2 <_vfprintf_r+0x14e2>
80005cc4:	fa cb f9 44 	sub	r11,sp,-1724
80005cc8:	f6 06 00 36 	add	r6,r11,r6<<0x3
80005ccc:	c7 78       	rjmp	80005dba <_vfprintf_r+0x14da>
80005cce:	ed b5 00 06 	bld	r5,0x6
80005cd2:	c4 b1       	brne	80005d68 <_vfprintf_r+0x1488>
80005cd4:	fa f8 06 b4 	ld.w	r8,sp[1716]
80005cd8:	40 3c       	lddsp	r12,sp[0xc]
80005cda:	58 0c       	cp.w	r12,0
80005cdc:	c1 d0       	breq	80005d16 <_vfprintf_r+0x1436>
80005cde:	10 36       	cp.w	r6,r8
80005ce0:	c0 64       	brge	80005cec <_vfprintf_r+0x140c>
80005ce2:	fa cb f9 44 	sub	r11,sp,-1724
80005ce6:	f6 06 00 36 	add	r6,r11,r6<<0x3
80005cea:	c1 f8       	rjmp	80005d28 <_vfprintf_r+0x1448>
80005cec:	fa c8 f9 50 	sub	r8,sp,-1712
80005cf0:	1a d8       	st.w	--sp,r8
80005cf2:	fa c8 fa b8 	sub	r8,sp,-1352
80005cf6:	1a d8       	st.w	--sp,r8
80005cf8:	fa c8 fb b4 	sub	r8,sp,-1100
80005cfc:	1a d8       	st.w	--sp,r8
80005cfe:	fa c8 f9 40 	sub	r8,sp,-1728
80005d02:	fa c9 ff b4 	sub	r9,sp,-76
80005d06:	04 9a       	mov	r10,r2
80005d08:	0c 9b       	mov	r11,r6
80005d0a:	08 9c       	mov	r12,r4
80005d0c:	fe b0 f4 52 	rcall	800045b0 <get_arg>
80005d10:	2f dd       	sub	sp,-12
80005d12:	98 18       	ld.sh	r8,r12[0x2]
80005d14:	c2 78       	rjmp	80005d62 <_vfprintf_r+0x1482>
80005d16:	ee ca ff ff 	sub	r10,r7,-1
80005d1a:	10 37       	cp.w	r7,r8
80005d1c:	c0 a4       	brge	80005d30 <_vfprintf_r+0x1450>
80005d1e:	fa c9 f9 44 	sub	r9,sp,-1724
80005d22:	14 97       	mov	r7,r10
80005d24:	f2 06 00 36 	add	r6,r9,r6<<0x3
80005d28:	ed 08 fd 8a 	ld.sh	r8,r6[-630]
80005d2c:	c1 b8       	rjmp	80005d62 <_vfprintf_r+0x1482>
80005d2e:	d7 03       	nop
80005d30:	41 09       	lddsp	r9,sp[0x40]
80005d32:	59 f8       	cp.w	r8,31
80005d34:	e0 89 00 13 	brgt	80005d5a <_vfprintf_r+0x147a>
80005d38:	f2 cb ff fc 	sub	r11,r9,-4
80005d3c:	51 0b       	stdsp	sp[0x40],r11
80005d3e:	72 09       	ld.w	r9,r9[0x0]
80005d40:	fa c6 f9 44 	sub	r6,sp,-1724
80005d44:	ec 08 00 3b 	add	r11,r6,r8<<0x3
80005d48:	2f f8       	sub	r8,-1
80005d4a:	f7 49 fd 88 	st.w	r11[-632],r9
80005d4e:	fb 48 06 b4 	st.w	sp[1716],r8
80005d52:	14 97       	mov	r7,r10
80005d54:	f1 d9 b0 10 	bfexts	r8,r9,0x0,0x10
80005d58:	c0 58       	rjmp	80005d62 <_vfprintf_r+0x1482>
80005d5a:	92 18       	ld.sh	r8,r9[0x2]
80005d5c:	14 97       	mov	r7,r10
80005d5e:	2f c9       	sub	r9,-4
80005d60:	51 09       	stdsp	sp[0x40],r9
80005d62:	5c 78       	castu.h	r8
80005d64:	50 18       	stdsp	sp[0x4],r8
80005d66:	c4 68       	rjmp	80005df2 <_vfprintf_r+0x1512>
80005d68:	fa f8 06 b4 	ld.w	r8,sp[1716]
80005d6c:	40 3c       	lddsp	r12,sp[0xc]
80005d6e:	58 0c       	cp.w	r12,0
80005d70:	c1 d0       	breq	80005daa <_vfprintf_r+0x14ca>
80005d72:	10 36       	cp.w	r6,r8
80005d74:	c0 64       	brge	80005d80 <_vfprintf_r+0x14a0>
80005d76:	fa cb f9 44 	sub	r11,sp,-1724
80005d7a:	f6 06 00 36 	add	r6,r11,r6<<0x3
80005d7e:	c1 f8       	rjmp	80005dbc <_vfprintf_r+0x14dc>
80005d80:	fa c8 f9 50 	sub	r8,sp,-1712
80005d84:	1a d8       	st.w	--sp,r8
80005d86:	fa c8 fa b8 	sub	r8,sp,-1352
80005d8a:	0c 9b       	mov	r11,r6
80005d8c:	1a d8       	st.w	--sp,r8
80005d8e:	fa c8 fb b4 	sub	r8,sp,-1100
80005d92:	04 9a       	mov	r10,r2
80005d94:	1a d8       	st.w	--sp,r8
80005d96:	08 9c       	mov	r12,r4
80005d98:	fa c8 f9 40 	sub	r8,sp,-1728
80005d9c:	fa c9 ff b4 	sub	r9,sp,-76
80005da0:	fe b0 f4 08 	rcall	800045b0 <get_arg>
80005da4:	2f dd       	sub	sp,-12
80005da6:	78 0b       	ld.w	r11,r12[0x0]
80005da8:	c2 48       	rjmp	80005df0 <_vfprintf_r+0x1510>
80005daa:	ee ca ff ff 	sub	r10,r7,-1
80005dae:	10 37       	cp.w	r7,r8
80005db0:	c0 94       	brge	80005dc2 <_vfprintf_r+0x14e2>
80005db2:	fa c9 f9 44 	sub	r9,sp,-1724
80005db6:	f2 06 00 36 	add	r6,r9,r6<<0x3
80005dba:	14 97       	mov	r7,r10
80005dbc:	ec fb fd 88 	ld.w	r11,r6[-632]
80005dc0:	c1 88       	rjmp	80005df0 <_vfprintf_r+0x1510>
80005dc2:	41 09       	lddsp	r9,sp[0x40]
80005dc4:	59 f8       	cp.w	r8,31
80005dc6:	e0 89 00 11 	brgt	80005de8 <_vfprintf_r+0x1508>
80005dca:	f2 cb ff fc 	sub	r11,r9,-4
80005dce:	51 0b       	stdsp	sp[0x40],r11
80005dd0:	fa c6 f9 44 	sub	r6,sp,-1724
80005dd4:	72 0b       	ld.w	r11,r9[0x0]
80005dd6:	ec 08 00 39 	add	r9,r6,r8<<0x3
80005dda:	f3 4b fd 88 	st.w	r9[-632],r11
80005dde:	2f f8       	sub	r8,-1
80005de0:	14 97       	mov	r7,r10
80005de2:	fb 48 06 b4 	st.w	sp[1716],r8
80005de6:	c0 58       	rjmp	80005df0 <_vfprintf_r+0x1510>
80005de8:	72 0b       	ld.w	r11,r9[0x0]
80005dea:	14 97       	mov	r7,r10
80005dec:	2f c9       	sub	r9,-4
80005dee:	51 09       	stdsp	sp[0x40],r9
80005df0:	50 1b       	stdsp	sp[0x4],r11
80005df2:	30 0e       	mov	lr,0
80005df4:	50 0e       	stdsp	sp[0x0],lr
80005df6:	40 08       	lddsp	r8,sp[0x0]
80005df8:	40 1c       	lddsp	r12,sp[0x4]
80005dfa:	18 48       	or	r8,r12
80005dfc:	5f 19       	srne	r9
80005dfe:	0a 98       	mov	r8,r5
80005e00:	eb e9 00 09 	and	r9,r5,r9
80005e04:	a1 b8       	sbr	r8,0x1
80005e06:	58 09       	cp.w	r9,0
80005e08:	c0 70       	breq	80005e16 <_vfprintf_r+0x1536>
80005e0a:	10 95       	mov	r5,r8
80005e0c:	fb 60 06 b9 	st.b	sp[1721],r0
80005e10:	33 08       	mov	r8,48
80005e12:	fb 68 06 b8 	st.b	sp[1720],r8
80005e16:	30 28       	mov	r8,2
80005e18:	30 09       	mov	r9,0
80005e1a:	fb 69 06 bb 	st.b	sp[1723],r9
80005e1e:	0a 99       	mov	r9,r5
80005e20:	a7 d9       	cbr	r9,0x7
80005e22:	40 2b       	lddsp	r11,sp[0x8]
80005e24:	40 16       	lddsp	r6,sp[0x4]
80005e26:	58 0b       	cp.w	r11,0
80005e28:	5f 1a       	srne	r10
80005e2a:	f2 05 17 40 	movge	r5,r9
80005e2e:	fa c2 f9 78 	sub	r2,sp,-1672
80005e32:	40 09       	lddsp	r9,sp[0x0]
80005e34:	0c 49       	or	r9,r6
80005e36:	5f 19       	srne	r9
80005e38:	f5 e9 10 09 	or	r9,r10,r9
80005e3c:	c5 c0       	breq	80005ef4 <_vfprintf_r+0x1614>
80005e3e:	30 19       	mov	r9,1
80005e40:	f2 08 18 00 	cp.b	r8,r9
80005e44:	c0 60       	breq	80005e50 <_vfprintf_r+0x1570>
80005e46:	30 29       	mov	r9,2
80005e48:	f2 08 18 00 	cp.b	r8,r9
80005e4c:	c0 41       	brne	80005e54 <_vfprintf_r+0x1574>
80005e4e:	c3 c8       	rjmp	80005ec6 <_vfprintf_r+0x15e6>
80005e50:	04 96       	mov	r6,r2
80005e52:	c3 08       	rjmp	80005eb2 <_vfprintf_r+0x15d2>
80005e54:	04 96       	mov	r6,r2
80005e56:	fa e8 00 00 	ld.d	r8,sp[0]
80005e5a:	f5 d8 c0 03 	bfextu	r10,r8,0x0,0x3
80005e5e:	2d 0a       	sub	r10,-48
80005e60:	0c fa       	st.b	--r6,r10
80005e62:	f0 0b 16 03 	lsr	r11,r8,0x3
80005e66:	f2 0c 16 03 	lsr	r12,r9,0x3
80005e6a:	f7 e9 11 db 	or	r11,r11,r9<<0x1d
80005e6e:	18 99       	mov	r9,r12
80005e70:	16 98       	mov	r8,r11
80005e72:	58 08       	cp.w	r8,0
80005e74:	5c 29       	cpc	r9
80005e76:	cf 21       	brne	80005e5a <_vfprintf_r+0x157a>
80005e78:	fa e9 00 00 	st.d	sp[0],r8
80005e7c:	ed b5 00 00 	bld	r5,0x0
80005e80:	c4 51       	brne	80005f0a <_vfprintf_r+0x162a>
80005e82:	33 09       	mov	r9,48
80005e84:	f2 0a 18 00 	cp.b	r10,r9
80005e88:	c4 10       	breq	80005f0a <_vfprintf_r+0x162a>
80005e8a:	0c f9       	st.b	--r6,r9
80005e8c:	c3 f8       	rjmp	80005f0a <_vfprintf_r+0x162a>
80005e8e:	fa ea 00 00 	ld.d	r10,sp[0]
80005e92:	30 a8       	mov	r8,10
80005e94:	30 09       	mov	r9,0
80005e96:	e0 a0 1c ff 	rcall	80009894 <__avr32_umod64>
80005e9a:	30 a8       	mov	r8,10
80005e9c:	2d 0a       	sub	r10,-48
80005e9e:	30 09       	mov	r9,0
80005ea0:	ac 8a       	st.b	r6[0x0],r10
80005ea2:	fa ea 00 00 	ld.d	r10,sp[0]
80005ea6:	fe b0 f1 8f 	rcall	800041c4 <__avr32_udiv64>
80005eaa:	16 99       	mov	r9,r11
80005eac:	14 98       	mov	r8,r10
80005eae:	fa e9 00 00 	st.d	sp[0],r8
80005eb2:	20 16       	sub	r6,1
80005eb4:	fa ea 00 00 	ld.d	r10,sp[0]
80005eb8:	58 9a       	cp.w	r10,9
80005eba:	5c 2b       	cpc	r11
80005ebc:	fe 9b ff e9 	brhi	80005e8e <_vfprintf_r+0x15ae>
80005ec0:	1b f8       	ld.ub	r8,sp[0x7]
80005ec2:	2d 08       	sub	r8,-48
80005ec4:	c2 08       	rjmp	80005f04 <_vfprintf_r+0x1624>
80005ec6:	04 96       	mov	r6,r2
80005ec8:	fa e8 00 00 	ld.d	r8,sp[0]
80005ecc:	f5 d8 c0 04 	bfextu	r10,r8,0x0,0x4
80005ed0:	40 de       	lddsp	lr,sp[0x34]
80005ed2:	fc 0a 07 0a 	ld.ub	r10,lr[r10]
80005ed6:	0c fa       	st.b	--r6,r10
80005ed8:	f2 0b 16 04 	lsr	r11,r9,0x4
80005edc:	f0 0a 16 04 	lsr	r10,r8,0x4
80005ee0:	f5 e9 11 ca 	or	r10,r10,r9<<0x1c
80005ee4:	16 99       	mov	r9,r11
80005ee6:	14 98       	mov	r8,r10
80005ee8:	58 08       	cp.w	r8,0
80005eea:	5c 29       	cpc	r9
80005eec:	cf 01       	brne	80005ecc <_vfprintf_r+0x15ec>
80005eee:	fa e9 00 00 	st.d	sp[0],r8
80005ef2:	c0 c8       	rjmp	80005f0a <_vfprintf_r+0x162a>
80005ef4:	58 08       	cp.w	r8,0
80005ef6:	c0 91       	brne	80005f08 <_vfprintf_r+0x1628>
80005ef8:	ed b5 00 00 	bld	r5,0x0
80005efc:	c0 61       	brne	80005f08 <_vfprintf_r+0x1628>
80005efe:	fa c6 f9 79 	sub	r6,sp,-1671
80005f02:	33 08       	mov	r8,48
80005f04:	ac 88       	st.b	r6[0x0],r8
80005f06:	c0 28       	rjmp	80005f0a <_vfprintf_r+0x162a>
80005f08:	04 96       	mov	r6,r2
80005f0a:	0c 12       	sub	r2,r6
80005f0c:	c1 c8       	rjmp	80005f44 <_vfprintf_r+0x1664>
80005f0e:	50 a7       	stdsp	sp[0x28],r7
80005f10:	50 80       	stdsp	sp[0x20],r0
80005f12:	40 93       	lddsp	r3,sp[0x24]
80005f14:	0c 97       	mov	r7,r6
80005f16:	10 90       	mov	r0,r8
80005f18:	04 94       	mov	r4,r2
80005f1a:	40 41       	lddsp	r1,sp[0x10]
80005f1c:	58 08       	cp.w	r8,0
80005f1e:	e0 80 04 4f 	breq	800067bc <_vfprintf_r+0x1edc>
80005f22:	fb 68 06 60 	st.b	sp[1632],r8
80005f26:	30 0c       	mov	r12,0
80005f28:	30 08       	mov	r8,0
80005f2a:	30 12       	mov	r2,1
80005f2c:	fb 68 06 bb 	st.b	sp[1723],r8
80005f30:	50 2c       	stdsp	sp[0x8],r12
80005f32:	fa c6 f9 a0 	sub	r6,sp,-1632
80005f36:	c0 78       	rjmp	80005f44 <_vfprintf_r+0x1664>
80005f38:	30 0b       	mov	r11,0
80005f3a:	50 2b       	stdsp	sp[0x8],r11
80005f3c:	c0 48       	rjmp	80005f44 <_vfprintf_r+0x1664>
80005f3e:	40 22       	lddsp	r2,sp[0x8]
80005f40:	30 0a       	mov	r10,0
80005f42:	50 2a       	stdsp	sp[0x8],r10
80005f44:	40 29       	lddsp	r9,sp[0x8]
80005f46:	e4 09 0c 49 	max	r9,r2,r9
80005f4a:	fb 38 06 bb 	ld.ub	r8,sp[1723]
80005f4e:	50 39       	stdsp	sp[0xc],r9
80005f50:	0a 9e       	mov	lr,r5
80005f52:	30 09       	mov	r9,0
80005f54:	e2 1e 00 02 	andl	lr,0x2,COH
80005f58:	f2 08 18 00 	cp.b	r8,r9
80005f5c:	fb f8 10 03 	ld.wne	r8,sp[0xc]
80005f60:	f7 b8 01 ff 	subne	r8,-1
80005f64:	fb f8 1a 03 	st.wne	sp[0xc],r8
80005f68:	0a 9b       	mov	r11,r5
80005f6a:	58 0e       	cp.w	lr,0
80005f6c:	fb fc 10 03 	ld.wne	r12,sp[0xc]
80005f70:	f7 bc 01 fe 	subne	r12,-2
80005f74:	fb fc 1a 03 	st.wne	sp[0xc],r12
80005f78:	e2 1b 00 84 	andl	r11,0x84,COH
80005f7c:	50 fe       	stdsp	sp[0x3c],lr
80005f7e:	50 9b       	stdsp	sp[0x24],r11
80005f80:	c4 71       	brne	8000600e <_vfprintf_r+0x172e>
80005f82:	40 8a       	lddsp	r10,sp[0x20]
80005f84:	40 39       	lddsp	r9,sp[0xc]
80005f86:	12 1a       	sub	r10,r9
80005f88:	50 4a       	stdsp	sp[0x10],r10
80005f8a:	58 0a       	cp.w	r10,0
80005f8c:	e0 89 00 20 	brgt	80005fcc <_vfprintf_r+0x16ec>
80005f90:	c3 f8       	rjmp	8000600e <_vfprintf_r+0x172e>
80005f92:	2f 09       	sub	r9,-16
80005f94:	2f f8       	sub	r8,-1
80005f96:	fe ce bd 8a 	sub	lr,pc,-17014
80005f9a:	31 0c       	mov	r12,16
80005f9c:	fb 49 06 90 	st.w	sp[1680],r9
80005fa0:	87 0e       	st.w	r3[0x0],lr
80005fa2:	87 1c       	st.w	r3[0x4],r12
80005fa4:	fb 48 06 8c 	st.w	sp[1676],r8
80005fa8:	58 78       	cp.w	r8,7
80005faa:	e0 89 00 04 	brgt	80005fb2 <_vfprintf_r+0x16d2>
80005fae:	2f 83       	sub	r3,-8
80005fb0:	c0 b8       	rjmp	80005fc6 <_vfprintf_r+0x16e6>
80005fb2:	fa ca f9 78 	sub	r10,sp,-1672
80005fb6:	02 9b       	mov	r11,r1
80005fb8:	08 9c       	mov	r12,r4
80005fba:	fe b0 f4 85 	rcall	800048c4 <__sprint_r>
80005fbe:	e0 81 04 10 	brne	800067de <_vfprintf_r+0x1efe>
80005fc2:	fa c3 f9 e0 	sub	r3,sp,-1568
80005fc6:	40 4b       	lddsp	r11,sp[0x10]
80005fc8:	21 0b       	sub	r11,16
80005fca:	50 4b       	stdsp	sp[0x10],r11
80005fcc:	fa f9 06 90 	ld.w	r9,sp[1680]
80005fd0:	fa f8 06 8c 	ld.w	r8,sp[1676]
80005fd4:	fe ca bd c8 	sub	r10,pc,-16952
80005fd8:	40 4e       	lddsp	lr,sp[0x10]
80005fda:	59 0e       	cp.w	lr,16
80005fdc:	fe 99 ff db 	brgt	80005f92 <_vfprintf_r+0x16b2>
80005fe0:	1c 09       	add	r9,lr
80005fe2:	2f f8       	sub	r8,-1
80005fe4:	87 0a       	st.w	r3[0x0],r10
80005fe6:	fb 49 06 90 	st.w	sp[1680],r9
80005fea:	87 1e       	st.w	r3[0x4],lr
80005fec:	fb 48 06 8c 	st.w	sp[1676],r8
80005ff0:	58 78       	cp.w	r8,7
80005ff2:	e0 89 00 04 	brgt	80005ffa <_vfprintf_r+0x171a>
80005ff6:	2f 83       	sub	r3,-8
80005ff8:	c0 b8       	rjmp	8000600e <_vfprintf_r+0x172e>
80005ffa:	fa ca f9 78 	sub	r10,sp,-1672
80005ffe:	02 9b       	mov	r11,r1
80006000:	08 9c       	mov	r12,r4
80006002:	fe b0 f4 61 	rcall	800048c4 <__sprint_r>
80006006:	e0 81 03 ec 	brne	800067de <_vfprintf_r+0x1efe>
8000600a:	fa c3 f9 e0 	sub	r3,sp,-1568
8000600e:	30 09       	mov	r9,0
80006010:	fb 38 06 bb 	ld.ub	r8,sp[1723]
80006014:	f2 08 18 00 	cp.b	r8,r9
80006018:	c1 f0       	breq	80006056 <_vfprintf_r+0x1776>
8000601a:	fa f8 06 90 	ld.w	r8,sp[1680]
8000601e:	fa c9 f9 45 	sub	r9,sp,-1723
80006022:	2f f8       	sub	r8,-1
80006024:	87 09       	st.w	r3[0x0],r9
80006026:	fb 48 06 90 	st.w	sp[1680],r8
8000602a:	30 19       	mov	r9,1
8000602c:	fa f8 06 8c 	ld.w	r8,sp[1676]
80006030:	87 19       	st.w	r3[0x4],r9
80006032:	2f f8       	sub	r8,-1
80006034:	fb 48 06 8c 	st.w	sp[1676],r8
80006038:	58 78       	cp.w	r8,7
8000603a:	e0 89 00 04 	brgt	80006042 <_vfprintf_r+0x1762>
8000603e:	2f 83       	sub	r3,-8
80006040:	c0 b8       	rjmp	80006056 <_vfprintf_r+0x1776>
80006042:	fa ca f9 78 	sub	r10,sp,-1672
80006046:	02 9b       	mov	r11,r1
80006048:	08 9c       	mov	r12,r4
8000604a:	fe b0 f4 3d 	rcall	800048c4 <__sprint_r>
8000604e:	e0 81 03 c8 	brne	800067de <_vfprintf_r+0x1efe>
80006052:	fa c3 f9 e0 	sub	r3,sp,-1568
80006056:	40 fc       	lddsp	r12,sp[0x3c]
80006058:	58 0c       	cp.w	r12,0
8000605a:	c1 f0       	breq	80006098 <_vfprintf_r+0x17b8>
8000605c:	fa f8 06 90 	ld.w	r8,sp[1680]
80006060:	fa c9 f9 48 	sub	r9,sp,-1720
80006064:	2f e8       	sub	r8,-2
80006066:	87 09       	st.w	r3[0x0],r9
80006068:	fb 48 06 90 	st.w	sp[1680],r8
8000606c:	30 29       	mov	r9,2
8000606e:	fa f8 06 8c 	ld.w	r8,sp[1676]
80006072:	87 19       	st.w	r3[0x4],r9
80006074:	2f f8       	sub	r8,-1
80006076:	fb 48 06 8c 	st.w	sp[1676],r8
8000607a:	58 78       	cp.w	r8,7
8000607c:	e0 89 00 04 	brgt	80006084 <_vfprintf_r+0x17a4>
80006080:	2f 83       	sub	r3,-8
80006082:	c0 b8       	rjmp	80006098 <_vfprintf_r+0x17b8>
80006084:	fa ca f9 78 	sub	r10,sp,-1672
80006088:	02 9b       	mov	r11,r1
8000608a:	08 9c       	mov	r12,r4
8000608c:	fe b0 f4 1c 	rcall	800048c4 <__sprint_r>
80006090:	e0 81 03 a7 	brne	800067de <_vfprintf_r+0x1efe>
80006094:	fa c3 f9 e0 	sub	r3,sp,-1568
80006098:	40 9b       	lddsp	r11,sp[0x24]
8000609a:	e0 4b 00 80 	cp.w	r11,128
8000609e:	c4 71       	brne	8000612c <_vfprintf_r+0x184c>
800060a0:	40 8a       	lddsp	r10,sp[0x20]
800060a2:	40 39       	lddsp	r9,sp[0xc]
800060a4:	12 1a       	sub	r10,r9
800060a6:	50 4a       	stdsp	sp[0x10],r10
800060a8:	58 0a       	cp.w	r10,0
800060aa:	e0 89 00 20 	brgt	800060ea <_vfprintf_r+0x180a>
800060ae:	c3 f8       	rjmp	8000612c <_vfprintf_r+0x184c>
800060b0:	2f 09       	sub	r9,-16
800060b2:	2f f8       	sub	r8,-1
800060b4:	fe ce be 98 	sub	lr,pc,-16744
800060b8:	31 0c       	mov	r12,16
800060ba:	fb 49 06 90 	st.w	sp[1680],r9
800060be:	87 0e       	st.w	r3[0x0],lr
800060c0:	87 1c       	st.w	r3[0x4],r12
800060c2:	fb 48 06 8c 	st.w	sp[1676],r8
800060c6:	58 78       	cp.w	r8,7
800060c8:	e0 89 00 04 	brgt	800060d0 <_vfprintf_r+0x17f0>
800060cc:	2f 83       	sub	r3,-8
800060ce:	c0 b8       	rjmp	800060e4 <_vfprintf_r+0x1804>
800060d0:	fa ca f9 78 	sub	r10,sp,-1672
800060d4:	02 9b       	mov	r11,r1
800060d6:	08 9c       	mov	r12,r4
800060d8:	fe b0 f3 f6 	rcall	800048c4 <__sprint_r>
800060dc:	e0 81 03 81 	brne	800067de <_vfprintf_r+0x1efe>
800060e0:	fa c3 f9 e0 	sub	r3,sp,-1568
800060e4:	40 4b       	lddsp	r11,sp[0x10]
800060e6:	21 0b       	sub	r11,16
800060e8:	50 4b       	stdsp	sp[0x10],r11
800060ea:	fa f9 06 90 	ld.w	r9,sp[1680]
800060ee:	fa f8 06 8c 	ld.w	r8,sp[1676]
800060f2:	fe ca be d6 	sub	r10,pc,-16682
800060f6:	40 4e       	lddsp	lr,sp[0x10]
800060f8:	59 0e       	cp.w	lr,16
800060fa:	fe 99 ff db 	brgt	800060b0 <_vfprintf_r+0x17d0>
800060fe:	1c 09       	add	r9,lr
80006100:	2f f8       	sub	r8,-1
80006102:	87 0a       	st.w	r3[0x0],r10
80006104:	fb 49 06 90 	st.w	sp[1680],r9
80006108:	87 1e       	st.w	r3[0x4],lr
8000610a:	fb 48 06 8c 	st.w	sp[1676],r8
8000610e:	58 78       	cp.w	r8,7
80006110:	e0 89 00 04 	brgt	80006118 <_vfprintf_r+0x1838>
80006114:	2f 83       	sub	r3,-8
80006116:	c0 b8       	rjmp	8000612c <_vfprintf_r+0x184c>
80006118:	fa ca f9 78 	sub	r10,sp,-1672
8000611c:	02 9b       	mov	r11,r1
8000611e:	08 9c       	mov	r12,r4
80006120:	fe b0 f3 d2 	rcall	800048c4 <__sprint_r>
80006124:	e0 81 03 5d 	brne	800067de <_vfprintf_r+0x1efe>
80006128:	fa c3 f9 e0 	sub	r3,sp,-1568
8000612c:	40 2c       	lddsp	r12,sp[0x8]
8000612e:	04 1c       	sub	r12,r2
80006130:	50 2c       	stdsp	sp[0x8],r12
80006132:	58 0c       	cp.w	r12,0
80006134:	e0 89 00 20 	brgt	80006174 <_vfprintf_r+0x1894>
80006138:	c3 f8       	rjmp	800061b6 <_vfprintf_r+0x18d6>
8000613a:	2f 09       	sub	r9,-16
8000613c:	2f f8       	sub	r8,-1
8000613e:	fe cb bf 22 	sub	r11,pc,-16606
80006142:	31 0a       	mov	r10,16
80006144:	fb 49 06 90 	st.w	sp[1680],r9
80006148:	87 0b       	st.w	r3[0x0],r11
8000614a:	87 1a       	st.w	r3[0x4],r10
8000614c:	fb 48 06 8c 	st.w	sp[1676],r8
80006150:	58 78       	cp.w	r8,7
80006152:	e0 89 00 04 	brgt	8000615a <_vfprintf_r+0x187a>
80006156:	2f 83       	sub	r3,-8
80006158:	c0 b8       	rjmp	8000616e <_vfprintf_r+0x188e>
8000615a:	fa ca f9 78 	sub	r10,sp,-1672
8000615e:	02 9b       	mov	r11,r1
80006160:	08 9c       	mov	r12,r4
80006162:	fe b0 f3 b1 	rcall	800048c4 <__sprint_r>
80006166:	e0 81 03 3c 	brne	800067de <_vfprintf_r+0x1efe>
8000616a:	fa c3 f9 e0 	sub	r3,sp,-1568
8000616e:	40 29       	lddsp	r9,sp[0x8]
80006170:	21 09       	sub	r9,16
80006172:	50 29       	stdsp	sp[0x8],r9
80006174:	fa f9 06 90 	ld.w	r9,sp[1680]
80006178:	fa f8 06 8c 	ld.w	r8,sp[1676]
8000617c:	fe ca bf 60 	sub	r10,pc,-16544
80006180:	40 2e       	lddsp	lr,sp[0x8]
80006182:	59 0e       	cp.w	lr,16
80006184:	fe 99 ff db 	brgt	8000613a <_vfprintf_r+0x185a>
80006188:	1c 09       	add	r9,lr
8000618a:	2f f8       	sub	r8,-1
8000618c:	87 0a       	st.w	r3[0x0],r10
8000618e:	fb 49 06 90 	st.w	sp[1680],r9
80006192:	87 1e       	st.w	r3[0x4],lr
80006194:	fb 48 06 8c 	st.w	sp[1676],r8
80006198:	58 78       	cp.w	r8,7
8000619a:	e0 89 00 04 	brgt	800061a2 <_vfprintf_r+0x18c2>
8000619e:	2f 83       	sub	r3,-8
800061a0:	c0 b8       	rjmp	800061b6 <_vfprintf_r+0x18d6>
800061a2:	fa ca f9 78 	sub	r10,sp,-1672
800061a6:	02 9b       	mov	r11,r1
800061a8:	08 9c       	mov	r12,r4
800061aa:	fe b0 f3 8d 	rcall	800048c4 <__sprint_r>
800061ae:	e0 81 03 18 	brne	800067de <_vfprintf_r+0x1efe>
800061b2:	fa c3 f9 e0 	sub	r3,sp,-1568
800061b6:	ed b5 00 08 	bld	r5,0x8
800061ba:	c0 b0       	breq	800061d0 <_vfprintf_r+0x18f0>
800061bc:	fa f8 06 90 	ld.w	r8,sp[1680]
800061c0:	87 12       	st.w	r3[0x4],r2
800061c2:	87 06       	st.w	r3[0x0],r6
800061c4:	f0 02 00 02 	add	r2,r8,r2
800061c8:	fb 42 06 90 	st.w	sp[1680],r2
800061cc:	e0 8f 01 d4 	bral	80006574 <_vfprintf_r+0x1c94>
800061d0:	e0 40 00 65 	cp.w	r0,101
800061d4:	e0 8a 01 d6 	brle	80006580 <_vfprintf_r+0x1ca0>
800061d8:	30 08       	mov	r8,0
800061da:	30 09       	mov	r9,0
800061dc:	40 5b       	lddsp	r11,sp[0x14]
800061de:	40 7a       	lddsp	r10,sp[0x1c]
800061e0:	e0 a0 19 53 	rcall	80009486 <__avr32_f64_cmp_eq>
800061e4:	c7 90       	breq	800062d6 <_vfprintf_r+0x19f6>
800061e6:	fa f8 06 90 	ld.w	r8,sp[1680]
800061ea:	fe c9 bf e2 	sub	r9,pc,-16414
800061ee:	2f f8       	sub	r8,-1
800061f0:	87 09       	st.w	r3[0x0],r9
800061f2:	fb 48 06 90 	st.w	sp[1680],r8
800061f6:	30 19       	mov	r9,1
800061f8:	fa f8 06 8c 	ld.w	r8,sp[1676]
800061fc:	87 19       	st.w	r3[0x4],r9
800061fe:	2f f8       	sub	r8,-1
80006200:	fb 48 06 8c 	st.w	sp[1676],r8
80006204:	58 78       	cp.w	r8,7
80006206:	e0 89 00 05 	brgt	80006210 <_vfprintf_r+0x1930>
8000620a:	2f 83       	sub	r3,-8
8000620c:	c0 c8       	rjmp	80006224 <_vfprintf_r+0x1944>
8000620e:	d7 03       	nop
80006210:	fa ca f9 78 	sub	r10,sp,-1672
80006214:	02 9b       	mov	r11,r1
80006216:	08 9c       	mov	r12,r4
80006218:	fe b0 f3 56 	rcall	800048c4 <__sprint_r>
8000621c:	e0 81 02 e1 	brne	800067de <_vfprintf_r+0x1efe>
80006220:	fa c3 f9 e0 	sub	r3,sp,-1568
80006224:	fa f8 06 ac 	ld.w	r8,sp[1708]
80006228:	40 6c       	lddsp	r12,sp[0x18]
8000622a:	18 38       	cp.w	r8,r12
8000622c:	c0 55       	brlt	80006236 <_vfprintf_r+0x1956>
8000622e:	ed b5 00 00 	bld	r5,0x0
80006232:	e0 81 02 6b 	brne	80006708 <_vfprintf_r+0x1e28>
80006236:	fa f8 06 90 	ld.w	r8,sp[1680]
8000623a:	2f f8       	sub	r8,-1
8000623c:	40 cb       	lddsp	r11,sp[0x30]
8000623e:	fb 48 06 90 	st.w	sp[1680],r8
80006242:	30 19       	mov	r9,1
80006244:	fa f8 06 8c 	ld.w	r8,sp[1676]
80006248:	87 0b       	st.w	r3[0x0],r11
8000624a:	2f f8       	sub	r8,-1
8000624c:	87 19       	st.w	r3[0x4],r9
8000624e:	fb 48 06 8c 	st.w	sp[1676],r8
80006252:	58 78       	cp.w	r8,7
80006254:	e0 89 00 04 	brgt	8000625c <_vfprintf_r+0x197c>
80006258:	2f 83       	sub	r3,-8
8000625a:	c0 b8       	rjmp	80006270 <_vfprintf_r+0x1990>
8000625c:	fa ca f9 78 	sub	r10,sp,-1672
80006260:	02 9b       	mov	r11,r1
80006262:	08 9c       	mov	r12,r4
80006264:	fe b0 f3 30 	rcall	800048c4 <__sprint_r>
80006268:	e0 81 02 bb 	brne	800067de <_vfprintf_r+0x1efe>
8000626c:	fa c3 f9 e0 	sub	r3,sp,-1568
80006270:	40 66       	lddsp	r6,sp[0x18]
80006272:	20 16       	sub	r6,1
80006274:	58 06       	cp.w	r6,0
80006276:	e0 89 00 1d 	brgt	800062b0 <_vfprintf_r+0x19d0>
8000627a:	e0 8f 02 47 	bral	80006708 <_vfprintf_r+0x1e28>
8000627e:	2f 09       	sub	r9,-16
80006280:	2f f8       	sub	r8,-1
80006282:	fb 49 06 90 	st.w	sp[1680],r9
80006286:	87 02       	st.w	r3[0x0],r2
80006288:	87 10       	st.w	r3[0x4],r0
8000628a:	fb 48 06 8c 	st.w	sp[1676],r8
8000628e:	58 78       	cp.w	r8,7
80006290:	e0 89 00 04 	brgt	80006298 <_vfprintf_r+0x19b8>
80006294:	2f 83       	sub	r3,-8
80006296:	c0 b8       	rjmp	800062ac <_vfprintf_r+0x19cc>
80006298:	fa ca f9 78 	sub	r10,sp,-1672
8000629c:	02 9b       	mov	r11,r1
8000629e:	08 9c       	mov	r12,r4
800062a0:	fe b0 f3 12 	rcall	800048c4 <__sprint_r>
800062a4:	e0 81 02 9d 	brne	800067de <_vfprintf_r+0x1efe>
800062a8:	fa c3 f9 e0 	sub	r3,sp,-1568
800062ac:	21 06       	sub	r6,16
800062ae:	c0 48       	rjmp	800062b6 <_vfprintf_r+0x19d6>
800062b0:	fe c2 c0 94 	sub	r2,pc,-16236
800062b4:	31 00       	mov	r0,16
800062b6:	fa f9 06 90 	ld.w	r9,sp[1680]
800062ba:	fa f8 06 8c 	ld.w	r8,sp[1676]
800062be:	fe ca c0 a2 	sub	r10,pc,-16222
800062c2:	59 06       	cp.w	r6,16
800062c4:	fe 99 ff dd 	brgt	8000627e <_vfprintf_r+0x199e>
800062c8:	0c 09       	add	r9,r6
800062ca:	87 0a       	st.w	r3[0x0],r10
800062cc:	fb 49 06 90 	st.w	sp[1680],r9
800062d0:	2f f8       	sub	r8,-1
800062d2:	87 16       	st.w	r3[0x4],r6
800062d4:	c5 39       	rjmp	8000657a <_vfprintf_r+0x1c9a>
800062d6:	fa fa 06 ac 	ld.w	r10,sp[1708]
800062da:	58 0a       	cp.w	r10,0
800062dc:	e0 89 00 92 	brgt	80006400 <_vfprintf_r+0x1b20>
800062e0:	fa f8 06 90 	ld.w	r8,sp[1680]
800062e4:	fe c9 c0 dc 	sub	r9,pc,-16164
800062e8:	2f f8       	sub	r8,-1
800062ea:	87 09       	st.w	r3[0x0],r9
800062ec:	fb 48 06 90 	st.w	sp[1680],r8
800062f0:	30 19       	mov	r9,1
800062f2:	fa f8 06 8c 	ld.w	r8,sp[1676]
800062f6:	87 19       	st.w	r3[0x4],r9
800062f8:	2f f8       	sub	r8,-1
800062fa:	fb 48 06 8c 	st.w	sp[1676],r8
800062fe:	58 78       	cp.w	r8,7
80006300:	e0 89 00 04 	brgt	80006308 <_vfprintf_r+0x1a28>
80006304:	2f 83       	sub	r3,-8
80006306:	c0 b8       	rjmp	8000631c <_vfprintf_r+0x1a3c>
80006308:	fa ca f9 78 	sub	r10,sp,-1672
8000630c:	02 9b       	mov	r11,r1
8000630e:	08 9c       	mov	r12,r4
80006310:	fe b0 f2 da 	rcall	800048c4 <__sprint_r>
80006314:	e0 81 02 65 	brne	800067de <_vfprintf_r+0x1efe>
80006318:	fa c3 f9 e0 	sub	r3,sp,-1568
8000631c:	fa f8 06 ac 	ld.w	r8,sp[1708]
80006320:	58 08       	cp.w	r8,0
80006322:	c0 81       	brne	80006332 <_vfprintf_r+0x1a52>
80006324:	40 6a       	lddsp	r10,sp[0x18]
80006326:	58 0a       	cp.w	r10,0
80006328:	c0 51       	brne	80006332 <_vfprintf_r+0x1a52>
8000632a:	ed b5 00 00 	bld	r5,0x0
8000632e:	e0 81 01 ed 	brne	80006708 <_vfprintf_r+0x1e28>
80006332:	40 c9       	lddsp	r9,sp[0x30]
80006334:	fa f8 06 90 	ld.w	r8,sp[1680]
80006338:	2f f8       	sub	r8,-1
8000633a:	87 09       	st.w	r3[0x0],r9
8000633c:	fb 48 06 90 	st.w	sp[1680],r8
80006340:	30 19       	mov	r9,1
80006342:	fa f8 06 8c 	ld.w	r8,sp[1676]
80006346:	87 19       	st.w	r3[0x4],r9
80006348:	2f f8       	sub	r8,-1
8000634a:	fb 48 06 8c 	st.w	sp[1676],r8
8000634e:	58 78       	cp.w	r8,7
80006350:	e0 89 00 04 	brgt	80006358 <_vfprintf_r+0x1a78>
80006354:	2f 83       	sub	r3,-8
80006356:	c0 b8       	rjmp	8000636c <_vfprintf_r+0x1a8c>
80006358:	fa ca f9 78 	sub	r10,sp,-1672
8000635c:	02 9b       	mov	r11,r1
8000635e:	08 9c       	mov	r12,r4
80006360:	fe b0 f2 b2 	rcall	800048c4 <__sprint_r>
80006364:	e0 81 02 3d 	brne	800067de <_vfprintf_r+0x1efe>
80006368:	fa c3 f9 e0 	sub	r3,sp,-1568
8000636c:	fa f2 06 ac 	ld.w	r2,sp[1708]
80006370:	5c 32       	neg	r2
80006372:	58 02       	cp.w	r2,0
80006374:	e0 89 00 1d 	brgt	800063ae <_vfprintf_r+0x1ace>
80006378:	c3 d8       	rjmp	800063f2 <_vfprintf_r+0x1b12>
8000637a:	2f 09       	sub	r9,-16
8000637c:	2f f8       	sub	r8,-1
8000637e:	31 0e       	mov	lr,16
80006380:	fb 49 06 90 	st.w	sp[1680],r9
80006384:	87 00       	st.w	r3[0x0],r0
80006386:	87 1e       	st.w	r3[0x4],lr
80006388:	fb 48 06 8c 	st.w	sp[1676],r8
8000638c:	58 78       	cp.w	r8,7
8000638e:	e0 89 00 04 	brgt	80006396 <_vfprintf_r+0x1ab6>
80006392:	2f 83       	sub	r3,-8
80006394:	c0 b8       	rjmp	800063aa <_vfprintf_r+0x1aca>
80006396:	fa ca f9 78 	sub	r10,sp,-1672
8000639a:	02 9b       	mov	r11,r1
8000639c:	08 9c       	mov	r12,r4
8000639e:	fe b0 f2 93 	rcall	800048c4 <__sprint_r>
800063a2:	e0 81 02 1e 	brne	800067de <_vfprintf_r+0x1efe>
800063a6:	fa c3 f9 e0 	sub	r3,sp,-1568
800063aa:	21 02       	sub	r2,16
800063ac:	c0 38       	rjmp	800063b2 <_vfprintf_r+0x1ad2>
800063ae:	fe c0 c1 92 	sub	r0,pc,-15982
800063b2:	fa f9 06 90 	ld.w	r9,sp[1680]
800063b6:	fa f8 06 8c 	ld.w	r8,sp[1676]
800063ba:	fe ca c1 9e 	sub	r10,pc,-15970
800063be:	59 02       	cp.w	r2,16
800063c0:	fe 99 ff dd 	brgt	8000637a <_vfprintf_r+0x1a9a>
800063c4:	04 09       	add	r9,r2
800063c6:	2f f8       	sub	r8,-1
800063c8:	87 0a       	st.w	r3[0x0],r10
800063ca:	fb 49 06 90 	st.w	sp[1680],r9
800063ce:	87 12       	st.w	r3[0x4],r2
800063d0:	fb 48 06 8c 	st.w	sp[1676],r8
800063d4:	58 78       	cp.w	r8,7
800063d6:	e0 89 00 04 	brgt	800063de <_vfprintf_r+0x1afe>
800063da:	2f 83       	sub	r3,-8
800063dc:	c0 b8       	rjmp	800063f2 <_vfprintf_r+0x1b12>
800063de:	fa ca f9 78 	sub	r10,sp,-1672
800063e2:	02 9b       	mov	r11,r1
800063e4:	08 9c       	mov	r12,r4
800063e6:	fe b0 f2 6f 	rcall	800048c4 <__sprint_r>
800063ea:	e0 81 01 fa 	brne	800067de <_vfprintf_r+0x1efe>
800063ee:	fa c3 f9 e0 	sub	r3,sp,-1568
800063f2:	40 6c       	lddsp	r12,sp[0x18]
800063f4:	fa f8 06 90 	ld.w	r8,sp[1680]
800063f8:	87 06       	st.w	r3[0x0],r6
800063fa:	87 1c       	st.w	r3[0x4],r12
800063fc:	18 08       	add	r8,r12
800063fe:	cb 98       	rjmp	80006570 <_vfprintf_r+0x1c90>
80006400:	fa f9 06 90 	ld.w	r9,sp[1680]
80006404:	fa f8 06 8c 	ld.w	r8,sp[1676]
80006408:	40 6b       	lddsp	r11,sp[0x18]
8000640a:	16 3a       	cp.w	r10,r11
8000640c:	c6 f5       	brlt	800064ea <_vfprintf_r+0x1c0a>
8000640e:	16 09       	add	r9,r11
80006410:	2f f8       	sub	r8,-1
80006412:	87 06       	st.w	r3[0x0],r6
80006414:	fb 49 06 90 	st.w	sp[1680],r9
80006418:	87 1b       	st.w	r3[0x4],r11
8000641a:	fb 48 06 8c 	st.w	sp[1676],r8
8000641e:	58 78       	cp.w	r8,7
80006420:	e0 89 00 04 	brgt	80006428 <_vfprintf_r+0x1b48>
80006424:	2f 83       	sub	r3,-8
80006426:	c0 b8       	rjmp	8000643c <_vfprintf_r+0x1b5c>
80006428:	fa ca f9 78 	sub	r10,sp,-1672
8000642c:	02 9b       	mov	r11,r1
8000642e:	08 9c       	mov	r12,r4
80006430:	fe b0 f2 4a 	rcall	800048c4 <__sprint_r>
80006434:	e0 81 01 d5 	brne	800067de <_vfprintf_r+0x1efe>
80006438:	fa c3 f9 e0 	sub	r3,sp,-1568
8000643c:	fa f6 06 ac 	ld.w	r6,sp[1708]
80006440:	40 6a       	lddsp	r10,sp[0x18]
80006442:	14 16       	sub	r6,r10
80006444:	58 06       	cp.w	r6,0
80006446:	e0 89 00 1c 	brgt	8000647e <_vfprintf_r+0x1b9e>
8000644a:	c3 d8       	rjmp	800064c4 <_vfprintf_r+0x1be4>
8000644c:	2f 09       	sub	r9,-16
8000644e:	2f f8       	sub	r8,-1
80006450:	fb 49 06 90 	st.w	sp[1680],r9
80006454:	87 02       	st.w	r3[0x0],r2
80006456:	87 10       	st.w	r3[0x4],r0
80006458:	fb 48 06 8c 	st.w	sp[1676],r8
8000645c:	58 78       	cp.w	r8,7
8000645e:	e0 89 00 04 	brgt	80006466 <_vfprintf_r+0x1b86>
80006462:	2f 83       	sub	r3,-8
80006464:	c0 b8       	rjmp	8000647a <_vfprintf_r+0x1b9a>
80006466:	fa ca f9 78 	sub	r10,sp,-1672
8000646a:	02 9b       	mov	r11,r1
8000646c:	08 9c       	mov	r12,r4
8000646e:	fe b0 f2 2b 	rcall	800048c4 <__sprint_r>
80006472:	e0 81 01 b6 	brne	800067de <_vfprintf_r+0x1efe>
80006476:	fa c3 f9 e0 	sub	r3,sp,-1568
8000647a:	21 06       	sub	r6,16
8000647c:	c0 48       	rjmp	80006484 <_vfprintf_r+0x1ba4>
8000647e:	fe c2 c2 62 	sub	r2,pc,-15774
80006482:	31 00       	mov	r0,16
80006484:	fa f9 06 90 	ld.w	r9,sp[1680]
80006488:	fa f8 06 8c 	ld.w	r8,sp[1676]
8000648c:	fe ca c2 70 	sub	r10,pc,-15760
80006490:	59 06       	cp.w	r6,16
80006492:	fe 99 ff dd 	brgt	8000644c <_vfprintf_r+0x1b6c>
80006496:	0c 09       	add	r9,r6
80006498:	2f f8       	sub	r8,-1
8000649a:	87 0a       	st.w	r3[0x0],r10
8000649c:	fb 49 06 90 	st.w	sp[1680],r9
800064a0:	87 16       	st.w	r3[0x4],r6
800064a2:	fb 48 06 8c 	st.w	sp[1676],r8
800064a6:	58 78       	cp.w	r8,7
800064a8:	e0 89 00 04 	brgt	800064b0 <_vfprintf_r+0x1bd0>
800064ac:	2f 83       	sub	r3,-8
800064ae:	c0 b8       	rjmp	800064c4 <_vfprintf_r+0x1be4>
800064b0:	fa ca f9 78 	sub	r10,sp,-1672
800064b4:	02 9b       	mov	r11,r1
800064b6:	08 9c       	mov	r12,r4
800064b8:	fe b0 f2 06 	rcall	800048c4 <__sprint_r>
800064bc:	e0 81 01 91 	brne	800067de <_vfprintf_r+0x1efe>
800064c0:	fa c3 f9 e0 	sub	r3,sp,-1568
800064c4:	ed b5 00 00 	bld	r5,0x0
800064c8:	e0 81 01 20 	brne	80006708 <_vfprintf_r+0x1e28>
800064cc:	40 c9       	lddsp	r9,sp[0x30]
800064ce:	fa f8 06 90 	ld.w	r8,sp[1680]
800064d2:	2f f8       	sub	r8,-1
800064d4:	87 09       	st.w	r3[0x0],r9
800064d6:	fb 48 06 90 	st.w	sp[1680],r8
800064da:	30 19       	mov	r9,1
800064dc:	fa f8 06 8c 	ld.w	r8,sp[1676]
800064e0:	87 19       	st.w	r3[0x4],r9
800064e2:	2f f8       	sub	r8,-1
800064e4:	fb 48 06 8c 	st.w	sp[1676],r8
800064e8:	c0 29       	rjmp	800066ec <_vfprintf_r+0x1e0c>
800064ea:	14 09       	add	r9,r10
800064ec:	2f f8       	sub	r8,-1
800064ee:	fb 49 06 90 	st.w	sp[1680],r9
800064f2:	87 06       	st.w	r3[0x0],r6
800064f4:	87 1a       	st.w	r3[0x4],r10
800064f6:	fb 48 06 8c 	st.w	sp[1676],r8
800064fa:	58 78       	cp.w	r8,7
800064fc:	e0 89 00 04 	brgt	80006504 <_vfprintf_r+0x1c24>
80006500:	2f 83       	sub	r3,-8
80006502:	c0 b8       	rjmp	80006518 <_vfprintf_r+0x1c38>
80006504:	fa ca f9 78 	sub	r10,sp,-1672
80006508:	02 9b       	mov	r11,r1
8000650a:	08 9c       	mov	r12,r4
8000650c:	fe b0 f1 dc 	rcall	800048c4 <__sprint_r>
80006510:	e0 81 01 67 	brne	800067de <_vfprintf_r+0x1efe>
80006514:	fa c3 f9 e0 	sub	r3,sp,-1568
80006518:	40 c8       	lddsp	r8,sp[0x30]
8000651a:	87 08       	st.w	r3[0x0],r8
8000651c:	fa f8 06 90 	ld.w	r8,sp[1680]
80006520:	2f f8       	sub	r8,-1
80006522:	30 19       	mov	r9,1
80006524:	fb 48 06 90 	st.w	sp[1680],r8
80006528:	87 19       	st.w	r3[0x4],r9
8000652a:	fa f8 06 8c 	ld.w	r8,sp[1676]
8000652e:	2f f8       	sub	r8,-1
80006530:	fb 48 06 8c 	st.w	sp[1676],r8
80006534:	fa f2 06 ac 	ld.w	r2,sp[1708]
80006538:	58 78       	cp.w	r8,7
8000653a:	e0 89 00 04 	brgt	80006542 <_vfprintf_r+0x1c62>
8000653e:	2f 83       	sub	r3,-8
80006540:	c0 b8       	rjmp	80006556 <_vfprintf_r+0x1c76>
80006542:	fa ca f9 78 	sub	r10,sp,-1672
80006546:	02 9b       	mov	r11,r1
80006548:	08 9c       	mov	r12,r4
8000654a:	fe b0 f1 bd 	rcall	800048c4 <__sprint_r>
8000654e:	e0 81 01 48 	brne	800067de <_vfprintf_r+0x1efe>
80006552:	fa c3 f9 e0 	sub	r3,sp,-1568
80006556:	04 06       	add	r6,r2
80006558:	fa f8 06 ac 	ld.w	r8,sp[1708]
8000655c:	87 06       	st.w	r3[0x0],r6
8000655e:	fa f9 06 90 	ld.w	r9,sp[1680]
80006562:	40 66       	lddsp	r6,sp[0x18]
80006564:	40 6e       	lddsp	lr,sp[0x18]
80006566:	10 16       	sub	r6,r8
80006568:	f2 08 01 08 	sub	r8,r9,r8
8000656c:	87 16       	st.w	r3[0x4],r6
8000656e:	1c 08       	add	r8,lr
80006570:	fb 48 06 90 	st.w	sp[1680],r8
80006574:	fa f8 06 8c 	ld.w	r8,sp[1676]
80006578:	2f f8       	sub	r8,-1
8000657a:	fb 48 06 8c 	st.w	sp[1676],r8
8000657e:	cb 78       	rjmp	800066ec <_vfprintf_r+0x1e0c>
80006580:	40 6c       	lddsp	r12,sp[0x18]
80006582:	58 1c       	cp.w	r12,1
80006584:	e0 89 00 06 	brgt	80006590 <_vfprintf_r+0x1cb0>
80006588:	ed b5 00 00 	bld	r5,0x0
8000658c:	e0 81 00 85 	brne	80006696 <_vfprintf_r+0x1db6>
80006590:	fa f8 06 90 	ld.w	r8,sp[1680]
80006594:	2f f8       	sub	r8,-1
80006596:	30 19       	mov	r9,1
80006598:	fb 48 06 90 	st.w	sp[1680],r8
8000659c:	87 06       	st.w	r3[0x0],r6
8000659e:	fa f8 06 8c 	ld.w	r8,sp[1676]
800065a2:	87 19       	st.w	r3[0x4],r9
800065a4:	2f f8       	sub	r8,-1
800065a6:	fb 48 06 8c 	st.w	sp[1676],r8
800065aa:	58 78       	cp.w	r8,7
800065ac:	e0 89 00 04 	brgt	800065b4 <_vfprintf_r+0x1cd4>
800065b0:	2f 83       	sub	r3,-8
800065b2:	c0 b8       	rjmp	800065c8 <_vfprintf_r+0x1ce8>
800065b4:	fa ca f9 78 	sub	r10,sp,-1672
800065b8:	02 9b       	mov	r11,r1
800065ba:	08 9c       	mov	r12,r4
800065bc:	fe b0 f1 84 	rcall	800048c4 <__sprint_r>
800065c0:	e0 81 01 0f 	brne	800067de <_vfprintf_r+0x1efe>
800065c4:	fa c3 f9 e0 	sub	r3,sp,-1568
800065c8:	fa f8 06 90 	ld.w	r8,sp[1680]
800065cc:	2f f8       	sub	r8,-1
800065ce:	40 cb       	lddsp	r11,sp[0x30]
800065d0:	fb 48 06 90 	st.w	sp[1680],r8
800065d4:	30 19       	mov	r9,1
800065d6:	fa f8 06 8c 	ld.w	r8,sp[1676]
800065da:	87 0b       	st.w	r3[0x0],r11
800065dc:	2f f8       	sub	r8,-1
800065de:	87 19       	st.w	r3[0x4],r9
800065e0:	fb 48 06 8c 	st.w	sp[1676],r8
800065e4:	58 78       	cp.w	r8,7
800065e6:	e0 89 00 05 	brgt	800065f0 <_vfprintf_r+0x1d10>
800065ea:	2f 83       	sub	r3,-8
800065ec:	c0 c8       	rjmp	80006604 <_vfprintf_r+0x1d24>
800065ee:	d7 03       	nop
800065f0:	fa ca f9 78 	sub	r10,sp,-1672
800065f4:	02 9b       	mov	r11,r1
800065f6:	08 9c       	mov	r12,r4
800065f8:	fe b0 f1 66 	rcall	800048c4 <__sprint_r>
800065fc:	e0 81 00 f1 	brne	800067de <_vfprintf_r+0x1efe>
80006600:	fa c3 f9 e0 	sub	r3,sp,-1568
80006604:	30 08       	mov	r8,0
80006606:	30 09       	mov	r9,0
80006608:	40 5b       	lddsp	r11,sp[0x14]
8000660a:	40 7a       	lddsp	r10,sp[0x1c]
8000660c:	e0 a0 17 3d 	rcall	80009486 <__avr32_f64_cmp_eq>
80006610:	40 68       	lddsp	r8,sp[0x18]
80006612:	20 18       	sub	r8,1
80006614:	58 0c       	cp.w	r12,0
80006616:	c0 d1       	brne	80006630 <_vfprintf_r+0x1d50>
80006618:	2f f6       	sub	r6,-1
8000661a:	87 18       	st.w	r3[0x4],r8
8000661c:	87 06       	st.w	r3[0x0],r6
8000661e:	fa f6 06 90 	ld.w	r6,sp[1680]
80006622:	10 06       	add	r6,r8
80006624:	fa f8 06 8c 	ld.w	r8,sp[1676]
80006628:	fb 46 06 90 	st.w	sp[1680],r6
8000662c:	2f f8       	sub	r8,-1
8000662e:	c3 18       	rjmp	80006690 <_vfprintf_r+0x1db0>
80006630:	10 96       	mov	r6,r8
80006632:	58 08       	cp.w	r8,0
80006634:	e0 89 00 1c 	brgt	8000666c <_vfprintf_r+0x1d8c>
80006638:	c4 b8       	rjmp	800066ce <_vfprintf_r+0x1dee>
8000663a:	2f 09       	sub	r9,-16
8000663c:	2f f8       	sub	r8,-1
8000663e:	fb 49 06 90 	st.w	sp[1680],r9
80006642:	87 02       	st.w	r3[0x0],r2
80006644:	87 10       	st.w	r3[0x4],r0
80006646:	fb 48 06 8c 	st.w	sp[1676],r8
8000664a:	58 78       	cp.w	r8,7
8000664c:	e0 89 00 04 	brgt	80006654 <_vfprintf_r+0x1d74>
80006650:	2f 83       	sub	r3,-8
80006652:	c0 b8       	rjmp	80006668 <_vfprintf_r+0x1d88>
80006654:	fa ca f9 78 	sub	r10,sp,-1672
80006658:	02 9b       	mov	r11,r1
8000665a:	08 9c       	mov	r12,r4
8000665c:	fe b0 f1 34 	rcall	800048c4 <__sprint_r>
80006660:	e0 81 00 bf 	brne	800067de <_vfprintf_r+0x1efe>
80006664:	fa c3 f9 e0 	sub	r3,sp,-1568
80006668:	21 06       	sub	r6,16
8000666a:	c0 48       	rjmp	80006672 <_vfprintf_r+0x1d92>
8000666c:	fe c2 c4 50 	sub	r2,pc,-15280
80006670:	31 00       	mov	r0,16
80006672:	fa f9 06 90 	ld.w	r9,sp[1680]
80006676:	fa f8 06 8c 	ld.w	r8,sp[1676]
8000667a:	fe ca c4 5e 	sub	r10,pc,-15266
8000667e:	59 06       	cp.w	r6,16
80006680:	fe 99 ff dd 	brgt	8000663a <_vfprintf_r+0x1d5a>
80006684:	0c 09       	add	r9,r6
80006686:	87 0a       	st.w	r3[0x0],r10
80006688:	fb 49 06 90 	st.w	sp[1680],r9
8000668c:	2f f8       	sub	r8,-1
8000668e:	87 16       	st.w	r3[0x4],r6
80006690:	fb 48 06 8c 	st.w	sp[1676],r8
80006694:	c0 e8       	rjmp	800066b0 <_vfprintf_r+0x1dd0>
80006696:	fa f8 06 90 	ld.w	r8,sp[1680]
8000669a:	2f f8       	sub	r8,-1
8000669c:	30 19       	mov	r9,1
8000669e:	fb 48 06 90 	st.w	sp[1680],r8
800066a2:	87 06       	st.w	r3[0x0],r6
800066a4:	fa f8 06 8c 	ld.w	r8,sp[1676]
800066a8:	87 19       	st.w	r3[0x4],r9
800066aa:	2f f8       	sub	r8,-1
800066ac:	fb 48 06 8c 	st.w	sp[1676],r8
800066b0:	58 78       	cp.w	r8,7
800066b2:	e0 89 00 04 	brgt	800066ba <_vfprintf_r+0x1dda>
800066b6:	2f 83       	sub	r3,-8
800066b8:	c0 b8       	rjmp	800066ce <_vfprintf_r+0x1dee>
800066ba:	fa ca f9 78 	sub	r10,sp,-1672
800066be:	02 9b       	mov	r11,r1
800066c0:	08 9c       	mov	r12,r4
800066c2:	fe b0 f1 01 	rcall	800048c4 <__sprint_r>
800066c6:	e0 81 00 8c 	brne	800067de <_vfprintf_r+0x1efe>
800066ca:	fa c3 f9 e0 	sub	r3,sp,-1568
800066ce:	40 ea       	lddsp	r10,sp[0x38]
800066d0:	fa f8 06 90 	ld.w	r8,sp[1680]
800066d4:	14 08       	add	r8,r10
800066d6:	fa c9 f9 64 	sub	r9,sp,-1692
800066da:	fb 48 06 90 	st.w	sp[1680],r8
800066de:	87 1a       	st.w	r3[0x4],r10
800066e0:	fa f8 06 8c 	ld.w	r8,sp[1676]
800066e4:	87 09       	st.w	r3[0x0],r9
800066e6:	2f f8       	sub	r8,-1
800066e8:	fb 48 06 8c 	st.w	sp[1676],r8
800066ec:	58 78       	cp.w	r8,7
800066ee:	e0 89 00 04 	brgt	800066f6 <_vfprintf_r+0x1e16>
800066f2:	2f 83       	sub	r3,-8
800066f4:	c0 a8       	rjmp	80006708 <_vfprintf_r+0x1e28>
800066f6:	fa ca f9 78 	sub	r10,sp,-1672
800066fa:	02 9b       	mov	r11,r1
800066fc:	08 9c       	mov	r12,r4
800066fe:	fe b0 f0 e3 	rcall	800048c4 <__sprint_r>
80006702:	c6 e1       	brne	800067de <_vfprintf_r+0x1efe>
80006704:	fa c3 f9 e0 	sub	r3,sp,-1568
80006708:	e2 15 00 04 	andl	r5,0x4,COH
8000670c:	c3 f0       	breq	8000678a <_vfprintf_r+0x1eaa>
8000670e:	40 86       	lddsp	r6,sp[0x20]
80006710:	40 39       	lddsp	r9,sp[0xc]
80006712:	12 16       	sub	r6,r9
80006714:	58 06       	cp.w	r6,0
80006716:	e0 89 00 1a 	brgt	8000674a <_vfprintf_r+0x1e6a>
8000671a:	c3 88       	rjmp	8000678a <_vfprintf_r+0x1eaa>
8000671c:	2f 09       	sub	r9,-16
8000671e:	2f f8       	sub	r8,-1
80006720:	fb 49 06 90 	st.w	sp[1680],r9
80006724:	87 05       	st.w	r3[0x0],r5
80006726:	87 12       	st.w	r3[0x4],r2
80006728:	fb 48 06 8c 	st.w	sp[1676],r8
8000672c:	58 78       	cp.w	r8,7
8000672e:	e0 89 00 04 	brgt	80006736 <_vfprintf_r+0x1e56>
80006732:	2f 83       	sub	r3,-8
80006734:	c0 98       	rjmp	80006746 <_vfprintf_r+0x1e66>
80006736:	00 9a       	mov	r10,r0
80006738:	02 9b       	mov	r11,r1
8000673a:	08 9c       	mov	r12,r4
8000673c:	fe b0 f0 c4 	rcall	800048c4 <__sprint_r>
80006740:	c4 f1       	brne	800067de <_vfprintf_r+0x1efe>
80006742:	fa c3 f9 e0 	sub	r3,sp,-1568
80006746:	21 06       	sub	r6,16
80006748:	c0 68       	rjmp	80006754 <_vfprintf_r+0x1e74>
8000674a:	fe c5 c5 3e 	sub	r5,pc,-15042
8000674e:	31 02       	mov	r2,16
80006750:	fa c0 f9 78 	sub	r0,sp,-1672
80006754:	fa f9 06 90 	ld.w	r9,sp[1680]
80006758:	fa f8 06 8c 	ld.w	r8,sp[1676]
8000675c:	fe ca c5 50 	sub	r10,pc,-15024
80006760:	59 06       	cp.w	r6,16
80006762:	fe 99 ff dd 	brgt	8000671c <_vfprintf_r+0x1e3c>
80006766:	0c 09       	add	r9,r6
80006768:	2f f8       	sub	r8,-1
8000676a:	87 0a       	st.w	r3[0x0],r10
8000676c:	87 16       	st.w	r3[0x4],r6
8000676e:	fb 49 06 90 	st.w	sp[1680],r9
80006772:	fb 48 06 8c 	st.w	sp[1676],r8
80006776:	58 78       	cp.w	r8,7
80006778:	e0 8a 00 09 	brle	8000678a <_vfprintf_r+0x1eaa>
8000677c:	fa ca f9 78 	sub	r10,sp,-1672
80006780:	02 9b       	mov	r11,r1
80006782:	08 9c       	mov	r12,r4
80006784:	fe b0 f0 a0 	rcall	800048c4 <__sprint_r>
80006788:	c2 b1       	brne	800067de <_vfprintf_r+0x1efe>
8000678a:	40 bc       	lddsp	r12,sp[0x2c]
8000678c:	40 36       	lddsp	r6,sp[0xc]
8000678e:	40 8e       	lddsp	lr,sp[0x20]
80006790:	ec 0e 0c 48 	max	r8,r6,lr
80006794:	10 0c       	add	r12,r8
80006796:	50 bc       	stdsp	sp[0x2c],r12
80006798:	fa f8 06 90 	ld.w	r8,sp[1680]
8000679c:	58 08       	cp.w	r8,0
8000679e:	c0 80       	breq	800067ae <_vfprintf_r+0x1ece>
800067a0:	fa ca f9 78 	sub	r10,sp,-1672
800067a4:	02 9b       	mov	r11,r1
800067a6:	08 9c       	mov	r12,r4
800067a8:	fe b0 f0 8e 	rcall	800048c4 <__sprint_r>
800067ac:	c1 91       	brne	800067de <_vfprintf_r+0x1efe>
800067ae:	30 0b       	mov	r11,0
800067b0:	fa c3 f9 e0 	sub	r3,sp,-1568
800067b4:	fb 4b 06 8c 	st.w	sp[1676],r11
800067b8:	fe 9f f1 22 	bral	800049fc <_vfprintf_r+0x11c>
800067bc:	08 95       	mov	r5,r4
800067be:	fa f8 06 90 	ld.w	r8,sp[1680]
800067c2:	58 08       	cp.w	r8,0
800067c4:	c0 80       	breq	800067d4 <_vfprintf_r+0x1ef4>
800067c6:	08 9c       	mov	r12,r4
800067c8:	fa ca f9 78 	sub	r10,sp,-1672
800067cc:	02 9b       	mov	r11,r1
800067ce:	fe b0 f0 7b 	rcall	800048c4 <__sprint_r>
800067d2:	c0 61       	brne	800067de <_vfprintf_r+0x1efe>
800067d4:	30 08       	mov	r8,0
800067d6:	fb 48 06 8c 	st.w	sp[1676],r8
800067da:	c0 28       	rjmp	800067de <_vfprintf_r+0x1efe>
800067dc:	40 41       	lddsp	r1,sp[0x10]
800067de:	82 68       	ld.sh	r8,r1[0xc]
800067e0:	ed b8 00 06 	bld	r8,0x6
800067e4:	c0 31       	brne	800067ea <_vfprintf_r+0x1f0a>
800067e6:	3f fa       	mov	r10,-1
800067e8:	50 ba       	stdsp	sp[0x2c],r10
800067ea:	40 bc       	lddsp	r12,sp[0x2c]
800067ec:	fe 3d f9 44 	sub	sp,-1724
800067f0:	d8 32       	popm	r0-r7,pc
800067f2:	d7 03       	nop

800067f4 <__swsetup_r>:
800067f4:	d4 21       	pushm	r4-r7,lr
800067f6:	e0 68 00 fc 	mov	r8,252
800067fa:	18 96       	mov	r6,r12
800067fc:	16 97       	mov	r7,r11
800067fe:	70 0c       	ld.w	r12,r8[0x0]
80006800:	58 0c       	cp.w	r12,0
80006802:	c0 60       	breq	8000680e <__swsetup_r+0x1a>
80006804:	78 68       	ld.w	r8,r12[0x18]
80006806:	58 08       	cp.w	r8,0
80006808:	c0 31       	brne	8000680e <__swsetup_r+0x1a>
8000680a:	e0 a0 07 b9 	rcall	8000777c <__sinit>
8000680e:	fe c8 c4 d2 	sub	r8,pc,-15150
80006812:	10 37       	cp.w	r7,r8
80006814:	c0 61       	brne	80006820 <__swsetup_r+0x2c>
80006816:	e0 68 00 fc 	mov	r8,252
8000681a:	70 08       	ld.w	r8,r8[0x0]
8000681c:	70 07       	ld.w	r7,r8[0x0]
8000681e:	c1 28       	rjmp	80006842 <__swsetup_r+0x4e>
80006820:	fe c8 c4 c4 	sub	r8,pc,-15164
80006824:	10 37       	cp.w	r7,r8
80006826:	c0 61       	brne	80006832 <__swsetup_r+0x3e>
80006828:	e0 68 00 fc 	mov	r8,252
8000682c:	70 08       	ld.w	r8,r8[0x0]
8000682e:	70 17       	ld.w	r7,r8[0x4]
80006830:	c0 98       	rjmp	80006842 <__swsetup_r+0x4e>
80006832:	fe c8 c4 b6 	sub	r8,pc,-15178
80006836:	10 37       	cp.w	r7,r8
80006838:	c0 51       	brne	80006842 <__swsetup_r+0x4e>
8000683a:	e0 68 00 fc 	mov	r8,252
8000683e:	70 08       	ld.w	r8,r8[0x0]
80006840:	70 27       	ld.w	r7,r8[0x8]
80006842:	8e 68       	ld.sh	r8,r7[0xc]
80006844:	ed b8 00 03 	bld	r8,0x3
80006848:	c1 e0       	breq	80006884 <__swsetup_r+0x90>
8000684a:	ed b8 00 04 	bld	r8,0x4
8000684e:	c3 e1       	brne	800068ca <__swsetup_r+0xd6>
80006850:	ed b8 00 02 	bld	r8,0x2
80006854:	c1 51       	brne	8000687e <__swsetup_r+0x8a>
80006856:	6e db       	ld.w	r11,r7[0x34]
80006858:	58 0b       	cp.w	r11,0
8000685a:	c0 a0       	breq	8000686e <__swsetup_r+0x7a>
8000685c:	ee c8 ff bc 	sub	r8,r7,-68
80006860:	10 3b       	cp.w	r11,r8
80006862:	c0 40       	breq	8000686a <__swsetup_r+0x76>
80006864:	0c 9c       	mov	r12,r6
80006866:	e0 a0 08 25 	rcall	800078b0 <_free_r>
8000686a:	30 08       	mov	r8,0
8000686c:	8f d8       	st.w	r7[0x34],r8
8000686e:	8e 68       	ld.sh	r8,r7[0xc]
80006870:	e0 18 ff db 	andl	r8,0xffdb
80006874:	ae 68       	st.h	r7[0xc],r8
80006876:	30 08       	mov	r8,0
80006878:	8f 18       	st.w	r7[0x4],r8
8000687a:	6e 48       	ld.w	r8,r7[0x10]
8000687c:	8f 08       	st.w	r7[0x0],r8
8000687e:	8e 68       	ld.sh	r8,r7[0xc]
80006880:	a3 b8       	sbr	r8,0x3
80006882:	ae 68       	st.h	r7[0xc],r8
80006884:	6e 48       	ld.w	r8,r7[0x10]
80006886:	58 08       	cp.w	r8,0
80006888:	c0 b1       	brne	8000689e <__swsetup_r+0xaa>
8000688a:	8e 68       	ld.sh	r8,r7[0xc]
8000688c:	e2 18 02 80 	andl	r8,0x280,COH
80006890:	e0 48 02 00 	cp.w	r8,512
80006894:	c0 50       	breq	8000689e <__swsetup_r+0xaa>
80006896:	0c 9c       	mov	r12,r6
80006898:	0e 9b       	mov	r11,r7
8000689a:	e0 a0 0a 4b 	rcall	80007d30 <__smakebuf_r>
8000689e:	8e 69       	ld.sh	r9,r7[0xc]
800068a0:	f1 d9 c0 01 	bfextu	r8,r9,0x0,0x1
800068a4:	c0 70       	breq	800068b2 <__swsetup_r+0xbe>
800068a6:	30 08       	mov	r8,0
800068a8:	8f 28       	st.w	r7[0x8],r8
800068aa:	6e 58       	ld.w	r8,r7[0x14]
800068ac:	5c 38       	neg	r8
800068ae:	8f 68       	st.w	r7[0x18],r8
800068b0:	c0 68       	rjmp	800068bc <__swsetup_r+0xc8>
800068b2:	ed b9 00 01 	bld	r9,0x1
800068b6:	ef f8 10 05 	ld.wne	r8,r7[0x14]
800068ba:	8f 28       	st.w	r7[0x8],r8
800068bc:	6e 48       	ld.w	r8,r7[0x10]
800068be:	58 08       	cp.w	r8,0
800068c0:	c0 61       	brne	800068cc <__swsetup_r+0xd8>
800068c2:	8e 68       	ld.sh	r8,r7[0xc]
800068c4:	ed b8 00 07 	bld	r8,0x7
800068c8:	c0 21       	brne	800068cc <__swsetup_r+0xd8>
800068ca:	dc 2a       	popm	r4-r7,pc,r12=-1
800068cc:	d8 2a       	popm	r4-r7,pc,r12=0
800068ce:	d7 03       	nop

800068d0 <quorem>:
800068d0:	d4 31       	pushm	r0-r7,lr
800068d2:	20 2d       	sub	sp,8
800068d4:	18 97       	mov	r7,r12
800068d6:	78 48       	ld.w	r8,r12[0x10]
800068d8:	76 46       	ld.w	r6,r11[0x10]
800068da:	0c 38       	cp.w	r8,r6
800068dc:	c0 34       	brge	800068e2 <quorem+0x12>
800068de:	30 0c       	mov	r12,0
800068e0:	c8 58       	rjmp	800069ea <quorem+0x11a>
800068e2:	ec c2 ff fc 	sub	r2,r6,-4
800068e6:	f6 c3 ff ec 	sub	r3,r11,-20
800068ea:	f6 02 03 29 	ld.w	r9,r11[r2<<0x2]
800068ee:	f8 02 03 2c 	ld.w	r12,r12[r2<<0x2]
800068f2:	2f f9       	sub	r9,-1
800068f4:	20 16       	sub	r6,1
800068f6:	f8 09 0d 08 	divu	r8,r12,r9
800068fa:	f6 02 00 22 	add	r2,r11,r2<<0x2
800068fe:	ee c4 ff ec 	sub	r4,r7,-20
80006902:	10 95       	mov	r5,r8
80006904:	58 08       	cp.w	r8,0
80006906:	c4 10       	breq	80006988 <quorem+0xb8>
80006908:	30 09       	mov	r9,0
8000690a:	06 9a       	mov	r10,r3
8000690c:	08 98       	mov	r8,r4
8000690e:	12 91       	mov	r1,r9
80006910:	50 0b       	stdsp	sp[0x0],r11
80006912:	70 0e       	ld.w	lr,r8[0x0]
80006914:	b1 8e       	lsr	lr,0x10
80006916:	50 1e       	stdsp	sp[0x4],lr
80006918:	15 0e       	ld.w	lr,r10++
8000691a:	fc 00 16 10 	lsr	r0,lr,0x10
8000691e:	fd de c0 10 	bfextu	lr,lr,0x0,0x10
80006922:	ea 0e 03 41 	mac	r1,r5,lr
80006926:	fd d1 c0 10 	bfextu	lr,r1,0x0,0x10
8000692a:	b1 81       	lsr	r1,0x10
8000692c:	40 1b       	lddsp	r11,sp[0x4]
8000692e:	ea 00 02 40 	mul	r0,r5,r0
80006932:	e2 00 00 00 	add	r0,r1,r0
80006936:	e3 d0 c0 10 	bfextu	r1,r0,0x0,0x10
8000693a:	02 1b       	sub	r11,r1
8000693c:	50 1b       	stdsp	sp[0x4],r11
8000693e:	70 0b       	ld.w	r11,r8[0x0]
80006940:	e3 db c0 10 	bfextu	r1,r11,0x0,0x10
80006944:	02 09       	add	r9,r1
80006946:	f2 0e 01 0e 	sub	lr,r9,lr
8000694a:	b0 1e       	st.h	r8[0x2],lr
8000694c:	fc 09 14 10 	asr	r9,lr,0x10
80006950:	40 1e       	lddsp	lr,sp[0x4]
80006952:	fc 09 00 09 	add	r9,lr,r9
80006956:	b0 09       	st.h	r8[0x0],r9
80006958:	e0 01 16 10 	lsr	r1,r0,0x10
8000695c:	2f c8       	sub	r8,-4
8000695e:	b1 49       	asr	r9,0x10
80006960:	04 3a       	cp.w	r10,r2
80006962:	fe 98 ff d8 	brls	80006912 <quorem+0x42>
80006966:	40 0b       	lddsp	r11,sp[0x0]
80006968:	58 0c       	cp.w	r12,0
8000696a:	c0 f1       	brne	80006988 <quorem+0xb8>
8000696c:	ec c8 ff fb 	sub	r8,r6,-5
80006970:	ee 08 00 28 	add	r8,r7,r8<<0x2
80006974:	c0 28       	rjmp	80006978 <quorem+0xa8>
80006976:	20 16       	sub	r6,1
80006978:	20 48       	sub	r8,4
8000697a:	08 38       	cp.w	r8,r4
8000697c:	e0 88 00 05 	brls	80006986 <quorem+0xb6>
80006980:	70 09       	ld.w	r9,r8[0x0]
80006982:	58 09       	cp.w	r9,0
80006984:	cf 90       	breq	80006976 <quorem+0xa6>
80006986:	8f 46       	st.w	r7[0x10],r6
80006988:	0e 9c       	mov	r12,r7
8000698a:	e0 a0 0c fb 	rcall	80008380 <__mcmp>
8000698e:	c2 d5       	brlt	800069e8 <quorem+0x118>
80006990:	2f f5       	sub	r5,-1
80006992:	08 98       	mov	r8,r4
80006994:	30 09       	mov	r9,0
80006996:	07 0b       	ld.w	r11,r3++
80006998:	f6 0a 16 10 	lsr	r10,r11,0x10
8000699c:	70 0c       	ld.w	r12,r8[0x0]
8000699e:	f7 db c0 10 	bfextu	r11,r11,0x0,0x10
800069a2:	f8 0e 16 10 	lsr	lr,r12,0x10
800069a6:	14 1e       	sub	lr,r10
800069a8:	f5 dc c0 10 	bfextu	r10,r12,0x0,0x10
800069ac:	16 1a       	sub	r10,r11
800069ae:	12 0a       	add	r10,r9
800069b0:	b0 1a       	st.h	r8[0x2],r10
800069b2:	b1 4a       	asr	r10,0x10
800069b4:	fc 0a 00 09 	add	r9,lr,r10
800069b8:	b0 09       	st.h	r8[0x0],r9
800069ba:	2f c8       	sub	r8,-4
800069bc:	b1 49       	asr	r9,0x10
800069be:	04 33       	cp.w	r3,r2
800069c0:	fe 98 ff eb 	brls	80006996 <quorem+0xc6>
800069c4:	ec c8 ff fb 	sub	r8,r6,-5
800069c8:	ee 08 03 29 	ld.w	r9,r7[r8<<0x2]
800069cc:	58 09       	cp.w	r9,0
800069ce:	c0 d1       	brne	800069e8 <quorem+0x118>
800069d0:	ee 08 00 28 	add	r8,r7,r8<<0x2
800069d4:	c0 28       	rjmp	800069d8 <quorem+0x108>
800069d6:	20 16       	sub	r6,1
800069d8:	20 48       	sub	r8,4
800069da:	08 38       	cp.w	r8,r4
800069dc:	e0 88 00 05 	brls	800069e6 <quorem+0x116>
800069e0:	70 09       	ld.w	r9,r8[0x0]
800069e2:	58 09       	cp.w	r9,0
800069e4:	cf 90       	breq	800069d6 <quorem+0x106>
800069e6:	8f 46       	st.w	r7[0x10],r6
800069e8:	0a 9c       	mov	r12,r5
800069ea:	2f ed       	sub	sp,-8
800069ec:	d8 32       	popm	r0-r7,pc
800069ee:	d7 03       	nop

800069f0 <_dtoa_r>:
800069f0:	d4 31       	pushm	r0-r7,lr
800069f2:	21 ad       	sub	sp,104
800069f4:	fa c4 ff 74 	sub	r4,sp,-140
800069f8:	18 97       	mov	r7,r12
800069fa:	16 95       	mov	r5,r11
800069fc:	68 2c       	ld.w	r12,r4[0x8]
800069fe:	50 c9       	stdsp	sp[0x30],r9
80006a00:	68 16       	ld.w	r6,r4[0x4]
80006a02:	68 09       	ld.w	r9,r4[0x0]
80006a04:	50 e8       	stdsp	sp[0x38],r8
80006a06:	14 94       	mov	r4,r10
80006a08:	51 2c       	stdsp	sp[0x48],r12
80006a0a:	fa e5 00 08 	st.d	sp[8],r4
80006a0e:	51 59       	stdsp	sp[0x54],r9
80006a10:	6e 95       	ld.w	r5,r7[0x24]
80006a12:	58 05       	cp.w	r5,0
80006a14:	c0 91       	brne	80006a26 <_dtoa_r+0x36>
80006a16:	31 0c       	mov	r12,16
80006a18:	e0 a0 09 ea 	rcall	80007dec <malloc>
80006a1c:	99 35       	st.w	r12[0xc],r5
80006a1e:	8f 9c       	st.w	r7[0x24],r12
80006a20:	99 15       	st.w	r12[0x4],r5
80006a22:	99 25       	st.w	r12[0x8],r5
80006a24:	99 05       	st.w	r12[0x0],r5
80006a26:	6e 99       	ld.w	r9,r7[0x24]
80006a28:	72 08       	ld.w	r8,r9[0x0]
80006a2a:	58 08       	cp.w	r8,0
80006a2c:	c0 f0       	breq	80006a4a <_dtoa_r+0x5a>
80006a2e:	72 1a       	ld.w	r10,r9[0x4]
80006a30:	91 1a       	st.w	r8[0x4],r10
80006a32:	30 1a       	mov	r10,1
80006a34:	72 19       	ld.w	r9,r9[0x4]
80006a36:	f4 09 09 49 	lsl	r9,r10,r9
80006a3a:	10 9b       	mov	r11,r8
80006a3c:	91 29       	st.w	r8[0x8],r9
80006a3e:	0e 9c       	mov	r12,r7
80006a40:	e0 a0 0c ba 	rcall	800083b4 <_Bfree>
80006a44:	6e 98       	ld.w	r8,r7[0x24]
80006a46:	30 09       	mov	r9,0
80006a48:	91 09       	st.w	r8[0x0],r9
80006a4a:	40 28       	lddsp	r8,sp[0x8]
80006a4c:	10 94       	mov	r4,r8
80006a4e:	58 08       	cp.w	r8,0
80006a50:	c0 64       	brge	80006a5c <_dtoa_r+0x6c>
80006a52:	f1 d8 c0 1f 	bfextu	r8,r8,0x0,0x1f
80006a56:	50 28       	stdsp	sp[0x8],r8
80006a58:	30 18       	mov	r8,1
80006a5a:	c0 28       	rjmp	80006a5e <_dtoa_r+0x6e>
80006a5c:	30 08       	mov	r8,0
80006a5e:	8d 08       	st.w	r6[0x0],r8
80006a60:	fc 1c 7f f0 	movh	r12,0x7ff0
80006a64:	40 26       	lddsp	r6,sp[0x8]
80006a66:	0c 98       	mov	r8,r6
80006a68:	e6 18 7f f0 	andh	r8,0x7ff0,COH
80006a6c:	18 38       	cp.w	r8,r12
80006a6e:	c2 01       	brne	80006aae <_dtoa_r+0xbe>
80006a70:	e0 68 27 0f 	mov	r8,9999
80006a74:	41 5b       	lddsp	r11,sp[0x54]
80006a76:	97 08       	st.w	r11[0x0],r8
80006a78:	40 3a       	lddsp	r10,sp[0xc]
80006a7a:	58 0a       	cp.w	r10,0
80006a7c:	c0 71       	brne	80006a8a <_dtoa_r+0x9a>
80006a7e:	ed d6 c0 14 	bfextu	r6,r6,0x0,0x14
80006a82:	c0 41       	brne	80006a8a <_dtoa_r+0x9a>
80006a84:	fe cc c7 58 	sub	r12,pc,-14504
80006a88:	c0 38       	rjmp	80006a8e <_dtoa_r+0x9e>
80006a8a:	fe cc c7 52 	sub	r12,pc,-14510
80006a8e:	41 29       	lddsp	r9,sp[0x48]
80006a90:	58 09       	cp.w	r9,0
80006a92:	e0 80 05 9a 	breq	800075c6 <_dtoa_r+0xbd6>
80006a96:	f8 c8 ff fd 	sub	r8,r12,-3
80006a9a:	f8 c9 ff f8 	sub	r9,r12,-8
80006a9e:	11 8b       	ld.ub	r11,r8[0x0]
80006aa0:	30 0a       	mov	r10,0
80006aa2:	41 25       	lddsp	r5,sp[0x48]
80006aa4:	f4 0b 18 00 	cp.b	r11,r10
80006aa8:	f2 08 17 10 	movne	r8,r9
80006aac:	c1 68       	rjmp	80006ad8 <_dtoa_r+0xe8>
80006aae:	fa ea 00 08 	ld.d	r10,sp[8]
80006ab2:	30 08       	mov	r8,0
80006ab4:	fa eb 00 3c 	st.d	sp[60],r10
80006ab8:	30 09       	mov	r9,0
80006aba:	e0 a0 14 e6 	rcall	80009486 <__avr32_f64_cmp_eq>
80006abe:	c1 00       	breq	80006ade <_dtoa_r+0xee>
80006ac0:	30 18       	mov	r8,1
80006ac2:	41 5a       	lddsp	r10,sp[0x54]
80006ac4:	95 08       	st.w	r10[0x0],r8
80006ac6:	fe cc c8 be 	sub	r12,pc,-14146
80006aca:	41 29       	lddsp	r9,sp[0x48]
80006acc:	f8 08 00 08 	add	r8,r12,r8
80006ad0:	58 09       	cp.w	r9,0
80006ad2:	e0 80 05 7a 	breq	800075c6 <_dtoa_r+0xbd6>
80006ad6:	12 95       	mov	r5,r9
80006ad8:	8b 08       	st.w	r5[0x0],r8
80006ada:	e0 8f 05 76 	bral	800075c6 <_dtoa_r+0xbd6>
80006ade:	fa c8 ff 9c 	sub	r8,sp,-100
80006ae2:	fa c9 ff a0 	sub	r9,sp,-96
80006ae6:	fa ea 00 3c 	ld.d	r10,sp[60]
80006aea:	0e 9c       	mov	r12,r7
80006aec:	eb d6 c2 8b 	bfextu	r5,r6,0x14,0xb
80006af0:	e0 a0 0c b4 	rcall	80008458 <__d2b>
80006af4:	18 93       	mov	r3,r12
80006af6:	58 05       	cp.w	r5,0
80006af8:	c0 d0       	breq	80006b12 <_dtoa_r+0x122>
80006afa:	fa ea 00 3c 	ld.d	r10,sp[60]
80006afe:	30 04       	mov	r4,0
80006b00:	f1 db c0 14 	bfextu	r8,r11,0x0,0x14
80006b04:	ea c5 03 ff 	sub	r5,r5,1023
80006b08:	10 9b       	mov	r11,r8
80006b0a:	51 74       	stdsp	sp[0x5c],r4
80006b0c:	ea 1b 3f f0 	orh	r11,0x3ff0
80006b10:	c2 58       	rjmp	80006b5a <_dtoa_r+0x16a>
80006b12:	41 88       	lddsp	r8,sp[0x60]
80006b14:	41 9c       	lddsp	r12,sp[0x64]
80006b16:	10 0c       	add	r12,r8
80006b18:	f8 c5 fb ce 	sub	r5,r12,-1074
80006b1c:	e0 45 00 20 	cp.w	r5,32
80006b20:	e0 8a 00 0e 	brle	80006b3c <_dtoa_r+0x14c>
80006b24:	f8 cc fb ee 	sub	r12,r12,-1042
80006b28:	40 3b       	lddsp	r11,sp[0xc]
80006b2a:	ea 08 11 40 	rsub	r8,r5,64
80006b2e:	f6 0c 0a 4c 	lsr	r12,r11,r12
80006b32:	ec 08 09 46 	lsl	r6,r6,r8
80006b36:	0c 4c       	or	r12,r6
80006b38:	c0 78       	rjmp	80006b46 <_dtoa_r+0x156>
80006b3a:	d7 03       	nop
80006b3c:	ea 0c 11 20 	rsub	r12,r5,32
80006b40:	40 3a       	lddsp	r10,sp[0xc]
80006b42:	f4 0c 09 4c 	lsl	r12,r10,r12
80006b46:	e0 a0 14 2c 	rcall	8000939e <__avr32_u32_to_f64>
80006b4a:	fc 18 fe 10 	movh	r8,0xfe10
80006b4e:	30 19       	mov	r9,1
80006b50:	ea c5 04 33 	sub	r5,r5,1075
80006b54:	f0 0b 00 0b 	add	r11,r8,r11
80006b58:	51 79       	stdsp	sp[0x5c],r9
80006b5a:	30 08       	mov	r8,0
80006b5c:	fc 19 3f f8 	movh	r9,0x3ff8
80006b60:	e0 a0 12 b4 	rcall	800090c8 <__avr32_f64_sub>
80006b64:	e0 68 43 61 	mov	r8,17249
80006b68:	ea 18 63 6f 	orh	r8,0x636f
80006b6c:	e0 69 87 a7 	mov	r9,34727
80006b70:	ea 19 3f d2 	orh	r9,0x3fd2
80006b74:	e0 a0 11 be 	rcall	80008ef0 <__avr32_f64_mul>
80006b78:	e0 68 c8 b3 	mov	r8,51379
80006b7c:	ea 18 8b 60 	orh	r8,0x8b60
80006b80:	e0 69 8a 28 	mov	r9,35368
80006b84:	ea 19 3f c6 	orh	r9,0x3fc6
80006b88:	e0 a0 13 6e 	rcall	80009264 <__avr32_f64_add>
80006b8c:	0a 9c       	mov	r12,r5
80006b8e:	14 90       	mov	r0,r10
80006b90:	16 91       	mov	r1,r11
80006b92:	e0 a0 14 0a 	rcall	800093a6 <__avr32_s32_to_f64>
80006b96:	e0 68 79 fb 	mov	r8,31227
80006b9a:	ea 18 50 9f 	orh	r8,0x509f
80006b9e:	e0 69 44 13 	mov	r9,17427
80006ba2:	ea 19 3f d3 	orh	r9,0x3fd3
80006ba6:	e0 a0 11 a5 	rcall	80008ef0 <__avr32_f64_mul>
80006baa:	14 98       	mov	r8,r10
80006bac:	16 99       	mov	r9,r11
80006bae:	00 9a       	mov	r10,r0
80006bb0:	02 9b       	mov	r11,r1
80006bb2:	e0 a0 13 59 	rcall	80009264 <__avr32_f64_add>
80006bb6:	14 90       	mov	r0,r10
80006bb8:	16 91       	mov	r1,r11
80006bba:	e0 a0 13 df 	rcall	80009378 <__avr32_f64_to_s32>
80006bbe:	30 08       	mov	r8,0
80006bc0:	18 96       	mov	r6,r12
80006bc2:	30 09       	mov	r9,0
80006bc4:	00 9a       	mov	r10,r0
80006bc6:	02 9b       	mov	r11,r1
80006bc8:	e0 a0 14 a6 	rcall	80009514 <__avr32_f64_cmp_lt>
80006bcc:	c0 c0       	breq	80006be4 <_dtoa_r+0x1f4>
80006bce:	0c 9c       	mov	r12,r6
80006bd0:	e0 a0 13 eb 	rcall	800093a6 <__avr32_s32_to_f64>
80006bd4:	14 98       	mov	r8,r10
80006bd6:	16 99       	mov	r9,r11
80006bd8:	00 9a       	mov	r10,r0
80006bda:	02 9b       	mov	r11,r1
80006bdc:	e0 a0 14 55 	rcall	80009486 <__avr32_f64_cmp_eq>
80006be0:	f7 b6 00 01 	subeq	r6,1
80006be4:	59 66       	cp.w	r6,22
80006be6:	e0 88 00 05 	brls	80006bf0 <_dtoa_r+0x200>
80006bea:	30 18       	mov	r8,1
80006bec:	51 48       	stdsp	sp[0x50],r8
80006bee:	c1 38       	rjmp	80006c14 <_dtoa_r+0x224>
80006bf0:	fe c8 c8 08 	sub	r8,pc,-14328
80006bf4:	fa ea 00 3c 	ld.d	r10,sp[60]
80006bf8:	f0 06 02 38 	ld.d	r8,r8[r6<<0x3]
80006bfc:	e0 a0 14 8c 	rcall	80009514 <__avr32_f64_cmp_lt>
80006c00:	f9 b4 00 00 	moveq	r4,0
80006c04:	fb f4 0a 14 	st.weq	sp[0x50],r4
80006c08:	f7 b6 01 01 	subne	r6,1
80006c0c:	f9 bc 01 00 	movne	r12,0
80006c10:	fb fc 1a 14 	st.wne	sp[0x50],r12
80006c14:	41 90       	lddsp	r0,sp[0x64]
80006c16:	20 10       	sub	r0,1
80006c18:	0a 10       	sub	r0,r5
80006c1a:	c0 46       	brmi	80006c22 <_dtoa_r+0x232>
80006c1c:	50 40       	stdsp	sp[0x10],r0
80006c1e:	30 00       	mov	r0,0
80006c20:	c0 48       	rjmp	80006c28 <_dtoa_r+0x238>
80006c22:	30 0b       	mov	r11,0
80006c24:	5c 30       	neg	r0
80006c26:	50 4b       	stdsp	sp[0x10],r11
80006c28:	ec 02 11 00 	rsub	r2,r6,0
80006c2c:	58 06       	cp.w	r6,0
80006c2e:	fb fa 40 04 	ld.wge	r10,sp[0x10]
80006c32:	f5 d6 e4 0a 	addge	r10,r10,r6
80006c36:	fb fa 4a 04 	st.wge	sp[0x10],r10
80006c3a:	fb f6 4a 11 	st.wge	sp[0x44],r6
80006c3e:	f9 b2 04 00 	movge	r2,0
80006c42:	e1 d6 e5 10 	sublt	r0,r0,r6
80006c46:	f9 b9 05 00 	movlt	r9,0
80006c4a:	fb f9 5a 11 	st.wlt	sp[0x44],r9
80006c4e:	40 c8       	lddsp	r8,sp[0x30]
80006c50:	58 98       	cp.w	r8,9
80006c52:	e0 8b 00 20 	brhi	80006c92 <_dtoa_r+0x2a2>
80006c56:	58 58       	cp.w	r8,5
80006c58:	f9 b4 0a 01 	movle	r4,1
80006c5c:	fb f5 90 0c 	ld.wgt	r5,sp[0x30]
80006c60:	f7 b5 09 04 	subgt	r5,4
80006c64:	fb f5 9a 0c 	st.wgt	sp[0x30],r5
80006c68:	f9 b4 09 00 	movgt	r4,0
80006c6c:	40 cc       	lddsp	r12,sp[0x30]
80006c6e:	58 3c       	cp.w	r12,3
80006c70:	c2 d0       	breq	80006cca <_dtoa_r+0x2da>
80006c72:	e0 89 00 05 	brgt	80006c7c <_dtoa_r+0x28c>
80006c76:	58 2c       	cp.w	r12,2
80006c78:	c1 01       	brne	80006c98 <_dtoa_r+0x2a8>
80006c7a:	c1 88       	rjmp	80006caa <_dtoa_r+0x2ba>
80006c7c:	40 cb       	lddsp	r11,sp[0x30]
80006c7e:	58 4b       	cp.w	r11,4
80006c80:	c0 60       	breq	80006c8c <_dtoa_r+0x29c>
80006c82:	58 5b       	cp.w	r11,5
80006c84:	c0 a1       	brne	80006c98 <_dtoa_r+0x2a8>
80006c86:	30 1a       	mov	r10,1
80006c88:	50 da       	stdsp	sp[0x34],r10
80006c8a:	c2 28       	rjmp	80006cce <_dtoa_r+0x2de>
80006c8c:	30 19       	mov	r9,1
80006c8e:	50 d9       	stdsp	sp[0x34],r9
80006c90:	c0 f8       	rjmp	80006cae <_dtoa_r+0x2be>
80006c92:	30 08       	mov	r8,0
80006c94:	30 14       	mov	r4,1
80006c96:	50 c8       	stdsp	sp[0x30],r8
80006c98:	3f f5       	mov	r5,-1
80006c9a:	30 1c       	mov	r12,1
80006c9c:	30 0b       	mov	r11,0
80006c9e:	50 95       	stdsp	sp[0x24],r5
80006ca0:	50 dc       	stdsp	sp[0x34],r12
80006ca2:	0a 91       	mov	r1,r5
80006ca4:	31 28       	mov	r8,18
80006ca6:	50 eb       	stdsp	sp[0x38],r11
80006ca8:	c2 08       	rjmp	80006ce8 <_dtoa_r+0x2f8>
80006caa:	30 0a       	mov	r10,0
80006cac:	50 da       	stdsp	sp[0x34],r10
80006cae:	40 e9       	lddsp	r9,sp[0x38]
80006cb0:	58 09       	cp.w	r9,0
80006cb2:	e0 89 00 07 	brgt	80006cc0 <_dtoa_r+0x2d0>
80006cb6:	30 18       	mov	r8,1
80006cb8:	50 98       	stdsp	sp[0x24],r8
80006cba:	10 91       	mov	r1,r8
80006cbc:	50 e8       	stdsp	sp[0x38],r8
80006cbe:	c1 58       	rjmp	80006ce8 <_dtoa_r+0x2f8>
80006cc0:	40 e5       	lddsp	r5,sp[0x38]
80006cc2:	50 95       	stdsp	sp[0x24],r5
80006cc4:	0a 91       	mov	r1,r5
80006cc6:	0a 98       	mov	r8,r5
80006cc8:	c1 08       	rjmp	80006ce8 <_dtoa_r+0x2f8>
80006cca:	30 0c       	mov	r12,0
80006ccc:	50 dc       	stdsp	sp[0x34],r12
80006cce:	40 eb       	lddsp	r11,sp[0x38]
80006cd0:	ec 0b 00 0b 	add	r11,r6,r11
80006cd4:	50 9b       	stdsp	sp[0x24],r11
80006cd6:	16 98       	mov	r8,r11
80006cd8:	2f f8       	sub	r8,-1
80006cda:	58 08       	cp.w	r8,0
80006cdc:	e0 89 00 05 	brgt	80006ce6 <_dtoa_r+0x2f6>
80006ce0:	10 91       	mov	r1,r8
80006ce2:	30 18       	mov	r8,1
80006ce4:	c0 28       	rjmp	80006ce8 <_dtoa_r+0x2f8>
80006ce6:	10 91       	mov	r1,r8
80006ce8:	30 09       	mov	r9,0
80006cea:	6e 9a       	ld.w	r10,r7[0x24]
80006cec:	95 19       	st.w	r10[0x4],r9
80006cee:	30 49       	mov	r9,4
80006cf0:	c0 68       	rjmp	80006cfc <_dtoa_r+0x30c>
80006cf2:	d7 03       	nop
80006cf4:	6a 1a       	ld.w	r10,r5[0x4]
80006cf6:	a1 79       	lsl	r9,0x1
80006cf8:	2f fa       	sub	r10,-1
80006cfa:	8b 1a       	st.w	r5[0x4],r10
80006cfc:	6e 95       	ld.w	r5,r7[0x24]
80006cfe:	f2 ca ff ec 	sub	r10,r9,-20
80006d02:	10 3a       	cp.w	r10,r8
80006d04:	fe 98 ff f8 	brls	80006cf4 <_dtoa_r+0x304>
80006d08:	6a 1b       	ld.w	r11,r5[0x4]
80006d0a:	0e 9c       	mov	r12,r7
80006d0c:	e0 a0 0b 6e 	rcall	800083e8 <_Balloc>
80006d10:	58 e1       	cp.w	r1,14
80006d12:	5f 88       	srls	r8
80006d14:	8b 0c       	st.w	r5[0x0],r12
80006d16:	f1 e4 00 04 	and	r4,r8,r4
80006d1a:	6e 98       	ld.w	r8,r7[0x24]
80006d1c:	70 08       	ld.w	r8,r8[0x0]
80006d1e:	50 88       	stdsp	sp[0x20],r8
80006d20:	e0 80 01 82 	breq	80007024 <_dtoa_r+0x634>
80006d24:	58 06       	cp.w	r6,0
80006d26:	e0 8a 00 43 	brle	80006dac <_dtoa_r+0x3bc>
80006d2a:	f3 d6 c0 04 	bfextu	r9,r6,0x0,0x4
80006d2e:	fe c8 c9 46 	sub	r8,pc,-14010
80006d32:	f0 09 02 34 	ld.d	r4,r8[r9<<0x3]
80006d36:	fa e5 00 18 	st.d	sp[24],r4
80006d3a:	ec 04 14 04 	asr	r4,r6,0x4
80006d3e:	ed b4 00 04 	bld	r4,0x4
80006d42:	c0 30       	breq	80006d48 <_dtoa_r+0x358>
80006d44:	30 25       	mov	r5,2
80006d46:	c1 08       	rjmp	80006d66 <_dtoa_r+0x376>
80006d48:	fe c8 c8 98 	sub	r8,pc,-14184
80006d4c:	f0 e8 00 20 	ld.d	r8,r8[32]
80006d50:	fa ea 00 3c 	ld.d	r10,sp[60]
80006d54:	e9 d4 c0 04 	bfextu	r4,r4,0x0,0x4
80006d58:	e0 a0 14 12 	rcall	8000957c <__avr32_f64_div>
80006d5c:	30 35       	mov	r5,3
80006d5e:	14 98       	mov	r8,r10
80006d60:	16 99       	mov	r9,r11
80006d62:	fa e9 00 08 	st.d	sp[8],r8
80006d66:	fe cc c8 b6 	sub	r12,pc,-14154
80006d6a:	50 a3       	stdsp	sp[0x28],r3
80006d6c:	0c 93       	mov	r3,r6
80006d6e:	18 96       	mov	r6,r12
80006d70:	c0 f8       	rjmp	80006d8e <_dtoa_r+0x39e>
80006d72:	fa ea 00 18 	ld.d	r10,sp[24]
80006d76:	ed b4 00 00 	bld	r4,0x0
80006d7a:	c0 81       	brne	80006d8a <_dtoa_r+0x39a>
80006d7c:	ec e8 00 00 	ld.d	r8,r6[0]
80006d80:	2f f5       	sub	r5,-1
80006d82:	e0 a0 10 b7 	rcall	80008ef0 <__avr32_f64_mul>
80006d86:	fa eb 00 18 	st.d	sp[24],r10
80006d8a:	a1 54       	asr	r4,0x1
80006d8c:	2f 86       	sub	r6,-8
80006d8e:	58 04       	cp.w	r4,0
80006d90:	cf 11       	brne	80006d72 <_dtoa_r+0x382>
80006d92:	fa e8 00 18 	ld.d	r8,sp[24]
80006d96:	fa ea 00 08 	ld.d	r10,sp[8]
80006d9a:	06 96       	mov	r6,r3
80006d9c:	e0 a0 13 f0 	rcall	8000957c <__avr32_f64_div>
80006da0:	40 a3       	lddsp	r3,sp[0x28]
80006da2:	14 98       	mov	r8,r10
80006da4:	16 99       	mov	r9,r11
80006da6:	fa e9 00 08 	st.d	sp[8],r8
80006daa:	c2 f8       	rjmp	80006e08 <_dtoa_r+0x418>
80006dac:	ec 08 11 00 	rsub	r8,r6,0
80006db0:	c0 31       	brne	80006db6 <_dtoa_r+0x3c6>
80006db2:	30 25       	mov	r5,2
80006db4:	c2 a8       	rjmp	80006e08 <_dtoa_r+0x418>
80006db6:	fe cc c9 06 	sub	r12,pc,-14074
80006dba:	f0 04 14 04 	asr	r4,r8,0x4
80006dbe:	50 1c       	stdsp	sp[0x4],r12
80006dc0:	f1 d8 c0 04 	bfextu	r8,r8,0x0,0x4
80006dc4:	fe c9 c9 dc 	sub	r9,pc,-13860
80006dc8:	fa ea 00 3c 	ld.d	r10,sp[60]
80006dcc:	f2 08 02 38 	ld.d	r8,r9[r8<<0x3]
80006dd0:	e0 a0 10 90 	rcall	80008ef0 <__avr32_f64_mul>
80006dd4:	40 1c       	lddsp	r12,sp[0x4]
80006dd6:	50 63       	stdsp	sp[0x18],r3
80006dd8:	30 25       	mov	r5,2
80006dda:	0c 93       	mov	r3,r6
80006ddc:	fa eb 00 08 	st.d	sp[8],r10
80006de0:	18 96       	mov	r6,r12
80006de2:	c0 f8       	rjmp	80006e00 <_dtoa_r+0x410>
80006de4:	fa ea 00 08 	ld.d	r10,sp[8]
80006de8:	ed b4 00 00 	bld	r4,0x0
80006dec:	c0 81       	brne	80006dfc <_dtoa_r+0x40c>
80006dee:	ec e8 00 00 	ld.d	r8,r6[0]
80006df2:	2f f5       	sub	r5,-1
80006df4:	e0 a0 10 7e 	rcall	80008ef0 <__avr32_f64_mul>
80006df8:	fa eb 00 08 	st.d	sp[8],r10
80006dfc:	a1 54       	asr	r4,0x1
80006dfe:	2f 86       	sub	r6,-8
80006e00:	58 04       	cp.w	r4,0
80006e02:	cf 11       	brne	80006de4 <_dtoa_r+0x3f4>
80006e04:	06 96       	mov	r6,r3
80006e06:	40 63       	lddsp	r3,sp[0x18]
80006e08:	41 4a       	lddsp	r10,sp[0x50]
80006e0a:	58 0a       	cp.w	r10,0
80006e0c:	c2 a0       	breq	80006e60 <_dtoa_r+0x470>
80006e0e:	fa e8 00 08 	ld.d	r8,sp[8]
80006e12:	58 01       	cp.w	r1,0
80006e14:	5f 94       	srgt	r4
80006e16:	fa e9 00 18 	st.d	sp[24],r8
80006e1a:	30 08       	mov	r8,0
80006e1c:	fc 19 3f f0 	movh	r9,0x3ff0
80006e20:	fa ea 00 18 	ld.d	r10,sp[24]
80006e24:	e0 a0 13 78 	rcall	80009514 <__avr32_f64_cmp_lt>
80006e28:	f9 bc 00 00 	moveq	r12,0
80006e2c:	f9 bc 01 01 	movne	r12,1
80006e30:	e9 ec 00 0c 	and	r12,r4,r12
80006e34:	c1 60       	breq	80006e60 <_dtoa_r+0x470>
80006e36:	40 98       	lddsp	r8,sp[0x24]
80006e38:	58 08       	cp.w	r8,0
80006e3a:	e0 8a 00 f1 	brle	8000701c <_dtoa_r+0x62c>
80006e3e:	30 08       	mov	r8,0
80006e40:	fc 19 40 24 	movh	r9,0x4024
80006e44:	ec c4 00 01 	sub	r4,r6,1
80006e48:	fa ea 00 18 	ld.d	r10,sp[24]
80006e4c:	2f f5       	sub	r5,-1
80006e4e:	50 64       	stdsp	sp[0x18],r4
80006e50:	e0 a0 10 50 	rcall	80008ef0 <__avr32_f64_mul>
80006e54:	40 94       	lddsp	r4,sp[0x24]
80006e56:	14 98       	mov	r8,r10
80006e58:	16 99       	mov	r9,r11
80006e5a:	fa e9 00 08 	st.d	sp[8],r8
80006e5e:	c0 38       	rjmp	80006e64 <_dtoa_r+0x474>
80006e60:	50 66       	stdsp	sp[0x18],r6
80006e62:	02 94       	mov	r4,r1
80006e64:	0a 9c       	mov	r12,r5
80006e66:	e0 a0 12 a0 	rcall	800093a6 <__avr32_s32_to_f64>
80006e6a:	fa e8 00 08 	ld.d	r8,sp[8]
80006e6e:	e0 a0 10 41 	rcall	80008ef0 <__avr32_f64_mul>
80006e72:	30 08       	mov	r8,0
80006e74:	fc 19 40 1c 	movh	r9,0x401c
80006e78:	e0 a0 11 f6 	rcall	80009264 <__avr32_f64_add>
80006e7c:	14 98       	mov	r8,r10
80006e7e:	16 99       	mov	r9,r11
80006e80:	fa e9 00 28 	st.d	sp[40],r8
80006e84:	fc 18 fc c0 	movh	r8,0xfcc0
80006e88:	40 a5       	lddsp	r5,sp[0x28]
80006e8a:	10 05       	add	r5,r8
80006e8c:	50 a5       	stdsp	sp[0x28],r5
80006e8e:	58 04       	cp.w	r4,0
80006e90:	c2 11       	brne	80006ed2 <_dtoa_r+0x4e2>
80006e92:	fa ea 00 08 	ld.d	r10,sp[8]
80006e96:	30 08       	mov	r8,0
80006e98:	fc 19 40 14 	movh	r9,0x4014
80006e9c:	e0 a0 11 16 	rcall	800090c8 <__avr32_f64_sub>
80006ea0:	40 bc       	lddsp	r12,sp[0x2c]
80006ea2:	fa eb 00 08 	st.d	sp[8],r10
80006ea6:	14 98       	mov	r8,r10
80006ea8:	16 99       	mov	r9,r11
80006eaa:	18 9a       	mov	r10,r12
80006eac:	0a 9b       	mov	r11,r5
80006eae:	e0 a0 13 33 	rcall	80009514 <__avr32_f64_cmp_lt>
80006eb2:	e0 81 02 54 	brne	8000735a <_dtoa_r+0x96a>
80006eb6:	0a 98       	mov	r8,r5
80006eb8:	40 b9       	lddsp	r9,sp[0x2c]
80006eba:	ee 18 80 00 	eorh	r8,0x8000
80006ebe:	fa ea 00 08 	ld.d	r10,sp[8]
80006ec2:	10 95       	mov	r5,r8
80006ec4:	12 98       	mov	r8,r9
80006ec6:	0a 99       	mov	r9,r5
80006ec8:	e0 a0 13 26 	rcall	80009514 <__avr32_f64_cmp_lt>
80006ecc:	e0 81 02 3e 	brne	80007348 <_dtoa_r+0x958>
80006ed0:	ca 68       	rjmp	8000701c <_dtoa_r+0x62c>
80006ed2:	fe c9 ca ea 	sub	r9,pc,-13590
80006ed6:	e8 c8 00 01 	sub	r8,r4,1
80006eda:	40 d5       	lddsp	r5,sp[0x34]
80006edc:	58 05       	cp.w	r5,0
80006ede:	c4 f0       	breq	80006f7c <_dtoa_r+0x58c>
80006ee0:	30 0c       	mov	r12,0
80006ee2:	f2 08 02 38 	ld.d	r8,r9[r8<<0x3]
80006ee6:	51 3c       	stdsp	sp[0x4c],r12
80006ee8:	30 0a       	mov	r10,0
80006eea:	fc 1b 3f e0 	movh	r11,0x3fe0
80006eee:	e0 a0 13 47 	rcall	8000957c <__avr32_f64_div>
80006ef2:	fa e8 00 28 	ld.d	r8,sp[40]
80006ef6:	40 85       	lddsp	r5,sp[0x20]
80006ef8:	e0 a0 10 e8 	rcall	800090c8 <__avr32_f64_sub>
80006efc:	fa eb 00 28 	st.d	sp[40],r10
80006f00:	fa ea 00 08 	ld.d	r10,sp[8]
80006f04:	e0 a0 12 3a 	rcall	80009378 <__avr32_f64_to_s32>
80006f08:	51 6c       	stdsp	sp[0x58],r12
80006f0a:	e0 a0 12 4e 	rcall	800093a6 <__avr32_s32_to_f64>
80006f0e:	14 98       	mov	r8,r10
80006f10:	16 99       	mov	r9,r11
80006f12:	fa ea 00 08 	ld.d	r10,sp[8]
80006f16:	e0 a0 10 d9 	rcall	800090c8 <__avr32_f64_sub>
80006f1a:	fa eb 00 08 	st.d	sp[8],r10
80006f1e:	41 68       	lddsp	r8,sp[0x58]
80006f20:	2d 08       	sub	r8,-48
80006f22:	0a c8       	st.b	r5++,r8
80006f24:	41 39       	lddsp	r9,sp[0x4c]
80006f26:	2f f9       	sub	r9,-1
80006f28:	51 39       	stdsp	sp[0x4c],r9
80006f2a:	fa e8 00 28 	ld.d	r8,sp[40]
80006f2e:	e0 a0 12 f3 	rcall	80009514 <__avr32_f64_cmp_lt>
80006f32:	e0 81 03 39 	brne	800075a4 <_dtoa_r+0xbb4>
80006f36:	fa e8 00 08 	ld.d	r8,sp[8]
80006f3a:	30 0a       	mov	r10,0
80006f3c:	fc 1b 3f f0 	movh	r11,0x3ff0
80006f40:	e0 a0 10 c4 	rcall	800090c8 <__avr32_f64_sub>
80006f44:	fa e8 00 28 	ld.d	r8,sp[40]
80006f48:	e0 a0 12 e6 	rcall	80009514 <__avr32_f64_cmp_lt>
80006f4c:	fa ea 00 28 	ld.d	r10,sp[40]
80006f50:	30 08       	mov	r8,0
80006f52:	fc 19 40 24 	movh	r9,0x4024
80006f56:	e0 81 00 da 	brne	8000710a <_dtoa_r+0x71a>
80006f5a:	41 3c       	lddsp	r12,sp[0x4c]
80006f5c:	08 3c       	cp.w	r12,r4
80006f5e:	c5 f4       	brge	8000701c <_dtoa_r+0x62c>
80006f60:	e0 a0 0f c8 	rcall	80008ef0 <__avr32_f64_mul>
80006f64:	30 08       	mov	r8,0
80006f66:	fa eb 00 28 	st.d	sp[40],r10
80006f6a:	fc 19 40 24 	movh	r9,0x4024
80006f6e:	fa ea 00 08 	ld.d	r10,sp[8]
80006f72:	e0 a0 0f bf 	rcall	80008ef0 <__avr32_f64_mul>
80006f76:	fa eb 00 08 	st.d	sp[8],r10
80006f7a:	cc 3b       	rjmp	80006f00 <_dtoa_r+0x510>
80006f7c:	40 85       	lddsp	r5,sp[0x20]
80006f7e:	08 05       	add	r5,r4
80006f80:	f2 08 02 3a 	ld.d	r10,r9[r8<<0x3]
80006f84:	51 35       	stdsp	sp[0x4c],r5
80006f86:	fa e8 00 28 	ld.d	r8,sp[40]
80006f8a:	40 85       	lddsp	r5,sp[0x20]
80006f8c:	e0 a0 0f b2 	rcall	80008ef0 <__avr32_f64_mul>
80006f90:	fa eb 00 28 	st.d	sp[40],r10
80006f94:	fa ea 00 08 	ld.d	r10,sp[8]
80006f98:	e0 a0 11 f0 	rcall	80009378 <__avr32_f64_to_s32>
80006f9c:	51 6c       	stdsp	sp[0x58],r12
80006f9e:	e0 a0 12 04 	rcall	800093a6 <__avr32_s32_to_f64>
80006fa2:	14 98       	mov	r8,r10
80006fa4:	16 99       	mov	r9,r11
80006fa6:	fa ea 00 08 	ld.d	r10,sp[8]
80006faa:	e0 a0 10 8f 	rcall	800090c8 <__avr32_f64_sub>
80006fae:	fa eb 00 08 	st.d	sp[8],r10
80006fb2:	41 68       	lddsp	r8,sp[0x58]
80006fb4:	2d 08       	sub	r8,-48
80006fb6:	0a c8       	st.b	r5++,r8
80006fb8:	41 3c       	lddsp	r12,sp[0x4c]
80006fba:	18 35       	cp.w	r5,r12
80006fbc:	c2 81       	brne	8000700c <_dtoa_r+0x61c>
80006fbe:	30 08       	mov	r8,0
80006fc0:	fc 19 3f e0 	movh	r9,0x3fe0
80006fc4:	fa ea 00 28 	ld.d	r10,sp[40]
80006fc8:	e0 a0 11 4e 	rcall	80009264 <__avr32_f64_add>
80006fcc:	40 85       	lddsp	r5,sp[0x20]
80006fce:	fa e8 00 08 	ld.d	r8,sp[8]
80006fd2:	08 05       	add	r5,r4
80006fd4:	e0 a0 12 a0 	rcall	80009514 <__avr32_f64_cmp_lt>
80006fd8:	e0 81 00 99 	brne	8000710a <_dtoa_r+0x71a>
80006fdc:	fa e8 00 28 	ld.d	r8,sp[40]
80006fe0:	30 0a       	mov	r10,0
80006fe2:	fc 1b 3f e0 	movh	r11,0x3fe0
80006fe6:	e0 a0 10 71 	rcall	800090c8 <__avr32_f64_sub>
80006fea:	14 98       	mov	r8,r10
80006fec:	16 99       	mov	r9,r11
80006fee:	fa ea 00 08 	ld.d	r10,sp[8]
80006ff2:	e0 a0 12 91 	rcall	80009514 <__avr32_f64_cmp_lt>
80006ff6:	c1 30       	breq	8000701c <_dtoa_r+0x62c>
80006ff8:	33 09       	mov	r9,48
80006ffa:	0a 98       	mov	r8,r5
80006ffc:	11 7a       	ld.ub	r10,--r8
80006ffe:	f2 0a 18 00 	cp.b	r10,r9
80007002:	e0 81 02 d1 	brne	800075a4 <_dtoa_r+0xbb4>
80007006:	10 95       	mov	r5,r8
80007008:	cf 9b       	rjmp	80006ffa <_dtoa_r+0x60a>
8000700a:	d7 03       	nop
8000700c:	30 08       	mov	r8,0
8000700e:	fc 19 40 24 	movh	r9,0x4024
80007012:	e0 a0 0f 6f 	rcall	80008ef0 <__avr32_f64_mul>
80007016:	fa eb 00 08 	st.d	sp[8],r10
8000701a:	cb db       	rjmp	80006f94 <_dtoa_r+0x5a4>
8000701c:	fa ea 00 3c 	ld.d	r10,sp[60]
80007020:	fa eb 00 08 	st.d	sp[8],r10
80007024:	58 e6       	cp.w	r6,14
80007026:	5f ab       	srle	r11
80007028:	41 8a       	lddsp	r10,sp[0x60]
8000702a:	30 08       	mov	r8,0
8000702c:	f4 09 11 ff 	rsub	r9,r10,-1
80007030:	f7 e9 03 f9 	and	r9,r11,r9>>0x1f
80007034:	f0 09 18 00 	cp.b	r9,r8
80007038:	e0 80 00 82 	breq	8000713c <_dtoa_r+0x74c>
8000703c:	40 ea       	lddsp	r10,sp[0x38]
8000703e:	58 01       	cp.w	r1,0
80007040:	5f a9       	srle	r9
80007042:	f3 ea 03 f9 	and	r9,r9,r10>>0x1f
80007046:	fe ca cc 5e 	sub	r10,pc,-13218
8000704a:	f4 06 02 34 	ld.d	r4,r10[r6<<0x3]
8000704e:	fa e5 00 10 	st.d	sp[16],r4
80007052:	f0 09 18 00 	cp.b	r9,r8
80007056:	c1 40       	breq	8000707e <_dtoa_r+0x68e>
80007058:	58 01       	cp.w	r1,0
8000705a:	e0 81 01 77 	brne	80007348 <_dtoa_r+0x958>
8000705e:	30 08       	mov	r8,0
80007060:	fc 19 40 14 	movh	r9,0x4014
80007064:	08 9a       	mov	r10,r4
80007066:	0a 9b       	mov	r11,r5
80007068:	e0 a0 0f 44 	rcall	80008ef0 <__avr32_f64_mul>
8000706c:	fa e8 00 08 	ld.d	r8,sp[8]
80007070:	e0 a0 12 1e 	rcall	800094ac <__avr32_f64_cmp_ge>
80007074:	e0 81 01 6a 	brne	80007348 <_dtoa_r+0x958>
80007078:	02 92       	mov	r2,r1
8000707a:	e0 8f 01 72 	bral	8000735e <_dtoa_r+0x96e>
8000707e:	40 85       	lddsp	r5,sp[0x20]
80007080:	30 14       	mov	r4,1
80007082:	fa e8 00 10 	ld.d	r8,sp[16]
80007086:	fa ea 00 08 	ld.d	r10,sp[8]
8000708a:	e0 a0 12 79 	rcall	8000957c <__avr32_f64_div>
8000708e:	e0 a0 11 75 	rcall	80009378 <__avr32_f64_to_s32>
80007092:	18 92       	mov	r2,r12
80007094:	e0 a0 11 89 	rcall	800093a6 <__avr32_s32_to_f64>
80007098:	fa e8 00 10 	ld.d	r8,sp[16]
8000709c:	e0 a0 0f 2a 	rcall	80008ef0 <__avr32_f64_mul>
800070a0:	14 98       	mov	r8,r10
800070a2:	16 99       	mov	r9,r11
800070a4:	fa ea 00 08 	ld.d	r10,sp[8]
800070a8:	e0 a0 10 10 	rcall	800090c8 <__avr32_f64_sub>
800070ac:	fa eb 00 08 	st.d	sp[8],r10
800070b0:	e4 c8 ff d0 	sub	r8,r2,-48
800070b4:	0a c8       	st.b	r5++,r8
800070b6:	fc 19 40 24 	movh	r9,0x4024
800070ba:	30 08       	mov	r8,0
800070bc:	02 34       	cp.w	r4,r1
800070be:	c3 31       	brne	80007124 <_dtoa_r+0x734>
800070c0:	fa e8 00 08 	ld.d	r8,sp[8]
800070c4:	e0 a0 10 d0 	rcall	80009264 <__avr32_f64_add>
800070c8:	16 91       	mov	r1,r11
800070ca:	14 90       	mov	r0,r10
800070cc:	14 98       	mov	r8,r10
800070ce:	02 99       	mov	r9,r1
800070d0:	fa ea 00 10 	ld.d	r10,sp[16]
800070d4:	e0 a0 12 20 	rcall	80009514 <__avr32_f64_cmp_lt>
800070d8:	c1 a1       	brne	8000710c <_dtoa_r+0x71c>
800070da:	fa e8 00 10 	ld.d	r8,sp[16]
800070de:	00 9a       	mov	r10,r0
800070e0:	02 9b       	mov	r11,r1
800070e2:	e0 a0 11 d2 	rcall	80009486 <__avr32_f64_cmp_eq>
800070e6:	e0 80 02 5e 	breq	800075a2 <_dtoa_r+0xbb2>
800070ea:	e5 d2 c0 01 	bfextu	r2,r2,0x0,0x1
800070ee:	c0 f1       	brne	8000710c <_dtoa_r+0x71c>
800070f0:	e0 8f 02 59 	bral	800075a2 <_dtoa_r+0xbb2>
800070f4:	40 8a       	lddsp	r10,sp[0x20]
800070f6:	14 38       	cp.w	r8,r10
800070f8:	c0 30       	breq	800070fe <_dtoa_r+0x70e>
800070fa:	10 95       	mov	r5,r8
800070fc:	c0 98       	rjmp	8000710e <_dtoa_r+0x71e>
800070fe:	33 08       	mov	r8,48
80007100:	40 89       	lddsp	r9,sp[0x20]
80007102:	2f f6       	sub	r6,-1
80007104:	b2 88       	st.b	r9[0x0],r8
80007106:	40 88       	lddsp	r8,sp[0x20]
80007108:	c0 88       	rjmp	80007118 <_dtoa_r+0x728>
8000710a:	40 66       	lddsp	r6,sp[0x18]
8000710c:	33 99       	mov	r9,57
8000710e:	0a 98       	mov	r8,r5
80007110:	11 7a       	ld.ub	r10,--r8
80007112:	f2 0a 18 00 	cp.b	r10,r9
80007116:	ce f0       	breq	800070f4 <_dtoa_r+0x704>
80007118:	50 66       	stdsp	sp[0x18],r6
8000711a:	11 89       	ld.ub	r9,r8[0x0]
8000711c:	2f f9       	sub	r9,-1
8000711e:	b0 89       	st.b	r8[0x0],r9
80007120:	e0 8f 02 42 	bral	800075a4 <_dtoa_r+0xbb4>
80007124:	e0 a0 0e e6 	rcall	80008ef0 <__avr32_f64_mul>
80007128:	2f f4       	sub	r4,-1
8000712a:	fa eb 00 08 	st.d	sp[8],r10
8000712e:	30 08       	mov	r8,0
80007130:	30 09       	mov	r9,0
80007132:	e0 a0 11 aa 	rcall	80009486 <__avr32_f64_cmp_eq>
80007136:	ca 60       	breq	80007082 <_dtoa_r+0x692>
80007138:	e0 8f 02 35 	bral	800075a2 <_dtoa_r+0xbb2>
8000713c:	40 d8       	lddsp	r8,sp[0x34]
8000713e:	58 08       	cp.w	r8,0
80007140:	c0 51       	brne	8000714a <_dtoa_r+0x75a>
80007142:	04 98       	mov	r8,r2
80007144:	00 95       	mov	r5,r0
80007146:	40 d4       	lddsp	r4,sp[0x34]
80007148:	c3 78       	rjmp	800071b6 <_dtoa_r+0x7c6>
8000714a:	40 c5       	lddsp	r5,sp[0x30]
8000714c:	58 15       	cp.w	r5,1
8000714e:	e0 89 00 0f 	brgt	8000716c <_dtoa_r+0x77c>
80007152:	41 74       	lddsp	r4,sp[0x5c]
80007154:	58 04       	cp.w	r4,0
80007156:	c0 40       	breq	8000715e <_dtoa_r+0x76e>
80007158:	f4 c9 fb cd 	sub	r9,r10,-1075
8000715c:	c0 48       	rjmp	80007164 <_dtoa_r+0x774>
8000715e:	41 99       	lddsp	r9,sp[0x64]
80007160:	f2 09 11 36 	rsub	r9,r9,54
80007164:	04 98       	mov	r8,r2
80007166:	00 95       	mov	r5,r0
80007168:	c1 c8       	rjmp	800071a0 <_dtoa_r+0x7b0>
8000716a:	d7 03       	nop
8000716c:	e2 c8 00 01 	sub	r8,r1,1
80007170:	58 01       	cp.w	r1,0
80007172:	e0 05 17 40 	movge	r5,r0
80007176:	e2 09 17 40 	movge	r9,r1
8000717a:	e1 d1 e5 15 	sublt	r5,r0,r1
8000717e:	f9 b9 05 00 	movlt	r9,0
80007182:	10 32       	cp.w	r2,r8
80007184:	e5 d8 e4 18 	subge	r8,r2,r8
80007188:	f1 d2 e5 18 	sublt	r8,r8,r2
8000718c:	e5 d8 e5 02 	addlt	r2,r2,r8
80007190:	fb fc 50 11 	ld.wlt	r12,sp[0x44]
80007194:	f9 d8 e5 0c 	addlt	r12,r12,r8
80007198:	fb fc 5a 11 	st.wlt	sp[0x44],r12
8000719c:	f9 b8 05 00 	movlt	r8,0
800071a0:	40 4b       	lddsp	r11,sp[0x10]
800071a2:	12 0b       	add	r11,r9
800071a4:	50 08       	stdsp	sp[0x0],r8
800071a6:	50 4b       	stdsp	sp[0x10],r11
800071a8:	12 00       	add	r0,r9
800071aa:	30 1b       	mov	r11,1
800071ac:	0e 9c       	mov	r12,r7
800071ae:	e0 a0 0a d1 	rcall	80008750 <__i2b>
800071b2:	40 08       	lddsp	r8,sp[0x0]
800071b4:	18 94       	mov	r4,r12
800071b6:	40 4a       	lddsp	r10,sp[0x10]
800071b8:	58 05       	cp.w	r5,0
800071ba:	5f 99       	srgt	r9
800071bc:	58 0a       	cp.w	r10,0
800071be:	5f 9a       	srgt	r10
800071c0:	f5 e9 00 09 	and	r9,r10,r9
800071c4:	c0 80       	breq	800071d4 <_dtoa_r+0x7e4>
800071c6:	40 4c       	lddsp	r12,sp[0x10]
800071c8:	f8 05 0d 49 	min	r9,r12,r5
800071cc:	12 1c       	sub	r12,r9
800071ce:	12 10       	sub	r0,r9
800071d0:	50 4c       	stdsp	sp[0x10],r12
800071d2:	12 15       	sub	r5,r9
800071d4:	58 02       	cp.w	r2,0
800071d6:	e0 8a 00 27 	brle	80007224 <_dtoa_r+0x834>
800071da:	40 db       	lddsp	r11,sp[0x34]
800071dc:	58 0b       	cp.w	r11,0
800071de:	c1 d0       	breq	80007218 <_dtoa_r+0x828>
800071e0:	58 08       	cp.w	r8,0
800071e2:	e0 8a 00 17 	brle	80007210 <_dtoa_r+0x820>
800071e6:	10 9a       	mov	r10,r8
800071e8:	50 08       	stdsp	sp[0x0],r8
800071ea:	08 9b       	mov	r11,r4
800071ec:	0e 9c       	mov	r12,r7
800071ee:	e0 a0 0a f7 	rcall	800087dc <__pow5mult>
800071f2:	06 9a       	mov	r10,r3
800071f4:	18 9b       	mov	r11,r12
800071f6:	18 94       	mov	r4,r12
800071f8:	0e 9c       	mov	r12,r7
800071fa:	e0 a0 0a 2b 	rcall	80008650 <__multiply>
800071fe:	18 99       	mov	r9,r12
80007200:	06 9b       	mov	r11,r3
80007202:	50 19       	stdsp	sp[0x4],r9
80007204:	0e 9c       	mov	r12,r7
80007206:	e0 a0 08 d7 	rcall	800083b4 <_Bfree>
8000720a:	40 19       	lddsp	r9,sp[0x4]
8000720c:	40 08       	lddsp	r8,sp[0x0]
8000720e:	12 93       	mov	r3,r9
80007210:	e4 08 01 0a 	sub	r10,r2,r8
80007214:	c0 80       	breq	80007224 <_dtoa_r+0x834>
80007216:	c0 28       	rjmp	8000721a <_dtoa_r+0x82a>
80007218:	04 9a       	mov	r10,r2
8000721a:	06 9b       	mov	r11,r3
8000721c:	0e 9c       	mov	r12,r7
8000721e:	e0 a0 0a df 	rcall	800087dc <__pow5mult>
80007222:	18 93       	mov	r3,r12
80007224:	30 1b       	mov	r11,1
80007226:	0e 9c       	mov	r12,r7
80007228:	e0 a0 0a 94 	rcall	80008750 <__i2b>
8000722c:	41 1a       	lddsp	r10,sp[0x44]
8000722e:	18 92       	mov	r2,r12
80007230:	58 0a       	cp.w	r10,0
80007232:	e0 8a 00 07 	brle	80007240 <_dtoa_r+0x850>
80007236:	18 9b       	mov	r11,r12
80007238:	0e 9c       	mov	r12,r7
8000723a:	e0 a0 0a d1 	rcall	800087dc <__pow5mult>
8000723e:	18 92       	mov	r2,r12
80007240:	40 c9       	lddsp	r9,sp[0x30]
80007242:	58 19       	cp.w	r9,1
80007244:	e0 89 00 14 	brgt	8000726c <_dtoa_r+0x87c>
80007248:	40 38       	lddsp	r8,sp[0xc]
8000724a:	58 08       	cp.w	r8,0
8000724c:	c1 01       	brne	8000726c <_dtoa_r+0x87c>
8000724e:	40 29       	lddsp	r9,sp[0x8]
80007250:	f1 d9 c0 14 	bfextu	r8,r9,0x0,0x14
80007254:	c0 c1       	brne	8000726c <_dtoa_r+0x87c>
80007256:	12 98       	mov	r8,r9
80007258:	e6 18 7f f0 	andh	r8,0x7ff0,COH
8000725c:	c0 80       	breq	8000726c <_dtoa_r+0x87c>
8000725e:	40 4c       	lddsp	r12,sp[0x10]
80007260:	30 1b       	mov	r11,1
80007262:	2f fc       	sub	r12,-1
80007264:	2f f0       	sub	r0,-1
80007266:	50 4c       	stdsp	sp[0x10],r12
80007268:	50 6b       	stdsp	sp[0x18],r11
8000726a:	c0 38       	rjmp	80007270 <_dtoa_r+0x880>
8000726c:	30 0a       	mov	r10,0
8000726e:	50 6a       	stdsp	sp[0x18],r10
80007270:	41 19       	lddsp	r9,sp[0x44]
80007272:	58 09       	cp.w	r9,0
80007274:	c0 31       	brne	8000727a <_dtoa_r+0x88a>
80007276:	30 1c       	mov	r12,1
80007278:	c0 98       	rjmp	8000728a <_dtoa_r+0x89a>
8000727a:	64 48       	ld.w	r8,r2[0x10]
8000727c:	2f c8       	sub	r8,-4
8000727e:	e4 08 03 2c 	ld.w	r12,r2[r8<<0x2]
80007282:	e0 a0 08 08 	rcall	80008292 <__hi0bits>
80007286:	f8 0c 11 20 	rsub	r12,r12,32
8000728a:	40 4b       	lddsp	r11,sp[0x10]
8000728c:	f8 0b 00 08 	add	r8,r12,r11
80007290:	f1 d8 c0 05 	bfextu	r8,r8,0x0,0x5
80007294:	c0 c0       	breq	800072ac <_dtoa_r+0x8bc>
80007296:	f0 08 11 20 	rsub	r8,r8,32
8000729a:	58 48       	cp.w	r8,4
8000729c:	e0 8a 00 06 	brle	800072a8 <_dtoa_r+0x8b8>
800072a0:	20 48       	sub	r8,4
800072a2:	10 0b       	add	r11,r8
800072a4:	50 4b       	stdsp	sp[0x10],r11
800072a6:	c0 78       	rjmp	800072b4 <_dtoa_r+0x8c4>
800072a8:	58 48       	cp.w	r8,4
800072aa:	c0 70       	breq	800072b8 <_dtoa_r+0x8c8>
800072ac:	40 4a       	lddsp	r10,sp[0x10]
800072ae:	2e 48       	sub	r8,-28
800072b0:	10 0a       	add	r10,r8
800072b2:	50 4a       	stdsp	sp[0x10],r10
800072b4:	10 00       	add	r0,r8
800072b6:	10 05       	add	r5,r8
800072b8:	58 00       	cp.w	r0,0
800072ba:	e0 8a 00 08 	brle	800072ca <_dtoa_r+0x8da>
800072be:	06 9b       	mov	r11,r3
800072c0:	00 9a       	mov	r10,r0
800072c2:	0e 9c       	mov	r12,r7
800072c4:	e0 a0 09 82 	rcall	800085c8 <__lshift>
800072c8:	18 93       	mov	r3,r12
800072ca:	40 49       	lddsp	r9,sp[0x10]
800072cc:	58 09       	cp.w	r9,0
800072ce:	e0 8a 00 08 	brle	800072de <_dtoa_r+0x8ee>
800072d2:	04 9b       	mov	r11,r2
800072d4:	12 9a       	mov	r10,r9
800072d6:	0e 9c       	mov	r12,r7
800072d8:	e0 a0 09 78 	rcall	800085c8 <__lshift>
800072dc:	18 92       	mov	r2,r12
800072de:	41 48       	lddsp	r8,sp[0x50]
800072e0:	58 08       	cp.w	r8,0
800072e2:	c1 b0       	breq	80007318 <_dtoa_r+0x928>
800072e4:	04 9b       	mov	r11,r2
800072e6:	06 9c       	mov	r12,r3
800072e8:	e0 a0 08 4c 	rcall	80008380 <__mcmp>
800072ec:	c1 64       	brge	80007318 <_dtoa_r+0x928>
800072ee:	06 9b       	mov	r11,r3
800072f0:	30 09       	mov	r9,0
800072f2:	30 aa       	mov	r10,10
800072f4:	0e 9c       	mov	r12,r7
800072f6:	e0 a0 0a 35 	rcall	80008760 <__multadd>
800072fa:	20 16       	sub	r6,1
800072fc:	18 93       	mov	r3,r12
800072fe:	40 dc       	lddsp	r12,sp[0x34]
80007300:	58 0c       	cp.w	r12,0
80007302:	c0 31       	brne	80007308 <_dtoa_r+0x918>
80007304:	40 91       	lddsp	r1,sp[0x24]
80007306:	c0 98       	rjmp	80007318 <_dtoa_r+0x928>
80007308:	08 9b       	mov	r11,r4
8000730a:	40 91       	lddsp	r1,sp[0x24]
8000730c:	30 09       	mov	r9,0
8000730e:	30 aa       	mov	r10,10
80007310:	0e 9c       	mov	r12,r7
80007312:	e0 a0 0a 27 	rcall	80008760 <__multadd>
80007316:	18 94       	mov	r4,r12
80007318:	58 01       	cp.w	r1,0
8000731a:	5f a9       	srle	r9
8000731c:	40 cb       	lddsp	r11,sp[0x30]
8000731e:	58 2b       	cp.w	r11,2
80007320:	5f 98       	srgt	r8
80007322:	f3 e8 00 08 	and	r8,r9,r8
80007326:	c2 50       	breq	80007370 <_dtoa_r+0x980>
80007328:	58 01       	cp.w	r1,0
8000732a:	c1 11       	brne	8000734c <_dtoa_r+0x95c>
8000732c:	04 9b       	mov	r11,r2
8000732e:	02 99       	mov	r9,r1
80007330:	30 5a       	mov	r10,5
80007332:	0e 9c       	mov	r12,r7
80007334:	e0 a0 0a 16 	rcall	80008760 <__multadd>
80007338:	18 92       	mov	r2,r12
8000733a:	18 9b       	mov	r11,r12
8000733c:	06 9c       	mov	r12,r3
8000733e:	e0 a0 08 21 	rcall	80008380 <__mcmp>
80007342:	e0 89 00 0f 	brgt	80007360 <_dtoa_r+0x970>
80007346:	c0 38       	rjmp	8000734c <_dtoa_r+0x95c>
80007348:	30 02       	mov	r2,0
8000734a:	04 94       	mov	r4,r2
8000734c:	40 ea       	lddsp	r10,sp[0x38]
8000734e:	30 09       	mov	r9,0
80007350:	5c da       	com	r10
80007352:	40 85       	lddsp	r5,sp[0x20]
80007354:	50 6a       	stdsp	sp[0x18],r10
80007356:	50 49       	stdsp	sp[0x10],r9
80007358:	c0 f9       	rjmp	80007576 <_dtoa_r+0xb86>
8000735a:	08 92       	mov	r2,r4
8000735c:	40 66       	lddsp	r6,sp[0x18]
8000735e:	04 94       	mov	r4,r2
80007360:	2f f6       	sub	r6,-1
80007362:	50 66       	stdsp	sp[0x18],r6
80007364:	33 18       	mov	r8,49
80007366:	40 85       	lddsp	r5,sp[0x20]
80007368:	0a c8       	st.b	r5++,r8
8000736a:	30 08       	mov	r8,0
8000736c:	50 48       	stdsp	sp[0x10],r8
8000736e:	c0 49       	rjmp	80007576 <_dtoa_r+0xb86>
80007370:	40 dc       	lddsp	r12,sp[0x34]
80007372:	58 0c       	cp.w	r12,0
80007374:	e0 80 00 b5 	breq	800074de <_dtoa_r+0xaee>
80007378:	58 05       	cp.w	r5,0
8000737a:	e0 8a 00 08 	brle	8000738a <_dtoa_r+0x99a>
8000737e:	08 9b       	mov	r11,r4
80007380:	0a 9a       	mov	r10,r5
80007382:	0e 9c       	mov	r12,r7
80007384:	e0 a0 09 22 	rcall	800085c8 <__lshift>
80007388:	18 94       	mov	r4,r12
8000738a:	40 6b       	lddsp	r11,sp[0x18]
8000738c:	58 0b       	cp.w	r11,0
8000738e:	c0 31       	brne	80007394 <_dtoa_r+0x9a4>
80007390:	08 9c       	mov	r12,r4
80007392:	c1 38       	rjmp	800073b8 <_dtoa_r+0x9c8>
80007394:	68 1b       	ld.w	r11,r4[0x4]
80007396:	0e 9c       	mov	r12,r7
80007398:	e0 a0 08 28 	rcall	800083e8 <_Balloc>
8000739c:	68 4a       	ld.w	r10,r4[0x10]
8000739e:	18 95       	mov	r5,r12
800073a0:	e8 cb ff f4 	sub	r11,r4,-12
800073a4:	2f ea       	sub	r10,-2
800073a6:	2f 4c       	sub	r12,-12
800073a8:	a3 6a       	lsl	r10,0x2
800073aa:	fe b0 e8 3f 	rcall	80004428 <memcpy>
800073ae:	0a 9b       	mov	r11,r5
800073b0:	30 1a       	mov	r10,1
800073b2:	0e 9c       	mov	r12,r7
800073b4:	e0 a0 09 0a 	rcall	800085c8 <__lshift>
800073b8:	50 44       	stdsp	sp[0x10],r4
800073ba:	40 3a       	lddsp	r10,sp[0xc]
800073bc:	30 19       	mov	r9,1
800073be:	f5 da c0 01 	bfextu	r10,r10,0x0,0x1
800073c2:	18 94       	mov	r4,r12
800073c4:	50 da       	stdsp	sp[0x34],r10
800073c6:	40 85       	lddsp	r5,sp[0x20]
800073c8:	50 99       	stdsp	sp[0x24],r9
800073ca:	50 26       	stdsp	sp[0x8],r6
800073cc:	50 e1       	stdsp	sp[0x38],r1
800073ce:	04 9b       	mov	r11,r2
800073d0:	06 9c       	mov	r12,r3
800073d2:	fe b0 fa 7f 	rcall	800068d0 <quorem>
800073d6:	40 4b       	lddsp	r11,sp[0x10]
800073d8:	f8 c0 ff d0 	sub	r0,r12,-48
800073dc:	06 9c       	mov	r12,r3
800073de:	e0 a0 07 d1 	rcall	80008380 <__mcmp>
800073e2:	08 9a       	mov	r10,r4
800073e4:	50 6c       	stdsp	sp[0x18],r12
800073e6:	04 9b       	mov	r11,r2
800073e8:	0e 9c       	mov	r12,r7
800073ea:	e0 a0 08 87 	rcall	800084f8 <__mdiff>
800073ee:	18 91       	mov	r1,r12
800073f0:	78 38       	ld.w	r8,r12[0xc]
800073f2:	58 08       	cp.w	r8,0
800073f4:	c0 30       	breq	800073fa <_dtoa_r+0xa0a>
800073f6:	30 16       	mov	r6,1
800073f8:	c0 68       	rjmp	80007404 <_dtoa_r+0xa14>
800073fa:	18 9b       	mov	r11,r12
800073fc:	06 9c       	mov	r12,r3
800073fe:	e0 a0 07 c1 	rcall	80008380 <__mcmp>
80007402:	18 96       	mov	r6,r12
80007404:	0e 9c       	mov	r12,r7
80007406:	02 9b       	mov	r11,r1
80007408:	e0 a0 07 d6 	rcall	800083b4 <_Bfree>
8000740c:	40 cc       	lddsp	r12,sp[0x30]
8000740e:	ed ec 10 08 	or	r8,r6,r12
80007412:	c0 d1       	brne	8000742c <_dtoa_r+0xa3c>
80007414:	40 db       	lddsp	r11,sp[0x34]
80007416:	58 0b       	cp.w	r11,0
80007418:	c0 a1       	brne	8000742c <_dtoa_r+0xa3c>
8000741a:	40 26       	lddsp	r6,sp[0x8]
8000741c:	e0 40 00 39 	cp.w	r0,57
80007420:	c3 00       	breq	80007480 <_dtoa_r+0xa90>
80007422:	40 6a       	lddsp	r10,sp[0x18]
80007424:	58 0a       	cp.w	r10,0
80007426:	e0 89 00 24 	brgt	8000746e <_dtoa_r+0xa7e>
8000742a:	c2 f8       	rjmp	80007488 <_dtoa_r+0xa98>
8000742c:	40 69       	lddsp	r9,sp[0x18]
8000742e:	58 09       	cp.w	r9,0
80007430:	c0 85       	brlt	80007440 <_dtoa_r+0xa50>
80007432:	12 98       	mov	r8,r9
80007434:	40 cc       	lddsp	r12,sp[0x30]
80007436:	18 48       	or	r8,r12
80007438:	c1 d1       	brne	80007472 <_dtoa_r+0xa82>
8000743a:	40 db       	lddsp	r11,sp[0x34]
8000743c:	58 0b       	cp.w	r11,0
8000743e:	c1 a1       	brne	80007472 <_dtoa_r+0xa82>
80007440:	0c 99       	mov	r9,r6
80007442:	40 26       	lddsp	r6,sp[0x8]
80007444:	58 09       	cp.w	r9,0
80007446:	e0 8a 00 21 	brle	80007488 <_dtoa_r+0xa98>
8000744a:	06 9b       	mov	r11,r3
8000744c:	30 1a       	mov	r10,1
8000744e:	0e 9c       	mov	r12,r7
80007450:	e0 a0 08 bc 	rcall	800085c8 <__lshift>
80007454:	04 9b       	mov	r11,r2
80007456:	18 93       	mov	r3,r12
80007458:	e0 a0 07 94 	rcall	80008380 <__mcmp>
8000745c:	e0 89 00 06 	brgt	80007468 <_dtoa_r+0xa78>
80007460:	c1 41       	brne	80007488 <_dtoa_r+0xa98>
80007462:	ed b0 00 00 	bld	r0,0x0
80007466:	c1 11       	brne	80007488 <_dtoa_r+0xa98>
80007468:	e0 40 00 39 	cp.w	r0,57
8000746c:	c0 a0       	breq	80007480 <_dtoa_r+0xa90>
8000746e:	2f f0       	sub	r0,-1
80007470:	c0 c8       	rjmp	80007488 <_dtoa_r+0xa98>
80007472:	58 06       	cp.w	r6,0
80007474:	e0 8a 00 0c 	brle	8000748c <_dtoa_r+0xa9c>
80007478:	40 26       	lddsp	r6,sp[0x8]
8000747a:	e0 40 00 39 	cp.w	r0,57
8000747e:	c0 41       	brne	80007486 <_dtoa_r+0xa96>
80007480:	33 98       	mov	r8,57
80007482:	0a c8       	st.b	r5++,r8
80007484:	c6 78       	rjmp	80007552 <_dtoa_r+0xb62>
80007486:	2f f0       	sub	r0,-1
80007488:	0a c0       	st.b	r5++,r0
8000748a:	c7 58       	rjmp	80007574 <_dtoa_r+0xb84>
8000748c:	0a c0       	st.b	r5++,r0
8000748e:	40 9a       	lddsp	r10,sp[0x24]
80007490:	40 e9       	lddsp	r9,sp[0x38]
80007492:	12 3a       	cp.w	r10,r9
80007494:	c4 30       	breq	8000751a <_dtoa_r+0xb2a>
80007496:	06 9b       	mov	r11,r3
80007498:	30 09       	mov	r9,0
8000749a:	30 aa       	mov	r10,10
8000749c:	0e 9c       	mov	r12,r7
8000749e:	e0 a0 09 61 	rcall	80008760 <__multadd>
800074a2:	40 48       	lddsp	r8,sp[0x10]
800074a4:	18 93       	mov	r3,r12
800074a6:	08 38       	cp.w	r8,r4
800074a8:	c0 91       	brne	800074ba <_dtoa_r+0xaca>
800074aa:	10 9b       	mov	r11,r8
800074ac:	30 09       	mov	r9,0
800074ae:	30 aa       	mov	r10,10
800074b0:	0e 9c       	mov	r12,r7
800074b2:	e0 a0 09 57 	rcall	80008760 <__multadd>
800074b6:	50 4c       	stdsp	sp[0x10],r12
800074b8:	c0 e8       	rjmp	800074d4 <_dtoa_r+0xae4>
800074ba:	40 4b       	lddsp	r11,sp[0x10]
800074bc:	30 09       	mov	r9,0
800074be:	30 aa       	mov	r10,10
800074c0:	0e 9c       	mov	r12,r7
800074c2:	e0 a0 09 4f 	rcall	80008760 <__multadd>
800074c6:	08 9b       	mov	r11,r4
800074c8:	50 4c       	stdsp	sp[0x10],r12
800074ca:	30 09       	mov	r9,0
800074cc:	30 aa       	mov	r10,10
800074ce:	0e 9c       	mov	r12,r7
800074d0:	e0 a0 09 48 	rcall	80008760 <__multadd>
800074d4:	18 94       	mov	r4,r12
800074d6:	40 9c       	lddsp	r12,sp[0x24]
800074d8:	2f fc       	sub	r12,-1
800074da:	50 9c       	stdsp	sp[0x24],r12
800074dc:	c7 9b       	rjmp	800073ce <_dtoa_r+0x9de>
800074de:	30 18       	mov	r8,1
800074e0:	06 90       	mov	r0,r3
800074e2:	40 85       	lddsp	r5,sp[0x20]
800074e4:	08 93       	mov	r3,r4
800074e6:	0c 94       	mov	r4,r6
800074e8:	10 96       	mov	r6,r8
800074ea:	04 9b       	mov	r11,r2
800074ec:	00 9c       	mov	r12,r0
800074ee:	fe b0 f9 f1 	rcall	800068d0 <quorem>
800074f2:	2d 0c       	sub	r12,-48
800074f4:	0a cc       	st.b	r5++,r12
800074f6:	02 36       	cp.w	r6,r1
800074f8:	c0 a4       	brge	8000750c <_dtoa_r+0xb1c>
800074fa:	00 9b       	mov	r11,r0
800074fc:	30 09       	mov	r9,0
800074fe:	30 aa       	mov	r10,10
80007500:	0e 9c       	mov	r12,r7
80007502:	2f f6       	sub	r6,-1
80007504:	e0 a0 09 2e 	rcall	80008760 <__multadd>
80007508:	18 90       	mov	r0,r12
8000750a:	cf 0b       	rjmp	800074ea <_dtoa_r+0xafa>
8000750c:	08 96       	mov	r6,r4
8000750e:	30 0b       	mov	r11,0
80007510:	06 94       	mov	r4,r3
80007512:	50 4b       	stdsp	sp[0x10],r11
80007514:	00 93       	mov	r3,r0
80007516:	18 90       	mov	r0,r12
80007518:	c0 28       	rjmp	8000751c <_dtoa_r+0xb2c>
8000751a:	40 26       	lddsp	r6,sp[0x8]
8000751c:	06 9b       	mov	r11,r3
8000751e:	30 1a       	mov	r10,1
80007520:	0e 9c       	mov	r12,r7
80007522:	e0 a0 08 53 	rcall	800085c8 <__lshift>
80007526:	04 9b       	mov	r11,r2
80007528:	18 93       	mov	r3,r12
8000752a:	e0 a0 07 2b 	rcall	80008380 <__mcmp>
8000752e:	e0 89 00 12 	brgt	80007552 <_dtoa_r+0xb62>
80007532:	c1 b1       	brne	80007568 <_dtoa_r+0xb78>
80007534:	e1 d0 c0 01 	bfextu	r0,r0,0x0,0x1
80007538:	c0 d1       	brne	80007552 <_dtoa_r+0xb62>
8000753a:	c1 78       	rjmp	80007568 <_dtoa_r+0xb78>
8000753c:	40 89       	lddsp	r9,sp[0x20]
8000753e:	12 38       	cp.w	r8,r9
80007540:	c0 30       	breq	80007546 <_dtoa_r+0xb56>
80007542:	10 95       	mov	r5,r8
80007544:	c0 88       	rjmp	80007554 <_dtoa_r+0xb64>
80007546:	2f f6       	sub	r6,-1
80007548:	50 66       	stdsp	sp[0x18],r6
8000754a:	33 18       	mov	r8,49
8000754c:	40 8c       	lddsp	r12,sp[0x20]
8000754e:	b8 88       	st.b	r12[0x0],r8
80007550:	c1 38       	rjmp	80007576 <_dtoa_r+0xb86>
80007552:	33 9a       	mov	r10,57
80007554:	0a 98       	mov	r8,r5
80007556:	11 79       	ld.ub	r9,--r8
80007558:	f4 09 18 00 	cp.b	r9,r10
8000755c:	cf 00       	breq	8000753c <_dtoa_r+0xb4c>
8000755e:	2f f9       	sub	r9,-1
80007560:	b0 89       	st.b	r8[0x0],r9
80007562:	c0 98       	rjmp	80007574 <_dtoa_r+0xb84>
80007564:	10 95       	mov	r5,r8
80007566:	c0 28       	rjmp	8000756a <_dtoa_r+0xb7a>
80007568:	33 09       	mov	r9,48
8000756a:	0a 98       	mov	r8,r5
8000756c:	11 7a       	ld.ub	r10,--r8
8000756e:	f2 0a 18 00 	cp.b	r10,r9
80007572:	cf 90       	breq	80007564 <_dtoa_r+0xb74>
80007574:	50 66       	stdsp	sp[0x18],r6
80007576:	04 9b       	mov	r11,r2
80007578:	0e 9c       	mov	r12,r7
8000757a:	e0 a0 07 1d 	rcall	800083b4 <_Bfree>
8000757e:	58 04       	cp.w	r4,0
80007580:	c1 20       	breq	800075a4 <_dtoa_r+0xbb4>
80007582:	40 4b       	lddsp	r11,sp[0x10]
80007584:	08 3b       	cp.w	r11,r4
80007586:	5f 19       	srne	r9
80007588:	58 0b       	cp.w	r11,0
8000758a:	5f 18       	srne	r8
8000758c:	f3 e8 00 08 	and	r8,r9,r8
80007590:	c0 40       	breq	80007598 <_dtoa_r+0xba8>
80007592:	0e 9c       	mov	r12,r7
80007594:	e0 a0 07 10 	rcall	800083b4 <_Bfree>
80007598:	08 9b       	mov	r11,r4
8000759a:	0e 9c       	mov	r12,r7
8000759c:	e0 a0 07 0c 	rcall	800083b4 <_Bfree>
800075a0:	c0 28       	rjmp	800075a4 <_dtoa_r+0xbb4>
800075a2:	50 66       	stdsp	sp[0x18],r6
800075a4:	0e 9c       	mov	r12,r7
800075a6:	06 9b       	mov	r11,r3
800075a8:	e0 a0 07 06 	rcall	800083b4 <_Bfree>
800075ac:	30 08       	mov	r8,0
800075ae:	aa 88       	st.b	r5[0x0],r8
800075b0:	40 68       	lddsp	r8,sp[0x18]
800075b2:	41 5a       	lddsp	r10,sp[0x54]
800075b4:	2f f8       	sub	r8,-1
800075b6:	41 29       	lddsp	r9,sp[0x48]
800075b8:	95 08       	st.w	r10[0x0],r8
800075ba:	40 8c       	lddsp	r12,sp[0x20]
800075bc:	58 09       	cp.w	r9,0
800075be:	fb f8 10 12 	ld.wne	r8,sp[0x48]
800075c2:	f1 f5 1a 00 	st.wne	r8[0x0],r5
800075c6:	2e 6d       	sub	sp,-104
800075c8:	d8 32       	popm	r0-r7,pc
800075ca:	d7 03       	nop

800075cc <_fflush_r>:
800075cc:	d4 21       	pushm	r4-r7,lr
800075ce:	16 97       	mov	r7,r11
800075d0:	18 96       	mov	r6,r12
800075d2:	76 48       	ld.w	r8,r11[0x10]
800075d4:	58 08       	cp.w	r8,0
800075d6:	c7 f0       	breq	800076d4 <_fflush_r+0x108>
800075d8:	58 0c       	cp.w	r12,0
800075da:	c0 50       	breq	800075e4 <_fflush_r+0x18>
800075dc:	78 68       	ld.w	r8,r12[0x18]
800075de:	58 08       	cp.w	r8,0
800075e0:	c0 21       	brne	800075e4 <_fflush_r+0x18>
800075e2:	cc dc       	rcall	8000777c <__sinit>
800075e4:	fe c8 d2 a8 	sub	r8,pc,-11608
800075e8:	10 37       	cp.w	r7,r8
800075ea:	c0 31       	brne	800075f0 <_fflush_r+0x24>
800075ec:	6c 07       	ld.w	r7,r6[0x0]
800075ee:	c0 c8       	rjmp	80007606 <_fflush_r+0x3a>
800075f0:	fe c8 d2 94 	sub	r8,pc,-11628
800075f4:	10 37       	cp.w	r7,r8
800075f6:	c0 31       	brne	800075fc <_fflush_r+0x30>
800075f8:	6c 17       	ld.w	r7,r6[0x4]
800075fa:	c0 68       	rjmp	80007606 <_fflush_r+0x3a>
800075fc:	fe c8 d2 80 	sub	r8,pc,-11648
80007600:	10 37       	cp.w	r7,r8
80007602:	ed f7 00 02 	ld.weq	r7,r6[0x8]
80007606:	8e 6a       	ld.sh	r10,r7[0xc]
80007608:	14 98       	mov	r8,r10
8000760a:	ed ba 00 03 	bld	r10,0x3
8000760e:	c4 20       	breq	80007692 <_fflush_r+0xc6>
80007610:	ab ba       	sbr	r10,0xb
80007612:	ae 6a       	st.h	r7[0xc],r10
80007614:	6e 18       	ld.w	r8,r7[0x4]
80007616:	58 08       	cp.w	r8,0
80007618:	e0 89 00 06 	brgt	80007624 <_fflush_r+0x58>
8000761c:	6f 08       	ld.w	r8,r7[0x40]
8000761e:	58 08       	cp.w	r8,0
80007620:	e0 8a 00 5a 	brle	800076d4 <_fflush_r+0x108>
80007624:	6e b8       	ld.w	r8,r7[0x2c]
80007626:	58 08       	cp.w	r8,0
80007628:	c5 60       	breq	800076d4 <_fflush_r+0x108>
8000762a:	e2 1a 10 00 	andl	r10,0x1000,COH
8000762e:	c0 30       	breq	80007634 <_fflush_r+0x68>
80007630:	6f 55       	ld.w	r5,r7[0x54]
80007632:	c0 f8       	rjmp	80007650 <_fflush_r+0x84>
80007634:	30 19       	mov	r9,1
80007636:	6e 8b       	ld.w	r11,r7[0x20]
80007638:	0c 9c       	mov	r12,r6
8000763a:	5d 18       	icall	r8
8000763c:	18 95       	mov	r5,r12
8000763e:	5b fc       	cp.w	r12,-1
80007640:	c0 81       	brne	80007650 <_fflush_r+0x84>
80007642:	6c 38       	ld.w	r8,r6[0xc]
80007644:	59 d8       	cp.w	r8,29
80007646:	c4 70       	breq	800076d4 <_fflush_r+0x108>
80007648:	8e 68       	ld.sh	r8,r7[0xc]
8000764a:	a7 a8       	sbr	r8,0x6
8000764c:	ae 68       	st.h	r7[0xc],r8
8000764e:	d8 22       	popm	r4-r7,pc
80007650:	8e 68       	ld.sh	r8,r7[0xc]
80007652:	ed b8 00 02 	bld	r8,0x2
80007656:	c0 91       	brne	80007668 <_fflush_r+0x9c>
80007658:	6e 18       	ld.w	r8,r7[0x4]
8000765a:	10 15       	sub	r5,r8
8000765c:	6e d8       	ld.w	r8,r7[0x34]
8000765e:	58 08       	cp.w	r8,0
80007660:	ef f8 10 10 	ld.wne	r8,r7[0x40]
80007664:	eb d8 e1 15 	subne	r5,r5,r8
80007668:	6e b8       	ld.w	r8,r7[0x2c]
8000766a:	0c 9c       	mov	r12,r6
8000766c:	30 09       	mov	r9,0
8000766e:	0a 9a       	mov	r10,r5
80007670:	6e 8b       	ld.w	r11,r7[0x20]
80007672:	5d 18       	icall	r8
80007674:	8e 68       	ld.sh	r8,r7[0xc]
80007676:	0a 3c       	cp.w	r12,r5
80007678:	c2 61       	brne	800076c4 <_fflush_r+0xf8>
8000767a:	ab d8       	cbr	r8,0xb
8000767c:	30 0c       	mov	r12,0
8000767e:	6e 49       	ld.w	r9,r7[0x10]
80007680:	ae 68       	st.h	r7[0xc],r8
80007682:	8f 1c       	st.w	r7[0x4],r12
80007684:	8f 09       	st.w	r7[0x0],r9
80007686:	ed b8 00 0c 	bld	r8,0xc
8000768a:	c2 51       	brne	800076d4 <_fflush_r+0x108>
8000768c:	ef 45 00 54 	st.w	r7[84],r5
80007690:	d8 22       	popm	r4-r7,pc
80007692:	6e 45       	ld.w	r5,r7[0x10]
80007694:	58 05       	cp.w	r5,0
80007696:	c1 f0       	breq	800076d4 <_fflush_r+0x108>
80007698:	6e 04       	ld.w	r4,r7[0x0]
8000769a:	f5 da c0 02 	bfextu	r10,r10,0x0,0x2
8000769e:	8f 05       	st.w	r7[0x0],r5
800076a0:	f9 b8 01 00 	movne	r8,0
800076a4:	ef f8 00 05 	ld.weq	r8,r7[0x14]
800076a8:	0a 14       	sub	r4,r5
800076aa:	8f 28       	st.w	r7[0x8],r8
800076ac:	c1 18       	rjmp	800076ce <_fflush_r+0x102>
800076ae:	08 99       	mov	r9,r4
800076b0:	0a 9a       	mov	r10,r5
800076b2:	6e a8       	ld.w	r8,r7[0x28]
800076b4:	6e 8b       	ld.w	r11,r7[0x20]
800076b6:	0c 9c       	mov	r12,r6
800076b8:	5d 18       	icall	r8
800076ba:	18 14       	sub	r4,r12
800076bc:	58 0c       	cp.w	r12,0
800076be:	e0 89 00 07 	brgt	800076cc <_fflush_r+0x100>
800076c2:	8e 68       	ld.sh	r8,r7[0xc]
800076c4:	a7 a8       	sbr	r8,0x6
800076c6:	3f fc       	mov	r12,-1
800076c8:	ae 68       	st.h	r7[0xc],r8
800076ca:	d8 22       	popm	r4-r7,pc
800076cc:	18 05       	add	r5,r12
800076ce:	58 04       	cp.w	r4,0
800076d0:	fe 99 ff ef 	brgt	800076ae <_fflush_r+0xe2>
800076d4:	d8 2a       	popm	r4-r7,pc,r12=0
800076d6:	d7 03       	nop

800076d8 <__sfp_lock_acquire>:
800076d8:	5e fc       	retal	r12

800076da <__sfp_lock_release>:
800076da:	5e fc       	retal	r12

800076dc <_cleanup_r>:
800076dc:	d4 01       	pushm	lr
800076de:	fe cb e8 6a 	sub	r11,pc,-6038
800076e2:	e0 a0 02 fd 	rcall	80007cdc <_fwalk>
800076e6:	d8 02       	popm	pc

800076e8 <__sfmoreglue>:
800076e8:	d4 21       	pushm	r4-r7,lr
800076ea:	16 95       	mov	r5,r11
800076ec:	f6 06 10 5c 	mul	r6,r11,92
800076f0:	ec cb ff f4 	sub	r11,r6,-12
800076f4:	e0 a0 03 84 	rcall	80007dfc <_malloc_r>
800076f8:	18 97       	mov	r7,r12
800076fa:	c0 90       	breq	8000770c <__sfmoreglue+0x24>
800076fc:	99 15       	st.w	r12[0x4],r5
800076fe:	30 0b       	mov	r11,0
80007700:	2f 4c       	sub	r12,-12
80007702:	0c 9a       	mov	r10,r6
80007704:	8f 2c       	st.w	r7[0x8],r12
80007706:	8f 0b       	st.w	r7[0x0],r11
80007708:	e0 a0 05 bc 	rcall	80008280 <memset>
8000770c:	0e 9c       	mov	r12,r7
8000770e:	d8 22       	popm	r4-r7,pc

80007710 <__sfp>:
80007710:	d4 21       	pushm	r4-r7,lr
80007712:	fe c8 d7 be 	sub	r8,pc,-10306
80007716:	18 96       	mov	r6,r12
80007718:	70 07       	ld.w	r7,r8[0x0]
8000771a:	6e 68       	ld.w	r8,r7[0x18]
8000771c:	58 08       	cp.w	r8,0
8000771e:	c0 31       	brne	80007724 <__sfp+0x14>
80007720:	0e 9c       	mov	r12,r7
80007722:	c2 dc       	rcall	8000777c <__sinit>
80007724:	ee c7 ff 28 	sub	r7,r7,-216
80007728:	30 05       	mov	r5,0
8000772a:	6e 2c       	ld.w	r12,r7[0x8]
8000772c:	6e 18       	ld.w	r8,r7[0x4]
8000772e:	c0 68       	rjmp	8000773a <__sfp+0x2a>
80007730:	98 69       	ld.sh	r9,r12[0xc]
80007732:	ea 09 19 00 	cp.h	r9,r5
80007736:	c1 10       	breq	80007758 <__sfp+0x48>
80007738:	2a 4c       	sub	r12,-92
8000773a:	20 18       	sub	r8,1
8000773c:	cf a7       	brpl	80007730 <__sfp+0x20>
8000773e:	6e 08       	ld.w	r8,r7[0x0]
80007740:	58 08       	cp.w	r8,0
80007742:	c0 61       	brne	8000774e <__sfp+0x3e>
80007744:	30 4b       	mov	r11,4
80007746:	0c 9c       	mov	r12,r6
80007748:	cd 0f       	rcall	800076e8 <__sfmoreglue>
8000774a:	8f 0c       	st.w	r7[0x0],r12
8000774c:	c0 30       	breq	80007752 <__sfp+0x42>
8000774e:	6e 07       	ld.w	r7,r7[0x0]
80007750:	ce db       	rjmp	8000772a <__sfp+0x1a>
80007752:	30 c8       	mov	r8,12
80007754:	8d 38       	st.w	r6[0xc],r8
80007756:	d8 22       	popm	r4-r7,pc
80007758:	30 08       	mov	r8,0
8000775a:	f9 48 00 4c 	st.w	r12[76],r8
8000775e:	99 08       	st.w	r12[0x0],r8
80007760:	99 28       	st.w	r12[0x8],r8
80007762:	99 18       	st.w	r12[0x4],r8
80007764:	99 48       	st.w	r12[0x10],r8
80007766:	99 58       	st.w	r12[0x14],r8
80007768:	99 68       	st.w	r12[0x18],r8
8000776a:	99 d8       	st.w	r12[0x34],r8
8000776c:	99 e8       	st.w	r12[0x38],r8
8000776e:	f9 48 00 48 	st.w	r12[72],r8
80007772:	3f f8       	mov	r8,-1
80007774:	b8 78       	st.h	r12[0xe],r8
80007776:	30 18       	mov	r8,1
80007778:	b8 68       	st.h	r12[0xc],r8
8000777a:	d8 22       	popm	r4-r7,pc

8000777c <__sinit>:
8000777c:	d4 21       	pushm	r4-r7,lr
8000777e:	18 96       	mov	r6,r12
80007780:	78 67       	ld.w	r7,r12[0x18]
80007782:	58 07       	cp.w	r7,0
80007784:	c4 91       	brne	80007816 <__sinit+0x9a>
80007786:	fe c8 00 aa 	sub	r8,pc,170
8000778a:	30 15       	mov	r5,1
8000778c:	99 a8       	st.w	r12[0x28],r8
8000778e:	f9 47 00 d8 	st.w	r12[216],r7
80007792:	f9 47 00 dc 	st.w	r12[220],r7
80007796:	f9 47 00 e0 	st.w	r12[224],r7
8000779a:	99 65       	st.w	r12[0x18],r5
8000779c:	cb af       	rcall	80007710 <__sfp>
8000779e:	8d 0c       	st.w	r6[0x0],r12
800077a0:	0c 9c       	mov	r12,r6
800077a2:	cb 7f       	rcall	80007710 <__sfp>
800077a4:	8d 1c       	st.w	r6[0x4],r12
800077a6:	0c 9c       	mov	r12,r6
800077a8:	cb 4f       	rcall	80007710 <__sfp>
800077aa:	6c 09       	ld.w	r9,r6[0x0]
800077ac:	30 48       	mov	r8,4
800077ae:	93 07       	st.w	r9[0x0],r7
800077b0:	b2 68       	st.h	r9[0xc],r8
800077b2:	93 17       	st.w	r9[0x4],r7
800077b4:	93 27       	st.w	r9[0x8],r7
800077b6:	6c 18       	ld.w	r8,r6[0x4]
800077b8:	b2 77       	st.h	r9[0xe],r7
800077ba:	93 47       	st.w	r9[0x10],r7
800077bc:	93 57       	st.w	r9[0x14],r7
800077be:	93 67       	st.w	r9[0x18],r7
800077c0:	93 89       	st.w	r9[0x20],r9
800077c2:	91 07       	st.w	r8[0x0],r7
800077c4:	91 17       	st.w	r8[0x4],r7
800077c6:	91 27       	st.w	r8[0x8],r7
800077c8:	fe ce eb e4 	sub	lr,pc,-5148
800077cc:	fe cb ec 14 	sub	r11,pc,-5100
800077d0:	93 9e       	st.w	r9[0x24],lr
800077d2:	93 ab       	st.w	r9[0x28],r11
800077d4:	fe ca ec 3c 	sub	r10,pc,-5060
800077d8:	fe c4 ec 48 	sub	r4,pc,-5048
800077dc:	93 ba       	st.w	r9[0x2c],r10
800077de:	93 c4       	st.w	r9[0x30],r4
800077e0:	30 99       	mov	r9,9
800077e2:	b0 69       	st.h	r8[0xc],r9
800077e4:	b0 75       	st.h	r8[0xe],r5
800077e6:	91 c4       	st.w	r8[0x30],r4
800077e8:	91 47       	st.w	r8[0x10],r7
800077ea:	91 57       	st.w	r8[0x14],r7
800077ec:	91 67       	st.w	r8[0x18],r7
800077ee:	91 88       	st.w	r8[0x20],r8
800077f0:	91 9e       	st.w	r8[0x24],lr
800077f2:	91 ab       	st.w	r8[0x28],r11
800077f4:	91 ba       	st.w	r8[0x2c],r10
800077f6:	8d 2c       	st.w	r6[0x8],r12
800077f8:	31 28       	mov	r8,18
800077fa:	99 07       	st.w	r12[0x0],r7
800077fc:	b8 68       	st.h	r12[0xc],r8
800077fe:	99 17       	st.w	r12[0x4],r7
80007800:	99 27       	st.w	r12[0x8],r7
80007802:	30 28       	mov	r8,2
80007804:	b8 78       	st.h	r12[0xe],r8
80007806:	99 c4       	st.w	r12[0x30],r4
80007808:	99 67       	st.w	r12[0x18],r7
8000780a:	99 9e       	st.w	r12[0x24],lr
8000780c:	99 ab       	st.w	r12[0x28],r11
8000780e:	99 ba       	st.w	r12[0x2c],r10
80007810:	99 47       	st.w	r12[0x10],r7
80007812:	99 57       	st.w	r12[0x14],r7
80007814:	99 8c       	st.w	r12[0x20],r12
80007816:	d8 22       	popm	r4-r7,pc

80007818 <_malloc_trim_r>:
80007818:	d4 21       	pushm	r4-r7,lr
8000781a:	16 95       	mov	r5,r11
8000781c:	18 97       	mov	r7,r12
8000781e:	e0 a0 05 38 	rcall	8000828e <__malloc_lock>
80007822:	e0 64 01 00 	mov	r4,256
80007826:	68 28       	ld.w	r8,r4[0x8]
80007828:	70 16       	ld.w	r6,r8[0x4]
8000782a:	e0 16 ff fc 	andl	r6,0xfffc
8000782e:	ec c8 ff 91 	sub	r8,r6,-111
80007832:	f0 05 01 05 	sub	r5,r8,r5
80007836:	e0 15 ff 80 	andl	r5,0xff80
8000783a:	ea c5 00 80 	sub	r5,r5,128
8000783e:	e0 45 00 7f 	cp.w	r5,127
80007842:	e0 8a 00 25 	brle	8000788c <_malloc_trim_r+0x74>
80007846:	30 0b       	mov	r11,0
80007848:	0e 9c       	mov	r12,r7
8000784a:	e0 a0 09 93 	rcall	80008b70 <_sbrk_r>
8000784e:	68 28       	ld.w	r8,r4[0x8]
80007850:	0c 08       	add	r8,r6
80007852:	10 3c       	cp.w	r12,r8
80007854:	c1 c1       	brne	8000788c <_malloc_trim_r+0x74>
80007856:	ea 0b 11 00 	rsub	r11,r5,0
8000785a:	0e 9c       	mov	r12,r7
8000785c:	e0 a0 09 8a 	rcall	80008b70 <_sbrk_r>
80007860:	5b fc       	cp.w	r12,-1
80007862:	c1 91       	brne	80007894 <_malloc_trim_r+0x7c>
80007864:	30 0b       	mov	r11,0
80007866:	0e 9c       	mov	r12,r7
80007868:	e0 a0 09 84 	rcall	80008b70 <_sbrk_r>
8000786c:	68 28       	ld.w	r8,r4[0x8]
8000786e:	f8 08 01 09 	sub	r9,r12,r8
80007872:	58 f9       	cp.w	r9,15
80007874:	e0 8a 00 0c 	brle	8000788c <_malloc_trim_r+0x74>
80007878:	a1 a9       	sbr	r9,0x0
8000787a:	91 19       	st.w	r8[0x4],r9
8000787c:	e0 68 05 0c 	mov	r8,1292
80007880:	70 09       	ld.w	r9,r8[0x0]
80007882:	e0 68 06 2c 	mov	r8,1580
80007886:	f8 09 01 09 	sub	r9,r12,r9
8000788a:	91 09       	st.w	r8[0x0],r9
8000788c:	0e 9c       	mov	r12,r7
8000788e:	e0 a0 05 01 	rcall	80008290 <__malloc_unlock>
80007892:	d8 2a       	popm	r4-r7,pc,r12=0
80007894:	68 28       	ld.w	r8,r4[0x8]
80007896:	0a 16       	sub	r6,r5
80007898:	a1 a6       	sbr	r6,0x0
8000789a:	91 16       	st.w	r8[0x4],r6
8000789c:	e0 68 06 2c 	mov	r8,1580
800078a0:	70 09       	ld.w	r9,r8[0x0]
800078a2:	0a 19       	sub	r9,r5
800078a4:	0e 9c       	mov	r12,r7
800078a6:	91 09       	st.w	r8[0x0],r9
800078a8:	e0 a0 04 f4 	rcall	80008290 <__malloc_unlock>
800078ac:	da 2a       	popm	r4-r7,pc,r12=1
800078ae:	d7 03       	nop

800078b0 <_free_r>:
800078b0:	d4 21       	pushm	r4-r7,lr
800078b2:	16 96       	mov	r6,r11
800078b4:	18 97       	mov	r7,r12
800078b6:	58 0b       	cp.w	r11,0
800078b8:	e0 80 00 c0 	breq	80007a38 <_free_r+0x188>
800078bc:	e0 a0 04 e9 	rcall	8000828e <__malloc_lock>
800078c0:	20 86       	sub	r6,8
800078c2:	e0 6a 01 00 	mov	r10,256
800078c6:	6c 18       	ld.w	r8,r6[0x4]
800078c8:	74 2e       	ld.w	lr,r10[0x8]
800078ca:	f9 d8 c0 01 	bfextu	r12,r8,0x0,0x1
800078ce:	a1 c8       	cbr	r8,0x0
800078d0:	ec 08 00 09 	add	r9,r6,r8
800078d4:	72 1b       	ld.w	r11,r9[0x4]
800078d6:	e0 1b ff fc 	andl	r11,0xfffc
800078da:	1c 39       	cp.w	r9,lr
800078dc:	c1 e1       	brne	80007918 <_free_r+0x68>
800078de:	f6 08 00 08 	add	r8,r11,r8
800078e2:	58 0c       	cp.w	r12,0
800078e4:	c0 81       	brne	800078f4 <_free_r+0x44>
800078e6:	6c 09       	ld.w	r9,r6[0x0]
800078e8:	12 16       	sub	r6,r9
800078ea:	12 08       	add	r8,r9
800078ec:	6c 3b       	ld.w	r11,r6[0xc]
800078ee:	6c 29       	ld.w	r9,r6[0x8]
800078f0:	97 29       	st.w	r11[0x8],r9
800078f2:	93 3b       	st.w	r9[0xc],r11
800078f4:	10 99       	mov	r9,r8
800078f6:	95 26       	st.w	r10[0x8],r6
800078f8:	a1 a9       	sbr	r9,0x0
800078fa:	8d 19       	st.w	r6[0x4],r9
800078fc:	e0 69 05 08 	mov	r9,1288
80007900:	72 09       	ld.w	r9,r9[0x0]
80007902:	12 38       	cp.w	r8,r9
80007904:	c0 63       	brcs	80007910 <_free_r+0x60>
80007906:	e0 68 06 28 	mov	r8,1576
8000790a:	0e 9c       	mov	r12,r7
8000790c:	70 0b       	ld.w	r11,r8[0x0]
8000790e:	c8 5f       	rcall	80007818 <_malloc_trim_r>
80007910:	0e 9c       	mov	r12,r7
80007912:	e0 a0 04 bf 	rcall	80008290 <__malloc_unlock>
80007916:	d8 22       	popm	r4-r7,pc
80007918:	93 1b       	st.w	r9[0x4],r11
8000791a:	58 0c       	cp.w	r12,0
8000791c:	c0 30       	breq	80007922 <_free_r+0x72>
8000791e:	30 0c       	mov	r12,0
80007920:	c1 08       	rjmp	80007940 <_free_r+0x90>
80007922:	6c 0e       	ld.w	lr,r6[0x0]
80007924:	f4 c5 ff f8 	sub	r5,r10,-8
80007928:	1c 16       	sub	r6,lr
8000792a:	1c 08       	add	r8,lr
8000792c:	6c 2e       	ld.w	lr,r6[0x8]
8000792e:	0a 3e       	cp.w	lr,r5
80007930:	f9 bc 00 01 	moveq	r12,1
80007934:	ed f5 10 03 	ld.wne	r5,r6[0xc]
80007938:	eb fe 1a 02 	st.wne	r5[0x8],lr
8000793c:	fd f5 1a 03 	st.wne	lr[0xc],r5
80007940:	f2 0b 00 0e 	add	lr,r9,r11
80007944:	7c 1e       	ld.w	lr,lr[0x4]
80007946:	ed be 00 00 	bld	lr,0x0
8000794a:	c1 40       	breq	80007972 <_free_r+0xc2>
8000794c:	16 08       	add	r8,r11
8000794e:	58 0c       	cp.w	r12,0
80007950:	c0 d1       	brne	8000796a <_free_r+0xba>
80007952:	e0 6e 01 00 	mov	lr,256
80007956:	72 2b       	ld.w	r11,r9[0x8]
80007958:	2f 8e       	sub	lr,-8
8000795a:	1c 3b       	cp.w	r11,lr
8000795c:	c0 71       	brne	8000796a <_free_r+0xba>
8000795e:	97 36       	st.w	r11[0xc],r6
80007960:	97 26       	st.w	r11[0x8],r6
80007962:	8d 2b       	st.w	r6[0x8],r11
80007964:	8d 3b       	st.w	r6[0xc],r11
80007966:	30 1c       	mov	r12,1
80007968:	c0 58       	rjmp	80007972 <_free_r+0xc2>
8000796a:	72 2b       	ld.w	r11,r9[0x8]
8000796c:	72 39       	ld.w	r9,r9[0xc]
8000796e:	93 2b       	st.w	r9[0x8],r11
80007970:	97 39       	st.w	r11[0xc],r9
80007972:	10 99       	mov	r9,r8
80007974:	ec 08 09 08 	st.w	r6[r8],r8
80007978:	a1 a9       	sbr	r9,0x0
8000797a:	8d 19       	st.w	r6[0x4],r9
8000797c:	58 0c       	cp.w	r12,0
8000797e:	c5 a1       	brne	80007a32 <_free_r+0x182>
80007980:	e0 48 01 ff 	cp.w	r8,511
80007984:	e0 8b 00 13 	brhi	800079aa <_free_r+0xfa>
80007988:	a3 98       	lsr	r8,0x3
8000798a:	f4 08 00 39 	add	r9,r10,r8<<0x3
8000798e:	72 2b       	ld.w	r11,r9[0x8]
80007990:	8d 39       	st.w	r6[0xc],r9
80007992:	8d 2b       	st.w	r6[0x8],r11
80007994:	97 36       	st.w	r11[0xc],r6
80007996:	93 26       	st.w	r9[0x8],r6
80007998:	a3 48       	asr	r8,0x2
8000799a:	74 19       	ld.w	r9,r10[0x4]
8000799c:	30 1b       	mov	r11,1
8000799e:	f6 08 09 48 	lsl	r8,r11,r8
800079a2:	f3 e8 10 08 	or	r8,r9,r8
800079a6:	95 18       	st.w	r10[0x4],r8
800079a8:	c4 58       	rjmp	80007a32 <_free_r+0x182>
800079aa:	f0 0b 16 09 	lsr	r11,r8,0x9
800079ae:	58 4b       	cp.w	r11,4
800079b0:	e0 8b 00 06 	brhi	800079bc <_free_r+0x10c>
800079b4:	f0 0b 16 06 	lsr	r11,r8,0x6
800079b8:	2c 8b       	sub	r11,-56
800079ba:	c2 08       	rjmp	800079fa <_free_r+0x14a>
800079bc:	59 4b       	cp.w	r11,20
800079be:	e0 8b 00 04 	brhi	800079c6 <_free_r+0x116>
800079c2:	2a 5b       	sub	r11,-91
800079c4:	c1 b8       	rjmp	800079fa <_free_r+0x14a>
800079c6:	e0 4b 00 54 	cp.w	r11,84
800079ca:	e0 8b 00 06 	brhi	800079d6 <_free_r+0x126>
800079ce:	f0 0b 16 0c 	lsr	r11,r8,0xc
800079d2:	29 2b       	sub	r11,-110
800079d4:	c1 38       	rjmp	800079fa <_free_r+0x14a>
800079d6:	e0 4b 01 54 	cp.w	r11,340
800079da:	e0 8b 00 06 	brhi	800079e6 <_free_r+0x136>
800079de:	f0 0b 16 0f 	lsr	r11,r8,0xf
800079e2:	28 9b       	sub	r11,-119
800079e4:	c0 b8       	rjmp	800079fa <_free_r+0x14a>
800079e6:	e0 4b 05 54 	cp.w	r11,1364
800079ea:	e0 88 00 05 	brls	800079f4 <_free_r+0x144>
800079ee:	37 eb       	mov	r11,126
800079f0:	c0 58       	rjmp	800079fa <_free_r+0x14a>
800079f2:	d7 03       	nop
800079f4:	f0 0b 16 12 	lsr	r11,r8,0x12
800079f8:	28 4b       	sub	r11,-124
800079fa:	f4 0b 00 3c 	add	r12,r10,r11<<0x3
800079fe:	78 29       	ld.w	r9,r12[0x8]
80007a00:	18 39       	cp.w	r9,r12
80007a02:	c0 e1       	brne	80007a1e <_free_r+0x16e>
80007a04:	74 18       	ld.w	r8,r10[0x4]
80007a06:	a3 4b       	asr	r11,0x2
80007a08:	30 1c       	mov	r12,1
80007a0a:	f8 0b 09 4b 	lsl	r11,r12,r11
80007a0e:	f1 eb 10 0b 	or	r11,r8,r11
80007a12:	12 98       	mov	r8,r9
80007a14:	95 1b       	st.w	r10[0x4],r11
80007a16:	c0 a8       	rjmp	80007a2a <_free_r+0x17a>
80007a18:	72 29       	ld.w	r9,r9[0x8]
80007a1a:	18 39       	cp.w	r9,r12
80007a1c:	c0 60       	breq	80007a28 <_free_r+0x178>
80007a1e:	72 1a       	ld.w	r10,r9[0x4]
80007a20:	e0 1a ff fc 	andl	r10,0xfffc
80007a24:	14 38       	cp.w	r8,r10
80007a26:	cf 93       	brcs	80007a18 <_free_r+0x168>
80007a28:	72 38       	ld.w	r8,r9[0xc]
80007a2a:	8d 38       	st.w	r6[0xc],r8
80007a2c:	8d 29       	st.w	r6[0x8],r9
80007a2e:	93 36       	st.w	r9[0xc],r6
80007a30:	91 26       	st.w	r8[0x8],r6
80007a32:	0e 9c       	mov	r12,r7
80007a34:	e0 a0 04 2e 	rcall	80008290 <__malloc_unlock>
80007a38:	d8 22       	popm	r4-r7,pc
80007a3a:	d7 03       	nop

80007a3c <__sfvwrite_r>:
80007a3c:	d4 31       	pushm	r0-r7,lr
80007a3e:	20 3d       	sub	sp,12
80007a40:	14 94       	mov	r4,r10
80007a42:	18 95       	mov	r5,r12
80007a44:	16 97       	mov	r7,r11
80007a46:	74 28       	ld.w	r8,r10[0x8]
80007a48:	58 08       	cp.w	r8,0
80007a4a:	e0 80 01 45 	breq	80007cd4 <__sfvwrite_r+0x298>
80007a4e:	96 68       	ld.sh	r8,r11[0xc]
80007a50:	ed b8 00 03 	bld	r8,0x3
80007a54:	c0 41       	brne	80007a5c <__sfvwrite_r+0x20>
80007a56:	76 48       	ld.w	r8,r11[0x10]
80007a58:	58 08       	cp.w	r8,0
80007a5a:	c0 c1       	brne	80007a72 <__sfvwrite_r+0x36>
80007a5c:	0e 9b       	mov	r11,r7
80007a5e:	0a 9c       	mov	r12,r5
80007a60:	fe b0 f6 ca 	rcall	800067f4 <__swsetup_r>
80007a64:	c0 70       	breq	80007a72 <__sfvwrite_r+0x36>
80007a66:	8e 68       	ld.sh	r8,r7[0xc]
80007a68:	a7 a8       	sbr	r8,0x6
80007a6a:	ae 68       	st.h	r7[0xc],r8
80007a6c:	30 98       	mov	r8,9
80007a6e:	8b 38       	st.w	r5[0xc],r8
80007a70:	c3 09       	rjmp	80007cd0 <__sfvwrite_r+0x294>
80007a72:	8e 63       	ld.sh	r3,r7[0xc]
80007a74:	68 00       	ld.w	r0,r4[0x0]
80007a76:	06 96       	mov	r6,r3
80007a78:	e2 16 00 02 	andl	r6,0x2,COH
80007a7c:	c2 10       	breq	80007abe <__sfvwrite_r+0x82>
80007a7e:	30 03       	mov	r3,0
80007a80:	e0 62 04 00 	mov	r2,1024
80007a84:	06 96       	mov	r6,r3
80007a86:	c0 48       	rjmp	80007a8e <__sfvwrite_r+0x52>
80007a88:	60 03       	ld.w	r3,r0[0x0]
80007a8a:	60 16       	ld.w	r6,r0[0x4]
80007a8c:	2f 80       	sub	r0,-8
80007a8e:	58 06       	cp.w	r6,0
80007a90:	cf c0       	breq	80007a88 <__sfvwrite_r+0x4c>
80007a92:	e0 46 04 00 	cp.w	r6,1024
80007a96:	ec 09 17 80 	movls	r9,r6
80007a9a:	e4 09 17 b0 	movhi	r9,r2
80007a9e:	06 9a       	mov	r10,r3
80007aa0:	6e a8       	ld.w	r8,r7[0x28]
80007aa2:	6e 8b       	ld.w	r11,r7[0x20]
80007aa4:	0a 9c       	mov	r12,r5
80007aa6:	5d 18       	icall	r8
80007aa8:	18 16       	sub	r6,r12
80007aaa:	58 0c       	cp.w	r12,0
80007aac:	e0 8a 01 0f 	brle	80007cca <__sfvwrite_r+0x28e>
80007ab0:	68 28       	ld.w	r8,r4[0x8]
80007ab2:	18 18       	sub	r8,r12
80007ab4:	89 28       	st.w	r4[0x8],r8
80007ab6:	e0 80 01 0f 	breq	80007cd4 <__sfvwrite_r+0x298>
80007aba:	18 03       	add	r3,r12
80007abc:	ce 9b       	rjmp	80007a8e <__sfvwrite_r+0x52>
80007abe:	e7 d3 c0 01 	bfextu	r3,r3,0x0,0x1
80007ac2:	c0 70       	breq	80007ad0 <__sfvwrite_r+0x94>
80007ac4:	50 06       	stdsp	sp[0x0],r6
80007ac6:	0c 93       	mov	r3,r6
80007ac8:	0c 91       	mov	r1,r6
80007aca:	50 15       	stdsp	sp[0x4],r5
80007acc:	08 92       	mov	r2,r4
80007ace:	c9 e8       	rjmp	80007c0a <__sfvwrite_r+0x1ce>
80007ad0:	06 96       	mov	r6,r3
80007ad2:	08 91       	mov	r1,r4
80007ad4:	c0 48       	rjmp	80007adc <__sfvwrite_r+0xa0>
80007ad6:	60 03       	ld.w	r3,r0[0x0]
80007ad8:	60 16       	ld.w	r6,r0[0x4]
80007ada:	2f 80       	sub	r0,-8
80007adc:	58 06       	cp.w	r6,0
80007ade:	cf c0       	breq	80007ad6 <__sfvwrite_r+0x9a>
80007ae0:	8e 68       	ld.sh	r8,r7[0xc]
80007ae2:	6e 24       	ld.w	r4,r7[0x8]
80007ae4:	10 99       	mov	r9,r8
80007ae6:	e2 19 02 00 	andl	r9,0x200,COH
80007aea:	c5 50       	breq	80007b94 <__sfvwrite_r+0x158>
80007aec:	08 36       	cp.w	r6,r4
80007aee:	c4 33       	brcs	80007b74 <__sfvwrite_r+0x138>
80007af0:	10 99       	mov	r9,r8
80007af2:	e2 19 04 80 	andl	r9,0x480,COH
80007af6:	c3 f0       	breq	80007b74 <__sfvwrite_r+0x138>
80007af8:	6e 4b       	ld.w	r11,r7[0x10]
80007afa:	6e 09       	ld.w	r9,r7[0x0]
80007afc:	16 19       	sub	r9,r11
80007afe:	50 09       	stdsp	sp[0x0],r9
80007b00:	6e 59       	ld.w	r9,r7[0x14]
80007b02:	10 9c       	mov	r12,r8
80007b04:	f2 09 00 1a 	add	r10,r9,r9<<0x1
80007b08:	30 28       	mov	r8,2
80007b0a:	f4 08 0c 08 	divs	r8,r10,r8
80007b0e:	fa e9 00 04 	st.d	sp[4],r8
80007b12:	10 94       	mov	r4,r8
80007b14:	40 09       	lddsp	r9,sp[0x0]
80007b16:	e2 1c 04 00 	andl	r12,0x400,COH
80007b1a:	2f f9       	sub	r9,-1
80007b1c:	0c 09       	add	r9,r6
80007b1e:	12 38       	cp.w	r8,r9
80007b20:	f2 04 17 30 	movlo	r4,r9
80007b24:	58 0c       	cp.w	r12,0
80007b26:	c1 00       	breq	80007b46 <__sfvwrite_r+0x10a>
80007b28:	08 9b       	mov	r11,r4
80007b2a:	0a 9c       	mov	r12,r5
80007b2c:	c6 8d       	rcall	80007dfc <_malloc_r>
80007b2e:	18 92       	mov	r2,r12
80007b30:	c1 40       	breq	80007b58 <__sfvwrite_r+0x11c>
80007b32:	40 0a       	lddsp	r10,sp[0x0]
80007b34:	6e 4b       	ld.w	r11,r7[0x10]
80007b36:	fe b0 e4 79 	rcall	80004428 <memcpy>
80007b3a:	8e 68       	ld.sh	r8,r7[0xc]
80007b3c:	e0 18 fb 7f 	andl	r8,0xfb7f
80007b40:	a7 b8       	sbr	r8,0x7
80007b42:	ae 68       	st.h	r7[0xc],r8
80007b44:	c0 d8       	rjmp	80007b5e <__sfvwrite_r+0x122>
80007b46:	08 9a       	mov	r10,r4
80007b48:	0a 9c       	mov	r12,r5
80007b4a:	e0 a0 06 8f 	rcall	80008868 <_realloc_r>
80007b4e:	18 92       	mov	r2,r12
80007b50:	c0 71       	brne	80007b5e <__sfvwrite_r+0x122>
80007b52:	6e 4b       	ld.w	r11,r7[0x10]
80007b54:	0a 9c       	mov	r12,r5
80007b56:	ca de       	rcall	800078b0 <_free_r>
80007b58:	30 c8       	mov	r8,12
80007b5a:	8b 38       	st.w	r5[0xc],r8
80007b5c:	cb 78       	rjmp	80007cca <__sfvwrite_r+0x28e>
80007b5e:	40 0a       	lddsp	r10,sp[0x0]
80007b60:	40 09       	lddsp	r9,sp[0x0]
80007b62:	e8 0a 01 0a 	sub	r10,r4,r10
80007b66:	e4 09 00 08 	add	r8,r2,r9
80007b6a:	8f 54       	st.w	r7[0x14],r4
80007b6c:	8f 2a       	st.w	r7[0x8],r10
80007b6e:	8f 08       	st.w	r7[0x0],r8
80007b70:	8f 42       	st.w	r7[0x10],r2
80007b72:	0c 94       	mov	r4,r6
80007b74:	08 36       	cp.w	r6,r4
80007b76:	ec 04 17 30 	movlo	r4,r6
80007b7a:	06 9b       	mov	r11,r3
80007b7c:	08 9a       	mov	r10,r4
80007b7e:	6e 0c       	ld.w	r12,r7[0x0]
80007b80:	e0 a0 03 61 	rcall	80008242 <memmove>
80007b84:	6e 08       	ld.w	r8,r7[0x0]
80007b86:	08 08       	add	r8,r4
80007b88:	8f 08       	st.w	r7[0x0],r8
80007b8a:	6e 28       	ld.w	r8,r7[0x8]
80007b8c:	08 18       	sub	r8,r4
80007b8e:	0c 94       	mov	r4,r6
80007b90:	8f 28       	st.w	r7[0x8],r8
80007b92:	c3 08       	rjmp	80007bf2 <__sfvwrite_r+0x1b6>
80007b94:	08 36       	cp.w	r6,r4
80007b96:	5f ba       	srhi	r10
80007b98:	6e 0c       	ld.w	r12,r7[0x0]
80007b9a:	6e 48       	ld.w	r8,r7[0x10]
80007b9c:	10 3c       	cp.w	r12,r8
80007b9e:	5f b8       	srhi	r8
80007ba0:	f5 e8 00 08 	and	r8,r10,r8
80007ba4:	f2 08 18 00 	cp.b	r8,r9
80007ba8:	c0 e0       	breq	80007bc4 <__sfvwrite_r+0x188>
80007baa:	06 9b       	mov	r11,r3
80007bac:	08 9a       	mov	r10,r4
80007bae:	e0 a0 03 4a 	rcall	80008242 <memmove>
80007bb2:	6e 08       	ld.w	r8,r7[0x0]
80007bb4:	08 08       	add	r8,r4
80007bb6:	0e 9b       	mov	r11,r7
80007bb8:	8f 08       	st.w	r7[0x0],r8
80007bba:	0a 9c       	mov	r12,r5
80007bbc:	fe b0 fd 08 	rcall	800075cc <_fflush_r>
80007bc0:	c1 90       	breq	80007bf2 <__sfvwrite_r+0x1b6>
80007bc2:	c8 48       	rjmp	80007cca <__sfvwrite_r+0x28e>
80007bc4:	6e 59       	ld.w	r9,r7[0x14]
80007bc6:	12 36       	cp.w	r6,r9
80007bc8:	c0 a3       	brcs	80007bdc <__sfvwrite_r+0x1a0>
80007bca:	6e a8       	ld.w	r8,r7[0x28]
80007bcc:	06 9a       	mov	r10,r3
80007bce:	6e 8b       	ld.w	r11,r7[0x20]
80007bd0:	0a 9c       	mov	r12,r5
80007bd2:	5d 18       	icall	r8
80007bd4:	18 94       	mov	r4,r12
80007bd6:	e0 89 00 0e 	brgt	80007bf2 <__sfvwrite_r+0x1b6>
80007bda:	c7 88       	rjmp	80007cca <__sfvwrite_r+0x28e>
80007bdc:	0c 9a       	mov	r10,r6
80007bde:	06 9b       	mov	r11,r3
80007be0:	e0 a0 03 31 	rcall	80008242 <memmove>
80007be4:	6e 08       	ld.w	r8,r7[0x0]
80007be6:	0c 08       	add	r8,r6
80007be8:	0c 94       	mov	r4,r6
80007bea:	8f 08       	st.w	r7[0x0],r8
80007bec:	6e 28       	ld.w	r8,r7[0x8]
80007bee:	0c 18       	sub	r8,r6
80007bf0:	8f 28       	st.w	r7[0x8],r8
80007bf2:	62 28       	ld.w	r8,r1[0x8]
80007bf4:	08 18       	sub	r8,r4
80007bf6:	83 28       	st.w	r1[0x8],r8
80007bf8:	c6 e0       	breq	80007cd4 <__sfvwrite_r+0x298>
80007bfa:	08 16       	sub	r6,r4
80007bfc:	08 03       	add	r3,r4
80007bfe:	c6 fb       	rjmp	80007adc <__sfvwrite_r+0xa0>
80007c00:	60 03       	ld.w	r3,r0[0x0]
80007c02:	60 11       	ld.w	r1,r0[0x4]
80007c04:	30 08       	mov	r8,0
80007c06:	2f 80       	sub	r0,-8
80007c08:	50 08       	stdsp	sp[0x0],r8
80007c0a:	58 01       	cp.w	r1,0
80007c0c:	cf a0       	breq	80007c00 <__sfvwrite_r+0x1c4>
80007c0e:	40 0a       	lddsp	r10,sp[0x0]
80007c10:	58 0a       	cp.w	r10,0
80007c12:	c1 51       	brne	80007c3c <__sfvwrite_r+0x200>
80007c14:	e2 c6 ff ff 	sub	r6,r1,-1
80007c18:	02 9a       	mov	r10,r1
80007c1a:	30 ab       	mov	r11,10
80007c1c:	06 9c       	mov	r12,r3
80007c1e:	e0 a0 03 07 	rcall	8000822c <memchr>
80007c22:	f8 c8 ff ff 	sub	r8,r12,-1
80007c26:	58 0c       	cp.w	r12,0
80007c28:	f1 d3 e1 16 	subne	r6,r8,r3
80007c2c:	f9 b9 01 01 	movne	r9,1
80007c30:	fb f9 1a 00 	st.wne	sp[0x0],r9
80007c34:	f9 b8 00 01 	moveq	r8,1
80007c38:	fb f8 0a 00 	st.weq	sp[0x0],r8
80007c3c:	02 36       	cp.w	r6,r1
80007c3e:	ec 04 17 80 	movls	r4,r6
80007c42:	e2 04 17 b0 	movhi	r4,r1
80007c46:	6e 59       	ld.w	r9,r7[0x14]
80007c48:	6e 25       	ld.w	r5,r7[0x8]
80007c4a:	f2 05 00 05 	add	r5,r9,r5
80007c4e:	0a 34       	cp.w	r4,r5
80007c50:	5f 9a       	srgt	r10
80007c52:	6e 0c       	ld.w	r12,r7[0x0]
80007c54:	6e 48       	ld.w	r8,r7[0x10]
80007c56:	10 3c       	cp.w	r12,r8
80007c58:	5f b8       	srhi	r8
80007c5a:	f5 e8 00 08 	and	r8,r10,r8
80007c5e:	30 0a       	mov	r10,0
80007c60:	f4 08 18 00 	cp.b	r8,r10
80007c64:	c0 e0       	breq	80007c80 <__sfvwrite_r+0x244>
80007c66:	06 9b       	mov	r11,r3
80007c68:	0a 9a       	mov	r10,r5
80007c6a:	e0 a0 02 ec 	rcall	80008242 <memmove>
80007c6e:	6e 08       	ld.w	r8,r7[0x0]
80007c70:	0a 08       	add	r8,r5
80007c72:	0e 9b       	mov	r11,r7
80007c74:	8f 08       	st.w	r7[0x0],r8
80007c76:	40 1c       	lddsp	r12,sp[0x4]
80007c78:	fe b0 fc aa 	rcall	800075cc <_fflush_r>
80007c7c:	c1 80       	breq	80007cac <__sfvwrite_r+0x270>
80007c7e:	c2 68       	rjmp	80007cca <__sfvwrite_r+0x28e>
80007c80:	12 34       	cp.w	r4,r9
80007c82:	c0 a5       	brlt	80007c96 <__sfvwrite_r+0x25a>
80007c84:	6e a8       	ld.w	r8,r7[0x28]
80007c86:	06 9a       	mov	r10,r3
80007c88:	6e 8b       	ld.w	r11,r7[0x20]
80007c8a:	40 1c       	lddsp	r12,sp[0x4]
80007c8c:	5d 18       	icall	r8
80007c8e:	18 95       	mov	r5,r12
80007c90:	e0 89 00 0e 	brgt	80007cac <__sfvwrite_r+0x270>
80007c94:	c1 b8       	rjmp	80007cca <__sfvwrite_r+0x28e>
80007c96:	08 9a       	mov	r10,r4
80007c98:	06 9b       	mov	r11,r3
80007c9a:	e0 a0 02 d4 	rcall	80008242 <memmove>
80007c9e:	6e 08       	ld.w	r8,r7[0x0]
80007ca0:	08 08       	add	r8,r4
80007ca2:	08 95       	mov	r5,r4
80007ca4:	8f 08       	st.w	r7[0x0],r8
80007ca6:	6e 28       	ld.w	r8,r7[0x8]
80007ca8:	08 18       	sub	r8,r4
80007caa:	8f 28       	st.w	r7[0x8],r8
80007cac:	0a 16       	sub	r6,r5
80007cae:	c0 71       	brne	80007cbc <__sfvwrite_r+0x280>
80007cb0:	0e 9b       	mov	r11,r7
80007cb2:	40 1c       	lddsp	r12,sp[0x4]
80007cb4:	fe b0 fc 8c 	rcall	800075cc <_fflush_r>
80007cb8:	c0 91       	brne	80007cca <__sfvwrite_r+0x28e>
80007cba:	50 06       	stdsp	sp[0x0],r6
80007cbc:	64 28       	ld.w	r8,r2[0x8]
80007cbe:	0a 18       	sub	r8,r5
80007cc0:	85 28       	st.w	r2[0x8],r8
80007cc2:	c0 90       	breq	80007cd4 <__sfvwrite_r+0x298>
80007cc4:	0a 11       	sub	r1,r5
80007cc6:	0a 03       	add	r3,r5
80007cc8:	ca 1b       	rjmp	80007c0a <__sfvwrite_r+0x1ce>
80007cca:	8e 68       	ld.sh	r8,r7[0xc]
80007ccc:	a7 a8       	sbr	r8,0x6
80007cce:	ae 68       	st.h	r7[0xc],r8
80007cd0:	3f fc       	mov	r12,-1
80007cd2:	c0 28       	rjmp	80007cd6 <__sfvwrite_r+0x29a>
80007cd4:	30 0c       	mov	r12,0
80007cd6:	2f dd       	sub	sp,-12
80007cd8:	d8 32       	popm	r0-r7,pc
80007cda:	d7 03       	nop

80007cdc <_fwalk>:
80007cdc:	d4 31       	pushm	r0-r7,lr
80007cde:	30 05       	mov	r5,0
80007ce0:	16 91       	mov	r1,r11
80007ce2:	f8 c7 ff 28 	sub	r7,r12,-216
80007ce6:	0a 92       	mov	r2,r5
80007ce8:	fe b0 fc f8 	rcall	800076d8 <__sfp_lock_acquire>
80007cec:	3f f3       	mov	r3,-1
80007cee:	c1 68       	rjmp	80007d1a <_fwalk+0x3e>
80007cf0:	6e 26       	ld.w	r6,r7[0x8]
80007cf2:	6e 14       	ld.w	r4,r7[0x4]
80007cf4:	2f 46       	sub	r6,-12
80007cf6:	c0 c8       	rjmp	80007d0e <_fwalk+0x32>
80007cf8:	8c 08       	ld.sh	r8,r6[0x0]
80007cfa:	e4 08 19 00 	cp.h	r8,r2
80007cfe:	c0 70       	breq	80007d0c <_fwalk+0x30>
80007d00:	8c 18       	ld.sh	r8,r6[0x2]
80007d02:	e6 08 19 00 	cp.h	r8,r3
80007d06:	c0 30       	breq	80007d0c <_fwalk+0x30>
80007d08:	5d 11       	icall	r1
80007d0a:	18 45       	or	r5,r12
80007d0c:	2a 46       	sub	r6,-92
80007d0e:	20 14       	sub	r4,1
80007d10:	ec cc 00 0c 	sub	r12,r6,12
80007d14:	58 04       	cp.w	r4,0
80007d16:	cf 14       	brge	80007cf8 <_fwalk+0x1c>
80007d18:	6e 07       	ld.w	r7,r7[0x0]
80007d1a:	58 07       	cp.w	r7,0
80007d1c:	ce a1       	brne	80007cf0 <_fwalk+0x14>
80007d1e:	fe b0 fc de 	rcall	800076da <__sfp_lock_release>
80007d22:	0a 9c       	mov	r12,r5
80007d24:	d8 32       	popm	r0-r7,pc
80007d26:	d7 03       	nop

80007d28 <_localeconv_r>:
80007d28:	fe cc d9 8c 	sub	r12,pc,-9844
80007d2c:	5e fc       	retal	r12
80007d2e:	d7 03       	nop

80007d30 <__smakebuf_r>:
80007d30:	d4 21       	pushm	r4-r7,lr
80007d32:	20 fd       	sub	sp,60
80007d34:	96 68       	ld.sh	r8,r11[0xc]
80007d36:	16 97       	mov	r7,r11
80007d38:	18 96       	mov	r6,r12
80007d3a:	e2 18 00 02 	andl	r8,0x2,COH
80007d3e:	c3 c1       	brne	80007db6 <__smakebuf_r+0x86>
80007d40:	96 7b       	ld.sh	r11,r11[0xe]
80007d42:	f0 0b 19 00 	cp.h	r11,r8
80007d46:	c0 55       	brlt	80007d50 <__smakebuf_r+0x20>
80007d48:	1a 9a       	mov	r10,sp
80007d4a:	e0 a0 08 9d 	rcall	80008e84 <_fstat_r>
80007d4e:	c0 f4       	brge	80007d6c <__smakebuf_r+0x3c>
80007d50:	8e 65       	ld.sh	r5,r7[0xc]
80007d52:	0a 98       	mov	r8,r5
80007d54:	ab b8       	sbr	r8,0xb
80007d56:	e2 15 00 80 	andl	r5,0x80,COH
80007d5a:	ae 68       	st.h	r7[0xc],r8
80007d5c:	30 04       	mov	r4,0
80007d5e:	e0 68 04 00 	mov	r8,1024
80007d62:	f9 b5 01 40 	movne	r5,64
80007d66:	f0 05 17 00 	moveq	r5,r8
80007d6a:	c1 c8       	rjmp	80007da2 <__smakebuf_r+0x72>
80007d6c:	40 18       	lddsp	r8,sp[0x4]
80007d6e:	e2 18 f0 00 	andl	r8,0xf000,COH
80007d72:	e0 48 20 00 	cp.w	r8,8192
80007d76:	5f 04       	sreq	r4
80007d78:	e0 48 80 00 	cp.w	r8,32768
80007d7c:	c0 e1       	brne	80007d98 <__smakebuf_r+0x68>
80007d7e:	6e b9       	ld.w	r9,r7[0x2c]
80007d80:	fe c8 f1 e8 	sub	r8,pc,-3608
80007d84:	10 39       	cp.w	r9,r8
80007d86:	c0 91       	brne	80007d98 <__smakebuf_r+0x68>
80007d88:	8e 68       	ld.sh	r8,r7[0xc]
80007d8a:	e0 65 04 00 	mov	r5,1024
80007d8e:	ab a8       	sbr	r8,0xa
80007d90:	ef 45 00 50 	st.w	r7[80],r5
80007d94:	ae 68       	st.h	r7[0xc],r8
80007d96:	c0 68       	rjmp	80007da2 <__smakebuf_r+0x72>
80007d98:	8e 68       	ld.sh	r8,r7[0xc]
80007d9a:	e0 65 04 00 	mov	r5,1024
80007d9e:	ab b8       	sbr	r8,0xb
80007da0:	ae 68       	st.h	r7[0xc],r8
80007da2:	0a 9b       	mov	r11,r5
80007da4:	0c 9c       	mov	r12,r6
80007da6:	c2 bc       	rcall	80007dfc <_malloc_r>
80007da8:	8e 68       	ld.sh	r8,r7[0xc]
80007daa:	c0 d1       	brne	80007dc4 <__smakebuf_r+0x94>
80007dac:	ed b8 00 09 	bld	r8,0x9
80007db0:	c1 b0       	breq	80007de6 <__smakebuf_r+0xb6>
80007db2:	a1 b8       	sbr	r8,0x1
80007db4:	ae 68       	st.h	r7[0xc],r8
80007db6:	ee c8 ff b9 	sub	r8,r7,-71
80007dba:	8f 48       	st.w	r7[0x10],r8
80007dbc:	8f 08       	st.w	r7[0x0],r8
80007dbe:	30 18       	mov	r8,1
80007dc0:	8f 58       	st.w	r7[0x14],r8
80007dc2:	c1 28       	rjmp	80007de6 <__smakebuf_r+0xb6>
80007dc4:	a7 b8       	sbr	r8,0x7
80007dc6:	8f 4c       	st.w	r7[0x10],r12
80007dc8:	ae 68       	st.h	r7[0xc],r8
80007dca:	8f 55       	st.w	r7[0x14],r5
80007dcc:	fe c8 06 f0 	sub	r8,pc,1776
80007dd0:	8f 0c       	st.w	r7[0x0],r12
80007dd2:	8d a8       	st.w	r6[0x28],r8
80007dd4:	58 04       	cp.w	r4,0
80007dd6:	c0 80       	breq	80007de6 <__smakebuf_r+0xb6>
80007dd8:	8e 7c       	ld.sh	r12,r7[0xe]
80007dda:	e0 a0 07 47 	rcall	80008c68 <isatty>
80007dde:	c0 40       	breq	80007de6 <__smakebuf_r+0xb6>
80007de0:	8e 68       	ld.sh	r8,r7[0xc]
80007de2:	a1 a8       	sbr	r8,0x0
80007de4:	ae 68       	st.h	r7[0xc],r8
80007de6:	2f 1d       	sub	sp,-60
80007de8:	d8 22       	popm	r4-r7,pc
80007dea:	d7 03       	nop

80007dec <malloc>:
80007dec:	d4 01       	pushm	lr
80007dee:	e0 68 00 fc 	mov	r8,252
80007df2:	18 9b       	mov	r11,r12
80007df4:	70 0c       	ld.w	r12,r8[0x0]
80007df6:	c0 3c       	rcall	80007dfc <_malloc_r>
80007df8:	d8 02       	popm	pc
80007dfa:	d7 03       	nop

80007dfc <_malloc_r>:
80007dfc:	d4 31       	pushm	r0-r7,lr
80007dfe:	f6 c8 ff f5 	sub	r8,r11,-11
80007e02:	18 95       	mov	r5,r12
80007e04:	10 97       	mov	r7,r8
80007e06:	e0 17 ff f8 	andl	r7,0xfff8
80007e0a:	59 68       	cp.w	r8,22
80007e0c:	f9 b7 08 10 	movls	r7,16
80007e10:	16 37       	cp.w	r7,r11
80007e12:	5f 38       	srlo	r8
80007e14:	f1 e7 13 f8 	or	r8,r8,r7>>0x1f
80007e18:	c0 50       	breq	80007e22 <_malloc_r+0x26>
80007e1a:	30 c8       	mov	r8,12
80007e1c:	99 38       	st.w	r12[0xc],r8
80007e1e:	e0 8f 01 f7 	bral	8000820c <_malloc_r+0x410>
80007e22:	e0 a0 02 36 	rcall	8000828e <__malloc_lock>
80007e26:	e0 47 01 f7 	cp.w	r7,503
80007e2a:	e0 8b 00 1d 	brhi	80007e64 <_malloc_r+0x68>
80007e2e:	ee 03 16 03 	lsr	r3,r7,0x3
80007e32:	e0 68 01 00 	mov	r8,256
80007e36:	f0 03 00 38 	add	r8,r8,r3<<0x3
80007e3a:	70 36       	ld.w	r6,r8[0xc]
80007e3c:	10 36       	cp.w	r6,r8
80007e3e:	c0 61       	brne	80007e4a <_malloc_r+0x4e>
80007e40:	ec c8 ff f8 	sub	r8,r6,-8
80007e44:	70 36       	ld.w	r6,r8[0xc]
80007e46:	10 36       	cp.w	r6,r8
80007e48:	c0 c0       	breq	80007e60 <_malloc_r+0x64>
80007e4a:	6c 18       	ld.w	r8,r6[0x4]
80007e4c:	e0 18 ff fc 	andl	r8,0xfffc
80007e50:	6c 3a       	ld.w	r10,r6[0xc]
80007e52:	ec 08 00 09 	add	r9,r6,r8
80007e56:	0a 9c       	mov	r12,r5
80007e58:	6c 28       	ld.w	r8,r6[0x8]
80007e5a:	95 28       	st.w	r10[0x8],r8
80007e5c:	91 3a       	st.w	r8[0xc],r10
80007e5e:	c4 78       	rjmp	80007eec <_malloc_r+0xf0>
80007e60:	2f e3       	sub	r3,-2
80007e62:	c4 d8       	rjmp	80007efc <_malloc_r+0x100>
80007e64:	ee 03 16 09 	lsr	r3,r7,0x9
80007e68:	c0 41       	brne	80007e70 <_malloc_r+0x74>
80007e6a:	ee 03 16 03 	lsr	r3,r7,0x3
80007e6e:	c2 68       	rjmp	80007eba <_malloc_r+0xbe>
80007e70:	58 43       	cp.w	r3,4
80007e72:	e0 8b 00 06 	brhi	80007e7e <_malloc_r+0x82>
80007e76:	ee 03 16 06 	lsr	r3,r7,0x6
80007e7a:	2c 83       	sub	r3,-56
80007e7c:	c1 f8       	rjmp	80007eba <_malloc_r+0xbe>
80007e7e:	59 43       	cp.w	r3,20
80007e80:	e0 8b 00 04 	brhi	80007e88 <_malloc_r+0x8c>
80007e84:	2a 53       	sub	r3,-91
80007e86:	c1 a8       	rjmp	80007eba <_malloc_r+0xbe>
80007e88:	e0 43 00 54 	cp.w	r3,84
80007e8c:	e0 8b 00 06 	brhi	80007e98 <_malloc_r+0x9c>
80007e90:	ee 03 16 0c 	lsr	r3,r7,0xc
80007e94:	29 23       	sub	r3,-110
80007e96:	c1 28       	rjmp	80007eba <_malloc_r+0xbe>
80007e98:	e0 43 01 54 	cp.w	r3,340
80007e9c:	e0 8b 00 06 	brhi	80007ea8 <_malloc_r+0xac>
80007ea0:	ee 03 16 0f 	lsr	r3,r7,0xf
80007ea4:	28 93       	sub	r3,-119
80007ea6:	c0 a8       	rjmp	80007eba <_malloc_r+0xbe>
80007ea8:	e0 43 05 54 	cp.w	r3,1364
80007eac:	e0 88 00 04 	brls	80007eb4 <_malloc_r+0xb8>
80007eb0:	37 e3       	mov	r3,126
80007eb2:	c0 48       	rjmp	80007eba <_malloc_r+0xbe>
80007eb4:	ee 03 16 12 	lsr	r3,r7,0x12
80007eb8:	28 43       	sub	r3,-124
80007eba:	e0 6a 01 00 	mov	r10,256
80007ebe:	f4 03 00 3a 	add	r10,r10,r3<<0x3
80007ec2:	74 36       	ld.w	r6,r10[0xc]
80007ec4:	c1 98       	rjmp	80007ef6 <_malloc_r+0xfa>
80007ec6:	6c 19       	ld.w	r9,r6[0x4]
80007ec8:	e0 19 ff fc 	andl	r9,0xfffc
80007ecc:	f2 07 01 0b 	sub	r11,r9,r7
80007ed0:	58 fb       	cp.w	r11,15
80007ed2:	e0 8a 00 04 	brle	80007eda <_malloc_r+0xde>
80007ed6:	20 13       	sub	r3,1
80007ed8:	c1 18       	rjmp	80007efa <_malloc_r+0xfe>
80007eda:	6c 38       	ld.w	r8,r6[0xc]
80007edc:	58 0b       	cp.w	r11,0
80007ede:	c0 b5       	brlt	80007ef4 <_malloc_r+0xf8>
80007ee0:	6c 2a       	ld.w	r10,r6[0x8]
80007ee2:	ec 09 00 09 	add	r9,r6,r9
80007ee6:	0a 9c       	mov	r12,r5
80007ee8:	91 2a       	st.w	r8[0x8],r10
80007eea:	95 38       	st.w	r10[0xc],r8
80007eec:	72 18       	ld.w	r8,r9[0x4]
80007eee:	a1 a8       	sbr	r8,0x0
80007ef0:	93 18       	st.w	r9[0x4],r8
80007ef2:	cb c8       	rjmp	8000806a <_malloc_r+0x26e>
80007ef4:	10 96       	mov	r6,r8
80007ef6:	14 36       	cp.w	r6,r10
80007ef8:	ce 71       	brne	80007ec6 <_malloc_r+0xca>
80007efa:	2f f3       	sub	r3,-1
80007efc:	e0 6a 01 00 	mov	r10,256
80007f00:	f4 cc ff f8 	sub	r12,r10,-8
80007f04:	78 26       	ld.w	r6,r12[0x8]
80007f06:	18 36       	cp.w	r6,r12
80007f08:	c6 c0       	breq	80007fe0 <_malloc_r+0x1e4>
80007f0a:	6c 19       	ld.w	r9,r6[0x4]
80007f0c:	e0 19 ff fc 	andl	r9,0xfffc
80007f10:	f2 07 01 08 	sub	r8,r9,r7
80007f14:	58 f8       	cp.w	r8,15
80007f16:	e0 89 00 8f 	brgt	80008034 <_malloc_r+0x238>
80007f1a:	99 3c       	st.w	r12[0xc],r12
80007f1c:	99 2c       	st.w	r12[0x8],r12
80007f1e:	58 08       	cp.w	r8,0
80007f20:	c0 55       	brlt	80007f2a <_malloc_r+0x12e>
80007f22:	ec 09 00 09 	add	r9,r6,r9
80007f26:	0a 9c       	mov	r12,r5
80007f28:	ce 2b       	rjmp	80007eec <_malloc_r+0xf0>
80007f2a:	e0 49 01 ff 	cp.w	r9,511
80007f2e:	e0 8b 00 13 	brhi	80007f54 <_malloc_r+0x158>
80007f32:	a3 99       	lsr	r9,0x3
80007f34:	f4 09 00 38 	add	r8,r10,r9<<0x3
80007f38:	70 2b       	ld.w	r11,r8[0x8]
80007f3a:	8d 38       	st.w	r6[0xc],r8
80007f3c:	8d 2b       	st.w	r6[0x8],r11
80007f3e:	97 36       	st.w	r11[0xc],r6
80007f40:	91 26       	st.w	r8[0x8],r6
80007f42:	a3 49       	asr	r9,0x2
80007f44:	74 18       	ld.w	r8,r10[0x4]
80007f46:	30 1b       	mov	r11,1
80007f48:	f6 09 09 49 	lsl	r9,r11,r9
80007f4c:	f1 e9 10 09 	or	r9,r8,r9
80007f50:	95 19       	st.w	r10[0x4],r9
80007f52:	c4 78       	rjmp	80007fe0 <_malloc_r+0x1e4>
80007f54:	f2 0a 16 09 	lsr	r10,r9,0x9
80007f58:	58 4a       	cp.w	r10,4
80007f5a:	e0 8b 00 07 	brhi	80007f68 <_malloc_r+0x16c>
80007f5e:	f2 0a 16 06 	lsr	r10,r9,0x6
80007f62:	2c 8a       	sub	r10,-56
80007f64:	c2 08       	rjmp	80007fa4 <_malloc_r+0x1a8>
80007f66:	d7 03       	nop
80007f68:	59 4a       	cp.w	r10,20
80007f6a:	e0 8b 00 04 	brhi	80007f72 <_malloc_r+0x176>
80007f6e:	2a 5a       	sub	r10,-91
80007f70:	c1 a8       	rjmp	80007fa4 <_malloc_r+0x1a8>
80007f72:	e0 4a 00 54 	cp.w	r10,84
80007f76:	e0 8b 00 06 	brhi	80007f82 <_malloc_r+0x186>
80007f7a:	f2 0a 16 0c 	lsr	r10,r9,0xc
80007f7e:	29 2a       	sub	r10,-110
80007f80:	c1 28       	rjmp	80007fa4 <_malloc_r+0x1a8>
80007f82:	e0 4a 01 54 	cp.w	r10,340
80007f86:	e0 8b 00 06 	brhi	80007f92 <_malloc_r+0x196>
80007f8a:	f2 0a 16 0f 	lsr	r10,r9,0xf
80007f8e:	28 9a       	sub	r10,-119
80007f90:	c0 a8       	rjmp	80007fa4 <_malloc_r+0x1a8>
80007f92:	e0 4a 05 54 	cp.w	r10,1364
80007f96:	e0 88 00 04 	brls	80007f9e <_malloc_r+0x1a2>
80007f9a:	37 ea       	mov	r10,126
80007f9c:	c0 48       	rjmp	80007fa4 <_malloc_r+0x1a8>
80007f9e:	f2 0a 16 12 	lsr	r10,r9,0x12
80007fa2:	28 4a       	sub	r10,-124
80007fa4:	e0 6b 01 00 	mov	r11,256
80007fa8:	f6 0a 00 34 	add	r4,r11,r10<<0x3
80007fac:	68 28       	ld.w	r8,r4[0x8]
80007fae:	08 38       	cp.w	r8,r4
80007fb0:	c0 e1       	brne	80007fcc <_malloc_r+0x1d0>
80007fb2:	76 19       	ld.w	r9,r11[0x4]
80007fb4:	a3 4a       	asr	r10,0x2
80007fb6:	30 1e       	mov	lr,1
80007fb8:	fc 0a 09 4a 	lsl	r10,lr,r10
80007fbc:	f3 ea 10 0a 	or	r10,r9,r10
80007fc0:	10 99       	mov	r9,r8
80007fc2:	97 1a       	st.w	r11[0x4],r10
80007fc4:	c0 a8       	rjmp	80007fd8 <_malloc_r+0x1dc>
80007fc6:	70 28       	ld.w	r8,r8[0x8]
80007fc8:	08 38       	cp.w	r8,r4
80007fca:	c0 60       	breq	80007fd6 <_malloc_r+0x1da>
80007fcc:	70 1a       	ld.w	r10,r8[0x4]
80007fce:	e0 1a ff fc 	andl	r10,0xfffc
80007fd2:	14 39       	cp.w	r9,r10
80007fd4:	cf 93       	brcs	80007fc6 <_malloc_r+0x1ca>
80007fd6:	70 39       	ld.w	r9,r8[0xc]
80007fd8:	8d 39       	st.w	r6[0xc],r9
80007fda:	8d 28       	st.w	r6[0x8],r8
80007fdc:	91 36       	st.w	r8[0xc],r6
80007fde:	93 26       	st.w	r9[0x8],r6
80007fe0:	e6 08 14 02 	asr	r8,r3,0x2
80007fe4:	30 1b       	mov	r11,1
80007fe6:	e0 64 01 00 	mov	r4,256
80007fea:	f6 08 09 4b 	lsl	r11,r11,r8
80007fee:	68 18       	ld.w	r8,r4[0x4]
80007ff0:	10 3b       	cp.w	r11,r8
80007ff2:	e0 8b 00 69 	brhi	800080c4 <_malloc_r+0x2c8>
80007ff6:	f7 e8 00 09 	and	r9,r11,r8
80007ffa:	c0 b1       	brne	80008010 <_malloc_r+0x214>
80007ffc:	e0 13 ff fc 	andl	r3,0xfffc
80008000:	a1 7b       	lsl	r11,0x1
80008002:	2f c3       	sub	r3,-4
80008004:	c0 38       	rjmp	8000800a <_malloc_r+0x20e>
80008006:	2f c3       	sub	r3,-4
80008008:	a1 7b       	lsl	r11,0x1
8000800a:	f7 e8 00 09 	and	r9,r11,r8
8000800e:	cf c0       	breq	80008006 <_malloc_r+0x20a>
80008010:	e8 03 00 3e 	add	lr,r4,r3<<0x3
80008014:	06 92       	mov	r2,r3
80008016:	1c 91       	mov	r1,lr
80008018:	62 36       	ld.w	r6,r1[0xc]
8000801a:	c2 d8       	rjmp	80008074 <_malloc_r+0x278>
8000801c:	6c 1a       	ld.w	r10,r6[0x4]
8000801e:	e0 1a ff fc 	andl	r10,0xfffc
80008022:	f4 07 01 08 	sub	r8,r10,r7
80008026:	58 f8       	cp.w	r8,15
80008028:	e0 8a 00 15 	brle	80008052 <_malloc_r+0x256>
8000802c:	6c 3a       	ld.w	r10,r6[0xc]
8000802e:	6c 29       	ld.w	r9,r6[0x8]
80008030:	95 29       	st.w	r10[0x8],r9
80008032:	93 3a       	st.w	r9[0xc],r10
80008034:	0e 99       	mov	r9,r7
80008036:	ec 07 00 07 	add	r7,r6,r7
8000803a:	a1 a9       	sbr	r9,0x0
8000803c:	99 37       	st.w	r12[0xc],r7
8000803e:	99 27       	st.w	r12[0x8],r7
80008040:	8d 19       	st.w	r6[0x4],r9
80008042:	ee 08 09 08 	st.w	r7[r8],r8
80008046:	8f 2c       	st.w	r7[0x8],r12
80008048:	8f 3c       	st.w	r7[0xc],r12
8000804a:	a1 a8       	sbr	r8,0x0
8000804c:	0a 9c       	mov	r12,r5
8000804e:	8f 18       	st.w	r7[0x4],r8
80008050:	c0 d8       	rjmp	8000806a <_malloc_r+0x26e>
80008052:	6c 39       	ld.w	r9,r6[0xc]
80008054:	58 08       	cp.w	r8,0
80008056:	c0 e5       	brlt	80008072 <_malloc_r+0x276>
80008058:	ec 0a 00 0a 	add	r10,r6,r10
8000805c:	74 18       	ld.w	r8,r10[0x4]
8000805e:	a1 a8       	sbr	r8,0x0
80008060:	0a 9c       	mov	r12,r5
80008062:	95 18       	st.w	r10[0x4],r8
80008064:	6c 28       	ld.w	r8,r6[0x8]
80008066:	93 28       	st.w	r9[0x8],r8
80008068:	91 39       	st.w	r8[0xc],r9
8000806a:	c1 3d       	rcall	80008290 <__malloc_unlock>
8000806c:	ec cc ff f8 	sub	r12,r6,-8
80008070:	d8 32       	popm	r0-r7,pc
80008072:	12 96       	mov	r6,r9
80008074:	02 36       	cp.w	r6,r1
80008076:	cd 31       	brne	8000801c <_malloc_r+0x220>
80008078:	2f f2       	sub	r2,-1
8000807a:	f1 d2 c0 02 	bfextu	r8,r2,0x0,0x2
8000807e:	c0 30       	breq	80008084 <_malloc_r+0x288>
80008080:	2f 81       	sub	r1,-8
80008082:	cc bb       	rjmp	80008018 <_malloc_r+0x21c>
80008084:	1c 98       	mov	r8,lr
80008086:	f3 d3 c0 02 	bfextu	r9,r3,0x0,0x2
8000808a:	c0 81       	brne	8000809a <_malloc_r+0x29e>
8000808c:	68 19       	ld.w	r9,r4[0x4]
8000808e:	f6 08 11 ff 	rsub	r8,r11,-1
80008092:	f3 e8 00 08 	and	r8,r9,r8
80008096:	89 18       	st.w	r4[0x4],r8
80008098:	c0 78       	rjmp	800080a6 <_malloc_r+0x2aa>
8000809a:	f0 c9 00 08 	sub	r9,r8,8
8000809e:	20 13       	sub	r3,1
800080a0:	70 08       	ld.w	r8,r8[0x0]
800080a2:	12 38       	cp.w	r8,r9
800080a4:	cf 10       	breq	80008086 <_malloc_r+0x28a>
800080a6:	a1 7b       	lsl	r11,0x1
800080a8:	68 18       	ld.w	r8,r4[0x4]
800080aa:	10 3b       	cp.w	r11,r8
800080ac:	e0 8b 00 0c 	brhi	800080c4 <_malloc_r+0x2c8>
800080b0:	58 0b       	cp.w	r11,0
800080b2:	c0 90       	breq	800080c4 <_malloc_r+0x2c8>
800080b4:	04 93       	mov	r3,r2
800080b6:	c0 38       	rjmp	800080bc <_malloc_r+0x2c0>
800080b8:	2f c3       	sub	r3,-4
800080ba:	a1 7b       	lsl	r11,0x1
800080bc:	f7 e8 00 09 	and	r9,r11,r8
800080c0:	ca 81       	brne	80008010 <_malloc_r+0x214>
800080c2:	cf bb       	rjmp	800080b8 <_malloc_r+0x2bc>
800080c4:	68 23       	ld.w	r3,r4[0x8]
800080c6:	66 12       	ld.w	r2,r3[0x4]
800080c8:	e0 12 ff fc 	andl	r2,0xfffc
800080cc:	0e 32       	cp.w	r2,r7
800080ce:	5f 39       	srlo	r9
800080d0:	e4 07 01 08 	sub	r8,r2,r7
800080d4:	58 f8       	cp.w	r8,15
800080d6:	5f aa       	srle	r10
800080d8:	f5 e9 10 09 	or	r9,r10,r9
800080dc:	e0 80 00 9a 	breq	80008210 <_malloc_r+0x414>
800080e0:	e0 68 06 28 	mov	r8,1576
800080e4:	70 01       	ld.w	r1,r8[0x0]
800080e6:	e0 68 05 0c 	mov	r8,1292
800080ea:	2f 01       	sub	r1,-16
800080ec:	70 08       	ld.w	r8,r8[0x0]
800080ee:	0e 01       	add	r1,r7
800080f0:	5b f8       	cp.w	r8,-1
800080f2:	c0 40       	breq	800080fa <_malloc_r+0x2fe>
800080f4:	28 11       	sub	r1,-127
800080f6:	e0 11 ff 80 	andl	r1,0xff80
800080fa:	02 9b       	mov	r11,r1
800080fc:	0a 9c       	mov	r12,r5
800080fe:	e0 a0 05 39 	rcall	80008b70 <_sbrk_r>
80008102:	18 96       	mov	r6,r12
80008104:	5b fc       	cp.w	r12,-1
80008106:	c7 50       	breq	800081f0 <_malloc_r+0x3f4>
80008108:	e6 02 00 08 	add	r8,r3,r2
8000810c:	10 3c       	cp.w	r12,r8
8000810e:	c0 32       	brcc	80008114 <_malloc_r+0x318>
80008110:	08 33       	cp.w	r3,r4
80008112:	c6 f1       	brne	800081f0 <_malloc_r+0x3f4>
80008114:	e0 6a 06 2c 	mov	r10,1580
80008118:	74 09       	ld.w	r9,r10[0x0]
8000811a:	e2 09 00 09 	add	r9,r1,r9
8000811e:	95 09       	st.w	r10[0x0],r9
80008120:	10 36       	cp.w	r6,r8
80008122:	c0 a1       	brne	80008136 <_malloc_r+0x33a>
80008124:	f5 d6 c0 07 	bfextu	r10,r6,0x0,0x7
80008128:	c0 71       	brne	80008136 <_malloc_r+0x33a>
8000812a:	e2 02 00 02 	add	r2,r1,r2
8000812e:	68 28       	ld.w	r8,r4[0x8]
80008130:	a1 a2       	sbr	r2,0x0
80008132:	91 12       	st.w	r8[0x4],r2
80008134:	c4 f8       	rjmp	800081d2 <_malloc_r+0x3d6>
80008136:	e0 6a 05 0c 	mov	r10,1292
8000813a:	74 0b       	ld.w	r11,r10[0x0]
8000813c:	5b fb       	cp.w	r11,-1
8000813e:	c0 31       	brne	80008144 <_malloc_r+0x348>
80008140:	95 06       	st.w	r10[0x0],r6
80008142:	c0 78       	rjmp	80008150 <_malloc_r+0x354>
80008144:	ec 09 00 09 	add	r9,r6,r9
80008148:	e0 6a 06 2c 	mov	r10,1580
8000814c:	10 19       	sub	r9,r8
8000814e:	95 09       	st.w	r10[0x0],r9
80008150:	f1 d6 c0 03 	bfextu	r8,r6,0x0,0x3
80008154:	f0 09 11 08 	rsub	r9,r8,8
80008158:	58 08       	cp.w	r8,0
8000815a:	f2 08 17 10 	movne	r8,r9
8000815e:	ed d8 e1 06 	addne	r6,r6,r8
80008162:	28 08       	sub	r8,-128
80008164:	ec 01 00 01 	add	r1,r6,r1
80008168:	0a 9c       	mov	r12,r5
8000816a:	e3 d1 c0 07 	bfextu	r1,r1,0x0,0x7
8000816e:	f0 01 01 01 	sub	r1,r8,r1
80008172:	02 9b       	mov	r11,r1
80008174:	e0 a0 04 fe 	rcall	80008b70 <_sbrk_r>
80008178:	e0 68 06 2c 	mov	r8,1580
8000817c:	5b fc       	cp.w	r12,-1
8000817e:	ec 0c 17 00 	moveq	r12,r6
80008182:	f9 b1 00 00 	moveq	r1,0
80008186:	70 09       	ld.w	r9,r8[0x0]
80008188:	0c 1c       	sub	r12,r6
8000818a:	89 26       	st.w	r4[0x8],r6
8000818c:	02 0c       	add	r12,r1
8000818e:	12 01       	add	r1,r9
80008190:	a1 ac       	sbr	r12,0x0
80008192:	91 01       	st.w	r8[0x0],r1
80008194:	8d 1c       	st.w	r6[0x4],r12
80008196:	08 33       	cp.w	r3,r4
80008198:	c1 d0       	breq	800081d2 <_malloc_r+0x3d6>
8000819a:	58 f2       	cp.w	r2,15
8000819c:	e0 8b 00 05 	brhi	800081a6 <_malloc_r+0x3aa>
800081a0:	30 18       	mov	r8,1
800081a2:	8d 18       	st.w	r6[0x4],r8
800081a4:	c2 68       	rjmp	800081f0 <_malloc_r+0x3f4>
800081a6:	30 59       	mov	r9,5
800081a8:	20 c2       	sub	r2,12
800081aa:	e0 12 ff f8 	andl	r2,0xfff8
800081ae:	e6 02 00 08 	add	r8,r3,r2
800081b2:	91 29       	st.w	r8[0x8],r9
800081b4:	91 19       	st.w	r8[0x4],r9
800081b6:	66 18       	ld.w	r8,r3[0x4]
800081b8:	f1 d8 c0 01 	bfextu	r8,r8,0x0,0x1
800081bc:	e5 e8 10 08 	or	r8,r2,r8
800081c0:	87 18       	st.w	r3[0x4],r8
800081c2:	58 f2       	cp.w	r2,15
800081c4:	e0 88 00 07 	brls	800081d2 <_malloc_r+0x3d6>
800081c8:	e6 cb ff f8 	sub	r11,r3,-8
800081cc:	0a 9c       	mov	r12,r5
800081ce:	fe b0 fb 71 	rcall	800078b0 <_free_r>
800081d2:	e0 69 06 24 	mov	r9,1572
800081d6:	72 0a       	ld.w	r10,r9[0x0]
800081d8:	e0 68 06 2c 	mov	r8,1580
800081dc:	70 08       	ld.w	r8,r8[0x0]
800081de:	14 38       	cp.w	r8,r10
800081e0:	f3 f8 ba 00 	st.whi	r9[0x0],r8
800081e4:	e0 69 06 20 	mov	r9,1568
800081e8:	72 0a       	ld.w	r10,r9[0x0]
800081ea:	14 38       	cp.w	r8,r10
800081ec:	f3 f8 ba 00 	st.whi	r9[0x0],r8
800081f0:	68 28       	ld.w	r8,r4[0x8]
800081f2:	70 18       	ld.w	r8,r8[0x4]
800081f4:	e0 18 ff fc 	andl	r8,0xfffc
800081f8:	0e 38       	cp.w	r8,r7
800081fa:	5f 39       	srlo	r9
800081fc:	0e 18       	sub	r8,r7
800081fe:	58 f8       	cp.w	r8,15
80008200:	5f aa       	srle	r10
80008202:	f5 e9 10 09 	or	r9,r10,r9
80008206:	c0 50       	breq	80008210 <_malloc_r+0x414>
80008208:	0a 9c       	mov	r12,r5
8000820a:	c4 3c       	rcall	80008290 <__malloc_unlock>
8000820c:	d8 3a       	popm	r0-r7,pc,r12=0
8000820e:	d7 03       	nop
80008210:	68 26       	ld.w	r6,r4[0x8]
80008212:	a1 a8       	sbr	r8,0x0
80008214:	0e 99       	mov	r9,r7
80008216:	a1 a9       	sbr	r9,0x0
80008218:	8d 19       	st.w	r6[0x4],r9
8000821a:	ec 07 00 07 	add	r7,r6,r7
8000821e:	0a 9c       	mov	r12,r5
80008220:	89 27       	st.w	r4[0x8],r7
80008222:	8f 18       	st.w	r7[0x4],r8
80008224:	c3 6c       	rcall	80008290 <__malloc_unlock>
80008226:	ec cc ff f8 	sub	r12,r6,-8
8000822a:	d8 32       	popm	r0-r7,pc

8000822c <memchr>:
8000822c:	f7 db c0 08 	bfextu	r11,r11,0x0,0x8
80008230:	c0 68       	rjmp	8000823c <memchr+0x10>
80008232:	20 1a       	sub	r10,1
80008234:	19 88       	ld.ub	r8,r12[0x0]
80008236:	16 38       	cp.w	r8,r11
80008238:	5e 0c       	reteq	r12
8000823a:	2f fc       	sub	r12,-1
8000823c:	58 0a       	cp.w	r10,0
8000823e:	cf a1       	brne	80008232 <memchr+0x6>
80008240:	5e fa       	retal	r10

80008242 <memmove>:
80008242:	d4 01       	pushm	lr
80008244:	18 3b       	cp.w	r11,r12
80008246:	c1 92       	brcc	80008278 <memmove+0x36>
80008248:	f6 0a 00 09 	add	r9,r11,r10
8000824c:	12 3c       	cp.w	r12,r9
8000824e:	c1 52       	brcc	80008278 <memmove+0x36>
80008250:	f8 0a 00 0b 	add	r11,r12,r10
80008254:	30 08       	mov	r8,0
80008256:	c0 68       	rjmp	80008262 <memmove+0x20>
80008258:	f2 08 07 0e 	ld.ub	lr,r9[r8]
8000825c:	20 1a       	sub	r10,1
8000825e:	f6 08 0b 0e 	st.b	r11[r8],lr
80008262:	20 18       	sub	r8,1
80008264:	58 0a       	cp.w	r10,0
80008266:	cf 91       	brne	80008258 <memmove+0x16>
80008268:	d8 02       	popm	pc
8000826a:	f6 08 07 09 	ld.ub	r9,r11[r8]
8000826e:	20 1a       	sub	r10,1
80008270:	f8 08 0b 09 	st.b	r12[r8],r9
80008274:	2f f8       	sub	r8,-1
80008276:	c0 28       	rjmp	8000827a <memmove+0x38>
80008278:	30 08       	mov	r8,0
8000827a:	58 0a       	cp.w	r10,0
8000827c:	cf 71       	brne	8000826a <memmove+0x28>
8000827e:	d8 02       	popm	pc

80008280 <memset>:
80008280:	18 98       	mov	r8,r12
80008282:	c0 38       	rjmp	80008288 <memset+0x8>
80008284:	10 cb       	st.b	r8++,r11
80008286:	20 1a       	sub	r10,1
80008288:	58 0a       	cp.w	r10,0
8000828a:	cf d1       	brne	80008284 <memset+0x4>
8000828c:	5e fc       	retal	r12

8000828e <__malloc_lock>:
8000828e:	5e fc       	retal	r12

80008290 <__malloc_unlock>:
80008290:	5e fc       	retal	r12

80008292 <__hi0bits>:
80008292:	18 98       	mov	r8,r12
80008294:	e0 1c 00 00 	andl	r12,0x0
80008298:	f0 09 15 10 	lsl	r9,r8,0x10
8000829c:	58 0c       	cp.w	r12,0
8000829e:	f2 08 17 00 	moveq	r8,r9
800082a2:	f9 bc 00 10 	moveq	r12,16
800082a6:	f9 bc 01 00 	movne	r12,0
800082aa:	10 9a       	mov	r10,r8
800082ac:	f0 09 15 08 	lsl	r9,r8,0x8
800082b0:	e6 1a ff 00 	andh	r10,0xff00,COH
800082b4:	f7 bc 00 f8 	subeq	r12,-8
800082b8:	f2 08 17 00 	moveq	r8,r9
800082bc:	10 9a       	mov	r10,r8
800082be:	f0 09 15 04 	lsl	r9,r8,0x4
800082c2:	e6 1a f0 00 	andh	r10,0xf000,COH
800082c6:	f7 bc 00 fc 	subeq	r12,-4
800082ca:	f2 08 17 00 	moveq	r8,r9
800082ce:	10 9a       	mov	r10,r8
800082d0:	f0 09 15 02 	lsl	r9,r8,0x2
800082d4:	e6 1a c0 00 	andh	r10,0xc000,COH
800082d8:	f7 bc 00 fe 	subeq	r12,-2
800082dc:	f2 08 17 00 	moveq	r8,r9
800082e0:	58 08       	cp.w	r8,0
800082e2:	5e 5c       	retlt	r12
800082e4:	ed b8 00 1e 	bld	r8,0x1e
800082e8:	f9 bc 01 20 	movne	r12,32
800082ec:	f7 bc 00 ff 	subeq	r12,-1
800082f0:	5e fc       	retal	r12

800082f2 <__lo0bits>:
800082f2:	18 99       	mov	r9,r12
800082f4:	78 08       	ld.w	r8,r12[0x0]
800082f6:	f9 d8 c0 03 	bfextu	r12,r8,0x0,0x3
800082fa:	c1 50       	breq	80008324 <__lo0bits+0x32>
800082fc:	ed b8 00 00 	bld	r8,0x0
80008300:	c0 21       	brne	80008304 <__lo0bits+0x12>
80008302:	5e fd       	retal	0
80008304:	10 9b       	mov	r11,r8
80008306:	f0 0a 16 01 	lsr	r10,r8,0x1
8000830a:	e2 1b 00 02 	andl	r11,0x2,COH
8000830e:	a3 88       	lsr	r8,0x2
80008310:	58 0b       	cp.w	r11,0
80008312:	f3 fa 1a 00 	st.wne	r9[0x0],r10
80008316:	f9 bc 01 01 	movne	r12,1
8000831a:	f3 f8 0a 00 	st.weq	r9[0x0],r8
8000831e:	f9 bc 00 02 	moveq	r12,2
80008322:	5e fc       	retal	r12
80008324:	f5 d8 c0 10 	bfextu	r10,r8,0x0,0x10
80008328:	f0 0b 16 10 	lsr	r11,r8,0x10
8000832c:	58 0a       	cp.w	r10,0
8000832e:	f6 08 17 00 	moveq	r8,r11
80008332:	f9 bc 00 10 	moveq	r12,16
80008336:	f7 d8 c0 08 	bfextu	r11,r8,0x0,0x8
8000833a:	f0 0a 16 08 	lsr	r10,r8,0x8
8000833e:	58 0b       	cp.w	r11,0
80008340:	f7 bc 00 f8 	subeq	r12,-8
80008344:	f4 08 17 00 	moveq	r8,r10
80008348:	f7 d8 c0 04 	bfextu	r11,r8,0x0,0x4
8000834c:	f0 0a 16 04 	lsr	r10,r8,0x4
80008350:	58 0b       	cp.w	r11,0
80008352:	f7 bc 00 fc 	subeq	r12,-4
80008356:	f4 08 17 00 	moveq	r8,r10
8000835a:	f7 d8 c0 02 	bfextu	r11,r8,0x0,0x2
8000835e:	f0 0a 16 02 	lsr	r10,r8,0x2
80008362:	58 0b       	cp.w	r11,0
80008364:	f7 bc 00 fe 	subeq	r12,-2
80008368:	f4 08 17 00 	moveq	r8,r10
8000836c:	ed b8 00 00 	bld	r8,0x0
80008370:	c0 60       	breq	8000837c <__lo0bits+0x8a>
80008372:	a1 98       	lsr	r8,0x1
80008374:	c0 31       	brne	8000837a <__lo0bits+0x88>
80008376:	32 0c       	mov	r12,32
80008378:	5e fc       	retal	r12
8000837a:	2f fc       	sub	r12,-1
8000837c:	93 08       	st.w	r9[0x0],r8
8000837e:	5e fc       	retal	r12

80008380 <__mcmp>:
80008380:	d4 01       	pushm	lr
80008382:	18 98       	mov	r8,r12
80008384:	76 49       	ld.w	r9,r11[0x10]
80008386:	78 4c       	ld.w	r12,r12[0x10]
80008388:	12 1c       	sub	r12,r9
8000838a:	c1 31       	brne	800083b0 <__mcmp+0x30>
8000838c:	2f b9       	sub	r9,-5
8000838e:	a3 69       	lsl	r9,0x2
80008390:	12 0b       	add	r11,r9
80008392:	f0 09 00 09 	add	r9,r8,r9
80008396:	2e c8       	sub	r8,-20
80008398:	13 4e       	ld.w	lr,--r9
8000839a:	17 4a       	ld.w	r10,--r11
8000839c:	14 3e       	cp.w	lr,r10
8000839e:	c0 60       	breq	800083aa <__mcmp+0x2a>
800083a0:	f9 bc 03 ff 	movlo	r12,-1
800083a4:	f9 bc 02 01 	movhs	r12,1
800083a8:	d8 02       	popm	pc
800083aa:	10 39       	cp.w	r9,r8
800083ac:	fe 9b ff f6 	brhi	80008398 <__mcmp+0x18>
800083b0:	d8 02       	popm	pc
800083b2:	d7 03       	nop

800083b4 <_Bfree>:
800083b4:	d4 21       	pushm	r4-r7,lr
800083b6:	18 97       	mov	r7,r12
800083b8:	16 95       	mov	r5,r11
800083ba:	78 96       	ld.w	r6,r12[0x24]
800083bc:	58 06       	cp.w	r6,0
800083be:	c0 91       	brne	800083d0 <_Bfree+0x1c>
800083c0:	31 0c       	mov	r12,16
800083c2:	fe b0 fd 15 	rcall	80007dec <malloc>
800083c6:	99 36       	st.w	r12[0xc],r6
800083c8:	8f 9c       	st.w	r7[0x24],r12
800083ca:	99 16       	st.w	r12[0x4],r6
800083cc:	99 26       	st.w	r12[0x8],r6
800083ce:	99 06       	st.w	r12[0x0],r6
800083d0:	58 05       	cp.w	r5,0
800083d2:	c0 90       	breq	800083e4 <_Bfree+0x30>
800083d4:	6a 19       	ld.w	r9,r5[0x4]
800083d6:	6e 98       	ld.w	r8,r7[0x24]
800083d8:	70 38       	ld.w	r8,r8[0xc]
800083da:	f0 09 03 2a 	ld.w	r10,r8[r9<<0x2]
800083de:	8b 0a       	st.w	r5[0x0],r10
800083e0:	f0 09 09 25 	st.w	r8[r9<<0x2],r5
800083e4:	d8 22       	popm	r4-r7,pc
800083e6:	d7 03       	nop

800083e8 <_Balloc>:
800083e8:	d4 21       	pushm	r4-r7,lr
800083ea:	18 97       	mov	r7,r12
800083ec:	16 96       	mov	r6,r11
800083ee:	78 95       	ld.w	r5,r12[0x24]
800083f0:	58 05       	cp.w	r5,0
800083f2:	c0 91       	brne	80008404 <_Balloc+0x1c>
800083f4:	31 0c       	mov	r12,16
800083f6:	fe b0 fc fb 	rcall	80007dec <malloc>
800083fa:	99 35       	st.w	r12[0xc],r5
800083fc:	8f 9c       	st.w	r7[0x24],r12
800083fe:	99 15       	st.w	r12[0x4],r5
80008400:	99 25       	st.w	r12[0x8],r5
80008402:	99 05       	st.w	r12[0x0],r5
80008404:	6e 95       	ld.w	r5,r7[0x24]
80008406:	6a 38       	ld.w	r8,r5[0xc]
80008408:	58 08       	cp.w	r8,0
8000840a:	c0 b1       	brne	80008420 <_Balloc+0x38>
8000840c:	31 0a       	mov	r10,16
8000840e:	30 4b       	mov	r11,4
80008410:	0e 9c       	mov	r12,r7
80008412:	e0 a0 04 93 	rcall	80008d38 <_calloc_r>
80008416:	8b 3c       	st.w	r5[0xc],r12
80008418:	6e 98       	ld.w	r8,r7[0x24]
8000841a:	70 3c       	ld.w	r12,r8[0xc]
8000841c:	58 0c       	cp.w	r12,0
8000841e:	c1 b0       	breq	80008454 <_Balloc+0x6c>
80008420:	6e 98       	ld.w	r8,r7[0x24]
80008422:	70 38       	ld.w	r8,r8[0xc]
80008424:	f0 06 00 28 	add	r8,r8,r6<<0x2
80008428:	70 0c       	ld.w	r12,r8[0x0]
8000842a:	58 0c       	cp.w	r12,0
8000842c:	c0 40       	breq	80008434 <_Balloc+0x4c>
8000842e:	78 09       	ld.w	r9,r12[0x0]
80008430:	91 09       	st.w	r8[0x0],r9
80008432:	c0 e8       	rjmp	8000844e <_Balloc+0x66>
80008434:	0e 9c       	mov	r12,r7
80008436:	30 17       	mov	r7,1
80008438:	0e 9b       	mov	r11,r7
8000843a:	ee 06 09 47 	lsl	r7,r7,r6
8000843e:	ee ca ff fb 	sub	r10,r7,-5
80008442:	a3 6a       	lsl	r10,0x2
80008444:	e0 a0 04 7a 	rcall	80008d38 <_calloc_r>
80008448:	c0 60       	breq	80008454 <_Balloc+0x6c>
8000844a:	99 16       	st.w	r12[0x4],r6
8000844c:	99 27       	st.w	r12[0x8],r7
8000844e:	30 08       	mov	r8,0
80008450:	99 38       	st.w	r12[0xc],r8
80008452:	99 48       	st.w	r12[0x10],r8
80008454:	d8 22       	popm	r4-r7,pc
80008456:	d7 03       	nop

80008458 <__d2b>:
80008458:	d4 31       	pushm	r0-r7,lr
8000845a:	20 2d       	sub	sp,8
8000845c:	16 93       	mov	r3,r11
8000845e:	12 96       	mov	r6,r9
80008460:	10 95       	mov	r5,r8
80008462:	14 92       	mov	r2,r10
80008464:	30 1b       	mov	r11,1
80008466:	cc 1f       	rcall	800083e8 <_Balloc>
80008468:	f3 d3 c0 14 	bfextu	r9,r3,0x0,0x14
8000846c:	50 09       	stdsp	sp[0x0],r9
8000846e:	f1 d3 c0 1f 	bfextu	r8,r3,0x0,0x1f
80008472:	b5 a9       	sbr	r9,0x14
80008474:	f0 01 16 14 	lsr	r1,r8,0x14
80008478:	fb f9 1a 00 	st.wne	sp[0x0],r9
8000847c:	18 94       	mov	r4,r12
8000847e:	58 02       	cp.w	r2,0
80008480:	c1 d0       	breq	800084ba <__d2b+0x62>
80008482:	fa cc ff f8 	sub	r12,sp,-8
80008486:	18 d2       	st.w	--r12,r2
80008488:	c3 5f       	rcall	800082f2 <__lo0bits>
8000848a:	40 18       	lddsp	r8,sp[0x4]
8000848c:	c0 d0       	breq	800084a6 <__d2b+0x4e>
8000848e:	40 09       	lddsp	r9,sp[0x0]
80008490:	f8 0a 11 20 	rsub	r10,r12,32
80008494:	f2 0a 09 4a 	lsl	r10,r9,r10
80008498:	f5 e8 10 08 	or	r8,r10,r8
8000849c:	89 58       	st.w	r4[0x14],r8
8000849e:	f2 0c 0a 49 	lsr	r9,r9,r12
800084a2:	50 09       	stdsp	sp[0x0],r9
800084a4:	c0 28       	rjmp	800084a8 <__d2b+0x50>
800084a6:	89 58       	st.w	r4[0x14],r8
800084a8:	40 08       	lddsp	r8,sp[0x0]
800084aa:	58 08       	cp.w	r8,0
800084ac:	f9 b3 01 02 	movne	r3,2
800084b0:	f9 b3 00 01 	moveq	r3,1
800084b4:	89 68       	st.w	r4[0x18],r8
800084b6:	89 43       	st.w	r4[0x10],r3
800084b8:	c0 88       	rjmp	800084c8 <__d2b+0x70>
800084ba:	1a 9c       	mov	r12,sp
800084bc:	c1 bf       	rcall	800082f2 <__lo0bits>
800084be:	30 13       	mov	r3,1
800084c0:	40 08       	lddsp	r8,sp[0x0]
800084c2:	2e 0c       	sub	r12,-32
800084c4:	89 43       	st.w	r4[0x10],r3
800084c6:	89 58       	st.w	r4[0x14],r8
800084c8:	58 01       	cp.w	r1,0
800084ca:	c0 90       	breq	800084dc <__d2b+0x84>
800084cc:	e2 c1 04 33 	sub	r1,r1,1075
800084d0:	18 01       	add	r1,r12
800084d2:	8d 01       	st.w	r6[0x0],r1
800084d4:	f8 0c 11 35 	rsub	r12,r12,53
800084d8:	8b 0c       	st.w	r5[0x0],r12
800084da:	c0 c8       	rjmp	800084f2 <__d2b+0x9a>
800084dc:	e6 c8 ff fc 	sub	r8,r3,-4
800084e0:	f8 cc 04 32 	sub	r12,r12,1074
800084e4:	a5 73       	lsl	r3,0x5
800084e6:	8d 0c       	st.w	r6[0x0],r12
800084e8:	e8 08 03 2c 	ld.w	r12,r4[r8<<0x2]
800084ec:	cd 3e       	rcall	80008292 <__hi0bits>
800084ee:	18 13       	sub	r3,r12
800084f0:	8b 03       	st.w	r5[0x0],r3
800084f2:	08 9c       	mov	r12,r4
800084f4:	2f ed       	sub	sp,-8
800084f6:	d8 32       	popm	r0-r7,pc

800084f8 <__mdiff>:
800084f8:	d4 31       	pushm	r0-r7,lr
800084fa:	74 48       	ld.w	r8,r10[0x10]
800084fc:	76 45       	ld.w	r5,r11[0x10]
800084fe:	16 97       	mov	r7,r11
80008500:	14 96       	mov	r6,r10
80008502:	10 15       	sub	r5,r8
80008504:	c1 31       	brne	8000852a <__mdiff+0x32>
80008506:	2f b8       	sub	r8,-5
80008508:	ee ce ff ec 	sub	lr,r7,-20
8000850c:	a3 68       	lsl	r8,0x2
8000850e:	f4 08 00 0b 	add	r11,r10,r8
80008512:	ee 08 00 08 	add	r8,r7,r8
80008516:	11 4a       	ld.w	r10,--r8
80008518:	17 49       	ld.w	r9,--r11
8000851a:	12 3a       	cp.w	r10,r9
8000851c:	c0 30       	breq	80008522 <__mdiff+0x2a>
8000851e:	c0 e2       	brcc	8000853a <__mdiff+0x42>
80008520:	c0 78       	rjmp	8000852e <__mdiff+0x36>
80008522:	1c 38       	cp.w	r8,lr
80008524:	fe 9b ff f9 	brhi	80008516 <__mdiff+0x1e>
80008528:	c4 98       	rjmp	800085ba <__mdiff+0xc2>
8000852a:	58 05       	cp.w	r5,0
8000852c:	c0 64       	brge	80008538 <__mdiff+0x40>
8000852e:	0e 98       	mov	r8,r7
80008530:	30 15       	mov	r5,1
80008532:	0c 97       	mov	r7,r6
80008534:	10 96       	mov	r6,r8
80008536:	c0 28       	rjmp	8000853a <__mdiff+0x42>
80008538:	30 05       	mov	r5,0
8000853a:	6e 1b       	ld.w	r11,r7[0x4]
8000853c:	c5 6f       	rcall	800083e8 <_Balloc>
8000853e:	6e 49       	ld.w	r9,r7[0x10]
80008540:	6c 44       	ld.w	r4,r6[0x10]
80008542:	99 35       	st.w	r12[0xc],r5
80008544:	2f b4       	sub	r4,-5
80008546:	f2 c5 ff fb 	sub	r5,r9,-5
8000854a:	ec 04 00 24 	add	r4,r6,r4<<0x2
8000854e:	ee 05 00 25 	add	r5,r7,r5<<0x2
80008552:	2e c6       	sub	r6,-20
80008554:	2e c7       	sub	r7,-20
80008556:	f8 c8 ff ec 	sub	r8,r12,-20
8000855a:	30 0a       	mov	r10,0
8000855c:	0f 0e       	ld.w	lr,r7++
8000855e:	0d 0b       	ld.w	r11,r6++
80008560:	fc 02 16 10 	lsr	r2,lr,0x10
80008564:	f6 03 16 10 	lsr	r3,r11,0x10
80008568:	fd de c0 10 	bfextu	lr,lr,0x0,0x10
8000856c:	e4 03 01 03 	sub	r3,r2,r3
80008570:	f7 db c0 10 	bfextu	r11,r11,0x0,0x10
80008574:	fc 0b 01 0b 	sub	r11,lr,r11
80008578:	f6 0a 00 0a 	add	r10,r11,r10
8000857c:	b0 1a       	st.h	r8[0x2],r10
8000857e:	b1 4a       	asr	r10,0x10
80008580:	e6 0a 00 0a 	add	r10,r3,r10
80008584:	b0 0a       	st.h	r8[0x0],r10
80008586:	2f c8       	sub	r8,-4
80008588:	b1 4a       	asr	r10,0x10
8000858a:	08 36       	cp.w	r6,r4
8000858c:	ce 83       	brcs	8000855c <__mdiff+0x64>
8000858e:	c0 d8       	rjmp	800085a8 <__mdiff+0xb0>
80008590:	0f 0b       	ld.w	r11,r7++
80008592:	f6 0e 16 10 	lsr	lr,r11,0x10
80008596:	f7 db c0 10 	bfextu	r11,r11,0x0,0x10
8000859a:	16 0a       	add	r10,r11
8000859c:	b0 1a       	st.h	r8[0x2],r10
8000859e:	b1 4a       	asr	r10,0x10
800085a0:	1c 0a       	add	r10,lr
800085a2:	b0 0a       	st.h	r8[0x0],r10
800085a4:	2f c8       	sub	r8,-4
800085a6:	b1 4a       	asr	r10,0x10
800085a8:	0a 37       	cp.w	r7,r5
800085aa:	cf 33       	brcs	80008590 <__mdiff+0x98>
800085ac:	c0 28       	rjmp	800085b0 <__mdiff+0xb8>
800085ae:	20 19       	sub	r9,1
800085b0:	11 4a       	ld.w	r10,--r8
800085b2:	58 0a       	cp.w	r10,0
800085b4:	cf d0       	breq	800085ae <__mdiff+0xb6>
800085b6:	99 49       	st.w	r12[0x10],r9
800085b8:	d8 32       	popm	r0-r7,pc
800085ba:	30 0b       	mov	r11,0
800085bc:	c1 6f       	rcall	800083e8 <_Balloc>
800085be:	30 18       	mov	r8,1
800085c0:	99 48       	st.w	r12[0x10],r8
800085c2:	30 08       	mov	r8,0
800085c4:	99 58       	st.w	r12[0x14],r8
800085c6:	d8 32       	popm	r0-r7,pc

800085c8 <__lshift>:
800085c8:	d4 31       	pushm	r0-r7,lr
800085ca:	16 97       	mov	r7,r11
800085cc:	76 46       	ld.w	r6,r11[0x10]
800085ce:	f4 02 14 05 	asr	r2,r10,0x5
800085d2:	2f f6       	sub	r6,-1
800085d4:	14 93       	mov	r3,r10
800085d6:	18 94       	mov	r4,r12
800085d8:	04 06       	add	r6,r2
800085da:	76 1b       	ld.w	r11,r11[0x4]
800085dc:	6e 28       	ld.w	r8,r7[0x8]
800085de:	c0 38       	rjmp	800085e4 <__lshift+0x1c>
800085e0:	2f fb       	sub	r11,-1
800085e2:	a1 78       	lsl	r8,0x1
800085e4:	10 36       	cp.w	r6,r8
800085e6:	fe 99 ff fd 	brgt	800085e0 <__lshift+0x18>
800085ea:	08 9c       	mov	r12,r4
800085ec:	cf ee       	rcall	800083e8 <_Balloc>
800085ee:	30 09       	mov	r9,0
800085f0:	18 95       	mov	r5,r12
800085f2:	f8 c8 ff ec 	sub	r8,r12,-20
800085f6:	12 9a       	mov	r10,r9
800085f8:	c0 38       	rjmp	800085fe <__lshift+0x36>
800085fa:	10 aa       	st.w	r8++,r10
800085fc:	2f f9       	sub	r9,-1
800085fe:	04 39       	cp.w	r9,r2
80008600:	cf d5       	brlt	800085fa <__lshift+0x32>
80008602:	6e 4b       	ld.w	r11,r7[0x10]
80008604:	e7 d3 c0 05 	bfextu	r3,r3,0x0,0x5
80008608:	2f bb       	sub	r11,-5
8000860a:	ee c9 ff ec 	sub	r9,r7,-20
8000860e:	ee 0b 00 2b 	add	r11,r7,r11<<0x2
80008612:	58 03       	cp.w	r3,0
80008614:	c1 30       	breq	8000863a <__lshift+0x72>
80008616:	e6 0c 11 20 	rsub	r12,r3,32
8000861a:	30 0a       	mov	r10,0
8000861c:	72 02       	ld.w	r2,r9[0x0]
8000861e:	e4 03 09 42 	lsl	r2,r2,r3
80008622:	04 4a       	or	r10,r2
80008624:	10 aa       	st.w	r8++,r10
80008626:	13 0a       	ld.w	r10,r9++
80008628:	f4 0c 0a 4a 	lsr	r10,r10,r12
8000862c:	16 39       	cp.w	r9,r11
8000862e:	cf 73       	brcs	8000861c <__lshift+0x54>
80008630:	91 0a       	st.w	r8[0x0],r10
80008632:	58 0a       	cp.w	r10,0
80008634:	c0 70       	breq	80008642 <__lshift+0x7a>
80008636:	2f f6       	sub	r6,-1
80008638:	c0 58       	rjmp	80008642 <__lshift+0x7a>
8000863a:	13 0a       	ld.w	r10,r9++
8000863c:	10 aa       	st.w	r8++,r10
8000863e:	16 39       	cp.w	r9,r11
80008640:	cf d3       	brcs	8000863a <__lshift+0x72>
80008642:	08 9c       	mov	r12,r4
80008644:	20 16       	sub	r6,1
80008646:	0e 9b       	mov	r11,r7
80008648:	8b 46       	st.w	r5[0x10],r6
8000864a:	cb 5e       	rcall	800083b4 <_Bfree>
8000864c:	0a 9c       	mov	r12,r5
8000864e:	d8 32       	popm	r0-r7,pc

80008650 <__multiply>:
80008650:	d4 31       	pushm	r0-r7,lr
80008652:	20 2d       	sub	sp,8
80008654:	76 49       	ld.w	r9,r11[0x10]
80008656:	74 48       	ld.w	r8,r10[0x10]
80008658:	16 96       	mov	r6,r11
8000865a:	14 95       	mov	r5,r10
8000865c:	10 39       	cp.w	r9,r8
8000865e:	ec 08 17 50 	movlt	r8,r6
80008662:	ea 06 17 50 	movlt	r6,r5
80008666:	f0 05 17 50 	movlt	r5,r8
8000866a:	6c 28       	ld.w	r8,r6[0x8]
8000866c:	76 43       	ld.w	r3,r11[0x10]
8000866e:	74 42       	ld.w	r2,r10[0x10]
80008670:	76 1b       	ld.w	r11,r11[0x4]
80008672:	e4 03 00 07 	add	r7,r2,r3
80008676:	10 37       	cp.w	r7,r8
80008678:	f7 bb 09 ff 	subgt	r11,-1
8000867c:	cb 6e       	rcall	800083e8 <_Balloc>
8000867e:	ee c4 ff fb 	sub	r4,r7,-5
80008682:	f8 c9 ff ec 	sub	r9,r12,-20
80008686:	f8 04 00 24 	add	r4,r12,r4<<0x2
8000868a:	30 0a       	mov	r10,0
8000868c:	12 98       	mov	r8,r9
8000868e:	c0 28       	rjmp	80008692 <__multiply+0x42>
80008690:	10 aa       	st.w	r8++,r10
80008692:	08 38       	cp.w	r8,r4
80008694:	cf e3       	brcs	80008690 <__multiply+0x40>
80008696:	2f b3       	sub	r3,-5
80008698:	2f b2       	sub	r2,-5
8000869a:	ec 03 00 23 	add	r3,r6,r3<<0x2
8000869e:	ea 02 00 22 	add	r2,r5,r2<<0x2
800086a2:	ec cb ff ec 	sub	r11,r6,-20
800086a6:	50 12       	stdsp	sp[0x4],r2
800086a8:	ea ca ff ec 	sub	r10,r5,-20
800086ac:	c4 48       	rjmp	80008734 <__multiply+0xe4>
800086ae:	94 95       	ld.uh	r5,r10[0x2]
800086b0:	58 05       	cp.w	r5,0
800086b2:	c2 00       	breq	800086f2 <__multiply+0xa2>
800086b4:	12 98       	mov	r8,r9
800086b6:	16 96       	mov	r6,r11
800086b8:	30 0e       	mov	lr,0
800086ba:	50 09       	stdsp	sp[0x0],r9
800086bc:	0d 02       	ld.w	r2,r6++
800086be:	e4 00 16 10 	lsr	r0,r2,0x10
800086c2:	70 01       	ld.w	r1,r8[0x0]
800086c4:	70 09       	ld.w	r9,r8[0x0]
800086c6:	b1 81       	lsr	r1,0x10
800086c8:	e5 d2 c0 10 	bfextu	r2,r2,0x0,0x10
800086cc:	e0 05 03 41 	mac	r1,r0,r5
800086d0:	ab 32       	mul	r2,r5
800086d2:	e1 d9 c0 10 	bfextu	r0,r9,0x0,0x10
800086d6:	00 02       	add	r2,r0
800086d8:	e4 0e 00 0e 	add	lr,r2,lr
800086dc:	b0 1e       	st.h	r8[0x2],lr
800086de:	b1 8e       	lsr	lr,0x10
800086e0:	1c 01       	add	r1,lr
800086e2:	b0 01       	st.h	r8[0x0],r1
800086e4:	e2 0e 16 10 	lsr	lr,r1,0x10
800086e8:	2f c8       	sub	r8,-4
800086ea:	06 36       	cp.w	r6,r3
800086ec:	ce 83       	brcs	800086bc <__multiply+0x6c>
800086ee:	40 09       	lddsp	r9,sp[0x0]
800086f0:	91 0e       	st.w	r8[0x0],lr
800086f2:	94 86       	ld.uh	r6,r10[0x0]
800086f4:	58 06       	cp.w	r6,0
800086f6:	c1 d0       	breq	80008730 <__multiply+0xe0>
800086f8:	72 02       	ld.w	r2,r9[0x0]
800086fa:	12 98       	mov	r8,r9
800086fc:	16 9e       	mov	lr,r11
800086fe:	30 05       	mov	r5,0
80008700:	b0 12       	st.h	r8[0x2],r2
80008702:	1d 01       	ld.w	r1,lr++
80008704:	90 82       	ld.uh	r2,r8[0x0]
80008706:	e1 d1 c0 10 	bfextu	r0,r1,0x0,0x10
8000870a:	ad 30       	mul	r0,r6
8000870c:	e0 02 00 02 	add	r2,r0,r2
80008710:	e4 05 00 05 	add	r5,r2,r5
80008714:	b0 05       	st.h	r8[0x0],r5
80008716:	b1 85       	lsr	r5,0x10
80008718:	b1 81       	lsr	r1,0x10
8000871a:	2f c8       	sub	r8,-4
8000871c:	ad 31       	mul	r1,r6
8000871e:	90 92       	ld.uh	r2,r8[0x2]
80008720:	e2 02 00 02 	add	r2,r1,r2
80008724:	0a 02       	add	r2,r5
80008726:	e4 05 16 10 	lsr	r5,r2,0x10
8000872a:	06 3e       	cp.w	lr,r3
8000872c:	ce a3       	brcs	80008700 <__multiply+0xb0>
8000872e:	91 02       	st.w	r8[0x0],r2
80008730:	2f ca       	sub	r10,-4
80008732:	2f c9       	sub	r9,-4
80008734:	40 18       	lddsp	r8,sp[0x4]
80008736:	10 3a       	cp.w	r10,r8
80008738:	cb b3       	brcs	800086ae <__multiply+0x5e>
8000873a:	c0 28       	rjmp	8000873e <__multiply+0xee>
8000873c:	20 17       	sub	r7,1
8000873e:	58 07       	cp.w	r7,0
80008740:	e0 8a 00 05 	brle	8000874a <__multiply+0xfa>
80008744:	09 48       	ld.w	r8,--r4
80008746:	58 08       	cp.w	r8,0
80008748:	cf a0       	breq	8000873c <__multiply+0xec>
8000874a:	99 47       	st.w	r12[0x10],r7
8000874c:	2f ed       	sub	sp,-8
8000874e:	d8 32       	popm	r0-r7,pc

80008750 <__i2b>:
80008750:	d4 21       	pushm	r4-r7,lr
80008752:	16 97       	mov	r7,r11
80008754:	30 1b       	mov	r11,1
80008756:	c4 9e       	rcall	800083e8 <_Balloc>
80008758:	30 19       	mov	r9,1
8000875a:	99 57       	st.w	r12[0x14],r7
8000875c:	99 49       	st.w	r12[0x10],r9
8000875e:	d8 22       	popm	r4-r7,pc

80008760 <__multadd>:
80008760:	d4 31       	pushm	r0-r7,lr
80008762:	30 08       	mov	r8,0
80008764:	12 95       	mov	r5,r9
80008766:	16 97       	mov	r7,r11
80008768:	18 96       	mov	r6,r12
8000876a:	76 44       	ld.w	r4,r11[0x10]
8000876c:	f6 c9 ff ec 	sub	r9,r11,-20
80008770:	72 0b       	ld.w	r11,r9[0x0]
80008772:	f6 0c 16 10 	lsr	r12,r11,0x10
80008776:	f7 db c0 10 	bfextu	r11,r11,0x0,0x10
8000877a:	f4 0c 02 4c 	mul	r12,r10,r12
8000877e:	f4 0b 03 45 	mac	r5,r10,r11
80008782:	f7 d5 c0 10 	bfextu	r11,r5,0x0,0x10
80008786:	b1 85       	lsr	r5,0x10
80008788:	18 05       	add	r5,r12
8000878a:	ea 0c 15 10 	lsl	r12,r5,0x10
8000878e:	f8 0b 00 0b 	add	r11,r12,r11
80008792:	12 ab       	st.w	r9++,r11
80008794:	2f f8       	sub	r8,-1
80008796:	b1 85       	lsr	r5,0x10
80008798:	08 38       	cp.w	r8,r4
8000879a:	ce b5       	brlt	80008770 <__multadd+0x10>
8000879c:	58 05       	cp.w	r5,0
8000879e:	c1 c0       	breq	800087d6 <__multadd+0x76>
800087a0:	6e 28       	ld.w	r8,r7[0x8]
800087a2:	10 34       	cp.w	r4,r8
800087a4:	c1 35       	brlt	800087ca <__multadd+0x6a>
800087a6:	6e 1b       	ld.w	r11,r7[0x4]
800087a8:	0c 9c       	mov	r12,r6
800087aa:	2f fb       	sub	r11,-1
800087ac:	c1 ee       	rcall	800083e8 <_Balloc>
800087ae:	6e 4a       	ld.w	r10,r7[0x10]
800087b0:	ee cb ff f4 	sub	r11,r7,-12
800087b4:	18 93       	mov	r3,r12
800087b6:	2f ea       	sub	r10,-2
800087b8:	2f 4c       	sub	r12,-12
800087ba:	a3 6a       	lsl	r10,0x2
800087bc:	fe b0 de 36 	rcall	80004428 <memcpy>
800087c0:	0e 9b       	mov	r11,r7
800087c2:	0c 9c       	mov	r12,r6
800087c4:	fe b0 fd f8 	rcall	800083b4 <_Bfree>
800087c8:	06 97       	mov	r7,r3
800087ca:	e8 c8 ff ff 	sub	r8,r4,-1
800087ce:	2f b4       	sub	r4,-5
800087d0:	8f 48       	st.w	r7[0x10],r8
800087d2:	ee 04 09 25 	st.w	r7[r4<<0x2],r5
800087d6:	0e 9c       	mov	r12,r7
800087d8:	d8 32       	popm	r0-r7,pc
800087da:	d7 03       	nop

800087dc <__pow5mult>:
800087dc:	d4 31       	pushm	r0-r7,lr
800087de:	14 96       	mov	r6,r10
800087e0:	18 97       	mov	r7,r12
800087e2:	16 94       	mov	r4,r11
800087e4:	f1 da c0 02 	bfextu	r8,r10,0x0,0x2
800087e8:	c0 90       	breq	800087fa <__pow5mult+0x1e>
800087ea:	20 18       	sub	r8,1
800087ec:	fe c9 e4 10 	sub	r9,pc,-7152
800087f0:	f2 08 03 2a 	ld.w	r10,r9[r8<<0x2]
800087f4:	30 09       	mov	r9,0
800087f6:	cb 5f       	rcall	80008760 <__multadd>
800087f8:	18 94       	mov	r4,r12
800087fa:	a3 46       	asr	r6,0x2
800087fc:	c3 40       	breq	80008864 <__pow5mult+0x88>
800087fe:	6e 95       	ld.w	r5,r7[0x24]
80008800:	58 05       	cp.w	r5,0
80008802:	c0 91       	brne	80008814 <__pow5mult+0x38>
80008804:	31 0c       	mov	r12,16
80008806:	fe b0 fa f3 	rcall	80007dec <malloc>
8000880a:	99 35       	st.w	r12[0xc],r5
8000880c:	8f 9c       	st.w	r7[0x24],r12
8000880e:	99 15       	st.w	r12[0x4],r5
80008810:	99 25       	st.w	r12[0x8],r5
80008812:	99 05       	st.w	r12[0x0],r5
80008814:	6e 93       	ld.w	r3,r7[0x24]
80008816:	66 25       	ld.w	r5,r3[0x8]
80008818:	58 05       	cp.w	r5,0
8000881a:	c0 c1       	brne	80008832 <__pow5mult+0x56>
8000881c:	e0 6b 02 71 	mov	r11,625
80008820:	0e 9c       	mov	r12,r7
80008822:	c9 7f       	rcall	80008750 <__i2b>
80008824:	87 2c       	st.w	r3[0x8],r12
80008826:	30 08       	mov	r8,0
80008828:	18 95       	mov	r5,r12
8000882a:	99 08       	st.w	r12[0x0],r8
8000882c:	c0 38       	rjmp	80008832 <__pow5mult+0x56>
8000882e:	06 9c       	mov	r12,r3
80008830:	18 95       	mov	r5,r12
80008832:	ed b6 00 00 	bld	r6,0x0
80008836:	c0 b1       	brne	8000884c <__pow5mult+0x70>
80008838:	08 9b       	mov	r11,r4
8000883a:	0a 9a       	mov	r10,r5
8000883c:	0e 9c       	mov	r12,r7
8000883e:	c0 9f       	rcall	80008650 <__multiply>
80008840:	08 9b       	mov	r11,r4
80008842:	18 93       	mov	r3,r12
80008844:	0e 9c       	mov	r12,r7
80008846:	06 94       	mov	r4,r3
80008848:	fe b0 fd b6 	rcall	800083b4 <_Bfree>
8000884c:	a1 56       	asr	r6,0x1
8000884e:	c0 b0       	breq	80008864 <__pow5mult+0x88>
80008850:	6a 03       	ld.w	r3,r5[0x0]
80008852:	58 03       	cp.w	r3,0
80008854:	ce d1       	brne	8000882e <__pow5mult+0x52>
80008856:	0a 9a       	mov	r10,r5
80008858:	0a 9b       	mov	r11,r5
8000885a:	0e 9c       	mov	r12,r7
8000885c:	cf ae       	rcall	80008650 <__multiply>
8000885e:	8b 0c       	st.w	r5[0x0],r12
80008860:	99 03       	st.w	r12[0x0],r3
80008862:	ce 7b       	rjmp	80008830 <__pow5mult+0x54>
80008864:	08 9c       	mov	r12,r4
80008866:	d8 32       	popm	r0-r7,pc

80008868 <_realloc_r>:
80008868:	d4 31       	pushm	r0-r7,lr
8000886a:	20 1d       	sub	sp,4
8000886c:	16 94       	mov	r4,r11
8000886e:	18 92       	mov	r2,r12
80008870:	14 9b       	mov	r11,r10
80008872:	58 04       	cp.w	r4,0
80008874:	c0 51       	brne	8000887e <_realloc_r+0x16>
80008876:	fe b0 fa c3 	rcall	80007dfc <_malloc_r>
8000887a:	18 95       	mov	r5,r12
8000887c:	c5 39       	rjmp	80008b22 <_realloc_r+0x2ba>
8000887e:	50 0a       	stdsp	sp[0x0],r10
80008880:	fe b0 fd 07 	rcall	8000828e <__malloc_lock>
80008884:	40 0b       	lddsp	r11,sp[0x0]
80008886:	f6 c8 ff f5 	sub	r8,r11,-11
8000888a:	e8 c1 00 08 	sub	r1,r4,8
8000888e:	10 96       	mov	r6,r8
80008890:	62 1c       	ld.w	r12,r1[0x4]
80008892:	e0 16 ff f8 	andl	r6,0xfff8
80008896:	59 68       	cp.w	r8,22
80008898:	f9 b6 08 10 	movls	r6,16
8000889c:	16 36       	cp.w	r6,r11
8000889e:	5f 38       	srlo	r8
800088a0:	f1 e6 13 f8 	or	r8,r8,r6>>0x1f
800088a4:	c0 50       	breq	800088ae <_realloc_r+0x46>
800088a6:	30 c8       	mov	r8,12
800088a8:	30 05       	mov	r5,0
800088aa:	85 38       	st.w	r2[0xc],r8
800088ac:	c3 b9       	rjmp	80008b22 <_realloc_r+0x2ba>
800088ae:	18 90       	mov	r0,r12
800088b0:	e0 10 ff fc 	andl	r0,0xfffc
800088b4:	0c 30       	cp.w	r0,r6
800088b6:	e0 84 01 0b 	brge	80008acc <_realloc_r+0x264>
800088ba:	e0 68 01 00 	mov	r8,256
800088be:	e2 00 00 09 	add	r9,r1,r0
800088c2:	70 25       	ld.w	r5,r8[0x8]
800088c4:	0a 39       	cp.w	r9,r5
800088c6:	c0 90       	breq	800088d8 <_realloc_r+0x70>
800088c8:	72 1a       	ld.w	r10,r9[0x4]
800088ca:	a1 ca       	cbr	r10,0x0
800088cc:	f2 0a 00 0a 	add	r10,r9,r10
800088d0:	74 1a       	ld.w	r10,r10[0x4]
800088d2:	ed ba 00 00 	bld	r10,0x0
800088d6:	c2 20       	breq	8000891a <_realloc_r+0xb2>
800088d8:	72 1a       	ld.w	r10,r9[0x4]
800088da:	e0 1a ff fc 	andl	r10,0xfffc
800088de:	f4 00 00 03 	add	r3,r10,r0
800088e2:	0a 39       	cp.w	r9,r5
800088e4:	c1 31       	brne	8000890a <_realloc_r+0xa2>
800088e6:	ec c7 ff f0 	sub	r7,r6,-16
800088ea:	0e 33       	cp.w	r3,r7
800088ec:	c1 95       	brlt	8000891e <_realloc_r+0xb6>
800088ee:	e2 06 00 09 	add	r9,r1,r6
800088f2:	0c 13       	sub	r3,r6
800088f4:	a1 a3       	sbr	r3,0x0
800088f6:	93 13       	st.w	r9[0x4],r3
800088f8:	91 29       	st.w	r8[0x8],r9
800088fa:	04 9c       	mov	r12,r2
800088fc:	62 18       	ld.w	r8,r1[0x4]
800088fe:	08 95       	mov	r5,r4
80008900:	f1 d8 c0 01 	bfextu	r8,r8,0x0,0x1
80008904:	10 46       	or	r6,r8
80008906:	83 16       	st.w	r1[0x4],r6
80008908:	c0 b9       	rjmp	80008b1e <_realloc_r+0x2b6>
8000890a:	0c 33       	cp.w	r3,r6
8000890c:	c0 95       	brlt	8000891e <_realloc_r+0xb6>
8000890e:	72 28       	ld.w	r8,r9[0x8]
80008910:	02 97       	mov	r7,r1
80008912:	72 39       	ld.w	r9,r9[0xc]
80008914:	93 28       	st.w	r9[0x8],r8
80008916:	91 39       	st.w	r8[0xc],r9
80008918:	cd c8       	rjmp	80008ad0 <_realloc_r+0x268>
8000891a:	30 0a       	mov	r10,0
8000891c:	14 99       	mov	r9,r10
8000891e:	ed bc 00 00 	bld	r12,0x0
80008922:	e0 80 00 95 	breq	80008a4c <_realloc_r+0x1e4>
80008926:	62 07       	ld.w	r7,r1[0x0]
80008928:	e2 07 01 07 	sub	r7,r1,r7
8000892c:	6e 1c       	ld.w	r12,r7[0x4]
8000892e:	e0 1c ff fc 	andl	r12,0xfffc
80008932:	58 09       	cp.w	r9,0
80008934:	c5 60       	breq	800089e0 <_realloc_r+0x178>
80008936:	f8 00 00 03 	add	r3,r12,r0
8000893a:	0a 39       	cp.w	r9,r5
8000893c:	c4 81       	brne	800089cc <_realloc_r+0x164>
8000893e:	14 03       	add	r3,r10
80008940:	ec c9 ff f0 	sub	r9,r6,-16
80008944:	12 33       	cp.w	r3,r9
80008946:	c4 d5       	brlt	800089e0 <_realloc_r+0x178>
80008948:	6e 3a       	ld.w	r10,r7[0xc]
8000894a:	6e 29       	ld.w	r9,r7[0x8]
8000894c:	95 29       	st.w	r10[0x8],r9
8000894e:	93 3a       	st.w	r9[0xc],r10
80008950:	ee c5 ff f8 	sub	r5,r7,-8
80008954:	e0 ca 00 04 	sub	r10,r0,4
80008958:	e0 4a 00 24 	cp.w	r10,36
8000895c:	e0 8b 00 25 	brhi	800089a6 <_realloc_r+0x13e>
80008960:	0a 99       	mov	r9,r5
80008962:	59 3a       	cp.w	r10,19
80008964:	e0 88 00 1a 	brls	80008998 <_realloc_r+0x130>
80008968:	09 09       	ld.w	r9,r4++
8000896a:	8b 09       	st.w	r5[0x0],r9
8000896c:	09 09       	ld.w	r9,r4++
8000896e:	8f 39       	st.w	r7[0xc],r9
80008970:	ee c9 ff f0 	sub	r9,r7,-16
80008974:	59 ba       	cp.w	r10,27
80008976:	e0 88 00 11 	brls	80008998 <_realloc_r+0x130>
8000897a:	09 0b       	ld.w	r11,r4++
8000897c:	93 0b       	st.w	r9[0x0],r11
8000897e:	09 09       	ld.w	r9,r4++
80008980:	8f 59       	st.w	r7[0x14],r9
80008982:	ee c9 ff e8 	sub	r9,r7,-24
80008986:	e0 4a 00 24 	cp.w	r10,36
8000898a:	c0 71       	brne	80008998 <_realloc_r+0x130>
8000898c:	09 0a       	ld.w	r10,r4++
8000898e:	93 0a       	st.w	r9[0x0],r10
80008990:	ee c9 ff e0 	sub	r9,r7,-32
80008994:	09 0a       	ld.w	r10,r4++
80008996:	8f 7a       	st.w	r7[0x1c],r10
80008998:	09 0a       	ld.w	r10,r4++
8000899a:	12 aa       	st.w	r9++,r10
8000899c:	68 0a       	ld.w	r10,r4[0x0]
8000899e:	93 0a       	st.w	r9[0x0],r10
800089a0:	68 1a       	ld.w	r10,r4[0x4]
800089a2:	93 1a       	st.w	r9[0x4],r10
800089a4:	c0 78       	rjmp	800089b2 <_realloc_r+0x14a>
800089a6:	50 08       	stdsp	sp[0x0],r8
800089a8:	08 9b       	mov	r11,r4
800089aa:	0a 9c       	mov	r12,r5
800089ac:	fe b0 fc 4b 	rcall	80008242 <memmove>
800089b0:	40 08       	lddsp	r8,sp[0x0]
800089b2:	ee 06 00 09 	add	r9,r7,r6
800089b6:	0c 13       	sub	r3,r6
800089b8:	a1 a3       	sbr	r3,0x0
800089ba:	93 13       	st.w	r9[0x4],r3
800089bc:	91 29       	st.w	r8[0x8],r9
800089be:	04 9c       	mov	r12,r2
800089c0:	6e 18       	ld.w	r8,r7[0x4]
800089c2:	f1 d8 c0 01 	bfextu	r8,r8,0x0,0x1
800089c6:	10 46       	or	r6,r8
800089c8:	8f 16       	st.w	r7[0x4],r6
800089ca:	ca a8       	rjmp	80008b1e <_realloc_r+0x2b6>
800089cc:	14 03       	add	r3,r10
800089ce:	0c 33       	cp.w	r3,r6
800089d0:	c0 85       	brlt	800089e0 <_realloc_r+0x178>
800089d2:	72 28       	ld.w	r8,r9[0x8]
800089d4:	72 39       	ld.w	r9,r9[0xc]
800089d6:	93 28       	st.w	r9[0x8],r8
800089d8:	91 39       	st.w	r8[0xc],r9
800089da:	6e 28       	ld.w	r8,r7[0x8]
800089dc:	6e 39       	ld.w	r9,r7[0xc]
800089de:	c0 78       	rjmp	800089ec <_realloc_r+0x184>
800089e0:	f8 00 00 03 	add	r3,r12,r0
800089e4:	0c 33       	cp.w	r3,r6
800089e6:	c3 35       	brlt	80008a4c <_realloc_r+0x1e4>
800089e8:	6e 39       	ld.w	r9,r7[0xc]
800089ea:	6e 28       	ld.w	r8,r7[0x8]
800089ec:	93 28       	st.w	r9[0x8],r8
800089ee:	91 39       	st.w	r8[0xc],r9
800089f0:	e0 ca 00 04 	sub	r10,r0,4
800089f4:	ee cc ff f8 	sub	r12,r7,-8
800089f8:	e0 4a 00 24 	cp.w	r10,36
800089fc:	e0 8b 00 24 	brhi	80008a44 <_realloc_r+0x1dc>
80008a00:	59 3a       	cp.w	r10,19
80008a02:	e0 88 00 1a 	brls	80008a36 <_realloc_r+0x1ce>
80008a06:	09 08       	ld.w	r8,r4++
80008a08:	99 08       	st.w	r12[0x0],r8
80008a0a:	09 08       	ld.w	r8,r4++
80008a0c:	8f 38       	st.w	r7[0xc],r8
80008a0e:	ee cc ff f0 	sub	r12,r7,-16
80008a12:	59 ba       	cp.w	r10,27
80008a14:	e0 88 00 11 	brls	80008a36 <_realloc_r+0x1ce>
80008a18:	09 08       	ld.w	r8,r4++
80008a1a:	99 08       	st.w	r12[0x0],r8
80008a1c:	09 08       	ld.w	r8,r4++
80008a1e:	8f 58       	st.w	r7[0x14],r8
80008a20:	ee cc ff e8 	sub	r12,r7,-24
80008a24:	e0 4a 00 24 	cp.w	r10,36
80008a28:	c0 71       	brne	80008a36 <_realloc_r+0x1ce>
80008a2a:	09 08       	ld.w	r8,r4++
80008a2c:	99 08       	st.w	r12[0x0],r8
80008a2e:	ee cc ff e0 	sub	r12,r7,-32
80008a32:	09 08       	ld.w	r8,r4++
80008a34:	8f 78       	st.w	r7[0x1c],r8
80008a36:	09 08       	ld.w	r8,r4++
80008a38:	18 a8       	st.w	r12++,r8
80008a3a:	68 08       	ld.w	r8,r4[0x0]
80008a3c:	99 08       	st.w	r12[0x0],r8
80008a3e:	68 18       	ld.w	r8,r4[0x4]
80008a40:	99 18       	st.w	r12[0x4],r8
80008a42:	c4 78       	rjmp	80008ad0 <_realloc_r+0x268>
80008a44:	08 9b       	mov	r11,r4
80008a46:	fe b0 fb fe 	rcall	80008242 <memmove>
80008a4a:	c4 38       	rjmp	80008ad0 <_realloc_r+0x268>
80008a4c:	04 9c       	mov	r12,r2
80008a4e:	fe b0 f9 d7 	rcall	80007dfc <_malloc_r>
80008a52:	18 95       	mov	r5,r12
80008a54:	c3 a0       	breq	80008ac8 <_realloc_r+0x260>
80008a56:	62 18       	ld.w	r8,r1[0x4]
80008a58:	f8 c9 00 08 	sub	r9,r12,8
80008a5c:	a1 c8       	cbr	r8,0x0
80008a5e:	e2 08 00 08 	add	r8,r1,r8
80008a62:	10 39       	cp.w	r9,r8
80008a64:	c0 71       	brne	80008a72 <_realloc_r+0x20a>
80008a66:	72 13       	ld.w	r3,r9[0x4]
80008a68:	02 97       	mov	r7,r1
80008a6a:	e0 13 ff fc 	andl	r3,0xfffc
80008a6e:	00 03       	add	r3,r0
80008a70:	c3 08       	rjmp	80008ad0 <_realloc_r+0x268>
80008a72:	e0 ca 00 04 	sub	r10,r0,4
80008a76:	e0 4a 00 24 	cp.w	r10,36
80008a7a:	e0 8b 00 20 	brhi	80008aba <_realloc_r+0x252>
80008a7e:	08 99       	mov	r9,r4
80008a80:	18 98       	mov	r8,r12
80008a82:	59 3a       	cp.w	r10,19
80008a84:	e0 88 00 14 	brls	80008aac <_realloc_r+0x244>
80008a88:	13 0b       	ld.w	r11,r9++
80008a8a:	10 ab       	st.w	r8++,r11
80008a8c:	13 0b       	ld.w	r11,r9++
80008a8e:	10 ab       	st.w	r8++,r11
80008a90:	59 ba       	cp.w	r10,27
80008a92:	e0 88 00 0d 	brls	80008aac <_realloc_r+0x244>
80008a96:	13 0b       	ld.w	r11,r9++
80008a98:	10 ab       	st.w	r8++,r11
80008a9a:	13 0b       	ld.w	r11,r9++
80008a9c:	10 ab       	st.w	r8++,r11
80008a9e:	e0 4a 00 24 	cp.w	r10,36
80008aa2:	c0 51       	brne	80008aac <_realloc_r+0x244>
80008aa4:	13 0a       	ld.w	r10,r9++
80008aa6:	10 aa       	st.w	r8++,r10
80008aa8:	13 0a       	ld.w	r10,r9++
80008aaa:	10 aa       	st.w	r8++,r10
80008aac:	13 0a       	ld.w	r10,r9++
80008aae:	10 aa       	st.w	r8++,r10
80008ab0:	72 0a       	ld.w	r10,r9[0x0]
80008ab2:	91 0a       	st.w	r8[0x0],r10
80008ab4:	72 19       	ld.w	r9,r9[0x4]
80008ab6:	91 19       	st.w	r8[0x4],r9
80008ab8:	c0 48       	rjmp	80008ac0 <_realloc_r+0x258>
80008aba:	08 9b       	mov	r11,r4
80008abc:	fe b0 fb c3 	rcall	80008242 <memmove>
80008ac0:	08 9b       	mov	r11,r4
80008ac2:	04 9c       	mov	r12,r2
80008ac4:	fe b0 f6 f6 	rcall	800078b0 <_free_r>
80008ac8:	04 9c       	mov	r12,r2
80008aca:	c2 a8       	rjmp	80008b1e <_realloc_r+0x2b6>
80008acc:	00 93       	mov	r3,r0
80008ace:	02 97       	mov	r7,r1
80008ad0:	e6 06 01 09 	sub	r9,r3,r6
80008ad4:	6e 18       	ld.w	r8,r7[0x4]
80008ad6:	58 f9       	cp.w	r9,15
80008ad8:	e0 88 00 16 	brls	80008b04 <_realloc_r+0x29c>
80008adc:	f1 d8 c0 01 	bfextu	r8,r8,0x0,0x1
80008ae0:	ed e8 10 08 	or	r8,r6,r8
80008ae4:	8f 18       	st.w	r7[0x4],r8
80008ae6:	12 98       	mov	r8,r9
80008ae8:	a1 a8       	sbr	r8,0x0
80008aea:	ee 06 00 0b 	add	r11,r7,r6
80008aee:	f6 09 00 09 	add	r9,r11,r9
80008af2:	97 18       	st.w	r11[0x4],r8
80008af4:	72 18       	ld.w	r8,r9[0x4]
80008af6:	a1 a8       	sbr	r8,0x0
80008af8:	2f 8b       	sub	r11,-8
80008afa:	93 18       	st.w	r9[0x4],r8
80008afc:	04 9c       	mov	r12,r2
80008afe:	fe b0 f6 d9 	rcall	800078b0 <_free_r>
80008b02:	c0 b8       	rjmp	80008b18 <_realloc_r+0x2b0>
80008b04:	f1 d8 c0 01 	bfextu	r8,r8,0x0,0x1
80008b08:	e7 e8 10 08 	or	r8,r3,r8
80008b0c:	8f 18       	st.w	r7[0x4],r8
80008b0e:	ee 03 00 03 	add	r3,r7,r3
80008b12:	66 18       	ld.w	r8,r3[0x4]
80008b14:	a1 a8       	sbr	r8,0x0
80008b16:	87 18       	st.w	r3[0x4],r8
80008b18:	04 9c       	mov	r12,r2
80008b1a:	ee c5 ff f8 	sub	r5,r7,-8
80008b1e:	fe b0 fb b9 	rcall	80008290 <__malloc_unlock>
80008b22:	0a 9c       	mov	r12,r5
80008b24:	2f fd       	sub	sp,-4
80008b26:	d8 32       	popm	r0-r7,pc

80008b28 <__isinfd>:
80008b28:	14 98       	mov	r8,r10
80008b2a:	fc 19 7f f0 	movh	r9,0x7ff0
80008b2e:	f5 db c0 1f 	bfextu	r10,r11,0x0,0x1f
80008b32:	f0 0b 11 00 	rsub	r11,r8,0
80008b36:	f7 e8 10 08 	or	r8,r11,r8
80008b3a:	f5 e8 13 f8 	or	r8,r10,r8>>0x1f
80008b3e:	f2 08 01 08 	sub	r8,r9,r8
80008b42:	f0 0c 11 00 	rsub	r12,r8,0
80008b46:	f9 e8 10 08 	or	r8,r12,r8
80008b4a:	f0 0c 14 1f 	asr	r12,r8,0x1f
80008b4e:	2f fc       	sub	r12,-1
80008b50:	5e fc       	retal	r12

80008b52 <__isnand>:
80008b52:	14 98       	mov	r8,r10
80008b54:	f5 db c0 1f 	bfextu	r10,r11,0x0,0x1f
80008b58:	f0 0c 11 00 	rsub	r12,r8,0
80008b5c:	10 4c       	or	r12,r8
80008b5e:	fc 18 7f f0 	movh	r8,0x7ff0
80008b62:	f5 ec 13 fc 	or	r12,r10,r12>>0x1f
80008b66:	f0 0c 01 0c 	sub	r12,r8,r12
80008b6a:	bf 9c       	lsr	r12,0x1f
80008b6c:	5e fc       	retal	r12
80008b6e:	d7 03       	nop

80008b70 <_sbrk_r>:
80008b70:	d4 21       	pushm	r4-r7,lr
80008b72:	30 08       	mov	r8,0
80008b74:	18 97       	mov	r7,r12
80008b76:	e0 66 06 58 	mov	r6,1624
80008b7a:	16 9c       	mov	r12,r11
80008b7c:	8d 08       	st.w	r6[0x0],r8
80008b7e:	ca fc       	rcall	80008cdc <_sbrk>
80008b80:	5b fc       	cp.w	r12,-1
80008b82:	c0 51       	brne	80008b8c <_sbrk_r+0x1c>
80008b84:	6c 08       	ld.w	r8,r6[0x0]
80008b86:	58 08       	cp.w	r8,0
80008b88:	ef f8 1a 03 	st.wne	r7[0xc],r8
80008b8c:	d8 22       	popm	r4-r7,pc
80008b8e:	d7 03       	nop

80008b90 <__sclose>:
80008b90:	d4 01       	pushm	lr
80008b92:	96 7b       	ld.sh	r11,r11[0xe]
80008b94:	cf ec       	rcall	80008d90 <_close_r>
80008b96:	d8 02       	popm	pc

80008b98 <__sseek>:
80008b98:	d4 21       	pushm	r4-r7,lr
80008b9a:	16 97       	mov	r7,r11
80008b9c:	96 7b       	ld.sh	r11,r11[0xe]
80008b9e:	c8 5d       	rcall	80008ea8 <_lseek_r>
80008ba0:	8e 68       	ld.sh	r8,r7[0xc]
80008ba2:	10 99       	mov	r9,r8
80008ba4:	ad c8       	cbr	r8,0xc
80008ba6:	ad a9       	sbr	r9,0xc
80008ba8:	5b fc       	cp.w	r12,-1
80008baa:	ef f8 0c 06 	st.heq	r7[0xc],r8
80008bae:	ef f9 1c 06 	st.hne	r7[0xc],r9
80008bb2:	ef fc 1a 15 	st.wne	r7[0x54],r12
80008bb6:	d8 22       	popm	r4-r7,pc

80008bb8 <__swrite>:
80008bb8:	d4 21       	pushm	r4-r7,lr
80008bba:	96 68       	ld.sh	r8,r11[0xc]
80008bbc:	16 97       	mov	r7,r11
80008bbe:	14 95       	mov	r5,r10
80008bc0:	12 94       	mov	r4,r9
80008bc2:	e2 18 01 00 	andl	r8,0x100,COH
80008bc6:	18 96       	mov	r6,r12
80008bc8:	c0 50       	breq	80008bd2 <__swrite+0x1a>
80008bca:	30 29       	mov	r9,2
80008bcc:	30 0a       	mov	r10,0
80008bce:	96 7b       	ld.sh	r11,r11[0xe]
80008bd0:	c6 cd       	rcall	80008ea8 <_lseek_r>
80008bd2:	8e 68       	ld.sh	r8,r7[0xc]
80008bd4:	ad c8       	cbr	r8,0xc
80008bd6:	08 99       	mov	r9,r4
80008bd8:	0a 9a       	mov	r10,r5
80008bda:	8e 7b       	ld.sh	r11,r7[0xe]
80008bdc:	0c 9c       	mov	r12,r6
80008bde:	ae 68       	st.h	r7[0xc],r8
80008be0:	c9 ac       	rcall	80008d14 <_write_r>
80008be2:	d8 22       	popm	r4-r7,pc

80008be4 <__sread>:
80008be4:	d4 21       	pushm	r4-r7,lr
80008be6:	16 97       	mov	r7,r11
80008be8:	96 7b       	ld.sh	r11,r11[0xe]
80008bea:	c7 1d       	rcall	80008ecc <_read_r>
80008bec:	c0 65       	brlt	80008bf8 <__sread+0x14>
80008bee:	6f 58       	ld.w	r8,r7[0x54]
80008bf0:	18 08       	add	r8,r12
80008bf2:	ef 48 00 54 	st.w	r7[84],r8
80008bf6:	d8 22       	popm	r4-r7,pc
80008bf8:	8e 68       	ld.sh	r8,r7[0xc]
80008bfa:	ad c8       	cbr	r8,0xc
80008bfc:	ae 68       	st.h	r7[0xc],r8
80008bfe:	d8 22       	popm	r4-r7,pc

80008c00 <strlen>:
80008c00:	30 09       	mov	r9,0
80008c02:	18 98       	mov	r8,r12
80008c04:	c0 28       	rjmp	80008c08 <strlen+0x8>
80008c06:	2f f8       	sub	r8,-1
80008c08:	11 8a       	ld.ub	r10,r8[0x0]
80008c0a:	f2 0a 18 00 	cp.b	r10,r9
80008c0e:	cf c1       	brne	80008c06 <strlen+0x6>
80008c10:	f0 0c 01 0c 	sub	r12,r8,r12
80008c14:	5e fc       	retal	r12
80008c16:	d7 03       	nop

80008c18 <_close>:
80008c18:	30 28       	mov	r8,2
80008c1a:	d6 73       	breakpoint
80008c1c:	3f fc       	mov	r12,-1
80008c1e:	35 8b       	mov	r11,88
80008c20:	58 0c       	cp.w	r12,0
80008c22:	5e 4c       	retge	r12
80008c24:	e0 6a 06 58 	mov	r10,1624
80008c28:	95 0b       	st.w	r10[0x0],r11
80008c2a:	5e fc       	retal	r12

80008c2c <_lseek>:
80008c2c:	30 58       	mov	r8,5
80008c2e:	d6 73       	breakpoint
80008c30:	3f fc       	mov	r12,-1
80008c32:	35 8b       	mov	r11,88
80008c34:	58 0c       	cp.w	r12,0
80008c36:	5e 4c       	retge	r12
80008c38:	e0 6a 06 58 	mov	r10,1624
80008c3c:	95 0b       	st.w	r10[0x0],r11
80008c3e:	5e fc       	retal	r12

80008c40 <_read>:
80008c40:	30 38       	mov	r8,3
80008c42:	d6 73       	breakpoint
80008c44:	3f fc       	mov	r12,-1
80008c46:	35 8b       	mov	r11,88
80008c48:	58 0c       	cp.w	r12,0
80008c4a:	5e 4c       	retge	r12
80008c4c:	e0 6a 06 58 	mov	r10,1624
80008c50:	95 0b       	st.w	r10[0x0],r11
80008c52:	5e fc       	retal	r12

80008c54 <_write>:
80008c54:	30 48       	mov	r8,4
80008c56:	d6 73       	breakpoint
80008c58:	3f fc       	mov	r12,-1
80008c5a:	35 8b       	mov	r11,88
80008c5c:	58 0c       	cp.w	r12,0
80008c5e:	5e 4c       	retge	r12
80008c60:	e0 6a 06 58 	mov	r10,1624
80008c64:	95 0b       	st.w	r10[0x0],r11
80008c66:	5e fc       	retal	r12

80008c68 <isatty>:
80008c68:	30 b8       	mov	r8,11
80008c6a:	d6 73       	breakpoint
80008c6c:	3f fc       	mov	r12,-1
80008c6e:	35 8b       	mov	r11,88
80008c70:	58 0c       	cp.w	r12,0
80008c72:	5e 4c       	retge	r12
80008c74:	e0 6a 06 58 	mov	r10,1624
80008c78:	95 0b       	st.w	r10[0x0],r11
80008c7a:	5e fc       	retal	r12

80008c7c <_fstat_host>:
80008c7c:	30 98       	mov	r8,9
80008c7e:	d6 73       	breakpoint
80008c80:	3f fc       	mov	r12,-1
80008c82:	35 8b       	mov	r11,88
80008c84:	58 0c       	cp.w	r12,0
80008c86:	5e 4c       	retge	r12
80008c88:	e0 6a 06 58 	mov	r10,1624
80008c8c:	95 0b       	st.w	r10[0x0],r11
80008c8e:	5e fc       	retal	r12

80008c90 <_fstat>:
80008c90:	d4 21       	pushm	r4-r7,lr
80008c92:	21 0d       	sub	sp,64
80008c94:	16 97       	mov	r7,r11
80008c96:	1a 9b       	mov	r11,sp
80008c98:	cf 2f       	rcall	80008c7c <_fstat_host>
80008c9a:	c0 34       	brge	80008ca0 <_fstat+0x10>
80008c9c:	3f fc       	mov	r12,-1
80008c9e:	c1 c8       	rjmp	80008cd6 <_fstat+0x46>
80008ca0:	40 08       	lddsp	r8,sp[0x0]
80008ca2:	ae 08       	st.h	r7[0x0],r8
80008ca4:	40 18       	lddsp	r8,sp[0x4]
80008ca6:	ae 18       	st.h	r7[0x2],r8
80008ca8:	40 28       	lddsp	r8,sp[0x8]
80008caa:	8f 18       	st.w	r7[0x4],r8
80008cac:	40 38       	lddsp	r8,sp[0xc]
80008cae:	ae 48       	st.h	r7[0x8],r8
80008cb0:	40 48       	lddsp	r8,sp[0x10]
80008cb2:	ae 58       	st.h	r7[0xa],r8
80008cb4:	40 58       	lddsp	r8,sp[0x14]
80008cb6:	ae 68       	st.h	r7[0xc],r8
80008cb8:	40 68       	lddsp	r8,sp[0x18]
80008cba:	ae 78       	st.h	r7[0xe],r8
80008cbc:	40 88       	lddsp	r8,sp[0x20]
80008cbe:	8f 48       	st.w	r7[0x10],r8
80008cc0:	40 a8       	lddsp	r8,sp[0x28]
80008cc2:	8f b8       	st.w	r7[0x2c],r8
80008cc4:	40 c8       	lddsp	r8,sp[0x30]
80008cc6:	8f c8       	st.w	r7[0x30],r8
80008cc8:	40 d8       	lddsp	r8,sp[0x34]
80008cca:	8f 58       	st.w	r7[0x14],r8
80008ccc:	40 e8       	lddsp	r8,sp[0x38]
80008cce:	30 0c       	mov	r12,0
80008cd0:	8f 78       	st.w	r7[0x1c],r8
80008cd2:	40 f8       	lddsp	r8,sp[0x3c]
80008cd4:	8f 98       	st.w	r7[0x24],r8
80008cd6:	2f 0d       	sub	sp,-64
80008cd8:	d8 22       	popm	r4-r7,pc
80008cda:	d7 03       	nop

80008cdc <_sbrk>:
80008cdc:	d4 01       	pushm	lr
80008cde:	e0 68 06 54 	mov	r8,1620
80008ce2:	70 09       	ld.w	r9,r8[0x0]
80008ce4:	58 09       	cp.w	r9,0
80008ce6:	c0 41       	brne	80008cee <_sbrk+0x12>
80008ce8:	e0 69 06 60 	mov	r9,1632
80008cec:	91 09       	st.w	r8[0x0],r9
80008cee:	e0 69 06 54 	mov	r9,1620
80008cf2:	e0 6a f0 00 	mov	r10,61440
80008cf6:	72 08       	ld.w	r8,r9[0x0]
80008cf8:	f0 0c 00 0c 	add	r12,r8,r12
80008cfc:	14 3c       	cp.w	r12,r10
80008cfe:	e0 8b 00 04 	brhi	80008d06 <_sbrk+0x2a>
80008d02:	93 0c       	st.w	r9[0x0],r12
80008d04:	c0 58       	rjmp	80008d0e <_sbrk+0x32>
80008d06:	c5 5c       	rcall	80008db0 <__errno>
80008d08:	30 c8       	mov	r8,12
80008d0a:	99 08       	st.w	r12[0x0],r8
80008d0c:	3f f8       	mov	r8,-1
80008d0e:	10 9c       	mov	r12,r8
80008d10:	d8 02       	popm	pc
80008d12:	d7 03       	nop

80008d14 <_write_r>:
80008d14:	d4 21       	pushm	r4-r7,lr
80008d16:	16 98       	mov	r8,r11
80008d18:	18 97       	mov	r7,r12
80008d1a:	10 9c       	mov	r12,r8
80008d1c:	30 08       	mov	r8,0
80008d1e:	14 9b       	mov	r11,r10
80008d20:	e0 66 06 58 	mov	r6,1624
80008d24:	12 9a       	mov	r10,r9
80008d26:	8d 08       	st.w	r6[0x0],r8
80008d28:	c9 6f       	rcall	80008c54 <_write>
80008d2a:	5b fc       	cp.w	r12,-1
80008d2c:	c0 51       	brne	80008d36 <_write_r+0x22>
80008d2e:	6c 08       	ld.w	r8,r6[0x0]
80008d30:	58 08       	cp.w	r8,0
80008d32:	ef f8 1a 03 	st.wne	r7[0xc],r8
80008d36:	d8 22       	popm	r4-r7,pc

80008d38 <_calloc_r>:
80008d38:	d4 21       	pushm	r4-r7,lr
80008d3a:	f4 0b 02 4b 	mul	r11,r10,r11
80008d3e:	fe b0 f8 5f 	rcall	80007dfc <_malloc_r>
80008d42:	18 97       	mov	r7,r12
80008d44:	c2 30       	breq	80008d8a <_calloc_r+0x52>
80008d46:	f8 fa ff fc 	ld.w	r10,r12[-4]
80008d4a:	e0 1a ff fc 	andl	r10,0xfffc
80008d4e:	20 4a       	sub	r10,4
80008d50:	e0 4a 00 24 	cp.w	r10,36
80008d54:	e0 8b 00 18 	brhi	80008d84 <_calloc_r+0x4c>
80008d58:	18 98       	mov	r8,r12
80008d5a:	59 3a       	cp.w	r10,19
80008d5c:	e0 88 00 0f 	brls	80008d7a <_calloc_r+0x42>
80008d60:	30 09       	mov	r9,0
80008d62:	10 a9       	st.w	r8++,r9
80008d64:	10 a9       	st.w	r8++,r9
80008d66:	59 ba       	cp.w	r10,27
80008d68:	e0 88 00 09 	brls	80008d7a <_calloc_r+0x42>
80008d6c:	10 a9       	st.w	r8++,r9
80008d6e:	10 a9       	st.w	r8++,r9
80008d70:	e0 4a 00 24 	cp.w	r10,36
80008d74:	c0 31       	brne	80008d7a <_calloc_r+0x42>
80008d76:	10 a9       	st.w	r8++,r9
80008d78:	10 a9       	st.w	r8++,r9
80008d7a:	30 09       	mov	r9,0
80008d7c:	10 a9       	st.w	r8++,r9
80008d7e:	91 19       	st.w	r8[0x4],r9
80008d80:	91 09       	st.w	r8[0x0],r9
80008d82:	c0 48       	rjmp	80008d8a <_calloc_r+0x52>
80008d84:	30 0b       	mov	r11,0
80008d86:	fe b0 fa 7d 	rcall	80008280 <memset>
80008d8a:	0e 9c       	mov	r12,r7
80008d8c:	d8 22       	popm	r4-r7,pc
80008d8e:	d7 03       	nop

80008d90 <_close_r>:
80008d90:	d4 21       	pushm	r4-r7,lr
80008d92:	30 08       	mov	r8,0
80008d94:	18 97       	mov	r7,r12
80008d96:	e0 66 06 58 	mov	r6,1624
80008d9a:	16 9c       	mov	r12,r11
80008d9c:	8d 08       	st.w	r6[0x0],r8
80008d9e:	c3 df       	rcall	80008c18 <_close>
80008da0:	5b fc       	cp.w	r12,-1
80008da2:	c0 51       	brne	80008dac <_close_r+0x1c>
80008da4:	6c 08       	ld.w	r8,r6[0x0]
80008da6:	58 08       	cp.w	r8,0
80008da8:	ef f8 1a 03 	st.wne	r7[0xc],r8
80008dac:	d8 22       	popm	r4-r7,pc
80008dae:	d7 03       	nop

80008db0 <__errno>:
80008db0:	e0 68 00 fc 	mov	r8,252
80008db4:	70 0c       	ld.w	r12,r8[0x0]
80008db6:	2f 4c       	sub	r12,-12
80008db8:	5e fc       	retal	r12
80008dba:	d7 03       	nop

80008dbc <_fclose_r>:
80008dbc:	d4 21       	pushm	r4-r7,lr
80008dbe:	18 96       	mov	r6,r12
80008dc0:	16 97       	mov	r7,r11
80008dc2:	58 0b       	cp.w	r11,0
80008dc4:	c0 31       	brne	80008dca <_fclose_r+0xe>
80008dc6:	16 95       	mov	r5,r11
80008dc8:	c5 38       	rjmp	80008e6e <_fclose_r+0xb2>
80008dca:	fe b0 f4 87 	rcall	800076d8 <__sfp_lock_acquire>
80008dce:	58 06       	cp.w	r6,0
80008dd0:	c0 70       	breq	80008dde <_fclose_r+0x22>
80008dd2:	6c 68       	ld.w	r8,r6[0x18]
80008dd4:	58 08       	cp.w	r8,0
80008dd6:	c0 41       	brne	80008dde <_fclose_r+0x22>
80008dd8:	0c 9c       	mov	r12,r6
80008dda:	fe b0 f4 d1 	rcall	8000777c <__sinit>
80008dde:	fe c8 ea a2 	sub	r8,pc,-5470
80008de2:	10 37       	cp.w	r7,r8
80008de4:	c0 31       	brne	80008dea <_fclose_r+0x2e>
80008de6:	6c 07       	ld.w	r7,r6[0x0]
80008de8:	c0 c8       	rjmp	80008e00 <_fclose_r+0x44>
80008dea:	fe c8 ea 8e 	sub	r8,pc,-5490
80008dee:	10 37       	cp.w	r7,r8
80008df0:	c0 31       	brne	80008df6 <_fclose_r+0x3a>
80008df2:	6c 17       	ld.w	r7,r6[0x4]
80008df4:	c0 68       	rjmp	80008e00 <_fclose_r+0x44>
80008df6:	fe c8 ea 7a 	sub	r8,pc,-5510
80008dfa:	10 37       	cp.w	r7,r8
80008dfc:	ed f7 00 02 	ld.weq	r7,r6[0x8]
80008e00:	8e 69       	ld.sh	r9,r7[0xc]
80008e02:	30 08       	mov	r8,0
80008e04:	f0 09 19 00 	cp.h	r9,r8
80008e08:	c0 51       	brne	80008e12 <_fclose_r+0x56>
80008e0a:	fe b0 f4 68 	rcall	800076da <__sfp_lock_release>
80008e0e:	30 05       	mov	r5,0
80008e10:	c2 f8       	rjmp	80008e6e <_fclose_r+0xb2>
80008e12:	0e 9b       	mov	r11,r7
80008e14:	0c 9c       	mov	r12,r6
80008e16:	fe b0 f3 db 	rcall	800075cc <_fflush_r>
80008e1a:	6e c8       	ld.w	r8,r7[0x30]
80008e1c:	18 95       	mov	r5,r12
80008e1e:	58 08       	cp.w	r8,0
80008e20:	c0 60       	breq	80008e2c <_fclose_r+0x70>
80008e22:	6e 8b       	ld.w	r11,r7[0x20]
80008e24:	0c 9c       	mov	r12,r6
80008e26:	5d 18       	icall	r8
80008e28:	f9 b5 05 ff 	movlt	r5,-1
80008e2c:	8e 68       	ld.sh	r8,r7[0xc]
80008e2e:	ed b8 00 07 	bld	r8,0x7
80008e32:	c0 51       	brne	80008e3c <_fclose_r+0x80>
80008e34:	6e 4b       	ld.w	r11,r7[0x10]
80008e36:	0c 9c       	mov	r12,r6
80008e38:	fe b0 f5 3c 	rcall	800078b0 <_free_r>
80008e3c:	6e db       	ld.w	r11,r7[0x34]
80008e3e:	58 0b       	cp.w	r11,0
80008e40:	c0 a0       	breq	80008e54 <_fclose_r+0x98>
80008e42:	ee c8 ff bc 	sub	r8,r7,-68
80008e46:	10 3b       	cp.w	r11,r8
80008e48:	c0 40       	breq	80008e50 <_fclose_r+0x94>
80008e4a:	0c 9c       	mov	r12,r6
80008e4c:	fe b0 f5 32 	rcall	800078b0 <_free_r>
80008e50:	30 08       	mov	r8,0
80008e52:	8f d8       	st.w	r7[0x34],r8
80008e54:	6f 2b       	ld.w	r11,r7[0x48]
80008e56:	58 0b       	cp.w	r11,0
80008e58:	c0 70       	breq	80008e66 <_fclose_r+0xaa>
80008e5a:	0c 9c       	mov	r12,r6
80008e5c:	fe b0 f5 2a 	rcall	800078b0 <_free_r>
80008e60:	30 08       	mov	r8,0
80008e62:	ef 48 00 48 	st.w	r7[72],r8
80008e66:	30 08       	mov	r8,0
80008e68:	ae 68       	st.h	r7[0xc],r8
80008e6a:	fe b0 f4 38 	rcall	800076da <__sfp_lock_release>
80008e6e:	0a 9c       	mov	r12,r5
80008e70:	d8 22       	popm	r4-r7,pc
80008e72:	d7 03       	nop

80008e74 <fclose>:
80008e74:	d4 01       	pushm	lr
80008e76:	e0 68 00 fc 	mov	r8,252
80008e7a:	18 9b       	mov	r11,r12
80008e7c:	70 0c       	ld.w	r12,r8[0x0]
80008e7e:	c9 ff       	rcall	80008dbc <_fclose_r>
80008e80:	d8 02       	popm	pc
80008e82:	d7 03       	nop

80008e84 <_fstat_r>:
80008e84:	d4 21       	pushm	r4-r7,lr
80008e86:	16 98       	mov	r8,r11
80008e88:	18 97       	mov	r7,r12
80008e8a:	10 9c       	mov	r12,r8
80008e8c:	30 08       	mov	r8,0
80008e8e:	e0 66 06 58 	mov	r6,1624
80008e92:	14 9b       	mov	r11,r10
80008e94:	8d 08       	st.w	r6[0x0],r8
80008e96:	cf de       	rcall	80008c90 <_fstat>
80008e98:	5b fc       	cp.w	r12,-1
80008e9a:	c0 51       	brne	80008ea4 <_fstat_r+0x20>
80008e9c:	6c 08       	ld.w	r8,r6[0x0]
80008e9e:	58 08       	cp.w	r8,0
80008ea0:	ef f8 1a 03 	st.wne	r7[0xc],r8
80008ea4:	d8 22       	popm	r4-r7,pc
80008ea6:	d7 03       	nop

80008ea8 <_lseek_r>:
80008ea8:	d4 21       	pushm	r4-r7,lr
80008eaa:	16 98       	mov	r8,r11
80008eac:	18 97       	mov	r7,r12
80008eae:	10 9c       	mov	r12,r8
80008eb0:	30 08       	mov	r8,0
80008eb2:	14 9b       	mov	r11,r10
80008eb4:	e0 66 06 58 	mov	r6,1624
80008eb8:	12 9a       	mov	r10,r9
80008eba:	8d 08       	st.w	r6[0x0],r8
80008ebc:	cb 8e       	rcall	80008c2c <_lseek>
80008ebe:	5b fc       	cp.w	r12,-1
80008ec0:	c0 51       	brne	80008eca <_lseek_r+0x22>
80008ec2:	6c 08       	ld.w	r8,r6[0x0]
80008ec4:	58 08       	cp.w	r8,0
80008ec6:	ef f8 1a 03 	st.wne	r7[0xc],r8
80008eca:	d8 22       	popm	r4-r7,pc

80008ecc <_read_r>:
80008ecc:	d4 21       	pushm	r4-r7,lr
80008ece:	16 98       	mov	r8,r11
80008ed0:	18 97       	mov	r7,r12
80008ed2:	10 9c       	mov	r12,r8
80008ed4:	30 08       	mov	r8,0
80008ed6:	14 9b       	mov	r11,r10
80008ed8:	e0 66 06 58 	mov	r6,1624
80008edc:	12 9a       	mov	r10,r9
80008ede:	8d 08       	st.w	r6[0x0],r8
80008ee0:	cb 0e       	rcall	80008c40 <_read>
80008ee2:	5b fc       	cp.w	r12,-1
80008ee4:	c0 51       	brne	80008eee <_read_r+0x22>
80008ee6:	6c 08       	ld.w	r8,r6[0x0]
80008ee8:	58 08       	cp.w	r8,0
80008eea:	ef f8 1a 03 	st.wne	r7[0xc],r8
80008eee:	d8 22       	popm	r4-r7,pc

80008ef0 <__avr32_f64_mul>:
80008ef0:	f5 eb 10 1c 	or	r12,r10,r11<<0x1
80008ef4:	e0 80 00 dc 	breq	800090ac <__avr32_f64_mul_op1_zero>
80008ef8:	d4 21       	pushm	r4-r7,lr
80008efa:	f7 e9 20 0e 	eor	lr,r11,r9
80008efe:	ef db c2 8b 	bfextu	r7,r11,0x14,0xb
80008f02:	30 15       	mov	r5,1
80008f04:	c4 30       	breq	80008f8a <__avr32_f64_mul_op1_subnormal>
80008f06:	ab 6b       	lsl	r11,0xa
80008f08:	f7 ea 13 6b 	or	r11,r11,r10>>0x16
80008f0c:	ab 6a       	lsl	r10,0xa
80008f0e:	f7 d5 d3 c2 	bfins	r11,r5,0x1e,0x2
80008f12:	ed d9 c2 8b 	bfextu	r6,r9,0x14,0xb
80008f16:	c5 c0       	breq	80008fce <__avr32_f64_mul_op2_subnormal>
80008f18:	a1 78       	lsl	r8,0x1
80008f1a:	5c f9       	rol	r9
80008f1c:	f3 d5 d2 ab 	bfins	r9,r5,0x15,0xb
80008f20:	e0 47 07 ff 	cp.w	r7,2047
80008f24:	c7 70       	breq	80009012 <__avr32_f64_mul_op_nan_or_inf>
80008f26:	e0 46 07 ff 	cp.w	r6,2047
80008f2a:	c7 40       	breq	80009012 <__avr32_f64_mul_op_nan_or_inf>
80008f2c:	ee 06 00 0c 	add	r12,r7,r6
80008f30:	e0 2c 03 fe 	sub	r12,1022
80008f34:	f6 08 06 44 	mulu.d	r4,r11,r8
80008f38:	f4 09 07 44 	macu.d	r4,r10,r9
80008f3c:	f4 08 06 46 	mulu.d	r6,r10,r8
80008f40:	f6 09 06 4a 	mulu.d	r10,r11,r9
80008f44:	08 07       	add	r7,r4
80008f46:	f4 05 00 4a 	adc	r10,r10,r5
80008f4a:	5c 0b       	acr	r11
80008f4c:	ed bb 00 14 	bld	r11,0x14
80008f50:	c0 50       	breq	80008f5a <__avr32_f64_mul+0x6a>
80008f52:	a1 77       	lsl	r7,0x1
80008f54:	5c fa       	rol	r10
80008f56:	5c fb       	rol	r11
80008f58:	20 1c       	sub	r12,1
80008f5a:	58 0c       	cp.w	r12,0
80008f5c:	e0 8a 00 6f 	brle	8000903a <__avr32_f64_mul_res_subnormal>
80008f60:	e0 4c 07 ff 	cp.w	r12,2047
80008f64:	e0 84 00 9c 	brge	8000909c <__avr32_f64_mul_res_inf>
80008f68:	f7 dc d2 8b 	bfins	r11,r12,0x14,0xb
80008f6c:	ed ea 11 f6 	or	r6,r6,r10<<0x1f
80008f70:	ef e6 12 17 	or	r7,r7,r6>>0x1
80008f74:	ee 17 80 00 	eorh	r7,0x8000
80008f78:	f1 b7 04 20 	satu	r7,0x1
80008f7c:	0e 0a       	add	r10,r7
80008f7e:	5c 0b       	acr	r11
80008f80:	ed be 00 1f 	bld	lr,0x1f
80008f84:	ef bb 00 1f 	bst	r11,0x1f
80008f88:	d8 22       	popm	r4-r7,pc

80008f8a <__avr32_f64_mul_op1_subnormal>:
80008f8a:	e4 1b 00 0f 	andh	r11,0xf
80008f8e:	f4 0c 12 00 	clz	r12,r10
80008f92:	f6 06 12 00 	clz	r6,r11
80008f96:	f7 bc 03 e1 	sublo	r12,-31
80008f9a:	f8 06 17 30 	movlo	r6,r12
80008f9e:	f7 b6 02 01 	subhs	r6,1
80008fa2:	e0 46 00 20 	cp.w	r6,32
80008fa6:	c0 d4       	brge	80008fc0 <__avr32_f64_mul_op1_subnormal+0x36>
80008fa8:	ec 0c 11 20 	rsub	r12,r6,32
80008fac:	f6 06 09 4b 	lsl	r11,r11,r6
80008fb0:	f4 0c 0a 4c 	lsr	r12,r10,r12
80008fb4:	18 4b       	or	r11,r12
80008fb6:	f4 06 09 4a 	lsl	r10,r10,r6
80008fba:	20 b6       	sub	r6,11
80008fbc:	0c 17       	sub	r7,r6
80008fbe:	ca ab       	rjmp	80008f12 <__avr32_f64_mul+0x22>
80008fc0:	f4 06 09 4b 	lsl	r11,r10,r6
80008fc4:	c6 40       	breq	8000908c <__avr32_f64_mul_res_zero>
80008fc6:	30 0a       	mov	r10,0
80008fc8:	20 b6       	sub	r6,11
80008fca:	0c 17       	sub	r7,r6
80008fcc:	ca 3b       	rjmp	80008f12 <__avr32_f64_mul+0x22>

80008fce <__avr32_f64_mul_op2_subnormal>:
80008fce:	e4 19 00 0f 	andh	r9,0xf
80008fd2:	f0 0c 12 00 	clz	r12,r8
80008fd6:	f2 05 12 00 	clz	r5,r9
80008fda:	f7 bc 03 ea 	sublo	r12,-22
80008fde:	f8 05 17 30 	movlo	r5,r12
80008fe2:	f7 b5 02 0a 	subhs	r5,10
80008fe6:	e0 45 00 20 	cp.w	r5,32
80008fea:	c0 d4       	brge	80009004 <__avr32_f64_mul_op2_subnormal+0x36>
80008fec:	ea 0c 11 20 	rsub	r12,r5,32
80008ff0:	f2 05 09 49 	lsl	r9,r9,r5
80008ff4:	f0 0c 0a 4c 	lsr	r12,r8,r12
80008ff8:	18 49       	or	r9,r12
80008ffa:	f0 05 09 48 	lsl	r8,r8,r5
80008ffe:	20 25       	sub	r5,2
80009000:	0a 16       	sub	r6,r5
80009002:	c8 fb       	rjmp	80008f20 <__avr32_f64_mul+0x30>
80009004:	f0 05 09 49 	lsl	r9,r8,r5
80009008:	c4 20       	breq	8000908c <__avr32_f64_mul_res_zero>
8000900a:	30 08       	mov	r8,0
8000900c:	20 25       	sub	r5,2
8000900e:	0a 16       	sub	r6,r5
80009010:	c8 8b       	rjmp	80008f20 <__avr32_f64_mul+0x30>

80009012 <__avr32_f64_mul_op_nan_or_inf>:
80009012:	e4 19 00 0f 	andh	r9,0xf
80009016:	e4 1b 00 0f 	andh	r11,0xf
8000901a:	14 4b       	or	r11,r10
8000901c:	10 49       	or	r9,r8
8000901e:	e0 47 07 ff 	cp.w	r7,2047
80009022:	c0 91       	brne	80009034 <__avr32_f64_mul_op1_not_naninf>
80009024:	58 0b       	cp.w	r11,0
80009026:	c3 81       	brne	80009096 <__avr32_f64_mul_res_nan>
80009028:	e0 46 07 ff 	cp.w	r6,2047
8000902c:	c3 81       	brne	8000909c <__avr32_f64_mul_res_inf>
8000902e:	58 09       	cp.w	r9,0
80009030:	c3 60       	breq	8000909c <__avr32_f64_mul_res_inf>
80009032:	c3 28       	rjmp	80009096 <__avr32_f64_mul_res_nan>

80009034 <__avr32_f64_mul_op1_not_naninf>:
80009034:	58 09       	cp.w	r9,0
80009036:	c3 30       	breq	8000909c <__avr32_f64_mul_res_inf>
80009038:	c2 f8       	rjmp	80009096 <__avr32_f64_mul_res_nan>

8000903a <__avr32_f64_mul_res_subnormal>:
8000903a:	5c 3c       	neg	r12
8000903c:	2f fc       	sub	r12,-1
8000903e:	f1 bc 04 c0 	satu	r12,0x6
80009042:	e0 4c 00 20 	cp.w	r12,32
80009046:	c1 14       	brge	80009068 <__avr32_f64_mul_res_subnormal+0x2e>
80009048:	f8 08 11 20 	rsub	r8,r12,32
8000904c:	0e 46       	or	r6,r7
8000904e:	ee 0c 0a 47 	lsr	r7,r7,r12
80009052:	f4 08 09 49 	lsl	r9,r10,r8
80009056:	12 47       	or	r7,r9
80009058:	f4 0c 0a 4a 	lsr	r10,r10,r12
8000905c:	f6 08 09 49 	lsl	r9,r11,r8
80009060:	12 4a       	or	r10,r9
80009062:	f6 0c 0a 4b 	lsr	r11,r11,r12
80009066:	c8 3b       	rjmp	80008f6c <__avr32_f64_mul+0x7c>
80009068:	f8 08 11 20 	rsub	r8,r12,32
8000906c:	f9 b9 00 00 	moveq	r9,0
80009070:	c0 30       	breq	80009076 <__avr32_f64_mul_res_subnormal+0x3c>
80009072:	f6 08 09 49 	lsl	r9,r11,r8
80009076:	0e 46       	or	r6,r7
80009078:	ed ea 10 16 	or	r6,r6,r10<<0x1
8000907c:	f4 0c 0a 4a 	lsr	r10,r10,r12
80009080:	f3 ea 10 07 	or	r7,r9,r10
80009084:	f6 0c 0a 4a 	lsr	r10,r11,r12
80009088:	30 0b       	mov	r11,0
8000908a:	c7 1b       	rjmp	80008f6c <__avr32_f64_mul+0x7c>

8000908c <__avr32_f64_mul_res_zero>:
8000908c:	1c 9b       	mov	r11,lr
8000908e:	e6 1b 80 00 	andh	r11,0x8000,COH
80009092:	30 0a       	mov	r10,0
80009094:	d8 22       	popm	r4-r7,pc

80009096 <__avr32_f64_mul_res_nan>:
80009096:	3f fb       	mov	r11,-1
80009098:	3f fa       	mov	r10,-1
8000909a:	d8 22       	popm	r4-r7,pc

8000909c <__avr32_f64_mul_res_inf>:
8000909c:	f0 6b 00 00 	mov	r11,-1048576
800090a0:	ed be 00 1f 	bld	lr,0x1f
800090a4:	ef bb 00 1f 	bst	r11,0x1f
800090a8:	30 0a       	mov	r10,0
800090aa:	d8 22       	popm	r4-r7,pc

800090ac <__avr32_f64_mul_op1_zero>:
800090ac:	f7 e9 20 0b 	eor	r11,r11,r9
800090b0:	e6 1b 80 00 	andh	r11,0x8000,COH
800090b4:	f9 d9 c2 8b 	bfextu	r12,r9,0x14,0xb
800090b8:	e0 4c 07 ff 	cp.w	r12,2047
800090bc:	5e 1c       	retne	r12
800090be:	3f fa       	mov	r10,-1
800090c0:	3f fb       	mov	r11,-1
800090c2:	5e fc       	retal	r12

800090c4 <__avr32_f64_sub_from_add>:
800090c4:	ee 19 80 00 	eorh	r9,0x8000

800090c8 <__avr32_f64_sub>:
800090c8:	f7 e9 20 0c 	eor	r12,r11,r9
800090cc:	e0 86 00 ca 	brmi	80009260 <__avr32_f64_add_from_sub>
800090d0:	eb cd 40 e0 	pushm	r5-r7,lr
800090d4:	16 9c       	mov	r12,r11
800090d6:	e6 1c 80 00 	andh	r12,0x8000,COH
800090da:	bf db       	cbr	r11,0x1f
800090dc:	bf d9       	cbr	r9,0x1f
800090de:	10 3a       	cp.w	r10,r8
800090e0:	f2 0b 13 00 	cpc	r11,r9
800090e4:	c0 92       	brcc	800090f6 <__avr32_f64_sub+0x2e>
800090e6:	16 97       	mov	r7,r11
800090e8:	12 9b       	mov	r11,r9
800090ea:	0e 99       	mov	r9,r7
800090ec:	14 97       	mov	r7,r10
800090ee:	10 9a       	mov	r10,r8
800090f0:	0e 98       	mov	r8,r7
800090f2:	ee 1c 80 00 	eorh	r12,0x8000
800090f6:	f6 07 16 14 	lsr	r7,r11,0x14
800090fa:	ab 7b       	lsl	r11,0xb
800090fc:	f7 ea 13 5b 	or	r11,r11,r10>>0x15
80009100:	ab 7a       	lsl	r10,0xb
80009102:	bf bb       	sbr	r11,0x1f
80009104:	f2 06 16 14 	lsr	r6,r9,0x14
80009108:	c4 40       	breq	80009190 <__avr32_f64_sub_opL_subnormal>
8000910a:	ab 79       	lsl	r9,0xb
8000910c:	f3 e8 13 59 	or	r9,r9,r8>>0x15
80009110:	ab 78       	lsl	r8,0xb
80009112:	bf b9       	sbr	r9,0x1f

80009114 <__avr32_f64_sub_opL_subnormal_done>:
80009114:	e0 47 07 ff 	cp.w	r7,2047
80009118:	c4 f0       	breq	800091b6 <__avr32_f64_sub_opH_nan_or_inf>
8000911a:	0e 26       	rsub	r6,r7
8000911c:	c1 20       	breq	80009140 <__avr32_f64_sub_shift_done>
8000911e:	ec 05 11 20 	rsub	r5,r6,32
80009122:	e0 46 00 20 	cp.w	r6,32
80009126:	c7 c2       	brcc	8000921e <__avr32_f64_sub_longshift>
80009128:	f0 05 09 4e 	lsl	lr,r8,r5
8000912c:	f2 05 09 45 	lsl	r5,r9,r5
80009130:	f0 06 0a 48 	lsr	r8,r8,r6
80009134:	f2 06 0a 49 	lsr	r9,r9,r6
80009138:	0a 48       	or	r8,r5
8000913a:	58 0e       	cp.w	lr,0
8000913c:	5f 1e       	srne	lr
8000913e:	1c 48       	or	r8,lr

80009140 <__avr32_f64_sub_shift_done>:
80009140:	10 1a       	sub	r10,r8
80009142:	f6 09 01 4b 	sbc	r11,r11,r9
80009146:	f6 06 12 00 	clz	r6,r11
8000914a:	c0 e0       	breq	80009166 <__avr32_f64_sub_longnormalize_done>
8000914c:	c7 83       	brcs	8000923c <__avr32_f64_sub_longnormalize>
8000914e:	ec 0e 11 20 	rsub	lr,r6,32
80009152:	f6 06 09 4b 	lsl	r11,r11,r6
80009156:	f4 0e 0a 4e 	lsr	lr,r10,lr
8000915a:	1c 4b       	or	r11,lr
8000915c:	f4 06 09 4a 	lsl	r10,r10,r6
80009160:	0c 17       	sub	r7,r6
80009162:	e0 8a 00 39 	brle	800091d4 <__avr32_f64_sub_subnormal_result>

80009166 <__avr32_f64_sub_longnormalize_done>:
80009166:	f4 09 15 15 	lsl	r9,r10,0x15
8000916a:	ab 9a       	lsr	r10,0xb
8000916c:	f5 eb 11 5a 	or	r10,r10,r11<<0x15
80009170:	ab 9b       	lsr	r11,0xb
80009172:	f7 d7 d2 8b 	bfins	r11,r7,0x14,0xb
80009176:	18 4b       	or	r11,r12

80009178 <__avr32_f64_sub_round>:
80009178:	fc 17 80 00 	movh	r7,0x8000
8000917c:	ed ba 00 00 	bld	r10,0x0
80009180:	f7 b7 01 ff 	subne	r7,-1
80009184:	0e 39       	cp.w	r9,r7
80009186:	5f 29       	srhs	r9
80009188:	12 0a       	add	r10,r9
8000918a:	5c 0b       	acr	r11
8000918c:	e3 cd 80 e0 	ldm	sp++,r5-r7,pc

80009190 <__avr32_f64_sub_opL_subnormal>:
80009190:	ab 79       	lsl	r9,0xb
80009192:	f3 e8 13 59 	or	r9,r9,r8>>0x15
80009196:	ab 78       	lsl	r8,0xb
80009198:	f3 e8 10 0e 	or	lr,r9,r8
8000919c:	f9 b6 01 01 	movne	r6,1
800091a0:	ee 0e 11 00 	rsub	lr,r7,0
800091a4:	f9 b7 00 01 	moveq	r7,1
800091a8:	ef bb 00 1f 	bst	r11,0x1f
800091ac:	f7 ea 10 0e 	or	lr,r11,r10
800091b0:	f9 b7 00 00 	moveq	r7,0
800091b4:	cb 0b       	rjmp	80009114 <__avr32_f64_sub_opL_subnormal_done>

800091b6 <__avr32_f64_sub_opH_nan_or_inf>:
800091b6:	bf db       	cbr	r11,0x1f
800091b8:	f7 ea 10 0e 	or	lr,r11,r10
800091bc:	c0 81       	brne	800091cc <__avr32_f64_sub_return_nan>
800091be:	e0 46 07 ff 	cp.w	r6,2047
800091c2:	c0 50       	breq	800091cc <__avr32_f64_sub_return_nan>
800091c4:	f9 e7 11 4b 	or	r11,r12,r7<<0x14
800091c8:	e3 cd 80 e0 	ldm	sp++,r5-r7,pc

800091cc <__avr32_f64_sub_return_nan>:
800091cc:	3f fa       	mov	r10,-1
800091ce:	3f fb       	mov	r11,-1
800091d0:	e3 cd 80 e0 	ldm	sp++,r5-r7,pc

800091d4 <__avr32_f64_sub_subnormal_result>:
800091d4:	5c 37       	neg	r7
800091d6:	2f f7       	sub	r7,-1
800091d8:	f1 b7 04 c0 	satu	r7,0x6
800091dc:	e0 47 00 20 	cp.w	r7,32
800091e0:	c1 14       	brge	80009202 <__avr32_f64_sub_subnormal_result+0x2e>
800091e2:	ee 08 11 20 	rsub	r8,r7,32
800091e6:	f4 08 09 49 	lsl	r9,r10,r8
800091ea:	5f 16       	srne	r6
800091ec:	f4 07 0a 4a 	lsr	r10,r10,r7
800091f0:	0c 4a       	or	r10,r6
800091f2:	f6 08 09 49 	lsl	r9,r11,r8
800091f6:	f5 e9 10 0a 	or	r10,r10,r9
800091fa:	f4 07 0a 4b 	lsr	r11,r10,r7
800091fe:	30 07       	mov	r7,0
80009200:	cb 3b       	rjmp	80009166 <__avr32_f64_sub_longnormalize_done>
80009202:	ee 08 11 40 	rsub	r8,r7,64
80009206:	f6 08 09 49 	lsl	r9,r11,r8
8000920a:	14 49       	or	r9,r10
8000920c:	5f 16       	srne	r6
8000920e:	f6 07 0a 4a 	lsr	r10,r11,r7
80009212:	0c 4a       	or	r10,r6
80009214:	30 0b       	mov	r11,0
80009216:	30 07       	mov	r7,0
80009218:	ca 7b       	rjmp	80009166 <__avr32_f64_sub_longnormalize_done>
8000921a:	e3 cd 80 e0 	ldm	sp++,r5-r7,pc

8000921e <__avr32_f64_sub_longshift>:
8000921e:	f1 b6 04 c0 	satu	r6,0x6
80009222:	f0 0e 17 00 	moveq	lr,r8
80009226:	c0 40       	breq	8000922e <__avr32_f64_sub_longshift+0x10>
80009228:	f2 05 09 4e 	lsl	lr,r9,r5
8000922c:	10 4e       	or	lr,r8
8000922e:	f2 06 0a 48 	lsr	r8,r9,r6
80009232:	30 09       	mov	r9,0
80009234:	58 0e       	cp.w	lr,0
80009236:	5f 1e       	srne	lr
80009238:	1c 48       	or	r8,lr
8000923a:	c8 3b       	rjmp	80009140 <__avr32_f64_sub_shift_done>

8000923c <__avr32_f64_sub_longnormalize>:
8000923c:	f4 06 12 00 	clz	r6,r10
80009240:	f9 b7 03 00 	movlo	r7,0
80009244:	f9 b6 03 00 	movlo	r6,0
80009248:	f9 bc 03 00 	movlo	r12,0
8000924c:	f7 b6 02 e0 	subhs	r6,-32
80009250:	f4 06 09 4b 	lsl	r11,r10,r6
80009254:	30 0a       	mov	r10,0
80009256:	0c 17       	sub	r7,r6
80009258:	fe 9a ff be 	brle	800091d4 <__avr32_f64_sub_subnormal_result>
8000925c:	c8 5b       	rjmp	80009166 <__avr32_f64_sub_longnormalize_done>
8000925e:	d7 03       	nop

80009260 <__avr32_f64_add_from_sub>:
80009260:	ee 19 80 00 	eorh	r9,0x8000

80009264 <__avr32_f64_add>:
80009264:	f7 e9 20 0c 	eor	r12,r11,r9
80009268:	fe 96 ff 2e 	brmi	800090c4 <__avr32_f64_sub_from_add>
8000926c:	eb cd 40 e0 	pushm	r5-r7,lr
80009270:	16 9c       	mov	r12,r11
80009272:	e6 1c 80 00 	andh	r12,0x8000,COH
80009276:	bf db       	cbr	r11,0x1f
80009278:	bf d9       	cbr	r9,0x1f
8000927a:	12 3b       	cp.w	r11,r9
8000927c:	c0 72       	brcc	8000928a <__avr32_f64_add+0x26>
8000927e:	16 97       	mov	r7,r11
80009280:	12 9b       	mov	r11,r9
80009282:	0e 99       	mov	r9,r7
80009284:	14 97       	mov	r7,r10
80009286:	10 9a       	mov	r10,r8
80009288:	0e 98       	mov	r8,r7
8000928a:	30 0e       	mov	lr,0
8000928c:	ef db c2 8b 	bfextu	r7,r11,0x14,0xb
80009290:	f7 db c0 14 	bfextu	r11,r11,0x0,0x14
80009294:	b5 ab       	sbr	r11,0x14
80009296:	ed d9 c2 8b 	bfextu	r6,r9,0x14,0xb
8000929a:	c6 20       	breq	8000935e <__avr32_f64_add_op2_subnormal>
8000929c:	f3 d9 c0 14 	bfextu	r9,r9,0x0,0x14
800092a0:	b5 a9       	sbr	r9,0x14
800092a2:	e0 47 07 ff 	cp.w	r7,2047
800092a6:	c2 80       	breq	800092f6 <__avr32_f64_add_opH_nan_or_inf>
800092a8:	0e 26       	rsub	r6,r7
800092aa:	c1 20       	breq	800092ce <__avr32_f64_add_shift_done>
800092ac:	e0 46 00 36 	cp.w	r6,54
800092b0:	c1 52       	brcc	800092da <__avr32_f64_add_res_of_done>
800092b2:	ec 05 11 20 	rsub	r5,r6,32
800092b6:	e0 46 00 20 	cp.w	r6,32
800092ba:	c3 52       	brcc	80009324 <__avr32_f64_add_longshift>
800092bc:	f0 05 09 4e 	lsl	lr,r8,r5
800092c0:	f2 05 09 45 	lsl	r5,r9,r5
800092c4:	f0 06 0a 48 	lsr	r8,r8,r6
800092c8:	f2 06 0a 49 	lsr	r9,r9,r6
800092cc:	0a 48       	or	r8,r5

800092ce <__avr32_f64_add_shift_done>:
800092ce:	10 0a       	add	r10,r8
800092d0:	f6 09 00 4b 	adc	r11,r11,r9
800092d4:	ed bb 00 15 	bld	r11,0x15
800092d8:	c3 40       	breq	80009340 <__avr32_f64_add_res_of>

800092da <__avr32_f64_add_res_of_done>:
800092da:	f7 d7 d2 8b 	bfins	r11,r7,0x14,0xb
800092de:	18 4b       	or	r11,r12

800092e0 <__avr32_f64_add_round>:
800092e0:	f9 da c0 01 	bfextu	r12,r10,0x0,0x1
800092e4:	18 4e       	or	lr,r12
800092e6:	ee 1e 80 00 	eorh	lr,0x8000
800092ea:	f1 be 04 20 	satu	lr,0x1
800092ee:	1c 0a       	add	r10,lr
800092f0:	5c 0b       	acr	r11
800092f2:	e3 cd 80 e0 	ldm	sp++,r5-r7,pc

800092f6 <__avr32_f64_add_opH_nan_or_inf>:
800092f6:	b5 cb       	cbr	r11,0x14
800092f8:	f7 ea 10 0e 	or	lr,r11,r10
800092fc:	c1 01       	brne	8000931c <__avr32_f64_add_return_nan>
800092fe:	e0 46 07 ff 	cp.w	r6,2047
80009302:	c0 30       	breq	80009308 <__avr32_f64_add_opL_nan_or_inf>
80009304:	e3 cd 80 e0 	ldm	sp++,r5-r7,pc

80009308 <__avr32_f64_add_opL_nan_or_inf>:
80009308:	b5 c9       	cbr	r9,0x14
8000930a:	f3 e8 10 0e 	or	lr,r9,r8
8000930e:	c0 71       	brne	8000931c <__avr32_f64_add_return_nan>
80009310:	30 0a       	mov	r10,0
80009312:	fc 1b 7f f0 	movh	r11,0x7ff0
80009316:	18 4b       	or	r11,r12
80009318:	e3 cd 80 e0 	ldm	sp++,r5-r7,pc

8000931c <__avr32_f64_add_return_nan>:
8000931c:	3f fa       	mov	r10,-1
8000931e:	3f fb       	mov	r11,-1
80009320:	e3 cd 80 e0 	ldm	sp++,r5-r7,pc

80009324 <__avr32_f64_add_longshift>:
80009324:	f1 b6 04 c0 	satu	r6,0x6
80009328:	f0 0e 17 00 	moveq	lr,r8
8000932c:	c0 60       	breq	80009338 <__avr32_f64_add_longshift+0x14>
8000932e:	f2 05 09 4e 	lsl	lr,r9,r5
80009332:	58 08       	cp.w	r8,0
80009334:	5f 18       	srne	r8
80009336:	10 4e       	or	lr,r8
80009338:	f2 06 0a 48 	lsr	r8,r9,r6
8000933c:	30 09       	mov	r9,0
8000933e:	cc 8b       	rjmp	800092ce <__avr32_f64_add_shift_done>

80009340 <__avr32_f64_add_res_of>:
80009340:	fd ee 10 1e 	or	lr,lr,lr<<0x1
80009344:	a1 9b       	lsr	r11,0x1
80009346:	5d 0a       	ror	r10
80009348:	5d 0e       	ror	lr
8000934a:	2f f7       	sub	r7,-1
8000934c:	e0 47 07 ff 	cp.w	r7,2047
80009350:	f9 ba 00 00 	moveq	r10,0
80009354:	f9 bb 00 00 	moveq	r11,0
80009358:	f9 be 00 00 	moveq	lr,0
8000935c:	cb fb       	rjmp	800092da <__avr32_f64_add_res_of_done>

8000935e <__avr32_f64_add_op2_subnormal>:
8000935e:	30 16       	mov	r6,1
80009360:	58 07       	cp.w	r7,0
80009362:	ca 01       	brne	800092a2 <__avr32_f64_add+0x3e>
80009364:	b5 cb       	cbr	r11,0x14
80009366:	10 0a       	add	r10,r8
80009368:	f6 09 00 4b 	adc	r11,r11,r9
8000936c:	18 4b       	or	r11,r12
8000936e:	e3 cd 80 e0 	ldm	sp++,r5-r7,pc
80009372:	d7 03       	nop

80009374 <__avr32_f64_to_u32>:
80009374:	58 0b       	cp.w	r11,0
80009376:	5e 6d       	retmi	0

80009378 <__avr32_f64_to_s32>:
80009378:	f6 0c 15 01 	lsl	r12,r11,0x1
8000937c:	b5 9c       	lsr	r12,0x15
8000937e:	e0 2c 03 ff 	sub	r12,1023
80009382:	5e 3d       	retlo	0
80009384:	f8 0c 11 1f 	rsub	r12,r12,31
80009388:	16 99       	mov	r9,r11
8000938a:	ab 7b       	lsl	r11,0xb
8000938c:	bf bb       	sbr	r11,0x1f
8000938e:	f7 ea 13 5b 	or	r11,r11,r10>>0x15
80009392:	f6 0c 0a 4b 	lsr	r11,r11,r12
80009396:	a1 79       	lsl	r9,0x1
80009398:	5e 2b       	reths	r11
8000939a:	5c 3b       	neg	r11
8000939c:	5e fb       	retal	r11

8000939e <__avr32_u32_to_f64>:
8000939e:	f8 cb 00 00 	sub	r11,r12,0
800093a2:	30 0c       	mov	r12,0
800093a4:	c0 38       	rjmp	800093aa <__avr32_s32_to_f64+0x4>

800093a6 <__avr32_s32_to_f64>:
800093a6:	18 9b       	mov	r11,r12
800093a8:	5c 4b       	abs	r11
800093aa:	30 0a       	mov	r10,0
800093ac:	5e 0b       	reteq	r11
800093ae:	d4 01       	pushm	lr
800093b0:	e0 69 04 1e 	mov	r9,1054
800093b4:	f6 08 12 00 	clz	r8,r11
800093b8:	c1 70       	breq	800093e6 <__avr32_s32_to_f64+0x40>
800093ba:	c0 c3       	brcs	800093d2 <__avr32_s32_to_f64+0x2c>
800093bc:	f0 0e 11 20 	rsub	lr,r8,32
800093c0:	f6 08 09 4b 	lsl	r11,r11,r8
800093c4:	f4 0e 0a 4e 	lsr	lr,r10,lr
800093c8:	1c 4b       	or	r11,lr
800093ca:	f4 08 09 4a 	lsl	r10,r10,r8
800093ce:	10 19       	sub	r9,r8
800093d0:	c0 b8       	rjmp	800093e6 <__avr32_s32_to_f64+0x40>
800093d2:	f4 08 12 00 	clz	r8,r10
800093d6:	f9 b8 03 00 	movlo	r8,0
800093da:	f7 b8 02 e0 	subhs	r8,-32
800093de:	f4 08 09 4b 	lsl	r11,r10,r8
800093e2:	30 0a       	mov	r10,0
800093e4:	10 19       	sub	r9,r8
800093e6:	58 09       	cp.w	r9,0
800093e8:	e0 89 00 30 	brgt	80009448 <__avr32_s32_to_f64+0xa2>
800093ec:	5c 39       	neg	r9
800093ee:	2f f9       	sub	r9,-1
800093f0:	e0 49 00 36 	cp.w	r9,54
800093f4:	c0 43       	brcs	800093fc <__avr32_s32_to_f64+0x56>
800093f6:	30 0b       	mov	r11,0
800093f8:	30 0a       	mov	r10,0
800093fa:	c2 68       	rjmp	80009446 <__avr32_s32_to_f64+0xa0>
800093fc:	2f 69       	sub	r9,-10
800093fe:	f2 08 11 20 	rsub	r8,r9,32
80009402:	e0 49 00 20 	cp.w	r9,32
80009406:	c0 b2       	brcc	8000941c <__avr32_s32_to_f64+0x76>
80009408:	f4 08 09 4e 	lsl	lr,r10,r8
8000940c:	f6 08 09 48 	lsl	r8,r11,r8
80009410:	f4 09 0a 4a 	lsr	r10,r10,r9
80009414:	f6 09 0a 4b 	lsr	r11,r11,r9
80009418:	10 4b       	or	r11,r8
8000941a:	c0 88       	rjmp	8000942a <__avr32_s32_to_f64+0x84>
8000941c:	f6 08 09 4e 	lsl	lr,r11,r8
80009420:	14 4e       	or	lr,r10
80009422:	16 9a       	mov	r10,r11
80009424:	30 0b       	mov	r11,0
80009426:	f4 09 0a 4a 	lsr	r10,r10,r9
8000942a:	ed ba 00 00 	bld	r10,0x0
8000942e:	c0 92       	brcc	80009440 <__avr32_s32_to_f64+0x9a>
80009430:	1c 7e       	tst	lr,lr
80009432:	c0 41       	brne	8000943a <__avr32_s32_to_f64+0x94>
80009434:	ed ba 00 01 	bld	r10,0x1
80009438:	c0 42       	brcc	80009440 <__avr32_s32_to_f64+0x9a>
8000943a:	2f fa       	sub	r10,-1
8000943c:	f7 bb 02 ff 	subhs	r11,-1
80009440:	5c fc       	rol	r12
80009442:	5d 0b       	ror	r11
80009444:	5d 0a       	ror	r10
80009446:	d8 02       	popm	pc
80009448:	e0 68 03 ff 	mov	r8,1023
8000944c:	ed ba 00 0b 	bld	r10,0xb
80009450:	f7 b8 00 ff 	subeq	r8,-1
80009454:	10 0a       	add	r10,r8
80009456:	5c 0b       	acr	r11
80009458:	f7 b9 03 fe 	sublo	r9,-2
8000945c:	e0 49 07 ff 	cp.w	r9,2047
80009460:	c0 55       	brlt	8000946a <__avr32_s32_to_f64+0xc4>
80009462:	30 0a       	mov	r10,0
80009464:	fc 1b ff e0 	movh	r11,0xffe0
80009468:	c0 c8       	rjmp	80009480 <__floatsidf_return_op1>
8000946a:	ed bb 00 1f 	bld	r11,0x1f
8000946e:	f7 b9 01 01 	subne	r9,1
80009472:	ab 9a       	lsr	r10,0xb
80009474:	f5 eb 11 5a 	or	r10,r10,r11<<0x15
80009478:	a1 7b       	lsl	r11,0x1
8000947a:	ab 9b       	lsr	r11,0xb
8000947c:	f7 e9 11 5b 	or	r11,r11,r9<<0x15

80009480 <__floatsidf_return_op1>:
80009480:	a1 7c       	lsl	r12,0x1
80009482:	5d 0b       	ror	r11
80009484:	d8 02       	popm	pc

80009486 <__avr32_f64_cmp_eq>:
80009486:	10 3a       	cp.w	r10,r8
80009488:	f2 0b 13 00 	cpc	r11,r9
8000948c:	c0 80       	breq	8000949c <__avr32_f64_cmp_eq+0x16>
8000948e:	a1 7b       	lsl	r11,0x1
80009490:	a1 79       	lsl	r9,0x1
80009492:	14 4b       	or	r11,r10
80009494:	12 4b       	or	r11,r9
80009496:	10 4b       	or	r11,r8
80009498:	5e 0f       	reteq	1
8000949a:	5e fd       	retal	0
8000949c:	a1 7b       	lsl	r11,0x1
8000949e:	fc 1c ff e0 	movh	r12,0xffe0
800094a2:	58 0a       	cp.w	r10,0
800094a4:	f8 0b 13 00 	cpc	r11,r12
800094a8:	5e 8f       	retls	1
800094aa:	5e fd       	retal	0

800094ac <__avr32_f64_cmp_ge>:
800094ac:	1a de       	st.w	--sp,lr
800094ae:	1a d7       	st.w	--sp,r7
800094b0:	a1 7b       	lsl	r11,0x1
800094b2:	5f 3c       	srlo	r12
800094b4:	a1 79       	lsl	r9,0x1
800094b6:	5f 37       	srlo	r7
800094b8:	5c fc       	rol	r12
800094ba:	fc 1e ff e0 	movh	lr,0xffe0
800094be:	58 0a       	cp.w	r10,0
800094c0:	fc 0b 13 00 	cpc	r11,lr
800094c4:	e0 8b 00 1d 	brhi	800094fe <__avr32_f64_cmp_ge+0x52>
800094c8:	58 08       	cp.w	r8,0
800094ca:	fc 09 13 00 	cpc	r9,lr
800094ce:	e0 8b 00 18 	brhi	800094fe <__avr32_f64_cmp_ge+0x52>
800094d2:	58 0b       	cp.w	r11,0
800094d4:	f5 ba 00 00 	subfeq	r10,0
800094d8:	c1 50       	breq	80009502 <__avr32_f64_cmp_ge+0x56>
800094da:	1b 07       	ld.w	r7,sp++
800094dc:	1b 0e       	ld.w	lr,sp++
800094de:	58 3c       	cp.w	r12,3
800094e0:	c0 a0       	breq	800094f4 <__avr32_f64_cmp_ge+0x48>
800094e2:	58 1c       	cp.w	r12,1
800094e4:	c0 33       	brcs	800094ea <__avr32_f64_cmp_ge+0x3e>
800094e6:	5e 0f       	reteq	1
800094e8:	5e 1d       	retne	0
800094ea:	10 3a       	cp.w	r10,r8
800094ec:	f2 0b 13 00 	cpc	r11,r9
800094f0:	5e 2f       	reths	1
800094f2:	5e 3d       	retlo	0
800094f4:	14 38       	cp.w	r8,r10
800094f6:	f6 09 13 00 	cpc	r9,r11
800094fa:	5e 2f       	reths	1
800094fc:	5e 3d       	retlo	0
800094fe:	1b 07       	ld.w	r7,sp++
80009500:	d8 0a       	popm	pc,r12=0
80009502:	58 17       	cp.w	r7,1
80009504:	5f 0c       	sreq	r12
80009506:	58 09       	cp.w	r9,0
80009508:	f5 b8 00 00 	subfeq	r8,0
8000950c:	1b 07       	ld.w	r7,sp++
8000950e:	1b 0e       	ld.w	lr,sp++
80009510:	5e 0f       	reteq	1
80009512:	5e fc       	retal	r12

80009514 <__avr32_f64_cmp_lt>:
80009514:	1a de       	st.w	--sp,lr
80009516:	1a d7       	st.w	--sp,r7
80009518:	a1 7b       	lsl	r11,0x1
8000951a:	5f 3c       	srlo	r12
8000951c:	a1 79       	lsl	r9,0x1
8000951e:	5f 37       	srlo	r7
80009520:	5c fc       	rol	r12
80009522:	fc 1e ff e0 	movh	lr,0xffe0
80009526:	58 0a       	cp.w	r10,0
80009528:	fc 0b 13 00 	cpc	r11,lr
8000952c:	e0 8b 00 1d 	brhi	80009566 <__avr32_f64_cmp_lt+0x52>
80009530:	58 08       	cp.w	r8,0
80009532:	fc 09 13 00 	cpc	r9,lr
80009536:	e0 8b 00 18 	brhi	80009566 <__avr32_f64_cmp_lt+0x52>
8000953a:	58 0b       	cp.w	r11,0
8000953c:	f5 ba 00 00 	subfeq	r10,0
80009540:	c1 50       	breq	8000956a <__avr32_f64_cmp_lt+0x56>
80009542:	1b 07       	ld.w	r7,sp++
80009544:	1b 0e       	ld.w	lr,sp++
80009546:	58 3c       	cp.w	r12,3
80009548:	c0 a0       	breq	8000955c <__avr32_f64_cmp_lt+0x48>
8000954a:	58 1c       	cp.w	r12,1
8000954c:	c0 33       	brcs	80009552 <__avr32_f64_cmp_lt+0x3e>
8000954e:	5e 0d       	reteq	0
80009550:	5e 1f       	retne	1
80009552:	10 3a       	cp.w	r10,r8
80009554:	f2 0b 13 00 	cpc	r11,r9
80009558:	5e 2d       	reths	0
8000955a:	5e 3f       	retlo	1
8000955c:	14 38       	cp.w	r8,r10
8000955e:	f6 09 13 00 	cpc	r9,r11
80009562:	5e 2d       	reths	0
80009564:	5e 3f       	retlo	1
80009566:	1b 07       	ld.w	r7,sp++
80009568:	d8 0a       	popm	pc,r12=0
8000956a:	58 17       	cp.w	r7,1
8000956c:	5f 1c       	srne	r12
8000956e:	58 09       	cp.w	r9,0
80009570:	f5 b8 00 00 	subfeq	r8,0
80009574:	1b 07       	ld.w	r7,sp++
80009576:	1b 0e       	ld.w	lr,sp++
80009578:	5e 0d       	reteq	0
8000957a:	5e fc       	retal	r12

8000957c <__avr32_f64_div>:
8000957c:	eb cd 40 ff 	pushm	r0-r7,lr
80009580:	f7 e9 20 0e 	eor	lr,r11,r9
80009584:	f6 07 16 14 	lsr	r7,r11,0x14
80009588:	a9 7b       	lsl	r11,0x9
8000958a:	f7 ea 13 7b 	or	r11,r11,r10>>0x17
8000958e:	a9 7a       	lsl	r10,0x9
80009590:	bd bb       	sbr	r11,0x1d
80009592:	e4 1b 3f ff 	andh	r11,0x3fff
80009596:	ab d7       	cbr	r7,0xb
80009598:	e0 80 00 cc 	breq	80009730 <__avr32_f64_div_round_subnormal+0x54>
8000959c:	e0 47 07 ff 	cp.w	r7,2047
800095a0:	e0 84 00 b5 	brge	8000970a <__avr32_f64_div_round_subnormal+0x2e>
800095a4:	f2 06 16 14 	lsr	r6,r9,0x14
800095a8:	a9 79       	lsl	r9,0x9
800095aa:	f3 e8 13 79 	or	r9,r9,r8>>0x17
800095ae:	a9 78       	lsl	r8,0x9
800095b0:	bd b9       	sbr	r9,0x1d
800095b2:	e4 19 3f ff 	andh	r9,0x3fff
800095b6:	ab d6       	cbr	r6,0xb
800095b8:	e0 80 00 e2 	breq	8000977c <__avr32_f64_div_round_subnormal+0xa0>
800095bc:	e0 46 07 ff 	cp.w	r6,2047
800095c0:	e0 84 00 b2 	brge	80009724 <__avr32_f64_div_round_subnormal+0x48>
800095c4:	0c 17       	sub	r7,r6
800095c6:	fe 37 fc 01 	sub	r7,-1023
800095ca:	fc 1c 80 00 	movh	r12,0x8000
800095ce:	f8 03 16 01 	lsr	r3,r12,0x1
800095d2:	e9 d9 c3 62 	bfextu	r4,r9,0x1b,0x2
800095d6:	5c d4       	com	r4
800095d8:	e7 d4 d3 82 	bfins	r3,r4,0x1c,0x2
800095dc:	e6 09 06 44 	mulu.d	r4,r3,r9
800095e0:	f8 05 01 25 	sub	r5,r12,r5<<0x2
800095e4:	e6 05 06 44 	mulu.d	r4,r3,r5
800095e8:	ea 03 15 02 	lsl	r3,r5,0x2
800095ec:	e6 09 06 44 	mulu.d	r4,r3,r9
800095f0:	f8 05 01 25 	sub	r5,r12,r5<<0x2
800095f4:	e6 05 06 44 	mulu.d	r4,r3,r5
800095f8:	ea 03 15 02 	lsl	r3,r5,0x2
800095fc:	e6 09 06 44 	mulu.d	r4,r3,r9
80009600:	f8 05 01 25 	sub	r5,r12,r5<<0x2
80009604:	e6 05 06 44 	mulu.d	r4,r3,r5
80009608:	ea 03 15 02 	lsl	r3,r5,0x2
8000960c:	e6 08 06 40 	mulu.d	r0,r3,r8
80009610:	e4 09 07 40 	macu.d	r0,r2,r9
80009614:	e6 09 06 44 	mulu.d	r4,r3,r9
80009618:	02 04       	add	r4,r1
8000961a:	5c 05       	acr	r5
8000961c:	a3 65       	lsl	r5,0x2
8000961e:	eb e4 13 e5 	or	r5,r5,r4>>0x1e
80009622:	a3 64       	lsl	r4,0x2
80009624:	5c 34       	neg	r4
80009626:	f8 05 01 45 	sbc	r5,r12,r5
8000962a:	e6 04 06 40 	mulu.d	r0,r3,r4
8000962e:	e4 05 07 40 	macu.d	r0,r2,r5
80009632:	e6 05 06 44 	mulu.d	r4,r3,r5
80009636:	02 04       	add	r4,r1
80009638:	5c 05       	acr	r5
8000963a:	ea 03 15 02 	lsl	r3,r5,0x2
8000963e:	e7 e4 13 e3 	or	r3,r3,r4>>0x1e
80009642:	e8 02 15 02 	lsl	r2,r4,0x2
80009646:	e6 08 06 40 	mulu.d	r0,r3,r8
8000964a:	e4 09 07 40 	macu.d	r0,r2,r9
8000964e:	e6 09 06 44 	mulu.d	r4,r3,r9
80009652:	02 04       	add	r4,r1
80009654:	5c 05       	acr	r5
80009656:	a3 65       	lsl	r5,0x2
80009658:	eb e4 13 e5 	or	r5,r5,r4>>0x1e
8000965c:	a3 64       	lsl	r4,0x2
8000965e:	5c 34       	neg	r4
80009660:	f8 05 01 45 	sbc	r5,r12,r5
80009664:	e6 04 06 40 	mulu.d	r0,r3,r4
80009668:	e4 05 07 40 	macu.d	r0,r2,r5
8000966c:	e6 05 06 44 	mulu.d	r4,r3,r5
80009670:	02 04       	add	r4,r1
80009672:	5c 05       	acr	r5
80009674:	ea 03 15 02 	lsl	r3,r5,0x2
80009678:	e7 e4 13 e3 	or	r3,r3,r4>>0x1e
8000967c:	e8 02 15 02 	lsl	r2,r4,0x2
80009680:	e6 0a 06 40 	mulu.d	r0,r3,r10
80009684:	e4 0b 07 40 	macu.d	r0,r2,r11
80009688:	e6 0b 06 42 	mulu.d	r2,r3,r11
8000968c:	02 02       	add	r2,r1
8000968e:	5c 03       	acr	r3
80009690:	ed b3 00 1c 	bld	r3,0x1c
80009694:	c0 90       	breq	800096a6 <__avr32_f64_div+0x12a>
80009696:	a1 72       	lsl	r2,0x1
80009698:	5c f3       	rol	r3
8000969a:	20 17       	sub	r7,1
8000969c:	a3 9a       	lsr	r10,0x3
8000969e:	f5 eb 11 da 	or	r10,r10,r11<<0x1d
800096a2:	a3 9b       	lsr	r11,0x3
800096a4:	c0 58       	rjmp	800096ae <__avr32_f64_div+0x132>
800096a6:	a5 8a       	lsr	r10,0x4
800096a8:	f5 eb 11 ca 	or	r10,r10,r11<<0x1c
800096ac:	a5 8b       	lsr	r11,0x4
800096ae:	58 07       	cp.w	r7,0
800096b0:	e0 8a 00 8b 	brle	800097c6 <__avr32_f64_div_res_subnormal>
800096b4:	e0 12 ff 00 	andl	r2,0xff00
800096b8:	e8 12 00 80 	orl	r2,0x80
800096bc:	e6 08 06 40 	mulu.d	r0,r3,r8
800096c0:	e4 09 07 40 	macu.d	r0,r2,r9
800096c4:	e4 08 06 44 	mulu.d	r4,r2,r8
800096c8:	e6 09 06 48 	mulu.d	r8,r3,r9
800096cc:	00 05       	add	r5,r0
800096ce:	f0 01 00 48 	adc	r8,r8,r1
800096d2:	5c 09       	acr	r9
800096d4:	f9 d2 c1 01 	bfextu	r12,r2,0x8,0x1
800096d8:	58 04       	cp.w	r4,0
800096da:	5c 25       	cpc	r5

800096dc <__avr32_f64_div_round_subnormal>:
800096dc:	f4 08 13 00 	cpc	r8,r10
800096e0:	f6 09 13 00 	cpc	r9,r11
800096e4:	5f 36       	srlo	r6
800096e6:	f8 06 17 00 	moveq	r6,r12
800096ea:	e4 0a 16 08 	lsr	r10,r2,0x8
800096ee:	f5 e3 11 8a 	or	r10,r10,r3<<0x18
800096f2:	e6 0b 16 08 	lsr	r11,r3,0x8
800096f6:	f7 d7 d2 8b 	bfins	r11,r7,0x14,0xb
800096fa:	ed be 00 1f 	bld	lr,0x1f
800096fe:	ef bb 00 1f 	bst	r11,0x1f
80009702:	0c 0a       	add	r10,r6
80009704:	5c 0b       	acr	r11
80009706:	e3 cd 80 ff 	ldm	sp++,r0-r7,pc
8000970a:	e4 1b 00 0f 	andh	r11,0xf
8000970e:	14 4b       	or	r11,r10
80009710:	e0 81 00 a7 	brne	8000985e <__avr32_f64_div_res_subnormal+0x98>
80009714:	f2 06 16 14 	lsr	r6,r9,0x14
80009718:	ab d6       	cbr	r6,0xb
8000971a:	e0 46 07 ff 	cp.w	r6,2047
8000971e:	e0 81 00 a4 	brne	80009866 <__avr32_f64_div_res_subnormal+0xa0>
80009722:	c9 e8       	rjmp	8000985e <__avr32_f64_div_res_subnormal+0x98>
80009724:	e4 19 00 0f 	andh	r9,0xf
80009728:	10 49       	or	r9,r8
8000972a:	e0 81 00 9a 	brne	8000985e <__avr32_f64_div_res_subnormal+0x98>
8000972e:	c9 28       	rjmp	80009852 <__avr32_f64_div_res_subnormal+0x8c>
80009730:	a3 7b       	lsl	r11,0x3
80009732:	f7 ea 13 db 	or	r11,r11,r10>>0x1d
80009736:	a3 7a       	lsl	r10,0x3
80009738:	f5 eb 10 04 	or	r4,r10,r11
8000973c:	e0 80 00 a0 	breq	8000987c <__avr32_f64_div_op1_zero>
80009740:	f6 04 12 00 	clz	r4,r11
80009744:	c1 70       	breq	80009772 <__avr32_f64_div_round_subnormal+0x96>
80009746:	c0 c3       	brcs	8000975e <__avr32_f64_div_round_subnormal+0x82>
80009748:	e8 05 11 20 	rsub	r5,r4,32
8000974c:	f6 04 09 4b 	lsl	r11,r11,r4
80009750:	f4 05 0a 45 	lsr	r5,r10,r5
80009754:	0a 4b       	or	r11,r5
80009756:	f4 04 09 4a 	lsl	r10,r10,r4
8000975a:	08 17       	sub	r7,r4
8000975c:	c0 b8       	rjmp	80009772 <__avr32_f64_div_round_subnormal+0x96>
8000975e:	f4 04 12 00 	clz	r4,r10
80009762:	f9 b4 03 00 	movlo	r4,0
80009766:	f7 b4 02 e0 	subhs	r4,-32
8000976a:	f4 04 09 4b 	lsl	r11,r10,r4
8000976e:	30 0a       	mov	r10,0
80009770:	08 17       	sub	r7,r4
80009772:	a3 8a       	lsr	r10,0x2
80009774:	f5 eb 11 ea 	or	r10,r10,r11<<0x1e
80009778:	a3 8b       	lsr	r11,0x2
8000977a:	c1 1b       	rjmp	8000959c <__avr32_f64_div+0x20>
8000977c:	a3 79       	lsl	r9,0x3
8000977e:	f3 e8 13 d9 	or	r9,r9,r8>>0x1d
80009782:	a3 78       	lsl	r8,0x3
80009784:	f3 e8 10 04 	or	r4,r9,r8
80009788:	c6 f0       	breq	80009866 <__avr32_f64_div_res_subnormal+0xa0>
8000978a:	f2 04 12 00 	clz	r4,r9
8000978e:	c1 70       	breq	800097bc <__avr32_f64_div_round_subnormal+0xe0>
80009790:	c0 c3       	brcs	800097a8 <__avr32_f64_div_round_subnormal+0xcc>
80009792:	e8 05 11 20 	rsub	r5,r4,32
80009796:	f2 04 09 49 	lsl	r9,r9,r4
8000979a:	f0 05 0a 45 	lsr	r5,r8,r5
8000979e:	0a 49       	or	r9,r5
800097a0:	f0 04 09 48 	lsl	r8,r8,r4
800097a4:	08 16       	sub	r6,r4
800097a6:	c0 b8       	rjmp	800097bc <__avr32_f64_div_round_subnormal+0xe0>
800097a8:	f0 04 12 00 	clz	r4,r8
800097ac:	f9 b4 03 00 	movlo	r4,0
800097b0:	f7 b4 02 e0 	subhs	r4,-32
800097b4:	f0 04 09 49 	lsl	r9,r8,r4
800097b8:	30 08       	mov	r8,0
800097ba:	08 16       	sub	r6,r4
800097bc:	a3 88       	lsr	r8,0x2
800097be:	f1 e9 11 e8 	or	r8,r8,r9<<0x1e
800097c2:	a3 89       	lsr	r9,0x2
800097c4:	cf ca       	rjmp	800095bc <__avr32_f64_div+0x40>

800097c6 <__avr32_f64_div_res_subnormal>:
800097c6:	5c 37       	neg	r7
800097c8:	2f f7       	sub	r7,-1
800097ca:	f1 b7 04 c0 	satu	r7,0x6
800097ce:	e0 47 00 20 	cp.w	r7,32
800097d2:	c1 54       	brge	800097fc <__avr32_f64_div_res_subnormal+0x36>
800097d4:	ee 06 11 20 	rsub	r6,r7,32
800097d8:	e4 07 0a 42 	lsr	r2,r2,r7
800097dc:	e6 06 09 4c 	lsl	r12,r3,r6
800097e0:	18 42       	or	r2,r12
800097e2:	e6 07 0a 43 	lsr	r3,r3,r7
800097e6:	f4 06 09 41 	lsl	r1,r10,r6
800097ea:	f4 07 0a 4a 	lsr	r10,r10,r7
800097ee:	f6 06 09 4c 	lsl	r12,r11,r6
800097f2:	18 4a       	or	r10,r12
800097f4:	f6 07 0a 4b 	lsr	r11,r11,r7
800097f8:	30 00       	mov	r0,0
800097fa:	c1 58       	rjmp	80009824 <__avr32_f64_div_res_subnormal+0x5e>
800097fc:	ee 06 11 20 	rsub	r6,r7,32
80009800:	f9 b0 00 00 	moveq	r0,0
80009804:	f9 bc 00 00 	moveq	r12,0
80009808:	c0 50       	breq	80009812 <__avr32_f64_div_res_subnormal+0x4c>
8000980a:	f4 06 09 40 	lsl	r0,r10,r6
8000980e:	f6 06 09 4c 	lsl	r12,r11,r6
80009812:	e6 07 0a 42 	lsr	r2,r3,r7
80009816:	30 03       	mov	r3,0
80009818:	f4 07 0a 41 	lsr	r1,r10,r7
8000981c:	18 41       	or	r1,r12
8000981e:	f6 07 0a 4a 	lsr	r10,r11,r7
80009822:	30 0b       	mov	r11,0
80009824:	e0 12 ff 00 	andl	r2,0xff00
80009828:	e8 12 00 80 	orl	r2,0x80
8000982c:	e6 08 06 46 	mulu.d	r6,r3,r8
80009830:	e4 09 07 46 	macu.d	r6,r2,r9
80009834:	e4 08 06 44 	mulu.d	r4,r2,r8
80009838:	e6 09 06 48 	mulu.d	r8,r3,r9
8000983c:	0c 05       	add	r5,r6
8000983e:	f0 07 00 48 	adc	r8,r8,r7
80009842:	5c 09       	acr	r9
80009844:	30 07       	mov	r7,0
80009846:	f9 d2 c1 01 	bfextu	r12,r2,0x8,0x1
8000984a:	00 34       	cp.w	r4,r0
8000984c:	e2 05 13 00 	cpc	r5,r1
80009850:	c4 6b       	rjmp	800096dc <__avr32_f64_div_round_subnormal>
80009852:	1c 9b       	mov	r11,lr
80009854:	e6 1b 80 00 	andh	r11,0x8000,COH
80009858:	30 0a       	mov	r10,0
8000985a:	e3 cd 80 ff 	ldm	sp++,r0-r7,pc
8000985e:	3f fb       	mov	r11,-1
80009860:	30 0a       	mov	r10,0
80009862:	e3 cd 80 ff 	ldm	sp++,r0-r7,pc
80009866:	f5 eb 10 04 	or	r4,r10,r11
8000986a:	c0 90       	breq	8000987c <__avr32_f64_div_op1_zero>
8000986c:	1c 9b       	mov	r11,lr
8000986e:	e6 1b 80 00 	andh	r11,0x8000,COH
80009872:	ea 1b 7f f0 	orh	r11,0x7ff0
80009876:	30 0a       	mov	r10,0
80009878:	e3 cd 80 ff 	ldm	sp++,r0-r7,pc

8000987c <__avr32_f64_div_op1_zero>:
8000987c:	f1 e9 10 15 	or	r5,r8,r9<<0x1
80009880:	ce f0       	breq	8000985e <__avr32_f64_div_res_subnormal+0x98>
80009882:	e9 d9 c2 8b 	bfextu	r4,r9,0x14,0xb
80009886:	e0 44 07 ff 	cp.w	r4,2047
8000988a:	ce 41       	brne	80009852 <__avr32_f64_div_res_subnormal+0x8c>
8000988c:	f1 e9 10 c5 	or	r5,r8,r9<<0xc
80009890:	ce 10       	breq	80009852 <__avr32_f64_div_res_subnormal+0x8c>
80009892:	ce 6b       	rjmp	8000985e <__avr32_f64_div_res_subnormal+0x98>

80009894 <__avr32_umod64>:
80009894:	d4 31       	pushm	r0-r7,lr
80009896:	1a 97       	mov	r7,sp
80009898:	20 3d       	sub	sp,12
8000989a:	10 9c       	mov	r12,r8
8000989c:	12 95       	mov	r5,r9
8000989e:	14 9e       	mov	lr,r10
800098a0:	16 91       	mov	r1,r11
800098a2:	16 96       	mov	r6,r11
800098a4:	58 09       	cp.w	r9,0
800098a6:	e0 81 00 81 	brne	800099a8 <__avr32_umod64+0x114>
800098aa:	16 38       	cp.w	r8,r11
800098ac:	e0 88 00 12 	brls	800098d0 <__avr32_umod64+0x3c>
800098b0:	f0 08 12 00 	clz	r8,r8
800098b4:	c4 e0       	breq	80009950 <__avr32_umod64+0xbc>
800098b6:	f6 08 09 46 	lsl	r6,r11,r8
800098ba:	f8 08 09 4c 	lsl	r12,r12,r8
800098be:	f0 0b 11 20 	rsub	r11,r8,32
800098c2:	f4 08 09 4e 	lsl	lr,r10,r8
800098c6:	f4 0b 0a 4b 	lsr	r11,r10,r11
800098ca:	f7 e6 10 06 	or	r6,r11,r6
800098ce:	c4 18       	rjmp	80009950 <__avr32_umod64+0xbc>
800098d0:	58 08       	cp.w	r8,0
800098d2:	c0 51       	brne	800098dc <__avr32_umod64+0x48>
800098d4:	30 19       	mov	r9,1
800098d6:	f2 08 0d 08 	divu	r8,r9,r8
800098da:	10 9c       	mov	r12,r8
800098dc:	f8 08 12 00 	clz	r8,r12
800098e0:	c0 31       	brne	800098e6 <__avr32_umod64+0x52>
800098e2:	18 16       	sub	r6,r12
800098e4:	c3 68       	rjmp	80009950 <__avr32_umod64+0xbc>
800098e6:	f0 03 11 20 	rsub	r3,r8,32
800098ea:	f4 03 0a 4b 	lsr	r11,r10,r3
800098ee:	f8 08 09 4c 	lsl	r12,r12,r8
800098f2:	ec 08 09 49 	lsl	r9,r6,r8
800098f6:	ec 03 0a 43 	lsr	r3,r6,r3
800098fa:	f7 e9 10 09 	or	r9,r11,r9
800098fe:	f8 05 16 10 	lsr	r5,r12,0x10
80009902:	ed dc c0 10 	bfextu	r6,r12,0x0,0x10
80009906:	e6 05 0d 02 	divu	r2,r3,r5
8000990a:	f2 0e 16 10 	lsr	lr,r9,0x10
8000990e:	ec 02 02 4b 	mul	r11,r6,r2
80009912:	fd e3 11 0e 	or	lr,lr,r3<<0x10
80009916:	16 3e       	cp.w	lr,r11
80009918:	c0 72       	brcc	80009926 <__avr32_umod64+0x92>
8000991a:	18 0e       	add	lr,r12
8000991c:	18 3e       	cp.w	lr,r12
8000991e:	c0 43       	brcs	80009926 <__avr32_umod64+0x92>
80009920:	16 3e       	cp.w	lr,r11
80009922:	fd dc e3 0e 	addcs	lr,lr,r12
80009926:	fc 0b 01 03 	sub	r3,lr,r11
8000992a:	f3 d9 c0 10 	bfextu	r9,r9,0x0,0x10
8000992e:	e6 05 0d 02 	divu	r2,r3,r5
80009932:	f3 e3 11 09 	or	r9,r9,r3<<0x10
80009936:	a5 36       	mul	r6,r2
80009938:	0c 39       	cp.w	r9,r6
8000993a:	c0 72       	brcc	80009948 <__avr32_umod64+0xb4>
8000993c:	18 09       	add	r9,r12
8000993e:	18 39       	cp.w	r9,r12
80009940:	c0 43       	brcs	80009948 <__avr32_umod64+0xb4>
80009942:	0c 39       	cp.w	r9,r6
80009944:	f3 dc e3 09 	addcs	r9,r9,r12
80009948:	f2 06 01 06 	sub	r6,r9,r6
8000994c:	f4 08 09 4e 	lsl	lr,r10,r8
80009950:	f8 0a 16 10 	lsr	r10,r12,0x10
80009954:	eb dc c0 10 	bfextu	r5,r12,0x0,0x10
80009958:	ec 0a 0d 02 	divu	r2,r6,r10
8000995c:	fc 09 16 10 	lsr	r9,lr,0x10
80009960:	ea 02 02 4b 	mul	r11,r5,r2
80009964:	f3 e3 11 09 	or	r9,r9,r3<<0x10
80009968:	16 39       	cp.w	r9,r11
8000996a:	c0 72       	brcc	80009978 <__avr32_umod64+0xe4>
8000996c:	18 09       	add	r9,r12
8000996e:	18 39       	cp.w	r9,r12
80009970:	c0 43       	brcs	80009978 <__avr32_umod64+0xe4>
80009972:	16 39       	cp.w	r9,r11
80009974:	f3 dc e3 09 	addcs	r9,r9,r12
80009978:	f2 0b 01 0b 	sub	r11,r9,r11
8000997c:	fd de c0 10 	bfextu	lr,lr,0x0,0x10
80009980:	f6 0a 0d 0a 	divu	r10,r11,r10
80009984:	fd eb 11 0e 	or	lr,lr,r11<<0x10
80009988:	ea 0a 02 4a 	mul	r10,r5,r10
8000998c:	14 3e       	cp.w	lr,r10
8000998e:	c0 72       	brcc	8000999c <__avr32_umod64+0x108>
80009990:	18 0e       	add	lr,r12
80009992:	18 3e       	cp.w	lr,r12
80009994:	c0 43       	brcs	8000999c <__avr32_umod64+0x108>
80009996:	14 3e       	cp.w	lr,r10
80009998:	fd dc e3 0e 	addcs	lr,lr,r12
8000999c:	fc 0a 01 0a 	sub	r10,lr,r10
800099a0:	30 0b       	mov	r11,0
800099a2:	f4 08 0a 4a 	lsr	r10,r10,r8
800099a6:	c7 b8       	rjmp	80009a9c <__avr32_umod64+0x208>
800099a8:	16 39       	cp.w	r9,r11
800099aa:	e0 8b 00 79 	brhi	80009a9c <__avr32_umod64+0x208>
800099ae:	f2 09 12 00 	clz	r9,r9
800099b2:	c1 21       	brne	800099d6 <__avr32_umod64+0x142>
800099b4:	10 3a       	cp.w	r10,r8
800099b6:	5f 2b       	srhs	r11
800099b8:	0a 31       	cp.w	r1,r5
800099ba:	5f ba       	srhi	r10
800099bc:	f7 ea 10 0a 	or	r10,r11,r10
800099c0:	f2 0a 18 00 	cp.b	r10,r9
800099c4:	c0 60       	breq	800099d0 <__avr32_umod64+0x13c>
800099c6:	fc 08 01 0c 	sub	r12,lr,r8
800099ca:	e2 05 01 46 	sbc	r6,r1,r5
800099ce:	18 9e       	mov	lr,r12
800099d0:	0c 9b       	mov	r11,r6
800099d2:	1c 9a       	mov	r10,lr
800099d4:	c6 48       	rjmp	80009a9c <__avr32_umod64+0x208>
800099d6:	ea 09 09 4c 	lsl	r12,r5,r9
800099da:	f2 06 11 20 	rsub	r6,r9,32
800099de:	f6 09 09 4b 	lsl	r11,r11,r9
800099e2:	f0 09 09 42 	lsl	r2,r8,r9
800099e6:	ef 46 ff f4 	st.w	r7[-12],r6
800099ea:	f0 06 0a 48 	lsr	r8,r8,r6
800099ee:	18 48       	or	r8,r12
800099f0:	e2 06 0a 4c 	lsr	r12,r1,r6
800099f4:	f4 09 09 43 	lsl	r3,r10,r9
800099f8:	fd d8 c0 10 	bfextu	lr,r8,0x0,0x10
800099fc:	f4 06 0a 4a 	lsr	r10,r10,r6
80009a00:	16 4a       	or	r10,r11
80009a02:	f0 0b 16 10 	lsr	r11,r8,0x10
80009a06:	f8 0b 0d 04 	divu	r4,r12,r11
80009a0a:	f4 0c 16 10 	lsr	r12,r10,0x10
80009a0e:	08 91       	mov	r1,r4
80009a10:	f9 e5 11 0c 	or	r12,r12,r5<<0x10
80009a14:	e8 0e 02 46 	mul	r6,r4,lr
80009a18:	0c 3c       	cp.w	r12,r6
80009a1a:	c0 a2       	brcc	80009a2e <__avr32_umod64+0x19a>
80009a1c:	20 11       	sub	r1,1
80009a1e:	10 0c       	add	r12,r8
80009a20:	10 3c       	cp.w	r12,r8
80009a22:	c0 63       	brcs	80009a2e <__avr32_umod64+0x19a>
80009a24:	0c 3c       	cp.w	r12,r6
80009a26:	f7 b1 03 01 	sublo	r1,1
80009a2a:	f9 d8 e3 0c 	addcs	r12,r12,r8
80009a2e:	0c 1c       	sub	r12,r6
80009a30:	f5 da c0 10 	bfextu	r10,r10,0x0,0x10
80009a34:	f8 0b 0d 04 	divu	r4,r12,r11
80009a38:	f5 e5 11 0b 	or	r11,r10,r5<<0x10
80009a3c:	08 96       	mov	r6,r4
80009a3e:	e8 0e 02 4e 	mul	lr,r4,lr
80009a42:	1c 3b       	cp.w	r11,lr
80009a44:	c0 a2       	brcc	80009a58 <__avr32_umod64+0x1c4>
80009a46:	20 16       	sub	r6,1
80009a48:	10 0b       	add	r11,r8
80009a4a:	10 3b       	cp.w	r11,r8
80009a4c:	c0 63       	brcs	80009a58 <__avr32_umod64+0x1c4>
80009a4e:	1c 3b       	cp.w	r11,lr
80009a50:	f7 b6 03 01 	sublo	r6,1
80009a54:	f7 d8 e3 0b 	addcs	r11,r11,r8
80009a58:	ed e1 11 01 	or	r1,r6,r1<<0x10
80009a5c:	1c 1b       	sub	r11,lr
80009a5e:	e2 02 06 40 	mulu.d	r0,r1,r2
80009a62:	00 9e       	mov	lr,r0
80009a64:	02 9c       	mov	r12,r1
80009a66:	16 3c       	cp.w	r12,r11
80009a68:	e0 8b 00 08 	brhi	80009a78 <__avr32_umod64+0x1e4>
80009a6c:	5f 06       	sreq	r6
80009a6e:	06 30       	cp.w	r0,r3
80009a70:	5f ba       	srhi	r10
80009a72:	ed ea 00 0a 	and	r10,r6,r10
80009a76:	c0 60       	breq	80009a82 <__avr32_umod64+0x1ee>
80009a78:	fc 02 01 04 	sub	r4,lr,r2
80009a7c:	f8 08 01 4c 	sbc	r12,r12,r8
80009a80:	08 9e       	mov	lr,r4
80009a82:	e6 0e 01 0a 	sub	r10,r3,lr
80009a86:	f6 0c 01 4c 	sbc	r12,r11,r12
80009a8a:	ee f1 ff f4 	ld.w	r1,r7[-12]
80009a8e:	f8 09 0a 4b 	lsr	r11,r12,r9
80009a92:	f4 09 0a 4a 	lsr	r10,r10,r9
80009a96:	f8 01 09 4c 	lsl	r12,r12,r1
80009a9a:	18 4a       	or	r10,r12
80009a9c:	2f dd       	sub	sp,-12
80009a9e:	d8 32       	popm	r0-r7,pc

Disassembly of section .exception:

80009c00 <_evba>:
80009c00:	c0 08       	rjmp	80009c00 <_evba>
	...

80009c04 <_handle_TLB_Multiple_Hit>:
80009c04:	c0 08       	rjmp	80009c04 <_handle_TLB_Multiple_Hit>
	...

80009c08 <_handle_Bus_Error_Data_Fetch>:
80009c08:	c0 08       	rjmp	80009c08 <_handle_Bus_Error_Data_Fetch>
	...

80009c0c <_handle_Bus_Error_Instruction_Fetch>:
80009c0c:	c0 08       	rjmp	80009c0c <_handle_Bus_Error_Instruction_Fetch>
	...

80009c10 <_handle_NMI>:
80009c10:	c0 08       	rjmp	80009c10 <_handle_NMI>
	...

80009c14 <_handle_Instruction_Address>:
80009c14:	c0 08       	rjmp	80009c14 <_handle_Instruction_Address>
	...

80009c18 <_handle_ITLB_Protection>:
80009c18:	c0 08       	rjmp	80009c18 <_handle_ITLB_Protection>
	...

80009c1c <_handle_Breakpoint>:
80009c1c:	c0 08       	rjmp	80009c1c <_handle_Breakpoint>
	...

80009c20 <_handle_Illegal_Opcode>:
80009c20:	c0 08       	rjmp	80009c20 <_handle_Illegal_Opcode>
	...

80009c24 <_handle_Unimplemented_Instruction>:
80009c24:	c0 08       	rjmp	80009c24 <_handle_Unimplemented_Instruction>
	...

80009c28 <_handle_Privilege_Violation>:
80009c28:	c0 08       	rjmp	80009c28 <_handle_Privilege_Violation>
	...

80009c2c <_handle_Floating_Point>:
80009c2c:	c0 08       	rjmp	80009c2c <_handle_Floating_Point>
	...

80009c30 <_handle_Coprocessor_Absent>:
80009c30:	c0 08       	rjmp	80009c30 <_handle_Coprocessor_Absent>
	...

80009c34 <_handle_Data_Address_Read>:
80009c34:	c0 08       	rjmp	80009c34 <_handle_Data_Address_Read>
	...

80009c38 <_handle_Data_Address_Write>:
80009c38:	c0 08       	rjmp	80009c38 <_handle_Data_Address_Write>
	...

80009c3c <_handle_DTLB_Protection_Read>:
80009c3c:	c0 08       	rjmp	80009c3c <_handle_DTLB_Protection_Read>
	...

80009c40 <_handle_DTLB_Protection_Write>:
80009c40:	c0 08       	rjmp	80009c40 <_handle_DTLB_Protection_Write>
	...

80009c44 <_handle_DTLB_Modified>:
80009c44:	c0 08       	rjmp	80009c44 <_handle_DTLB_Modified>
	...

80009c50 <_handle_ITLB_Miss>:
80009c50:	c0 08       	rjmp	80009c50 <_handle_ITLB_Miss>
	...

80009c60 <_handle_DTLB_Miss_Read>:
80009c60:	c0 08       	rjmp	80009c60 <_handle_DTLB_Miss_Read>
	...

80009c70 <_handle_DTLB_Miss_Write>:
80009c70:	c0 08       	rjmp	80009c70 <_handle_DTLB_Miss_Write>
	...

80009d00 <_handle_Supervisor_Call>:
80009d00:	c0 08       	rjmp	80009d00 <_handle_Supervisor_Call>
80009d02:	d7 03       	nop

80009d04 <_int0>:
80009d04:	30 0c       	mov	r12,0
80009d06:	fe b0 cb c1 	rcall	80003488 <_get_interrupt_handler>
80009d0a:	58 0c       	cp.w	r12,0
80009d0c:	f8 0f 17 10 	movne	pc,r12
80009d10:	d6 03       	rete

80009d12 <_int1>:
80009d12:	30 1c       	mov	r12,1
80009d14:	fe b0 cb ba 	rcall	80003488 <_get_interrupt_handler>
80009d18:	58 0c       	cp.w	r12,0
80009d1a:	f8 0f 17 10 	movne	pc,r12
80009d1e:	d6 03       	rete

80009d20 <_int2>:
80009d20:	30 2c       	mov	r12,2
80009d22:	fe b0 cb b3 	rcall	80003488 <_get_interrupt_handler>
80009d26:	58 0c       	cp.w	r12,0
80009d28:	f8 0f 17 10 	movne	pc,r12
80009d2c:	d6 03       	rete

80009d2e <_int3>:
80009d2e:	30 3c       	mov	r12,3
80009d30:	fe b0 cb ac 	rcall	80003488 <_get_interrupt_handler>
80009d34:	58 0c       	cp.w	r12,0
80009d36:	f8 0f 17 10 	movne	pc,r12
80009d3a:	d6 03       	rete
80009d3c:	d7 03       	nop
80009d3e:	d7 03       	nop
80009d40:	d7 03       	nop
80009d42:	d7 03       	nop
80009d44:	d7 03       	nop
80009d46:	d7 03       	nop
80009d48:	d7 03       	nop
80009d4a:	d7 03       	nop
80009d4c:	d7 03       	nop
80009d4e:	d7 03       	nop
80009d50:	d7 03       	nop
80009d52:	d7 03       	nop
80009d54:	d7 03       	nop
80009d56:	d7 03       	nop
80009d58:	d7 03       	nop
80009d5a:	d7 03       	nop
80009d5c:	d7 03       	nop
80009d5e:	d7 03       	nop
80009d60:	d7 03       	nop
80009d62:	d7 03       	nop
80009d64:	d7 03       	nop
80009d66:	d7 03       	nop
80009d68:	d7 03       	nop
80009d6a:	d7 03       	nop
80009d6c:	d7 03       	nop
80009d6e:	d7 03       	nop
80009d70:	d7 03       	nop
80009d72:	d7 03       	nop
80009d74:	d7 03       	nop
80009d76:	d7 03       	nop
80009d78:	d7 03       	nop
80009d7a:	d7 03       	nop
80009d7c:	d7 03       	nop
80009d7e:	d7 03       	nop
80009d80:	d7 03       	nop
80009d82:	d7 03       	nop
80009d84:	d7 03       	nop
80009d86:	d7 03       	nop
80009d88:	d7 03       	nop
80009d8a:	d7 03       	nop
80009d8c:	d7 03       	nop
80009d8e:	d7 03       	nop
80009d90:	d7 03       	nop
80009d92:	d7 03       	nop
80009d94:	d7 03       	nop
80009d96:	d7 03       	nop
80009d98:	d7 03       	nop
80009d9a:	d7 03       	nop
80009d9c:	d7 03       	nop
80009d9e:	d7 03       	nop
80009da0:	d7 03       	nop
80009da2:	d7 03       	nop
80009da4:	d7 03       	nop
80009da6:	d7 03       	nop
80009da8:	d7 03       	nop
80009daa:	d7 03       	nop
80009dac:	d7 03       	nop
80009dae:	d7 03       	nop
80009db0:	d7 03       	nop
80009db2:	d7 03       	nop
80009db4:	d7 03       	nop
80009db6:	d7 03       	nop
80009db8:	d7 03       	nop
80009dba:	d7 03       	nop
80009dbc:	d7 03       	nop
80009dbe:	d7 03       	nop
80009dc0:	d7 03       	nop
80009dc2:	d7 03       	nop
80009dc4:	d7 03       	nop
80009dc6:	d7 03       	nop
80009dc8:	d7 03       	nop
80009dca:	d7 03       	nop
80009dcc:	d7 03       	nop
80009dce:	d7 03       	nop
80009dd0:	d7 03       	nop
80009dd2:	d7 03       	nop
80009dd4:	d7 03       	nop
80009dd6:	d7 03       	nop
80009dd8:	d7 03       	nop
80009dda:	d7 03       	nop
80009ddc:	d7 03       	nop
80009dde:	d7 03       	nop
80009de0:	d7 03       	nop
80009de2:	d7 03       	nop
80009de4:	d7 03       	nop
80009de6:	d7 03       	nop
80009de8:	d7 03       	nop
80009dea:	d7 03       	nop
80009dec:	d7 03       	nop
80009dee:	d7 03       	nop
80009df0:	d7 03       	nop
80009df2:	d7 03       	nop
80009df4:	d7 03       	nop
80009df6:	d7 03       	nop
80009df8:	d7 03       	nop
80009dfa:	d7 03       	nop
80009dfc:	d7 03       	nop
80009dfe:	d7 03       	nop
