
Lab61b.elf:     file format elf32-avr32

Sections:
Idx Name          Size      VMA       LMA       File off  Algn
  0 .reset        0000200c  80000000  80000000  00000400  2**2
                  CONTENTS, ALLOC, LOAD, READONLY, CODE
  1 .rela.got     00000000  8000200c  8000200c  0000240c  2**2
                  CONTENTS, ALLOC, LOAD, READONLY, DATA
  2 .init         0000001a  8000200c  8000200c  0000240c  2**2
                  CONTENTS, ALLOC, LOAD, READONLY, CODE
  3 .text         00003408  80002028  80002028  00002428  2**2
                  CONTENTS, ALLOC, LOAD, READONLY, CODE
  4 .exception    00000200  80005600  80005600  00005a00  2**9
                  CONTENTS, ALLOC, LOAD, READONLY, CODE
  5 .fini         00000018  80005800  80005800  00005c00  2**2
                  CONTENTS, ALLOC, LOAD, READONLY, CODE
  6 .rodata       00000150  80005818  80005818  00005c18  2**2
                  CONTENTS, ALLOC, LOAD, READONLY, DATA
  7 .dalign       00000004  00000004  00000004  00000000  2**0
                  ALLOC
  8 .ctors        00000008  00000008  80005968  00006008  2**2
                  CONTENTS, ALLOC, LOAD, DATA
  9 .dtors        00000008  00000010  80005970  00006010  2**2
                  CONTENTS, ALLOC, LOAD, DATA
 10 .jcr          00000004  00000018  80005978  00006018  2**2
                  CONTENTS, ALLOC, LOAD, DATA
 11 .got          00000000  0000001c  8000597c  0000601c  2**2
                  CONTENTS, ALLOC, LOAD, DATA
 12 .data         0000050c  0000001c  8000597c  0000601c  2**2
                  CONTENTS, ALLOC, LOAD, DATA
 13 .balign       00000000  00000528  80005e88  00006528  2**0
                  ALLOC
 14 .bss          00000288  00000528  00000528  00000000  2**2
                  ALLOC
 15 .heap         0000e850  000007b0  000007b0  00000000  2**0
                  ALLOC
 16 .comment      00000030  00000000  00000000  00006528  2**0
                  CONTENTS, READONLY
 17 .debug_aranges 00000a70  00000000  00000000  00006558  2**3
                  CONTENTS, READONLY, DEBUGGING
 18 .debug_pubnames 000014f2  00000000  00000000  00006fc8  2**0
                  CONTENTS, READONLY, DEBUGGING
 19 .debug_info   0001312f  00000000  00000000  000084ba  2**0
                  CONTENTS, READONLY, DEBUGGING
 20 .debug_abbrev 00002952  00000000  00000000  0001b5e9  2**0
                  CONTENTS, READONLY, DEBUGGING
 21 .debug_line   000095a5  00000000  00000000  0001df3b  2**0
                  CONTENTS, READONLY, DEBUGGING
 22 .debug_frame  00001c4c  00000000  00000000  000274e0  2**2
                  CONTENTS, READONLY, DEBUGGING
 23 .debug_str    00003680  00000000  00000000  0002912c  2**0
                  CONTENTS, READONLY, DEBUGGING
 24 .debug_loc    00003108  00000000  00000000  0002c7ac  2**0
                  CONTENTS, READONLY, DEBUGGING
 25 .debug_macinfo 00b3c3ec  00000000  00000000  0002f8b4  2**0
                  CONTENTS, READONLY, DEBUGGING
 26 .stack        00001000  0000f000  0000f000  00000000  2**0
                  ALLOC
 27 .debug_ranges 00000998  00000000  00000000  00b6bca0  2**0
                  CONTENTS, READONLY, DEBUGGING

Disassembly of section .reset:

80000000 <_start>:
80000000:	48 1f       	lddpc	pc,80000004 <_start+0x4>
80000002:	d7 03       	nop
80000004:	80 00       	ld.sh	r0,r0[0x0]
80000006:	20 28       	sub	r8,2

80000008 <_trampoline>:
80000008:	e0 8f 10 00 	bral	80002008 <program_start>
	...

80002008 <program_start>:
80002008:	fe cf ff e0 	sub	pc,pc,-32

Disassembly of section .init:

8000200c <_init>:
8000200c:	eb cd 40 40 	pushm	r6,lr
80002010:	48 26       	lddpc	r6,80002018 <_init+0xc>
80002012:	1e 26       	rsub	r6,pc
80002014:	c0 48       	rjmp	8000201c <_init+0x10>
80002016:	d7 03       	nop
80002018:	80 00       	ld.sh	r0,r0[0x0]
8000201a:	1f f6       	ld.ub	r6,pc[0x7]
8000201c:	c5 4c       	rcall	800020c4 <frame_dummy>
8000201e:	e0 a0 19 ff 	rcall	8000541c <__do_global_ctors_aux>
80002022:	e3 cd 80 40 	ldm	sp++,r6,pc

Disassembly of section .text:

80002028 <_stext>:
80002028:	30 07       	mov	r7,0
8000202a:	e0 7a 00 00 	mov	r10,65536
8000202e:	5b fa       	cp.w	r10,-1
80002030:	f4 0d 17 10 	movne	sp,r10
80002034:	fe cb c6 cc 	sub	r11,pc,-14644
80002038:	30 8c       	mov	r12,8
8000203a:	18 3b       	cp.w	r11,r12
8000203c:	c0 70       	breq	8000204a <_stext+0x22>
8000203e:	e0 6a 05 28 	mov	r10,1320
80002042:	b7 09       	ld.d	r8,r11++
80002044:	b9 28       	st.d	r12++,r8
80002046:	14 3c       	cp.w	r12,r10
80002048:	cf d5       	brlt	80002042 <_stext+0x1a>
8000204a:	e0 6a 07 b0 	mov	r10,1968
8000204e:	e0 6c 05 28 	mov	r12,1320
80002052:	30 08       	mov	r8,0
80002054:	30 09       	mov	r9,0
80002056:	b9 28       	st.d	r12++,r8
80002058:	14 3c       	cp.w	r12,r10
8000205a:	cf e5       	brlt	80002056 <_stext+0x2e>
8000205c:	e0 a0 07 f4 	rcall	80003044 <_init_startup>
80002060:	fe cc c8 60 	sub	r12,pc,-14240
80002064:	e0 a0 14 d2 	rcall	80004a08 <atexit>
80002068:	cd 2f       	rcall	8000200c <_init>
8000206a:	1a 9c       	mov	r12,sp
8000206c:	30 0b       	mov	r11,0
8000206e:	e0 a0 17 e5 	rcall	80005038 <_init_argv>
80002072:	5b fc       	cp.w	r12,-1
80002074:	f9 bc 00 00 	moveq	r12,0
80002078:	f9 ba 00 00 	moveq	r10,0
8000207c:	14 1d       	sub	sp,r10
8000207e:	e0 a0 02 07 	rcall	8000248c <main>
80002082:	e0 a0 14 cb 	rcall	80004a18 <exit>
80002086:	d7 03       	nop

80002088 <__do_global_dtors_aux>:
80002088:	d4 21       	pushm	r4-r7,lr
8000208a:	e0 68 05 28 	mov	r8,1320
8000208e:	11 89       	ld.ub	r9,r8[0x0]
80002090:	30 08       	mov	r8,0
80002092:	f0 09 18 00 	cp.b	r9,r8
80002096:	c1 61       	brne	800020c2 <__do_global_dtors_aux+0x3a>
80002098:	31 08       	mov	r8,16
8000209a:	31 46       	mov	r6,20
8000209c:	10 95       	mov	r5,r8
8000209e:	10 16       	sub	r6,r8
800020a0:	e0 67 05 2c 	mov	r7,1324
800020a4:	a3 46       	asr	r6,0x2
800020a6:	20 16       	sub	r6,1
800020a8:	c0 68       	rjmp	800020b4 <__do_global_dtors_aux+0x2c>
800020aa:	2f f8       	sub	r8,-1
800020ac:	8f 08       	st.w	r7[0x0],r8
800020ae:	ea 08 03 28 	ld.w	r8,r5[r8<<0x2]
800020b2:	5d 18       	icall	r8
800020b4:	6e 08       	ld.w	r8,r7[0x0]
800020b6:	0c 38       	cp.w	r8,r6
800020b8:	cf 93       	brcs	800020aa <__do_global_dtors_aux+0x22>
800020ba:	30 19       	mov	r9,1
800020bc:	e0 68 05 28 	mov	r8,1320
800020c0:	b0 89       	st.b	r8[0x0],r9
800020c2:	d8 22       	popm	r4-r7,pc

800020c4 <frame_dummy>:
800020c4:	d4 01       	pushm	lr
800020c6:	31 8c       	mov	r12,24
800020c8:	78 08       	ld.w	r8,r12[0x0]
800020ca:	58 08       	cp.w	r8,0
800020cc:	c0 50       	breq	800020d6 <frame_dummy+0x12>
800020ce:	48 38       	lddpc	r8,800020d8 <frame_dummy+0x14>
800020d0:	58 08       	cp.w	r8,0
800020d2:	c0 20       	breq	800020d6 <frame_dummy+0x12>
800020d4:	5d 18       	icall	r8
800020d6:	d8 02       	popm	pc
800020d8:	00 00       	add	r0,r0
	...

800020dc <initLED>:
800020dc:	eb cd 40 80 	pushm	r7,lr
800020e0:	1a 97       	mov	r7,sp
800020e2:	20 1d       	sub	sp,4
800020e4:	fe 78 11 00 	mov	r8,-61184
800020e8:	ef 48 ff fc 	st.w	r7[-4],r8
800020ec:	ee f8 ff fc 	ld.w	r8,r7[-4]
800020f0:	fc 19 08 00 	movh	r9,0x800
800020f4:	91 19       	st.w	r8[0x4],r9
800020f6:	ee f8 ff fc 	ld.w	r8,r7[-4]
800020fa:	fc 19 10 00 	movh	r9,0x1000
800020fe:	91 19       	st.w	r8[0x4],r9
80002100:	ee f8 ff fc 	ld.w	r8,r7[-4]
80002104:	fc 19 20 00 	movh	r9,0x2000
80002108:	91 19       	st.w	r8[0x4],r9
8000210a:	ee f8 ff fc 	ld.w	r8,r7[-4]
8000210e:	fc 19 08 00 	movh	r9,0x800
80002112:	f1 49 00 54 	st.w	r8[84],r9
80002116:	ee f8 ff fc 	ld.w	r8,r7[-4]
8000211a:	fc 19 10 00 	movh	r9,0x1000
8000211e:	f1 49 00 54 	st.w	r8[84],r9
80002122:	ee f8 ff fc 	ld.w	r8,r7[-4]
80002126:	fc 19 20 00 	movh	r9,0x2000
8000212a:	f1 49 00 54 	st.w	r8[84],r9
8000212e:	ee f8 ff fc 	ld.w	r8,r7[-4]
80002132:	fc 19 08 00 	movh	r9,0x800
80002136:	f1 49 00 44 	st.w	r8[68],r9
8000213a:	ee f8 ff fc 	ld.w	r8,r7[-4]
8000213e:	fc 19 10 00 	movh	r9,0x1000
80002142:	f1 49 00 44 	st.w	r8[68],r9
80002146:	ee f8 ff fc 	ld.w	r8,r7[-4]
8000214a:	fc 19 20 00 	movh	r9,0x2000
8000214e:	f1 49 00 44 	st.w	r8[68],r9
80002152:	2f fd       	sub	sp,-4
80002154:	e3 cd 80 80 	ldm	sp++,r7,pc

80002158 <onLED>:
80002158:	eb cd 40 80 	pushm	r7,lr
8000215c:	1a 97       	mov	r7,sp
8000215e:	20 1d       	sub	sp,4
80002160:	ef 4c ff fc 	st.w	r7[-4],r12
80002164:	fe 78 10 00 	mov	r8,-61440
80002168:	ee f9 ff fc 	ld.w	r9,r7[-4]
8000216c:	f1 49 01 58 	st.w	r8[344],r9
80002170:	2f fd       	sub	sp,-4
80002172:	e3 cd 80 80 	ldm	sp++,r7,pc

80002176 <offLED>:
80002176:	eb cd 40 80 	pushm	r7,lr
8000217a:	1a 97       	mov	r7,sp
8000217c:	20 1d       	sub	sp,4
8000217e:	ef 4c ff fc 	st.w	r7[-4],r12
80002182:	fe 78 10 00 	mov	r8,-61440
80002186:	ee f9 ff fc 	ld.w	r9,r7[-4]
8000218a:	f1 49 01 54 	st.w	r8[340],r9
8000218e:	2f fd       	sub	sp,-4
80002190:	e3 cd 80 80 	ldm	sp++,r7,pc
80002194:	76 50       	ld.w	r0,r11[0x14]
80002196:	72 6f       	ld.w	pc,r9[0x18]
80002198:	64 75       	ld.w	r5,r2[0x1c]
8000219a:	63 65       	ld.w	r5,r1[0x58]
8000219c:	72 00       	ld.w	r0,r9[0x0]
8000219e:	00 00       	add	r0,r0
800021a0:	76 43       	ld.w	r3,r11[0x10]
800021a2:	6f 6e       	ld.w	lr,r7[0x58]
800021a4:	73 75       	ld.w	r5,r9[0x5c]
800021a6:	6d 65       	ld.w	r5,r6[0x58]
800021a8:	72 00       	ld.w	r0,r9[0x0]
	...

800021ac <init_usart>:
		cycles--;
	}
}

void init_usart ( void )
{
800021ac:	eb cd 40 80 	pushm	r7,lr
800021b0:	1a 97       	mov	r7,sp
		. charlength = 8,
		. paritytype = USART_NO_PARITY ,
		. stopbits = USART_1_STOPBIT ,
		. channelmode = USART_NORMAL_CHMODE
	};
	pm_switch_to_osc0 (& AVR32_PM , FOSC0 , OSC0_STARTUP );
800021b2:	30 3a       	mov	r10,3
800021b4:	e0 6b 1b 00 	mov	r11,6912
800021b8:	ea 1b 00 b7 	orh	r11,0xb7
800021bc:	fe 7c 0c 00 	mov	r12,-62464
800021c0:	f0 1f 00 0f 	mcall	800021fc <init_usart+0x50>
	gpio_enable_module ( USART_SERIAL_GPIO_MAP , 2);
800021c4:	30 2b       	mov	r11,2
800021c6:	48 fc       	lddpc	r12,80002200 <init_usart+0x54>
800021c8:	f0 1f 00 0f 	mcall	80002204 <init_usart+0x58>
	gpio_enable_module ( USART_DEBUG_GPIO_MAP , 2);
800021cc:	30 2b       	mov	r11,2
800021ce:	48 fc       	lddpc	r12,80002208 <init_usart+0x5c>
800021d0:	f0 1f 00 0d 	mcall	80002204 <init_usart+0x58>
	usart_init_rs232 ( serialPORT_USART , & USART_OPTIONS , FOSC0 );
800021d4:	e0 6a 1b 00 	mov	r10,6912
800021d8:	ea 1a 00 b7 	orh	r10,0xb7
800021dc:	48 cb       	lddpc	r11,8000220c <init_usart+0x60>
800021de:	fe 7c 18 00 	mov	r12,-59392
800021e2:	f0 1f 00 0c 	mcall	80002210 <init_usart+0x64>
	usart_init_rs232 ( configDBG_USART , & USART_OPTIONS , FOSC0 );
800021e6:	e0 6a 1b 00 	mov	r10,6912
800021ea:	ea 1a 00 b7 	orh	r10,0xb7
800021ee:	48 8b       	lddpc	r11,8000220c <init_usart+0x60>
800021f0:	fe 7c 18 00 	mov	r12,-59392
800021f4:	f0 1f 00 07 	mcall	80002210 <init_usart+0x64>
}
800021f8:	e3 cd 80 80 	ldm	sp++,r7,pc
800021fc:	80 00       	ld.sh	r0,r0[0x0]
800021fe:	2a 68       	sub	r8,-90
80002200:	80 00       	ld.sh	r0,r0[0x0]
80002202:	58 18       	cp.w	r8,1
80002204:	80 00       	ld.sh	r0,r0[0x0]
80002206:	25 48       	sub	r8,84
80002208:	80 00       	ld.sh	r0,r0[0x0]
8000220a:	58 28       	cp.w	r8,2
8000220c:	80 00       	ld.sh	r0,r0[0x0]
8000220e:	58 38       	cp.w	r8,3
80002210:	80 00       	ld.sh	r0,r0[0x0]
80002212:	2c 18       	sub	r8,-63

80002214 <vProducer>:

void vProducer(void *pvParameters)
{	
80002214:	eb cd 40 80 	pushm	r7,lr
80002218:	1a 97       	mov	r7,sp
8000221a:	20 dd       	sub	sp,52
8000221c:	ef 4c ff cc 	st.w	r7[-52],r12
	portTickType xLastWakeTime;
	const portTickType xFreq = TASK_DELAY_MS(1000);
80002220:	e0 68 03 e8 	mov	r8,1000
80002224:	ef 48 ff f8 	st.w	r7[-8],r8
	
	xLastWakeTime = xTaskGetTickCount();
80002228:	f0 1f 00 45 	mcall	8000233c <vProducer+0x128>
8000222c:	18 98       	mov	r8,r12
8000222e:	ef 48 ff f4 	st.w	r7[-12],r8
	
	struct msg message;
	message.id = 0;
80002232:	30 08       	mov	r8,0
80002234:	ef 48 ff e0 	st.w	r7[-32],r8
	//message.data = 0;
	message.timestamp = 0;
80002238:	30 08       	mov	r8,0
8000223a:	ef 48 ff f0 	st.w	r7[-16],r8
	
	struct msg *pMesg = &message;
8000223e:	ee c8 00 20 	sub	r8,r7,32
80002242:	ef 48 ff dc 	st.w	r7[-36],r8
	
	char data[DATALEN] = "hej\n";
80002246:	30 08       	mov	r8,0
80002248:	e0 69 6a 0a 	mov	r9,27146
8000224c:	ea 19 68 65 	orh	r9,0x6865
80002250:	ee e9 ff d0 	st.d	r7[-48],r8
80002254:	30 08       	mov	r8,0
80002256:	ef 58 ff d8 	st.h	r7[-40],r8
	int i = byteCount;
8000225a:	4b a8       	lddpc	r8,80002340 <vProducer+0x12c>
8000225c:	70 08       	ld.w	r8,r8[0x0]
8000225e:	ef 48 ff fc 	st.w	r7[-4],r8
	
	onLED(LED0_BIT_VALUE);
80002262:	fc 1c 08 00 	movh	r12,0x800
80002266:	f0 1f 00 38 	mcall	80002344 <vProducer+0x130>
8000226a:	c0 28       	rjmp	8000226e <vProducer+0x5a>
				//Successfully given back
				//usart_write_line(serialPORT_USART,"PRODUCER2 Semaphore GIVEN\n");
			}
		}
		
	}
8000226c:	d7 03       	nop
	
	onLED(LED0_BIT_VALUE);
	
	while(1)
	{
		if(xSemaphoreTake(xSemaphore, (portTickType)portMAX_DELAY) == pdTRUE)
8000226e:	4b 78       	lddpc	r8,80002348 <vProducer+0x134>
80002270:	70 08       	ld.w	r8,r8[0x0]
80002272:	30 09       	mov	r9,0
80002274:	3f fa       	mov	r10,-1
80002276:	30 0b       	mov	r11,0
80002278:	10 9c       	mov	r12,r8
8000227a:	f0 1f 00 35 	mcall	8000234c <vProducer+0x138>
8000227e:	18 98       	mov	r8,r12
80002280:	58 18       	cp.w	r8,1
80002282:	c2 41       	brne	800022ca <vProducer+0xb6>
		{
			//usart_write_line(serialPORT_USART,"PRODUCER1 Semaphore TAKEN\n");
			if(byteCount == BUFFER_SIZE)
80002284:	4a f8       	lddpc	r8,80002340 <vProducer+0x12c>
80002286:	70 08       	ld.w	r8,r8[0x0]
80002288:	58 a8       	cp.w	r8,10
8000228a:	c1 81       	brne	800022ba <vProducer+0xa6>
			{
				vTaskPrioritySet(NULL, 2);
8000228c:	30 2b       	mov	r11,2
8000228e:	30 0c       	mov	r12,0
80002290:	f0 1f 00 30 	mcall	80002350 <vProducer+0x13c>
				
				offLED(LED0_BIT_VALUE);
80002294:	fc 1c 08 00 	movh	r12,0x800
80002298:	f0 1f 00 2f 	mcall	80002354 <vProducer+0x140>
				if(xSemaphoreGive(xSemaphore) == pdTRUE)
8000229c:	4a b8       	lddpc	r8,80002348 <vProducer+0x134>
8000229e:	70 08       	ld.w	r8,r8[0x0]
800022a0:	30 09       	mov	r9,0
800022a2:	30 0a       	mov	r10,0
800022a4:	30 0b       	mov	r11,0
800022a6:	10 9c       	mov	r12,r8
800022a8:	f0 1f 00 2c 	mcall	80002358 <vProducer+0x144>
				{
					//Successfully given back
					//usart_write_line(serialPORT_USART,"PRODUCER1 Semaphore GIVEN\n");
				}
				vTaskSuspend(NULL);
800022ac:	30 0c       	mov	r12,0
800022ae:	f0 1f 00 2c 	mcall	8000235c <vProducer+0x148>
				vTaskPrioritySet(NULL, 1);
800022b2:	30 1b       	mov	r11,1
800022b4:	30 0c       	mov	r12,0
800022b6:	f0 1f 00 27 	mcall	80002350 <vProducer+0x13c>
			}
			if(xSemaphoreGive(xSemaphore) == pdTRUE)
800022ba:	4a 48       	lddpc	r8,80002348 <vProducer+0x134>
800022bc:	70 08       	ld.w	r8,r8[0x0]
800022be:	30 09       	mov	r9,0
800022c0:	30 0a       	mov	r10,0
800022c2:	30 0b       	mov	r11,0
800022c4:	10 9c       	mov	r12,r8
800022c6:	f0 1f 00 25 	mcall	80002358 <vProducer+0x144>
				//usart_write_line(serialPORT_USART,"PRODUCER1 Semaphore GIVEN\n");
			}
		}
		
		
		strcpy(pMesg->data, data);
800022ca:	ee f8 ff dc 	ld.w	r8,r7[-36]
800022ce:	2f c8       	sub	r8,-4
800022d0:	ee c9 00 30 	sub	r9,r7,48
800022d4:	12 9b       	mov	r11,r9
800022d6:	10 9c       	mov	r12,r8
800022d8:	f0 1f 00 22 	mcall	80002360 <vProducer+0x14c>
		
		xQueueSendToBack(xQHandle, &pMesg, (portTickType)10);
800022dc:	4a 28       	lddpc	r8,80002364 <vProducer+0x150>
800022de:	70 08       	ld.w	r8,r8[0x0]
800022e0:	ee cb 00 24 	sub	r11,r7,36
800022e4:	30 09       	mov	r9,0
800022e6:	30 aa       	mov	r10,10
800022e8:	10 9c       	mov	r12,r8
800022ea:	f0 1f 00 1c 	mcall	80002358 <vProducer+0x144>
		
		if(xSemaphoreTake(xSemaphore, (portTickType)portMAX_DELAY) == pdTRUE)
800022ee:	49 78       	lddpc	r8,80002348 <vProducer+0x134>
800022f0:	70 08       	ld.w	r8,r8[0x0]
800022f2:	30 09       	mov	r9,0
800022f4:	3f fa       	mov	r10,-1
800022f6:	30 0b       	mov	r11,0
800022f8:	10 9c       	mov	r12,r8
800022fa:	f0 1f 00 15 	mcall	8000234c <vProducer+0x138>
800022fe:	18 98       	mov	r8,r12
80002300:	58 18       	cp.w	r8,1
80002302:	cb 51       	brne	8000226c <vProducer+0x58>
		{
			//usart_write_line(serialPORT_USART,"PRODUCER2 Semaphore TAKEN\n");
			byteCount++;
80002304:	48 f8       	lddpc	r8,80002340 <vProducer+0x12c>
80002306:	70 08       	ld.w	r8,r8[0x0]
80002308:	f0 c9 ff ff 	sub	r9,r8,-1
8000230c:	48 d8       	lddpc	r8,80002340 <vProducer+0x12c>
8000230e:	91 09       	st.w	r8[0x0],r9
			
			if(byteCount == 1)
80002310:	48 c8       	lddpc	r8,80002340 <vProducer+0x12c>
80002312:	70 08       	ld.w	r8,r8[0x0]
80002314:	58 18       	cp.w	r8,1
80002316:	c0 a1       	brne	8000232a <vProducer+0x116>
			{
				vTaskResume(xHandleConsumer);
80002318:	49 48       	lddpc	r8,80002368 <vProducer+0x154>
8000231a:	70 08       	ld.w	r8,r8[0x0]
8000231c:	10 9c       	mov	r12,r8
8000231e:	f0 1f 00 14 	mcall	8000236c <vProducer+0x158>
				onLED(LED1_BIT_VALUE);
80002322:	fc 1c 10 00 	movh	r12,0x1000
80002326:	f0 1f 00 08 	mcall	80002344 <vProducer+0x130>
			}
			if(xSemaphoreGive(xSemaphore) == pdTRUE)
8000232a:	48 88       	lddpc	r8,80002348 <vProducer+0x134>
8000232c:	70 08       	ld.w	r8,r8[0x0]
8000232e:	30 09       	mov	r9,0
80002330:	30 0a       	mov	r10,0
80002332:	30 0b       	mov	r11,0
80002334:	10 9c       	mov	r12,r8
80002336:	f0 1f 00 09 	mcall	80002358 <vProducer+0x144>
				//Successfully given back
				//usart_write_line(serialPORT_USART,"PRODUCER2 Semaphore GIVEN\n");
			}
		}
		
	}
8000233a:	c9 ab       	rjmp	8000226e <vProducer+0x5a>
8000233c:	80 00       	ld.sh	r0,r0[0x0]
8000233e:	42 48       	lddsp	r8,sp[0x90]
80002340:	00 00       	add	r0,r0
80002342:	05 30       	ld.ub	r0,r2++
80002344:	80 00       	ld.sh	r0,r0[0x0]
80002346:	21 58       	sub	r8,21
80002348:	00 00       	add	r0,r0
8000234a:	07 a0       	ld.ub	r0,r3[0x2]
8000234c:	80 00       	ld.sh	r0,r0[0x0]
8000234e:	37 70       	mov	r0,119
80002350:	80 00       	ld.sh	r0,r0[0x0]
80002352:	3d 7c       	mov	r12,-41
80002354:	80 00       	ld.sh	r0,r0[0x0]
80002356:	21 76       	sub	r6,23
80002358:	80 00       	ld.sh	r0,r0[0x0]
8000235a:	36 08       	mov	r8,96
8000235c:	80 00       	ld.sh	r0,r0[0x0]
8000235e:	3e c4       	mov	r4,-20
80002360:	80 00       	ld.sh	r0,r0[0x0]
80002362:	50 04       	stdsp	sp[0x0],r4
80002364:	00 00       	add	r0,r0
80002366:	07 94       	ld.ub	r4,r3[0x1]
80002368:	00 00       	add	r0,r0
8000236a:	07 98       	ld.ub	r8,r3[0x1]
8000236c:	80 00       	ld.sh	r0,r0[0x0]
8000236e:	3f dc       	mov	r12,-3

80002370 <vConsumer>:
}

void vConsumer( void *pvParameters )
{
80002370:	eb cd 40 80 	pushm	r7,lr
80002374:	1a 97       	mov	r7,sp
80002376:	20 5d       	sub	sp,20
80002378:	ef 4c ff ec 	st.w	r7[-20],r12
	portTickType xLastWakeTime;
	const portTickType xFreq = TASK_DELAY_MS(10000);
8000237c:	e0 68 27 10 	mov	r8,10000
80002380:	ef 48 ff fc 	st.w	r7[-4],r8
	volatile portTickType elapsed;
	
	struct msg *pMesg;
	
	onLED(LED1_BIT_VALUE);
80002384:	fc 1c 10 00 	movh	r12,0x1000
80002388:	f0 1f 00 35 	mcall	8000245c <vConsumer+0xec>
8000238c:	c0 28       	rjmp	80002390 <vConsumer+0x20>
			{
				//Successfully given back
				//usart_write_line(serialPORT_USART,"CONSUMER2 Semaphore TAKEN\n");
			}
		}
	}
8000238e:	d7 03       	nop
	
	onLED(LED1_BIT_VALUE);
	
	while(1)
	{
		if(xSemaphoreTake(xSemaphore, (portTickType)portMAX_DELAY) == pdTRUE)
80002390:	4b 48       	lddpc	r8,80002460 <vConsumer+0xf0>
80002392:	70 08       	ld.w	r8,r8[0x0]
80002394:	30 09       	mov	r9,0
80002396:	3f fa       	mov	r10,-1
80002398:	30 0b       	mov	r11,0
8000239a:	10 9c       	mov	r12,r8
8000239c:	f0 1f 00 32 	mcall	80002464 <vConsumer+0xf4>
800023a0:	18 98       	mov	r8,r12
800023a2:	58 18       	cp.w	r8,1
800023a4:	c2 41       	brne	800023ec <vConsumer+0x7c>
		{
			//usart_write_line(serialPORT_USART,"CONSUMER1 Semaphore TAKEN\n");
			if(byteCount == 0)
800023a6:	4b 18       	lddpc	r8,80002468 <vConsumer+0xf8>
800023a8:	70 08       	ld.w	r8,r8[0x0]
800023aa:	58 08       	cp.w	r8,0
800023ac:	c1 81       	brne	800023dc <vConsumer+0x6c>
			{
				vTaskPrioritySet(NULL, 2);
800023ae:	30 2b       	mov	r11,2
800023b0:	30 0c       	mov	r12,0
800023b2:	f0 1f 00 2f 	mcall	8000246c <vConsumer+0xfc>
				
				offLED(LED1_BIT_VALUE);
800023b6:	fc 1c 10 00 	movh	r12,0x1000
800023ba:	f0 1f 00 2e 	mcall	80002470 <vConsumer+0x100>
				if(xSemaphoreGive(xSemaphore) == pdTRUE)
800023be:	4a 98       	lddpc	r8,80002460 <vConsumer+0xf0>
800023c0:	70 08       	ld.w	r8,r8[0x0]
800023c2:	30 09       	mov	r9,0
800023c4:	30 0a       	mov	r10,0
800023c6:	30 0b       	mov	r11,0
800023c8:	10 9c       	mov	r12,r8
800023ca:	f0 1f 00 2b 	mcall	80002474 <vConsumer+0x104>
				{
					//Successfully given back
					//usart_write_line(serialPORT_USART,"CONSUMER1 Semaphore GIVEN\n");
				}
				vTaskSuspend(NULL);
800023ce:	30 0c       	mov	r12,0
800023d0:	f0 1f 00 2a 	mcall	80002478 <vConsumer+0x108>
							
				vTaskPrioritySet(NULL, 1);
800023d4:	30 1b       	mov	r11,1
800023d6:	30 0c       	mov	r12,0
800023d8:	f0 1f 00 25 	mcall	8000246c <vConsumer+0xfc>
			}
			if(xSemaphoreGive(xSemaphore) == pdTRUE)
800023dc:	4a 18       	lddpc	r8,80002460 <vConsumer+0xf0>
800023de:	70 08       	ld.w	r8,r8[0x0]
800023e0:	30 09       	mov	r9,0
800023e2:	30 0a       	mov	r10,0
800023e4:	30 0b       	mov	r11,0
800023e6:	10 9c       	mov	r12,r8
800023e8:	f0 1f 00 23 	mcall	80002474 <vConsumer+0x104>
					//Successfully given back
					//usart_write_line(serialPORT_USART,"CONSUMER1 Semaphore GIVEN\n");
			}
		}
			
		xQueueReceive(xQHandle, &pMesg, (portTickType)10);
800023ec:	4a 48       	lddpc	r8,8000247c <vConsumer+0x10c>
800023ee:	70 08       	ld.w	r8,r8[0x0]
800023f0:	ee cb 00 10 	sub	r11,r7,16
800023f4:	30 09       	mov	r9,0
800023f6:	30 aa       	mov	r10,10
800023f8:	10 9c       	mov	r12,r8
800023fa:	f0 1f 00 1b 	mcall	80002464 <vConsumer+0xf4>
		usart_write_line(serialPORT_USART, pMesg->data);
800023fe:	ee f8 ff f0 	ld.w	r8,r7[-16]
80002402:	2f c8       	sub	r8,-4
80002404:	10 9b       	mov	r11,r8
80002406:	fe 7c 18 00 	mov	r12,-59392
8000240a:	f0 1f 00 1e 	mcall	80002480 <vConsumer+0x110>
		
		
		
		if(xSemaphoreTake(xSemaphore, (portTickType)portMAX_DELAY) == pdTRUE)
8000240e:	49 58       	lddpc	r8,80002460 <vConsumer+0xf0>
80002410:	70 08       	ld.w	r8,r8[0x0]
80002412:	30 09       	mov	r9,0
80002414:	3f fa       	mov	r10,-1
80002416:	30 0b       	mov	r11,0
80002418:	10 9c       	mov	r12,r8
8000241a:	f0 1f 00 13 	mcall	80002464 <vConsumer+0xf4>
8000241e:	18 98       	mov	r8,r12
80002420:	58 18       	cp.w	r8,1
80002422:	cb 61       	brne	8000238e <vConsumer+0x1e>
		{
			//usart_write_line(serialPORT_USART,"CONSUMER2 Semaphore TAKEN\n");
			byteCount--;
80002424:	49 18       	lddpc	r8,80002468 <vConsumer+0xf8>
80002426:	70 08       	ld.w	r8,r8[0x0]
80002428:	f0 c9 00 01 	sub	r9,r8,1
8000242c:	48 f8       	lddpc	r8,80002468 <vConsumer+0xf8>
8000242e:	91 09       	st.w	r8[0x0],r9
			
			if(byteCount == BUFFER_SIZE - 1)
80002430:	48 e8       	lddpc	r8,80002468 <vConsumer+0xf8>
80002432:	70 08       	ld.w	r8,r8[0x0]
80002434:	58 98       	cp.w	r8,9
80002436:	c0 a1       	brne	8000244a <vConsumer+0xda>
			{
				vTaskResume(xHandleProducer);
80002438:	49 38       	lddpc	r8,80002484 <vConsumer+0x114>
8000243a:	70 08       	ld.w	r8,r8[0x0]
8000243c:	10 9c       	mov	r12,r8
8000243e:	f0 1f 00 13 	mcall	80002488 <vConsumer+0x118>
				onLED(LED0_BIT_VALUE);
80002442:	fc 1c 08 00 	movh	r12,0x800
80002446:	f0 1f 00 06 	mcall	8000245c <vConsumer+0xec>
			}
			if(xSemaphoreGive(xSemaphore) == pdTRUE)
8000244a:	48 68       	lddpc	r8,80002460 <vConsumer+0xf0>
8000244c:	70 08       	ld.w	r8,r8[0x0]
8000244e:	30 09       	mov	r9,0
80002450:	30 0a       	mov	r10,0
80002452:	30 0b       	mov	r11,0
80002454:	10 9c       	mov	r12,r8
80002456:	f0 1f 00 08 	mcall	80002474 <vConsumer+0x104>
			{
				//Successfully given back
				//usart_write_line(serialPORT_USART,"CONSUMER2 Semaphore TAKEN\n");
			}
		}
	}
8000245a:	c9 bb       	rjmp	80002390 <vConsumer+0x20>
8000245c:	80 00       	ld.sh	r0,r0[0x0]
8000245e:	21 58       	sub	r8,21
80002460:	00 00       	add	r0,r0
80002462:	07 a0       	ld.ub	r0,r3[0x2]
80002464:	80 00       	ld.sh	r0,r0[0x0]
80002466:	37 70       	mov	r0,119
80002468:	00 00       	add	r0,r0
8000246a:	05 30       	ld.ub	r0,r2++
8000246c:	80 00       	ld.sh	r0,r0[0x0]
8000246e:	3d 7c       	mov	r12,-41
80002470:	80 00       	ld.sh	r0,r0[0x0]
80002472:	21 76       	sub	r6,23
80002474:	80 00       	ld.sh	r0,r0[0x0]
80002476:	36 08       	mov	r8,96
80002478:	80 00       	ld.sh	r0,r0[0x0]
8000247a:	3e c4       	mov	r4,-20
8000247c:	00 00       	add	r0,r0
8000247e:	07 94       	ld.ub	r4,r3[0x1]
80002480:	80 00       	ld.sh	r0,r0[0x0]
80002482:	2e 20       	sub	r0,-30
80002484:	00 00       	add	r0,r0
80002486:	07 9c       	ld.ub	r12,r3[0x1]
80002488:	80 00       	ld.sh	r0,r0[0x0]
8000248a:	3f dc       	mov	r12,-3

8000248c <main>:
}

int main(void)
{
8000248c:	eb cd 40 80 	pushm	r7,lr
80002490:	1a 97       	mov	r7,sp
	initLED();
80002492:	f0 1f 00 20 	mcall	80002510 <main+0x84>
	init_usart();
80002496:	f0 1f 00 20 	mcall	80002514 <main+0x88>

	static unsigned char ucParameterToPass ;
	
	vSemaphoreCreateBinary(xSemaphore);
8000249a:	30 0b       	mov	r11,0
8000249c:	30 1c       	mov	r12,1
8000249e:	f0 1f 00 1f 	mcall	80002518 <main+0x8c>
800024a2:	18 99       	mov	r9,r12
800024a4:	49 e8       	lddpc	r8,8000251c <main+0x90>
800024a6:	91 09       	st.w	r8[0x0],r9
800024a8:	49 d8       	lddpc	r8,8000251c <main+0x90>
800024aa:	70 08       	ld.w	r8,r8[0x0]
800024ac:	58 08       	cp.w	r8,0
800024ae:	c0 90       	breq	800024c0 <main+0x34>
800024b0:	49 b8       	lddpc	r8,8000251c <main+0x90>
800024b2:	70 08       	ld.w	r8,r8[0x0]
800024b4:	30 09       	mov	r9,0
800024b6:	30 0a       	mov	r10,0
800024b8:	30 0b       	mov	r11,0
800024ba:	10 9c       	mov	r12,r8
800024bc:	f0 1f 00 19 	mcall	80002520 <main+0x94>
	
	xQHandle = xQueueCreate(10, sizeof(struct msg*));
800024c0:	30 4b       	mov	r11,4
800024c2:	30 ac       	mov	r12,10
800024c4:	f0 1f 00 15 	mcall	80002518 <main+0x8c>
800024c8:	18 99       	mov	r9,r12
800024ca:	49 78       	lddpc	r8,80002524 <main+0x98>
800024cc:	91 09       	st.w	r8[0x0],r9
		//ERROR!
	}
	
	
	// Create the task , store the handle .
	xTaskCreate(	vProducer,
800024ce:	49 7b       	lddpc	r11,80002528 <main+0x9c>
800024d0:	30 08       	mov	r8,0
800024d2:	1a d8       	st.w	--sp,r8
800024d4:	30 08       	mov	r8,0
800024d6:	1a d8       	st.w	--sp,r8
800024d8:	49 58       	lddpc	r8,8000252c <main+0xa0>
800024da:	1a d8       	st.w	--sp,r8
800024dc:	30 18       	mov	r8,1
800024de:	30 09       	mov	r9,0
800024e0:	e0 6a 01 00 	mov	r10,256
800024e4:	49 3c       	lddpc	r12,80002530 <main+0xa4>
800024e6:	f0 1f 00 14 	mcall	80002534 <main+0xa8>
800024ea:	2f dd       	sub	sp,-12
					"vProducer",
					configMINIMAL_STACK_SIZE,
					NULL,
					1,
					&xHandleProducer);
	xTaskCreate(	vConsumer, "vConsumer", configMINIMAL_STACK_SIZE, NULL, 1, &xHandleConsumer);
800024ec:	49 3b       	lddpc	r11,80002538 <main+0xac>
800024ee:	30 08       	mov	r8,0
800024f0:	1a d8       	st.w	--sp,r8
800024f2:	30 08       	mov	r8,0
800024f4:	1a d8       	st.w	--sp,r8
800024f6:	49 28       	lddpc	r8,8000253c <main+0xb0>
800024f8:	1a d8       	st.w	--sp,r8
800024fa:	30 18       	mov	r8,1
800024fc:	30 09       	mov	r9,0
800024fe:	e0 6a 01 00 	mov	r10,256
80002502:	49 0c       	lddpc	r12,80002540 <main+0xb4>
80002504:	f0 1f 00 0c 	mcall	80002534 <main+0xa8>
80002508:	2f dd       	sub	sp,-12
	
	
	
	vTaskStartScheduler();
8000250a:	f0 1f 00 0f 	mcall	80002544 <main+0xb8>

	
	for( ;; )
	{
		
	}
8000250e:	c0 08       	rjmp	8000250e <main+0x82>
80002510:	80 00       	ld.sh	r0,r0[0x0]
80002512:	20 dc       	sub	r12,13
80002514:	80 00       	ld.sh	r0,r0[0x0]
80002516:	21 ac       	sub	r12,26
80002518:	80 00       	ld.sh	r0,r0[0x0]
8000251a:	34 f0       	mov	r0,79
8000251c:	00 00       	add	r0,r0
8000251e:	07 a0       	ld.ub	r0,r3[0x2]
80002520:	80 00       	ld.sh	r0,r0[0x0]
80002522:	36 08       	mov	r8,96
80002524:	00 00       	add	r0,r0
80002526:	07 94       	ld.ub	r4,r3[0x1]
80002528:	80 00       	ld.sh	r0,r0[0x0]
8000252a:	21 94       	sub	r4,25
8000252c:	00 00       	add	r0,r0
8000252e:	07 9c       	ld.ub	r12,r3[0x1]
80002530:	80 00       	ld.sh	r0,r0[0x0]
80002532:	22 14       	sub	r4,33
80002534:	80 00       	ld.sh	r0,r0[0x0]
80002536:	3b b4       	mov	r4,-69
80002538:	80 00       	ld.sh	r0,r0[0x0]
8000253a:	21 a0       	sub	r0,26
8000253c:	00 00       	add	r0,r0
8000253e:	07 98       	ld.ub	r8,r3[0x1]
80002540:	80 00       	ld.sh	r0,r0[0x0]
80002542:	23 70       	sub	r0,55
80002544:	80 00       	ld.sh	r0,r0[0x0]
80002546:	40 a0       	lddsp	r0,sp[0x28]

80002548 <gpio_enable_module>:
80002548:	eb cd 40 80 	pushm	r7,lr
8000254c:	1a 97       	mov	r7,sp
8000254e:	20 4d       	sub	sp,16
80002550:	ef 4c ff f4 	st.w	r7[-12],r12
80002554:	ef 4b ff f0 	st.w	r7[-16],r11
80002558:	30 08       	mov	r8,0
8000255a:	ef 48 ff f8 	st.w	r7[-8],r8
8000255e:	30 08       	mov	r8,0
80002560:	ef 48 ff fc 	st.w	r7[-4],r8
80002564:	c1 c8       	rjmp	8000259c <gpio_enable_module+0x54>
80002566:	ee f8 ff f4 	ld.w	r8,r7[-12]
8000256a:	70 19       	ld.w	r9,r8[0x4]
8000256c:	ee f8 ff f4 	ld.w	r8,r7[-12]
80002570:	70 08       	ld.w	r8,r8[0x0]
80002572:	12 9b       	mov	r11,r9
80002574:	10 9c       	mov	r12,r8
80002576:	f0 1f 00 10 	mcall	800025b4 <gpio_enable_module+0x6c>
8000257a:	18 98       	mov	r8,r12
8000257c:	ee f9 ff f8 	ld.w	r9,r7[-8]
80002580:	f3 e8 10 08 	or	r8,r9,r8
80002584:	ef 48 ff f8 	st.w	r7[-8],r8
80002588:	ee f8 ff f4 	ld.w	r8,r7[-12]
8000258c:	2f 88       	sub	r8,-8
8000258e:	ef 48 ff f4 	st.w	r7[-12],r8
80002592:	ee f8 ff fc 	ld.w	r8,r7[-4]
80002596:	2f f8       	sub	r8,-1
80002598:	ef 48 ff fc 	st.w	r7[-4],r8
8000259c:	ee f9 ff fc 	ld.w	r9,r7[-4]
800025a0:	ee f8 ff f0 	ld.w	r8,r7[-16]
800025a4:	10 39       	cp.w	r9,r8
800025a6:	ce 03       	brcs	80002566 <gpio_enable_module+0x1e>
800025a8:	ee f8 ff f8 	ld.w	r8,r7[-8]
800025ac:	10 9c       	mov	r12,r8
800025ae:	2f cd       	sub	sp,-16
800025b0:	e3 cd 80 80 	ldm	sp++,r7,pc
800025b4:	80 00       	ld.sh	r0,r0[0x0]
800025b6:	25 b8       	sub	r8,91

800025b8 <gpio_enable_module_pin>:
800025b8:	eb cd 40 80 	pushm	r7,lr
800025bc:	1a 97       	mov	r7,sp
800025be:	20 3d       	sub	sp,12
800025c0:	ef 4c ff f8 	st.w	r7[-8],r12
800025c4:	ef 4b ff f4 	st.w	r7[-12],r11
800025c8:	ee f8 ff f8 	ld.w	r8,r7[-8]
800025cc:	a5 98       	lsr	r8,0x5
800025ce:	a9 68       	lsl	r8,0x8
800025d0:	e0 28 f0 00 	sub	r8,61440
800025d4:	ef 48 ff fc 	st.w	r7[-4],r8
800025d8:	ee f8 ff f4 	ld.w	r8,r7[-12]
800025dc:	58 18       	cp.w	r8,1
800025de:	c1 e0       	breq	8000261a <gpio_enable_module_pin+0x62>
800025e0:	c0 63       	brcs	800025ec <gpio_enable_module_pin+0x34>
800025e2:	58 28       	cp.w	r8,2
800025e4:	c3 20       	breq	80002648 <gpio_enable_module_pin+0x90>
800025e6:	58 38       	cp.w	r8,3
800025e8:	c4 70       	breq	80002676 <gpio_enable_module_pin+0xbe>
800025ea:	c5 d8       	rjmp	800026a4 <gpio_enable_module_pin+0xec>
800025ec:	ee f8 ff f8 	ld.w	r8,r7[-8]
800025f0:	f1 d8 c0 05 	bfextu	r8,r8,0x0,0x5
800025f4:	30 19       	mov	r9,1
800025f6:	f2 08 09 48 	lsl	r8,r9,r8
800025fa:	10 99       	mov	r9,r8
800025fc:	ee f8 ff fc 	ld.w	r8,r7[-4]
80002600:	91 69       	st.w	r8[0x18],r9
80002602:	ee f8 ff f8 	ld.w	r8,r7[-8]
80002606:	f1 d8 c0 05 	bfextu	r8,r8,0x0,0x5
8000260a:	30 19       	mov	r9,1
8000260c:	f2 08 09 48 	lsl	r8,r9,r8
80002610:	10 99       	mov	r9,r8
80002612:	ee f8 ff fc 	ld.w	r8,r7[-4]
80002616:	91 a9       	st.w	r8[0x28],r9
80002618:	c4 88       	rjmp	800026a8 <gpio_enable_module_pin+0xf0>
8000261a:	ee f8 ff f8 	ld.w	r8,r7[-8]
8000261e:	f1 d8 c0 05 	bfextu	r8,r8,0x0,0x5
80002622:	30 19       	mov	r9,1
80002624:	f2 08 09 48 	lsl	r8,r9,r8
80002628:	10 99       	mov	r9,r8
8000262a:	ee f8 ff fc 	ld.w	r8,r7[-4]
8000262e:	91 59       	st.w	r8[0x14],r9
80002630:	ee f8 ff f8 	ld.w	r8,r7[-8]
80002634:	f1 d8 c0 05 	bfextu	r8,r8,0x0,0x5
80002638:	30 19       	mov	r9,1
8000263a:	f2 08 09 48 	lsl	r8,r9,r8
8000263e:	10 99       	mov	r9,r8
80002640:	ee f8 ff fc 	ld.w	r8,r7[-4]
80002644:	91 a9       	st.w	r8[0x28],r9
80002646:	c3 18       	rjmp	800026a8 <gpio_enable_module_pin+0xf0>
80002648:	ee f8 ff f8 	ld.w	r8,r7[-8]
8000264c:	f1 d8 c0 05 	bfextu	r8,r8,0x0,0x5
80002650:	30 19       	mov	r9,1
80002652:	f2 08 09 48 	lsl	r8,r9,r8
80002656:	10 99       	mov	r9,r8
80002658:	ee f8 ff fc 	ld.w	r8,r7[-4]
8000265c:	91 69       	st.w	r8[0x18],r9
8000265e:	ee f8 ff f8 	ld.w	r8,r7[-8]
80002662:	f1 d8 c0 05 	bfextu	r8,r8,0x0,0x5
80002666:	30 19       	mov	r9,1
80002668:	f2 08 09 48 	lsl	r8,r9,r8
8000266c:	10 99       	mov	r9,r8
8000266e:	ee f8 ff fc 	ld.w	r8,r7[-4]
80002672:	91 99       	st.w	r8[0x24],r9
80002674:	c1 a8       	rjmp	800026a8 <gpio_enable_module_pin+0xf0>
80002676:	ee f8 ff f8 	ld.w	r8,r7[-8]
8000267a:	f1 d8 c0 05 	bfextu	r8,r8,0x0,0x5
8000267e:	30 19       	mov	r9,1
80002680:	f2 08 09 48 	lsl	r8,r9,r8
80002684:	10 99       	mov	r9,r8
80002686:	ee f8 ff fc 	ld.w	r8,r7[-4]
8000268a:	91 59       	st.w	r8[0x14],r9
8000268c:	ee f8 ff f8 	ld.w	r8,r7[-8]
80002690:	f1 d8 c0 05 	bfextu	r8,r8,0x0,0x5
80002694:	30 19       	mov	r9,1
80002696:	f2 08 09 48 	lsl	r8,r9,r8
8000269a:	10 99       	mov	r9,r8
8000269c:	ee f8 ff fc 	ld.w	r8,r7[-4]
800026a0:	91 99       	st.w	r8[0x24],r9
800026a2:	c0 38       	rjmp	800026a8 <gpio_enable_module_pin+0xf0>
800026a4:	30 18       	mov	r8,1
800026a6:	c0 d8       	rjmp	800026c0 <gpio_enable_module_pin+0x108>
800026a8:	ee f8 ff f8 	ld.w	r8,r7[-8]
800026ac:	f1 d8 c0 05 	bfextu	r8,r8,0x0,0x5
800026b0:	30 19       	mov	r9,1
800026b2:	f2 08 09 48 	lsl	r8,r9,r8
800026b6:	10 99       	mov	r9,r8
800026b8:	ee f8 ff fc 	ld.w	r8,r7[-4]
800026bc:	91 29       	st.w	r8[0x8],r9
800026be:	30 08       	mov	r8,0
800026c0:	10 9c       	mov	r12,r8
800026c2:	2f dd       	sub	sp,-12
800026c4:	e3 cd 80 80 	ldm	sp++,r7,pc

800026c8 <_unhandled_interrupt>:
800026c8:	eb cd 40 80 	pushm	r7,lr
800026cc:	1a 97       	mov	r7,sp
800026ce:	c0 08       	rjmp	800026ce <_unhandled_interrupt+0x6>

800026d0 <_get_interrupt_handler>:
800026d0:	eb cd 40 80 	pushm	r7,lr
800026d4:	1a 97       	mov	r7,sp
800026d6:	20 3d       	sub	sp,12
800026d8:	ef 4c ff f4 	st.w	r7[-12],r12
800026dc:	fe 78 08 00 	mov	r8,-63488
800026e0:	ee f9 ff f4 	ld.w	r9,r7[-12]
800026e4:	f2 09 11 03 	rsub	r9,r9,3
800026e8:	28 09       	sub	r9,-128
800026ea:	f0 09 03 28 	ld.w	r8,r8[r9<<0x2]
800026ee:	ef 48 ff f8 	st.w	r7[-8],r8
800026f2:	fe 78 08 00 	mov	r8,-63488
800026f6:	ee f9 ff f8 	ld.w	r9,r7[-8]
800026fa:	2c 09       	sub	r9,-64
800026fc:	f0 09 03 28 	ld.w	r8,r8[r9<<0x2]
80002700:	ef 48 ff fc 	st.w	r7[-4],r8
80002704:	ee f8 ff fc 	ld.w	r8,r7[-4]
80002708:	58 08       	cp.w	r8,0
8000270a:	c1 30       	breq	80002730 <_get_interrupt_handler+0x60>
8000270c:	ee f9 ff f8 	ld.w	r9,r7[-8]
80002710:	48 b8       	lddpc	r8,8000273c <_get_interrupt_handler+0x6c>
80002712:	a1 79       	lsl	r9,0x1
80002714:	2f f9       	sub	r9,-1
80002716:	f0 09 03 29 	ld.w	r9,r8[r9<<0x2]
8000271a:	ee f8 ff fc 	ld.w	r8,r7[-4]
8000271e:	f0 08 12 00 	clz	r8,r8
80002722:	f0 08 11 1f 	rsub	r8,r8,31
80002726:	a3 68       	lsl	r8,0x2
80002728:	f2 08 00 08 	add	r8,r9,r8
8000272c:	70 08       	ld.w	r8,r8[0x0]
8000272e:	c0 28       	rjmp	80002732 <_get_interrupt_handler+0x62>
80002730:	30 08       	mov	r8,0
80002732:	10 9c       	mov	r12,r8
80002734:	2f dd       	sub	sp,-12
80002736:	e3 cd 80 80 	ldm	sp++,r7,pc
8000273a:	00 00       	add	r0,r0
8000273c:	80 00       	ld.sh	r0,r0[0x0]
8000273e:	58 44       	cp.w	r4,4

80002740 <INTC_init_evba>:
80002740:	eb cd 40 80 	pushm	r7,lr
80002744:	1a 97       	mov	r7,sp
80002746:	48 38       	lddpc	r8,80002750 <INTC_init_evba+0x10>
80002748:	e3 b8 00 01 	mtsr	0x4,r8
8000274c:	e3 cd 80 80 	ldm	sp++,r7,pc
80002750:	80 00       	ld.sh	r0,r0[0x0]
80002752:	56 00       	stdsp	sp[0x180],r0

80002754 <INTC_init_interrupts>:
80002754:	eb cd 40 80 	pushm	r7,lr
80002758:	1a 97       	mov	r7,sp
8000275a:	20 2d       	sub	sp,8
8000275c:	f0 1f 00 1f 	mcall	800027d8 <INTC_init_interrupts+0x84>
80002760:	30 08       	mov	r8,0
80002762:	ef 48 ff f8 	st.w	r7[-8],r8
80002766:	c3 18       	rjmp	800027c8 <INTC_init_interrupts+0x74>
80002768:	30 08       	mov	r8,0
8000276a:	ef 48 ff fc 	st.w	r7[-4],r8
8000276e:	c1 48       	rjmp	80002796 <INTC_init_interrupts+0x42>
80002770:	ee f9 ff f8 	ld.w	r9,r7[-8]
80002774:	49 a8       	lddpc	r8,800027dc <INTC_init_interrupts+0x88>
80002776:	a1 79       	lsl	r9,0x1
80002778:	2f f9       	sub	r9,-1
8000277a:	f0 09 03 29 	ld.w	r9,r8[r9<<0x2]
8000277e:	ee f8 ff fc 	ld.w	r8,r7[-4]
80002782:	a3 68       	lsl	r8,0x2
80002784:	f2 08 00 08 	add	r8,r9,r8
80002788:	49 69       	lddpc	r9,800027e0 <INTC_init_interrupts+0x8c>
8000278a:	91 09       	st.w	r8[0x0],r9
8000278c:	ee f8 ff fc 	ld.w	r8,r7[-4]
80002790:	2f f8       	sub	r8,-1
80002792:	ef 48 ff fc 	st.w	r7[-4],r8
80002796:	ee f9 ff f8 	ld.w	r9,r7[-8]
8000279a:	49 18       	lddpc	r8,800027dc <INTC_init_interrupts+0x88>
8000279c:	f0 09 03 39 	ld.w	r9,r8[r9<<0x3]
800027a0:	ee f8 ff fc 	ld.w	r8,r7[-4]
800027a4:	10 39       	cp.w	r9,r8
800027a6:	fe 9b ff e5 	brhi	80002770 <INTC_init_interrupts+0x1c>
800027aa:	fe 78 08 00 	mov	r8,-63488
800027ae:	ee f9 ff f8 	ld.w	r9,r7[-8]
800027b2:	48 db       	lddpc	r11,800027e4 <INTC_init_interrupts+0x90>
800027b4:	48 da       	lddpc	r10,800027e8 <INTC_init_interrupts+0x94>
800027b6:	f6 0a 01 0a 	sub	r10,r11,r10
800027ba:	f0 09 09 2a 	st.w	r8[r9<<0x2],r10
800027be:	ee f8 ff f8 	ld.w	r8,r7[-8]
800027c2:	2f f8       	sub	r8,-1
800027c4:	ef 48 ff f8 	st.w	r7[-8],r8
800027c8:	ee f8 ff f8 	ld.w	r8,r7[-8]
800027cc:	59 38       	cp.w	r8,19
800027ce:	fe 98 ff cd 	brls	80002768 <INTC_init_interrupts+0x14>
800027d2:	2f ed       	sub	sp,-8
800027d4:	e3 cd 80 80 	ldm	sp++,r7,pc
800027d8:	80 00       	ld.sh	r0,r0[0x0]
800027da:	27 40       	sub	r0,116
800027dc:	80 00       	ld.sh	r0,r0[0x0]
800027de:	58 44       	cp.w	r4,4
800027e0:	80 00       	ld.sh	r0,r0[0x0]
800027e2:	26 c8       	sub	r8,108
800027e4:	80 00       	ld.sh	r0,r0[0x0]
800027e6:	57 04       	stdsp	sp[0x1c0],r4
800027e8:	80 00       	ld.sh	r0,r0[0x0]
800027ea:	56 00       	stdsp	sp[0x180],r0

800027ec <INTC_register_interrupt>:
800027ec:	eb cd 40 80 	pushm	r7,lr
800027f0:	1a 97       	mov	r7,sp
800027f2:	20 4d       	sub	sp,16
800027f4:	ef 4c ff f8 	st.w	r7[-8],r12
800027f8:	ef 4b ff f4 	st.w	r7[-12],r11
800027fc:	ef 4a ff f0 	st.w	r7[-16],r10
80002800:	ee f8 ff f4 	ld.w	r8,r7[-12]
80002804:	a5 98       	lsr	r8,0x5
80002806:	ef 48 ff fc 	st.w	r7[-4],r8
8000280a:	ee f9 ff fc 	ld.w	r9,r7[-4]
8000280e:	4a 78       	lddpc	r8,800028a8 <INTC_register_interrupt+0xbc>
80002810:	a1 79       	lsl	r9,0x1
80002812:	2f f9       	sub	r9,-1
80002814:	f0 09 03 29 	ld.w	r9,r8[r9<<0x2]
80002818:	ee f8 ff f4 	ld.w	r8,r7[-12]
8000281c:	f1 d8 c0 05 	bfextu	r8,r8,0x0,0x5
80002820:	a3 68       	lsl	r8,0x2
80002822:	f2 08 00 08 	add	r8,r9,r8
80002826:	ee f9 ff f8 	ld.w	r9,r7[-8]
8000282a:	91 09       	st.w	r8[0x0],r9
8000282c:	ee f8 ff f0 	ld.w	r8,r7[-16]
80002830:	58 08       	cp.w	r8,0
80002832:	c0 c1       	brne	8000284a <INTC_register_interrupt+0x5e>
80002834:	fe 78 08 00 	mov	r8,-63488
80002838:	ee f9 ff fc 	ld.w	r9,r7[-4]
8000283c:	49 cb       	lddpc	r11,800028ac <INTC_register_interrupt+0xc0>
8000283e:	49 da       	lddpc	r10,800028b0 <INTC_register_interrupt+0xc4>
80002840:	f6 0a 01 0a 	sub	r10,r11,r10
80002844:	f0 09 09 2a 	st.w	r8[r9<<0x2],r10
80002848:	c2 d8       	rjmp	800028a2 <INTC_register_interrupt+0xb6>
8000284a:	ee f8 ff f0 	ld.w	r8,r7[-16]
8000284e:	58 18       	cp.w	r8,1
80002850:	c0 d1       	brne	8000286a <INTC_register_interrupt+0x7e>
80002852:	fe 78 08 00 	mov	r8,-63488
80002856:	ee f9 ff fc 	ld.w	r9,r7[-4]
8000285a:	49 7b       	lddpc	r11,800028b4 <INTC_register_interrupt+0xc8>
8000285c:	49 5a       	lddpc	r10,800028b0 <INTC_register_interrupt+0xc4>
8000285e:	f6 0a 01 0a 	sub	r10,r11,r10
80002862:	bf aa       	sbr	r10,0x1e
80002864:	f0 09 09 2a 	st.w	r8[r9<<0x2],r10
80002868:	c1 d8       	rjmp	800028a2 <INTC_register_interrupt+0xb6>
8000286a:	ee f8 ff f0 	ld.w	r8,r7[-16]
8000286e:	58 28       	cp.w	r8,2
80002870:	c0 d1       	brne	8000288a <INTC_register_interrupt+0x9e>
80002872:	fe 78 08 00 	mov	r8,-63488
80002876:	ee f9 ff fc 	ld.w	r9,r7[-4]
8000287a:	49 0b       	lddpc	r11,800028b8 <INTC_register_interrupt+0xcc>
8000287c:	48 da       	lddpc	r10,800028b0 <INTC_register_interrupt+0xc4>
8000287e:	f6 0a 01 0a 	sub	r10,r11,r10
80002882:	bf ba       	sbr	r10,0x1f
80002884:	f0 09 09 2a 	st.w	r8[r9<<0x2],r10
80002888:	c0 d8       	rjmp	800028a2 <INTC_register_interrupt+0xb6>
8000288a:	fe 78 08 00 	mov	r8,-63488
8000288e:	ee f9 ff fc 	ld.w	r9,r7[-4]
80002892:	48 bb       	lddpc	r11,800028bc <INTC_register_interrupt+0xd0>
80002894:	48 7a       	lddpc	r10,800028b0 <INTC_register_interrupt+0xc4>
80002896:	f6 0a 01 0a 	sub	r10,r11,r10
8000289a:	ea 1a c0 00 	orh	r10,0xc000
8000289e:	f0 09 09 2a 	st.w	r8[r9<<0x2],r10
800028a2:	2f cd       	sub	sp,-16
800028a4:	e3 cd 80 80 	ldm	sp++,r7,pc
800028a8:	80 00       	ld.sh	r0,r0[0x0]
800028aa:	58 44       	cp.w	r4,4
800028ac:	80 00       	ld.sh	r0,r0[0x0]
800028ae:	57 04       	stdsp	sp[0x1c0],r4
800028b0:	80 00       	ld.sh	r0,r0[0x0]
800028b2:	56 00       	stdsp	sp[0x180],r0
800028b4:	80 00       	ld.sh	r0,r0[0x0]
800028b6:	57 12       	stdsp	sp[0x1c4],r2
800028b8:	80 00       	ld.sh	r0,r0[0x0]
800028ba:	57 20       	stdsp	sp[0x1c8],r0
800028bc:	80 00       	ld.sh	r0,r0[0x0]
800028be:	57 2e       	stdsp	sp[0x1c8],lr

800028c0 <pm_set_osc0_mode>:
800028c0:	eb cd 40 80 	pushm	r7,lr
800028c4:	1a 97       	mov	r7,sp
800028c6:	20 3d       	sub	sp,12
800028c8:	ef 4c ff f8 	st.w	r7[-8],r12
800028cc:	ef 4b ff f4 	st.w	r7[-12],r11
800028d0:	ee f8 ff f8 	ld.w	r8,r7[-8]
800028d4:	70 a8       	ld.w	r8,r8[0x28]
800028d6:	30 09       	mov	r9,0
800028d8:	ef 49 ff fc 	st.w	r7[-4],r9
800028dc:	ef 48 ff fc 	st.w	r7[-4],r8
800028e0:	ee f8 ff f4 	ld.w	r8,r7[-12]
800028e4:	5c 58       	castu.b	r8
800028e6:	f1 d8 c0 03 	bfextu	r8,r8,0x0,0x3
800028ea:	f3 d8 c0 08 	bfextu	r9,r8,0x0,0x8
800028ee:	ee f8 ff fc 	ld.w	r8,r7[-4]
800028f2:	f1 d9 d0 03 	bfins	r8,r9,0x0,0x3
800028f6:	ef 48 ff fc 	st.w	r7[-4],r8
800028fa:	ee f9 ff fc 	ld.w	r9,r7[-4]
800028fe:	ee f8 ff f8 	ld.w	r8,r7[-8]
80002902:	91 a9       	st.w	r8[0x28],r9
80002904:	2f dd       	sub	sp,-12
80002906:	e3 cd 80 80 	ldm	sp++,r7,pc
8000290a:	d7 03       	nop

8000290c <pm_enable_osc0_crystal>:
8000290c:	eb cd 40 80 	pushm	r7,lr
80002910:	1a 97       	mov	r7,sp
80002912:	20 2d       	sub	sp,8
80002914:	ef 4c ff fc 	st.w	r7[-4],r12
80002918:	ef 4b ff f8 	st.w	r7[-8],r11
8000291c:	ee f8 ff f8 	ld.w	r8,r7[-8]
80002920:	ec 58 bb 9f 	cp.w	r8,899999
80002924:	e0 88 00 1a 	brls	80002958 <pm_enable_osc0_crystal+0x4c>
80002928:	ee f8 ff f8 	ld.w	r8,r7[-8]
8000292c:	e0 69 c6 bf 	mov	r9,50879
80002930:	ea 19 00 2d 	orh	r9,0x2d
80002934:	12 38       	cp.w	r8,r9
80002936:	e0 88 00 0f 	brls	80002954 <pm_enable_osc0_crystal+0x48>
8000293a:	ee f8 ff f8 	ld.w	r8,r7[-8]
8000293e:	e0 69 11 ff 	mov	r9,4607
80002942:	ea 19 00 7a 	orh	r9,0x7a
80002946:	12 38       	cp.w	r8,r9
80002948:	e0 8b 00 04 	brhi	80002950 <pm_enable_osc0_crystal+0x44>
8000294c:	30 68       	mov	r8,6
8000294e:	c0 28       	rjmp	80002952 <pm_enable_osc0_crystal+0x46>
80002950:	30 78       	mov	r8,7
80002952:	c0 28       	rjmp	80002956 <pm_enable_osc0_crystal+0x4a>
80002954:	30 58       	mov	r8,5
80002956:	c0 28       	rjmp	8000295a <pm_enable_osc0_crystal+0x4e>
80002958:	30 48       	mov	r8,4
8000295a:	10 9b       	mov	r11,r8
8000295c:	ee fc ff fc 	ld.w	r12,r7[-4]
80002960:	f0 1f 00 03 	mcall	8000296c <pm_enable_osc0_crystal+0x60>
80002964:	2f ed       	sub	sp,-8
80002966:	e3 cd 80 80 	ldm	sp++,r7,pc
8000296a:	00 00       	add	r0,r0
8000296c:	80 00       	ld.sh	r0,r0[0x0]
8000296e:	28 c0       	sub	r0,-116

80002970 <pm_enable_clk0>:
80002970:	eb cd 40 80 	pushm	r7,lr
80002974:	1a 97       	mov	r7,sp
80002976:	20 2d       	sub	sp,8
80002978:	ef 4c ff fc 	st.w	r7[-4],r12
8000297c:	ef 4b ff f8 	st.w	r7[-8],r11
80002980:	ee fb ff f8 	ld.w	r11,r7[-8]
80002984:	ee fc ff fc 	ld.w	r12,r7[-4]
80002988:	f0 1f 00 05 	mcall	8000299c <pm_enable_clk0+0x2c>
8000298c:	ee fc ff fc 	ld.w	r12,r7[-4]
80002990:	f0 1f 00 04 	mcall	800029a0 <pm_enable_clk0+0x30>
80002994:	2f ed       	sub	sp,-8
80002996:	e3 cd 80 80 	ldm	sp++,r7,pc
8000299a:	00 00       	add	r0,r0
8000299c:	80 00       	ld.sh	r0,r0[0x0]
8000299e:	29 a4       	sub	r4,-102
800029a0:	80 00       	ld.sh	r0,r0[0x0]
800029a2:	29 fe       	sub	lr,-97

800029a4 <pm_enable_clk0_no_wait>:
800029a4:	eb cd 40 80 	pushm	r7,lr
800029a8:	1a 97       	mov	r7,sp
800029aa:	20 3d       	sub	sp,12
800029ac:	ef 4c ff f8 	st.w	r7[-8],r12
800029b0:	ef 4b ff f4 	st.w	r7[-12],r11
800029b4:	ee f8 ff f8 	ld.w	r8,r7[-8]
800029b8:	70 a8       	ld.w	r8,r8[0x28]
800029ba:	30 09       	mov	r9,0
800029bc:	ef 49 ff fc 	st.w	r7[-4],r9
800029c0:	ef 48 ff fc 	st.w	r7[-4],r8
800029c4:	ee f8 ff f4 	ld.w	r8,r7[-12]
800029c8:	5c 58       	castu.b	r8
800029ca:	f1 d8 c0 03 	bfextu	r8,r8,0x0,0x3
800029ce:	f3 d8 c0 08 	bfextu	r9,r8,0x0,0x8
800029d2:	ee f8 ff fc 	ld.w	r8,r7[-4]
800029d6:	f1 d9 d1 03 	bfins	r8,r9,0x8,0x3
800029da:	ef 48 ff fc 	st.w	r7[-4],r8
800029de:	ee f9 ff fc 	ld.w	r9,r7[-4]
800029e2:	ee f8 ff f8 	ld.w	r8,r7[-8]
800029e6:	91 a9       	st.w	r8[0x28],r9
800029e8:	ee f8 ff f8 	ld.w	r8,r7[-8]
800029ec:	70 08       	ld.w	r8,r8[0x0]
800029ee:	10 99       	mov	r9,r8
800029f0:	a3 a9       	sbr	r9,0x2
800029f2:	ee f8 ff f8 	ld.w	r8,r7[-8]
800029f6:	91 09       	st.w	r8[0x0],r9
800029f8:	2f dd       	sub	sp,-12
800029fa:	e3 cd 80 80 	ldm	sp++,r7,pc

800029fe <pm_wait_for_clk0_ready>:
800029fe:	eb cd 40 80 	pushm	r7,lr
80002a02:	1a 97       	mov	r7,sp
80002a04:	20 1d       	sub	sp,4
80002a06:	ef 4c ff fc 	st.w	r7[-4],r12
80002a0a:	ee f8 ff fc 	ld.w	r8,r7[-4]
80002a0e:	71 58       	ld.w	r8,r8[0x54]
80002a10:	e2 18 00 80 	andl	r8,0x80,COH
80002a14:	cf b0       	breq	80002a0a <pm_wait_for_clk0_ready+0xc>
80002a16:	2f fd       	sub	sp,-4
80002a18:	e3 cd 80 80 	ldm	sp++,r7,pc

80002a1c <pm_switch_to_clock>:
80002a1c:	eb cd 40 80 	pushm	r7,lr
80002a20:	1a 97       	mov	r7,sp
80002a22:	20 3d       	sub	sp,12
80002a24:	ef 4c ff f8 	st.w	r7[-8],r12
80002a28:	ef 4b ff f4 	st.w	r7[-12],r11
80002a2c:	ee f8 ff f8 	ld.w	r8,r7[-8]
80002a30:	70 08       	ld.w	r8,r8[0x0]
80002a32:	30 09       	mov	r9,0
80002a34:	ef 49 ff fc 	st.w	r7[-4],r9
80002a38:	ef 48 ff fc 	st.w	r7[-4],r8
80002a3c:	ee f8 ff f4 	ld.w	r8,r7[-12]
80002a40:	5c 58       	castu.b	r8
80002a42:	f1 d8 c0 02 	bfextu	r8,r8,0x0,0x2
80002a46:	f3 d8 c0 08 	bfextu	r9,r8,0x0,0x8
80002a4a:	ee f8 ff fc 	ld.w	r8,r7[-4]
80002a4e:	f1 d9 d0 02 	bfins	r8,r9,0x0,0x2
80002a52:	ef 48 ff fc 	st.w	r7[-4],r8
80002a56:	ee f9 ff fc 	ld.w	r9,r7[-4]
80002a5a:	ee f8 ff f8 	ld.w	r8,r7[-8]
80002a5e:	91 09       	st.w	r8[0x0],r9
80002a60:	2f dd       	sub	sp,-12
80002a62:	e3 cd 80 80 	ldm	sp++,r7,pc
80002a66:	d7 03       	nop

80002a68 <pm_switch_to_osc0>:
80002a68:	eb cd 40 80 	pushm	r7,lr
80002a6c:	1a 97       	mov	r7,sp
80002a6e:	20 3d       	sub	sp,12
80002a70:	ef 4c ff fc 	st.w	r7[-4],r12
80002a74:	ef 4b ff f8 	st.w	r7[-8],r11
80002a78:	ef 4a ff f4 	st.w	r7[-12],r10
80002a7c:	ee fb ff f8 	ld.w	r11,r7[-8]
80002a80:	ee fc ff fc 	ld.w	r12,r7[-4]
80002a84:	f0 1f 00 08 	mcall	80002aa4 <pm_switch_to_osc0+0x3c>
80002a88:	ee fb ff f4 	ld.w	r11,r7[-12]
80002a8c:	ee fc ff fc 	ld.w	r12,r7[-4]
80002a90:	f0 1f 00 06 	mcall	80002aa8 <pm_switch_to_osc0+0x40>
80002a94:	30 1b       	mov	r11,1
80002a96:	ee fc ff fc 	ld.w	r12,r7[-4]
80002a9a:	f0 1f 00 05 	mcall	80002aac <pm_switch_to_osc0+0x44>
80002a9e:	2f dd       	sub	sp,-12
80002aa0:	e3 cd 80 80 	ldm	sp++,r7,pc
80002aa4:	80 00       	ld.sh	r0,r0[0x0]
80002aa6:	29 0c       	sub	r12,-112
80002aa8:	80 00       	ld.sh	r0,r0[0x0]
80002aaa:	29 70       	sub	r0,-105
80002aac:	80 00       	ld.sh	r0,r0[0x0]
80002aae:	2a 1c       	sub	r12,-95

80002ab0 <cpu_irq_is_enabled_flags>:
80002ab0:	eb cd 40 80 	pushm	r7,lr
80002ab4:	1a 97       	mov	r7,sp
80002ab6:	20 1d       	sub	sp,4
80002ab8:	ef 4c ff fc 	st.w	r7[-4],r12
80002abc:	ee f8 ff fc 	ld.w	r8,r7[-4]
80002ac0:	e6 18 00 01 	andh	r8,0x1,COH
80002ac4:	5f 08       	sreq	r8
80002ac6:	5c 58       	castu.b	r8
80002ac8:	10 9c       	mov	r12,r8
80002aca:	2f fd       	sub	sp,-4
80002acc:	e3 cd 80 80 	ldm	sp++,r7,pc

80002ad0 <usart_set_async_baudrate>:
80002ad0:	eb cd 40 80 	pushm	r7,lr
80002ad4:	1a 97       	mov	r7,sp
80002ad6:	20 7d       	sub	sp,28
80002ad8:	ef 4c ff ec 	st.w	r7[-20],r12
80002adc:	ef 4b ff e8 	st.w	r7[-24],r11
80002ae0:	ef 4a ff e4 	st.w	r7[-28],r10
80002ae4:	ee f8 ff e8 	ld.w	r8,r7[-24]
80002ae8:	f0 09 15 04 	lsl	r9,r8,0x4
80002aec:	ee f8 ff e4 	ld.w	r8,r7[-28]
80002af0:	10 39       	cp.w	r9,r8
80002af2:	e0 8b 00 04 	brhi	80002afa <usart_set_async_baudrate+0x2a>
80002af6:	31 08       	mov	r8,16
80002af8:	c0 28       	rjmp	80002afc <usart_set_async_baudrate+0x2c>
80002afa:	30 88       	mov	r8,8
80002afc:	ef 48 ff f0 	st.w	r7[-16],r8
80002b00:	ee f8 ff e4 	ld.w	r8,r7[-28]
80002b04:	f0 09 15 03 	lsl	r9,r8,0x3
80002b08:	ee fa ff f0 	ld.w	r10,r7[-16]
80002b0c:	ee f8 ff e8 	ld.w	r8,r7[-24]
80002b10:	f4 08 02 48 	mul	r8,r10,r8
80002b14:	a1 98       	lsr	r8,0x1
80002b16:	f2 08 00 08 	add	r8,r9,r8
80002b1a:	ee fa ff f0 	ld.w	r10,r7[-16]
80002b1e:	ee f9 ff e8 	ld.w	r9,r7[-24]
80002b22:	f4 09 02 49 	mul	r9,r10,r9
80002b26:	f0 09 0d 08 	divu	r8,r8,r9
80002b2a:	ef 48 ff f4 	st.w	r7[-12],r8
80002b2e:	ee f8 ff f4 	ld.w	r8,r7[-12]
80002b32:	a3 98       	lsr	r8,0x3
80002b34:	ef 48 ff f8 	st.w	r7[-8],r8
80002b38:	ee f8 ff f4 	ld.w	r8,r7[-12]
80002b3c:	f1 d8 c0 03 	bfextu	r8,r8,0x0,0x3
80002b40:	ef 48 ff fc 	st.w	r7[-4],r8
80002b44:	ee f8 ff f8 	ld.w	r8,r7[-8]
80002b48:	58 08       	cp.w	r8,0
80002b4a:	c0 70       	breq	80002b58 <usart_set_async_baudrate+0x88>
80002b4c:	ee f8 ff f8 	ld.w	r8,r7[-8]
80002b50:	e0 48 ff ff 	cp.w	r8,65535
80002b54:	e0 88 00 04 	brls	80002b5c <usart_set_async_baudrate+0x8c>
80002b58:	30 18       	mov	r8,1
80002b5a:	c2 08       	rjmp	80002b9a <usart_set_async_baudrate+0xca>
80002b5c:	ee f8 ff ec 	ld.w	r8,r7[-20]
80002b60:	70 18       	ld.w	r8,r8[0x4]
80002b62:	10 99       	mov	r9,r8
80002b64:	e4 19 ff f7 	andh	r9,0xfff7
80002b68:	e0 19 fe cf 	andl	r9,0xfecf
80002b6c:	ee f8 ff f0 	ld.w	r8,r7[-16]
80002b70:	59 08       	cp.w	r8,16
80002b72:	c0 40       	breq	80002b7a <usart_set_async_baudrate+0xaa>
80002b74:	e8 68 00 00 	mov	r8,524288
80002b78:	c0 28       	rjmp	80002b7c <usart_set_async_baudrate+0xac>
80002b7a:	30 08       	mov	r8,0
80002b7c:	10 49       	or	r9,r8
80002b7e:	ee f8 ff ec 	ld.w	r8,r7[-20]
80002b82:	91 19       	st.w	r8[0x4],r9
80002b84:	ee f8 ff fc 	ld.w	r8,r7[-4]
80002b88:	f0 09 15 10 	lsl	r9,r8,0x10
80002b8c:	ee f8 ff f8 	ld.w	r8,r7[-8]
80002b90:	10 49       	or	r9,r8
80002b92:	ee f8 ff ec 	ld.w	r8,r7[-20]
80002b96:	91 89       	st.w	r8[0x20],r9
80002b98:	30 08       	mov	r8,0
80002b9a:	10 9c       	mov	r12,r8
80002b9c:	2f 9d       	sub	sp,-28
80002b9e:	e3 cd 80 80 	ldm	sp++,r7,pc
80002ba2:	d7 03       	nop

80002ba4 <usart_reset>:
80002ba4:	eb cd 40 80 	pushm	r7,lr
80002ba8:	1a 97       	mov	r7,sp
80002baa:	20 2d       	sub	sp,8
80002bac:	ef 4c ff f8 	st.w	r7[-8],r12
80002bb0:	e1 b8 00 00 	mfsr	r8,0x0
80002bb4:	10 9c       	mov	r12,r8
80002bb6:	f0 1f 00 18 	mcall	80002c14 <usart_reset+0x70>
80002bba:	18 98       	mov	r8,r12
80002bbc:	ef 68 ff ff 	st.b	r7[-1],r8
80002bc0:	ef 39 ff ff 	ld.ub	r9,r7[-1]
80002bc4:	30 08       	mov	r8,0
80002bc6:	f0 09 18 00 	cp.b	r9,r8
80002bca:	c0 20       	breq	80002bce <usart_reset+0x2a>
80002bcc:	d3 03       	ssrf	0x10
80002bce:	ee f8 ff f8 	ld.w	r8,r7[-8]
80002bd2:	3f f9       	mov	r9,-1
80002bd4:	91 39       	st.w	r8[0xc],r9
80002bd6:	ee f8 ff f8 	ld.w	r8,r7[-8]
80002bda:	70 58       	ld.w	r8,r8[0x14]
80002bdc:	ef 39 ff ff 	ld.ub	r9,r7[-1]
80002be0:	30 08       	mov	r8,0
80002be2:	f0 09 18 00 	cp.b	r9,r8
80002be6:	c0 20       	breq	80002bea <usart_reset+0x46>
80002be8:	d5 03       	csrf	0x10
80002bea:	ee f8 ff f8 	ld.w	r8,r7[-8]
80002bee:	30 09       	mov	r9,0
80002bf0:	91 19       	st.w	r8[0x4],r9
80002bf2:	ee f8 ff f8 	ld.w	r8,r7[-8]
80002bf6:	30 09       	mov	r9,0
80002bf8:	91 99       	st.w	r8[0x24],r9
80002bfa:	ee f8 ff f8 	ld.w	r8,r7[-8]
80002bfe:	30 09       	mov	r9,0
80002c00:	91 a9       	st.w	r8[0x28],r9
80002c02:	ee f8 ff f8 	ld.w	r8,r7[-8]
80002c06:	ea 69 61 0c 	mov	r9,680204
80002c0a:	91 09       	st.w	r8[0x0],r9
80002c0c:	2f ed       	sub	sp,-8
80002c0e:	e3 cd 80 80 	ldm	sp++,r7,pc
80002c12:	00 00       	add	r0,r0
80002c14:	80 00       	ld.sh	r0,r0[0x0]
80002c16:	2a b0       	sub	r0,-85

80002c18 <usart_init_rs232>:
80002c18:	eb cd 40 80 	pushm	r7,lr
80002c1c:	1a 97       	mov	r7,sp
80002c1e:	20 3d       	sub	sp,12
80002c20:	ef 4c ff fc 	st.w	r7[-4],r12
80002c24:	ef 4b ff f8 	st.w	r7[-8],r11
80002c28:	ef 4a ff f4 	st.w	r7[-12],r10
80002c2c:	ee fc ff fc 	ld.w	r12,r7[-4]
80002c30:	f0 1f 00 54 	mcall	80002d80 <usart_init_rs232+0x168>
80002c34:	ee f8 ff f8 	ld.w	r8,r7[-8]
80002c38:	58 08       	cp.w	r8,0
80002c3a:	c3 90       	breq	80002cac <usart_init_rs232+0x94>
80002c3c:	ee f8 ff f8 	ld.w	r8,r7[-8]
80002c40:	11 c9       	ld.ub	r9,r8[0x4]
80002c42:	30 48       	mov	r8,4
80002c44:	f0 09 18 00 	cp.b	r9,r8
80002c48:	e0 88 00 32 	brls	80002cac <usart_init_rs232+0x94>
80002c4c:	ee f8 ff f8 	ld.w	r8,r7[-8]
80002c50:	11 c9       	ld.ub	r9,r8[0x4]
80002c52:	30 98       	mov	r8,9
80002c54:	f0 09 18 00 	cp.b	r9,r8
80002c58:	e0 8b 00 2a 	brhi	80002cac <usart_init_rs232+0x94>
80002c5c:	ee f8 ff f8 	ld.w	r8,r7[-8]
80002c60:	11 d9       	ld.ub	r9,r8[0x5]
80002c62:	30 78       	mov	r8,7
80002c64:	f0 09 18 00 	cp.b	r9,r8
80002c68:	e0 8b 00 22 	brhi	80002cac <usart_init_rs232+0x94>
80002c6c:	ee f8 ff f8 	ld.w	r8,r7[-8]
80002c70:	90 39       	ld.sh	r9,r8[0x6]
80002c72:	e0 68 01 01 	mov	r8,257
80002c76:	f0 09 19 00 	cp.h	r9,r8
80002c7a:	e0 8b 00 19 	brhi	80002cac <usart_init_rs232+0x94>
80002c7e:	ee f8 ff f8 	ld.w	r8,r7[-8]
80002c82:	f1 39 00 08 	ld.ub	r9,r8[8]
80002c86:	30 38       	mov	r8,3
80002c88:	f0 09 18 00 	cp.b	r9,r8
80002c8c:	e0 8b 00 10 	brhi	80002cac <usart_init_rs232+0x94>
80002c90:	ee f9 ff f4 	ld.w	r9,r7[-12]
80002c94:	ee f8 ff f8 	ld.w	r8,r7[-8]
80002c98:	70 08       	ld.w	r8,r8[0x0]
80002c9a:	12 9a       	mov	r10,r9
80002c9c:	10 9b       	mov	r11,r8
80002c9e:	ee fc ff fc 	ld.w	r12,r7[-4]
80002ca2:	f0 1f 00 39 	mcall	80002d84 <usart_init_rs232+0x16c>
80002ca6:	18 98       	mov	r8,r12
80002ca8:	58 18       	cp.w	r8,1
80002caa:	c0 31       	brne	80002cb0 <usart_init_rs232+0x98>
80002cac:	30 18       	mov	r8,1
80002cae:	c6 48       	rjmp	80002d76 <usart_init_rs232+0x15e>
80002cb0:	ee f8 ff f8 	ld.w	r8,r7[-8]
80002cb4:	11 c9       	ld.ub	r9,r8[0x4]
80002cb6:	30 98       	mov	r8,9
80002cb8:	f0 09 18 00 	cp.b	r9,r8
80002cbc:	c0 a1       	brne	80002cd0 <usart_init_rs232+0xb8>
80002cbe:	ee f8 ff fc 	ld.w	r8,r7[-4]
80002cc2:	70 18       	ld.w	r8,r8[0x4]
80002cc4:	10 99       	mov	r9,r8
80002cc6:	b1 b9       	sbr	r9,0x11
80002cc8:	ee f8 ff fc 	ld.w	r8,r7[-4]
80002ccc:	91 19       	st.w	r8[0x4],r9
80002cce:	c0 d8       	rjmp	80002ce8 <usart_init_rs232+0xd0>
80002cd0:	ee f8 ff fc 	ld.w	r8,r7[-4]
80002cd4:	70 19       	ld.w	r9,r8[0x4]
80002cd6:	ee f8 ff f8 	ld.w	r8,r7[-8]
80002cda:	11 c8       	ld.ub	r8,r8[0x4]
80002cdc:	20 58       	sub	r8,5
80002cde:	a7 68       	lsl	r8,0x6
80002ce0:	10 49       	or	r9,r8
80002ce2:	ee f8 ff fc 	ld.w	r8,r7[-4]
80002ce6:	91 19       	st.w	r8[0x4],r9
80002ce8:	ee f8 ff fc 	ld.w	r8,r7[-4]
80002cec:	70 19       	ld.w	r9,r8[0x4]
80002cee:	ee f8 ff f8 	ld.w	r8,r7[-8]
80002cf2:	11 d8       	ld.ub	r8,r8[0x5]
80002cf4:	f0 0a 15 09 	lsl	r10,r8,0x9
80002cf8:	ee f8 ff f8 	ld.w	r8,r7[-8]
80002cfc:	f1 38 00 08 	ld.ub	r8,r8[8]
80002d00:	af 68       	lsl	r8,0xe
80002d02:	f5 e8 10 08 	or	r8,r10,r8
80002d06:	10 49       	or	r9,r8
80002d08:	ee f8 ff fc 	ld.w	r8,r7[-4]
80002d0c:	91 19       	st.w	r8[0x4],r9
80002d0e:	ee f8 ff f8 	ld.w	r8,r7[-8]
80002d12:	90 39       	ld.sh	r9,r8[0x6]
80002d14:	30 28       	mov	r8,2
80002d16:	f0 09 19 00 	cp.h	r9,r8
80002d1a:	e0 88 00 14 	brls	80002d42 <usart_init_rs232+0x12a>
80002d1e:	ee f8 ff fc 	ld.w	r8,r7[-4]
80002d22:	70 18       	ld.w	r8,r8[0x4]
80002d24:	10 99       	mov	r9,r8
80002d26:	ad b9       	sbr	r9,0xd
80002d28:	ee f8 ff fc 	ld.w	r8,r7[-4]
80002d2c:	91 19       	st.w	r8[0x4],r9
80002d2e:	ee f8 ff f8 	ld.w	r8,r7[-8]
80002d32:	90 38       	ld.sh	r8,r8[0x6]
80002d34:	5c 78       	castu.h	r8
80002d36:	20 28       	sub	r8,2
80002d38:	10 99       	mov	r9,r8
80002d3a:	ee f8 ff fc 	ld.w	r8,r7[-4]
80002d3e:	91 a9       	st.w	r8[0x28],r9
80002d40:	c0 d8       	rjmp	80002d5a <usart_init_rs232+0x142>
80002d42:	ee f8 ff fc 	ld.w	r8,r7[-4]
80002d46:	70 19       	ld.w	r9,r8[0x4]
80002d48:	ee f8 ff f8 	ld.w	r8,r7[-8]
80002d4c:	90 38       	ld.sh	r8,r8[0x6]
80002d4e:	5c 78       	castu.h	r8
80002d50:	ad 68       	lsl	r8,0xc
80002d52:	10 49       	or	r9,r8
80002d54:	ee f8 ff fc 	ld.w	r8,r7[-4]
80002d58:	91 19       	st.w	r8[0x4],r9
80002d5a:	ee f8 ff fc 	ld.w	r8,r7[-4]
80002d5e:	70 18       	ld.w	r8,r8[0x4]
80002d60:	10 99       	mov	r9,r8
80002d62:	e0 19 ff f0 	andl	r9,0xfff0
80002d66:	ee f8 ff fc 	ld.w	r8,r7[-4]
80002d6a:	91 19       	st.w	r8[0x4],r9
80002d6c:	ee f8 ff fc 	ld.w	r8,r7[-4]
80002d70:	35 09       	mov	r9,80
80002d72:	91 09       	st.w	r8[0x0],r9
80002d74:	30 08       	mov	r8,0
80002d76:	10 9c       	mov	r12,r8
80002d78:	2f dd       	sub	sp,-12
80002d7a:	e3 cd 80 80 	ldm	sp++,r7,pc
80002d7e:	00 00       	add	r0,r0
80002d80:	80 00       	ld.sh	r0,r0[0x0]
80002d82:	2b a4       	sub	r4,-70
80002d84:	80 00       	ld.sh	r0,r0[0x0]
80002d86:	2a d0       	sub	r0,-83

80002d88 <usart_write_char>:
80002d88:	eb cd 40 80 	pushm	r7,lr
80002d8c:	1a 97       	mov	r7,sp
80002d8e:	20 3d       	sub	sp,12
80002d90:	ef 4c ff f8 	st.w	r7[-8],r12
80002d94:	ef 4b ff f4 	st.w	r7[-12],r11
80002d98:	ee f8 ff f8 	ld.w	r8,r7[-8]
80002d9c:	ef 48 ff fc 	st.w	r7[-4],r8
80002da0:	ee f8 ff fc 	ld.w	r8,r7[-4]
80002da4:	70 58       	ld.w	r8,r8[0x14]
80002da6:	e2 18 00 02 	andl	r8,0x2,COH
80002daa:	5f 18       	srne	r8
80002dac:	58 08       	cp.w	r8,0
80002dae:	c0 a0       	breq	80002dc2 <usart_write_char+0x3a>
80002db0:	ee f8 ff f4 	ld.w	r8,r7[-12]
80002db4:	f3 d8 c0 09 	bfextu	r9,r8,0x0,0x9
80002db8:	ee f8 ff f8 	ld.w	r8,r7[-8]
80002dbc:	91 79       	st.w	r8[0x1c],r9
80002dbe:	30 08       	mov	r8,0
80002dc0:	c0 28       	rjmp	80002dc4 <usart_write_char+0x3c>
80002dc2:	30 28       	mov	r8,2
80002dc4:	10 9c       	mov	r12,r8
80002dc6:	2f dd       	sub	sp,-12
80002dc8:	e3 cd 80 80 	ldm	sp++,r7,pc

80002dcc <usart_putchar>:
80002dcc:	eb cd 40 80 	pushm	r7,lr
80002dd0:	1a 97       	mov	r7,sp
80002dd2:	20 3d       	sub	sp,12
80002dd4:	ef 4c ff f8 	st.w	r7[-8],r12
80002dd8:	ef 4b ff f4 	st.w	r7[-12],r11
80002ddc:	e0 68 27 10 	mov	r8,10000
80002de0:	ef 48 ff fc 	st.w	r7[-4],r8
80002de4:	ee f8 ff fc 	ld.w	r8,r7[-4]
80002de8:	58 08       	cp.w	r8,0
80002dea:	5f 08       	sreq	r8
80002dec:	5c 58       	castu.b	r8
80002dee:	ee f9 ff fc 	ld.w	r9,r7[-4]
80002df2:	20 19       	sub	r9,1
80002df4:	ef 49 ff fc 	st.w	r7[-4],r9
80002df8:	58 08       	cp.w	r8,0
80002dfa:	c0 30       	breq	80002e00 <usart_putchar+0x34>
80002dfc:	3f f8       	mov	r8,-1
80002dfe:	c0 b8       	rjmp	80002e14 <usart_putchar+0x48>
80002e00:	ee fb ff f4 	ld.w	r11,r7[-12]
80002e04:	ee fc ff f8 	ld.w	r12,r7[-8]
80002e08:	f0 1f 00 05 	mcall	80002e1c <usart_putchar+0x50>
80002e0c:	18 98       	mov	r8,r12
80002e0e:	58 08       	cp.w	r8,0
80002e10:	ce a1       	brne	80002de4 <usart_putchar+0x18>
80002e12:	30 08       	mov	r8,0
80002e14:	10 9c       	mov	r12,r8
80002e16:	2f dd       	sub	sp,-12
80002e18:	e3 cd 80 80 	ldm	sp++,r7,pc
80002e1c:	80 00       	ld.sh	r0,r0[0x0]
80002e1e:	2d 88       	sub	r8,-40

80002e20 <usart_write_line>:
80002e20:	eb cd 40 80 	pushm	r7,lr
80002e24:	1a 97       	mov	r7,sp
80002e26:	20 2d       	sub	sp,8
80002e28:	ef 4c ff fc 	st.w	r7[-4],r12
80002e2c:	ef 4b ff f8 	st.w	r7[-8],r11
80002e30:	c0 e8       	rjmp	80002e4c <usart_write_line+0x2c>
80002e32:	ee f8 ff f8 	ld.w	r8,r7[-8]
80002e36:	11 88       	ld.ub	r8,r8[0x0]
80002e38:	ee f9 ff f8 	ld.w	r9,r7[-8]
80002e3c:	2f f9       	sub	r9,-1
80002e3e:	ef 49 ff f8 	st.w	r7[-8],r9
80002e42:	10 9b       	mov	r11,r8
80002e44:	ee fc ff fc 	ld.w	r12,r7[-4]
80002e48:	f0 1f 00 05 	mcall	80002e5c <usart_write_line+0x3c>
80002e4c:	ee f8 ff f8 	ld.w	r8,r7[-8]
80002e50:	11 88       	ld.ub	r8,r8[0x0]
80002e52:	58 08       	cp.w	r8,0
80002e54:	ce f1       	brne	80002e32 <usart_write_line+0x12>
80002e56:	2f ed       	sub	sp,-8
80002e58:	e3 cd 80 80 	ldm	sp++,r7,pc
80002e5c:	80 00       	ld.sh	r0,r0[0x0]
80002e5e:	2d cc       	sub	r12,-36

80002e60 <vListInitialise>:
80002e60:	eb cd 40 80 	pushm	r7,lr
80002e64:	1a 97       	mov	r7,sp
80002e66:	20 1d       	sub	sp,4
80002e68:	ef 4c ff fc 	st.w	r7[-4],r12
80002e6c:	ee f8 ff fc 	ld.w	r8,r7[-4]
80002e70:	2f 88       	sub	r8,-8
80002e72:	10 99       	mov	r9,r8
80002e74:	ee f8 ff fc 	ld.w	r8,r7[-4]
80002e78:	91 19       	st.w	r8[0x4],r9
80002e7a:	ee f8 ff fc 	ld.w	r8,r7[-4]
80002e7e:	3f f9       	mov	r9,-1
80002e80:	91 29       	st.w	r8[0x8],r9
80002e82:	ee f8 ff fc 	ld.w	r8,r7[-4]
80002e86:	2f 88       	sub	r8,-8
80002e88:	10 99       	mov	r9,r8
80002e8a:	ee f8 ff fc 	ld.w	r8,r7[-4]
80002e8e:	91 39       	st.w	r8[0xc],r9
80002e90:	ee f8 ff fc 	ld.w	r8,r7[-4]
80002e94:	2f 88       	sub	r8,-8
80002e96:	10 99       	mov	r9,r8
80002e98:	ee f8 ff fc 	ld.w	r8,r7[-4]
80002e9c:	91 49       	st.w	r8[0x10],r9
80002e9e:	ee f8 ff fc 	ld.w	r8,r7[-4]
80002ea2:	30 09       	mov	r9,0
80002ea4:	91 09       	st.w	r8[0x0],r9
80002ea6:	2f fd       	sub	sp,-4
80002ea8:	e3 cd 80 80 	ldm	sp++,r7,pc

80002eac <vListInitialiseItem>:
80002eac:	eb cd 40 80 	pushm	r7,lr
80002eb0:	1a 97       	mov	r7,sp
80002eb2:	20 1d       	sub	sp,4
80002eb4:	ef 4c ff fc 	st.w	r7[-4],r12
80002eb8:	ee f8 ff fc 	ld.w	r8,r7[-4]
80002ebc:	30 09       	mov	r9,0
80002ebe:	91 49       	st.w	r8[0x10],r9
80002ec0:	2f fd       	sub	sp,-4
80002ec2:	e3 cd 80 80 	ldm	sp++,r7,pc

80002ec6 <vListInsertEnd>:
80002ec6:	eb cd 40 80 	pushm	r7,lr
80002eca:	1a 97       	mov	r7,sp
80002ecc:	20 3d       	sub	sp,12
80002ece:	ef 4c ff f8 	st.w	r7[-8],r12
80002ed2:	ef 4b ff f4 	st.w	r7[-12],r11
80002ed6:	ee f8 ff f8 	ld.w	r8,r7[-8]
80002eda:	70 18       	ld.w	r8,r8[0x4]
80002edc:	ef 48 ff fc 	st.w	r7[-4],r8
80002ee0:	ee f8 ff fc 	ld.w	r8,r7[-4]
80002ee4:	70 19       	ld.w	r9,r8[0x4]
80002ee6:	ee f8 ff f4 	ld.w	r8,r7[-12]
80002eea:	91 19       	st.w	r8[0x4],r9
80002eec:	ee f8 ff f8 	ld.w	r8,r7[-8]
80002ef0:	70 19       	ld.w	r9,r8[0x4]
80002ef2:	ee f8 ff f4 	ld.w	r8,r7[-12]
80002ef6:	91 29       	st.w	r8[0x8],r9
80002ef8:	ee f8 ff fc 	ld.w	r8,r7[-4]
80002efc:	70 18       	ld.w	r8,r8[0x4]
80002efe:	ee f9 ff f4 	ld.w	r9,r7[-12]
80002f02:	91 29       	st.w	r8[0x8],r9
80002f04:	ee f9 ff f4 	ld.w	r9,r7[-12]
80002f08:	ee f8 ff fc 	ld.w	r8,r7[-4]
80002f0c:	91 19       	st.w	r8[0x4],r9
80002f0e:	ee f9 ff f4 	ld.w	r9,r7[-12]
80002f12:	ee f8 ff f8 	ld.w	r8,r7[-8]
80002f16:	91 19       	st.w	r8[0x4],r9
80002f18:	ee f8 ff f4 	ld.w	r8,r7[-12]
80002f1c:	ee f9 ff f8 	ld.w	r9,r7[-8]
80002f20:	91 49       	st.w	r8[0x10],r9
80002f22:	ee f8 ff f8 	ld.w	r8,r7[-8]
80002f26:	70 08       	ld.w	r8,r8[0x0]
80002f28:	f0 c9 ff ff 	sub	r9,r8,-1
80002f2c:	ee f8 ff f8 	ld.w	r8,r7[-8]
80002f30:	91 09       	st.w	r8[0x0],r9
80002f32:	2f dd       	sub	sp,-12
80002f34:	e3 cd 80 80 	ldm	sp++,r7,pc

80002f38 <vListInsert>:
80002f38:	eb cd 40 80 	pushm	r7,lr
80002f3c:	1a 97       	mov	r7,sp
80002f3e:	20 4d       	sub	sp,16
80002f40:	ef 4c ff f4 	st.w	r7[-12],r12
80002f44:	ef 4b ff f0 	st.w	r7[-16],r11
80002f48:	ee f8 ff f0 	ld.w	r8,r7[-16]
80002f4c:	70 08       	ld.w	r8,r8[0x0]
80002f4e:	ef 48 ff fc 	st.w	r7[-4],r8
80002f52:	ee f8 ff fc 	ld.w	r8,r7[-4]
80002f56:	5b f8       	cp.w	r8,-1
80002f58:	c0 71       	brne	80002f66 <vListInsert+0x2e>
80002f5a:	ee f8 ff f4 	ld.w	r8,r7[-12]
80002f5e:	70 48       	ld.w	r8,r8[0x10]
80002f60:	ef 48 ff f8 	st.w	r7[-8],r8
80002f64:	c1 58       	rjmp	80002f8e <vListInsert+0x56>
80002f66:	ee f8 ff f4 	ld.w	r8,r7[-12]
80002f6a:	2f 88       	sub	r8,-8
80002f6c:	ef 48 ff f8 	st.w	r7[-8],r8
80002f70:	c0 68       	rjmp	80002f7c <vListInsert+0x44>
80002f72:	ee f8 ff f8 	ld.w	r8,r7[-8]
80002f76:	70 18       	ld.w	r8,r8[0x4]
80002f78:	ef 48 ff f8 	st.w	r7[-8],r8
80002f7c:	ee f8 ff f8 	ld.w	r8,r7[-8]
80002f80:	70 18       	ld.w	r8,r8[0x4]
80002f82:	70 09       	ld.w	r9,r8[0x0]
80002f84:	ee f8 ff fc 	ld.w	r8,r7[-4]
80002f88:	10 39       	cp.w	r9,r8
80002f8a:	fe 98 ff f4 	brls	80002f72 <vListInsert+0x3a>
80002f8e:	ee f8 ff f8 	ld.w	r8,r7[-8]
80002f92:	70 19       	ld.w	r9,r8[0x4]
80002f94:	ee f8 ff f0 	ld.w	r8,r7[-16]
80002f98:	91 19       	st.w	r8[0x4],r9
80002f9a:	ee f8 ff f0 	ld.w	r8,r7[-16]
80002f9e:	70 18       	ld.w	r8,r8[0x4]
80002fa0:	ee f9 ff f0 	ld.w	r9,r7[-16]
80002fa4:	91 29       	st.w	r8[0x8],r9
80002fa6:	ee f8 ff f0 	ld.w	r8,r7[-16]
80002faa:	ee f9 ff f8 	ld.w	r9,r7[-8]
80002fae:	91 29       	st.w	r8[0x8],r9
80002fb0:	ee f9 ff f0 	ld.w	r9,r7[-16]
80002fb4:	ee f8 ff f8 	ld.w	r8,r7[-8]
80002fb8:	91 19       	st.w	r8[0x4],r9
80002fba:	ee f8 ff f0 	ld.w	r8,r7[-16]
80002fbe:	ee f9 ff f4 	ld.w	r9,r7[-12]
80002fc2:	91 49       	st.w	r8[0x10],r9
80002fc4:	ee f8 ff f4 	ld.w	r8,r7[-12]
80002fc8:	70 08       	ld.w	r8,r8[0x0]
80002fca:	f0 c9 ff ff 	sub	r9,r8,-1
80002fce:	ee f8 ff f4 	ld.w	r8,r7[-12]
80002fd2:	91 09       	st.w	r8[0x0],r9
80002fd4:	2f cd       	sub	sp,-16
80002fd6:	e3 cd 80 80 	ldm	sp++,r7,pc

80002fda <vListRemove>:
80002fda:	eb cd 40 80 	pushm	r7,lr
80002fde:	1a 97       	mov	r7,sp
80002fe0:	20 2d       	sub	sp,8
80002fe2:	ef 4c ff f8 	st.w	r7[-8],r12
80002fe6:	ee f8 ff f8 	ld.w	r8,r7[-8]
80002fea:	70 18       	ld.w	r8,r8[0x4]
80002fec:	ee f9 ff f8 	ld.w	r9,r7[-8]
80002ff0:	72 29       	ld.w	r9,r9[0x8]
80002ff2:	91 29       	st.w	r8[0x8],r9
80002ff4:	ee f8 ff f8 	ld.w	r8,r7[-8]
80002ff8:	70 28       	ld.w	r8,r8[0x8]
80002ffa:	ee f9 ff f8 	ld.w	r9,r7[-8]
80002ffe:	72 19       	ld.w	r9,r9[0x4]
80003000:	91 19       	st.w	r8[0x4],r9
80003002:	ee f8 ff f8 	ld.w	r8,r7[-8]
80003006:	70 48       	ld.w	r8,r8[0x10]
80003008:	ef 48 ff fc 	st.w	r7[-4],r8
8000300c:	ee f8 ff fc 	ld.w	r8,r7[-4]
80003010:	70 19       	ld.w	r9,r8[0x4]
80003012:	ee f8 ff f8 	ld.w	r8,r7[-8]
80003016:	10 39       	cp.w	r9,r8
80003018:	c0 71       	brne	80003026 <vListRemove+0x4c>
8000301a:	ee f8 ff f8 	ld.w	r8,r7[-8]
8000301e:	70 29       	ld.w	r9,r8[0x8]
80003020:	ee f8 ff fc 	ld.w	r8,r7[-4]
80003024:	91 19       	st.w	r8[0x4],r9
80003026:	ee f8 ff f8 	ld.w	r8,r7[-8]
8000302a:	30 09       	mov	r9,0
8000302c:	91 49       	st.w	r8[0x10],r9
8000302e:	ee f8 ff fc 	ld.w	r8,r7[-4]
80003032:	70 08       	ld.w	r8,r8[0x0]
80003034:	f0 c9 00 01 	sub	r9,r8,1
80003038:	ee f8 ff fc 	ld.w	r8,r7[-4]
8000303c:	91 09       	st.w	r8[0x0],r9
8000303e:	2f ed       	sub	sp,-8
80003040:	e3 cd 80 80 	ldm	sp++,r7,pc

80003044 <_init_startup>:
80003044:	eb cd 40 80 	pushm	r7,lr
80003048:	1a 97       	mov	r7,sp
8000304a:	48 e8       	lddpc	r8,80003080 <_init_startup+0x3c>
8000304c:	e3 b8 00 01 	mtsr	0x4,r8
80003050:	d5 53       	csrf	0x15
80003052:	f0 1f 00 0d 	mcall	80003084 <_init_startup+0x40>
80003056:	48 d8       	lddpc	r8,80003088 <_init_startup+0x44>
80003058:	fe 79 18 00 	mov	r9,-59392
8000305c:	91 09       	st.w	r8[0x0],r9
8000305e:	30 2b       	mov	r11,2
80003060:	48 bc       	lddpc	r12,8000308c <_init_startup+0x48>
80003062:	f0 1f 00 0c 	mcall	80003090 <_init_startup+0x4c>
80003066:	e0 6a 1b 00 	mov	r10,6912
8000306a:	ea 1a 00 b7 	orh	r10,0xb7
8000306e:	48 ab       	lddpc	r11,80003094 <_init_startup+0x50>
80003070:	fe 7c 18 00 	mov	r12,-59392
80003074:	f0 1f 00 09 	mcall	80003098 <_init_startup+0x54>
80003078:	30 18       	mov	r8,1
8000307a:	10 9c       	mov	r12,r8
8000307c:	e3 cd 80 80 	ldm	sp++,r7,pc
80003080:	80 00       	ld.sh	r0,r0[0x0]
80003082:	56 00       	stdsp	sp[0x180],r0
80003084:	80 00       	ld.sh	r0,r0[0x0]
80003086:	27 54       	sub	r4,117
80003088:	00 00       	add	r0,r0
8000308a:	07 a4       	ld.ub	r4,r3[0x2]
8000308c:	80 00       	ld.sh	r0,r0[0x0]
8000308e:	58 e4       	cp.w	r4,14
80003090:	80 00       	ld.sh	r0,r0[0x0]
80003092:	25 48       	sub	r8,84
80003094:	80 00       	ld.sh	r0,r0[0x0]
80003096:	58 f4       	cp.w	r4,15
80003098:	80 00       	ld.sh	r0,r0[0x0]
8000309a:	2c 18       	sub	r8,-63

8000309c <__malloc_lock>:
8000309c:	eb cd 40 80 	pushm	r7,lr
800030a0:	1a 97       	mov	r7,sp
800030a2:	20 1d       	sub	sp,4
800030a4:	ef 4c ff fc 	st.w	r7[-4],r12
800030a8:	f0 1f 00 03 	mcall	800030b4 <__malloc_lock+0x18>
800030ac:	2f fd       	sub	sp,-4
800030ae:	e3 cd 80 80 	ldm	sp++,r7,pc
800030b2:	00 00       	add	r0,r0
800030b4:	80 00       	ld.sh	r0,r0[0x0]
800030b6:	41 04       	lddsp	r4,sp[0x40]

800030b8 <__malloc_unlock>:
800030b8:	eb cd 40 80 	pushm	r7,lr
800030bc:	1a 97       	mov	r7,sp
800030be:	20 1d       	sub	sp,4
800030c0:	ef 4c ff fc 	st.w	r7[-4],r12
800030c4:	f0 1f 00 03 	mcall	800030d0 <__malloc_unlock+0x18>
800030c8:	2f fd       	sub	sp,-4
800030ca:	e3 cd 80 80 	ldm	sp++,r7,pc
800030ce:	00 00       	add	r0,r0
800030d0:	80 00       	ld.sh	r0,r0[0x0]
800030d2:	41 20       	lddsp	r0,sp[0x48]

800030d4 <vTick>:
800030d4:	eb cd 00 ff 	pushm	r0-r7
800030d8:	e0 68 00 1c 	mov	r8,28
800030dc:	ea 18 00 00 	orh	r8,0x0
800030e0:	70 00       	ld.w	r0,r8[0x0]
800030e2:	1a d0       	st.w	--sp,r0
800030e4:	7a 90       	ld.w	r0,sp[0x24]
800030e6:	e1 d0 c2 c3 	bfextu	r0,r0,0x16,0x3
800030ea:	58 10       	cp.w	r0,1
800030ec:	e0 8b 00 08 	brhi	800030fc <LABEL_INT_SKIP_SAVE_CONTEXT_234>
800030f0:	e0 68 06 20 	mov	r8,1568
800030f4:	ea 18 00 00 	orh	r8,0x0
800030f8:	70 00       	ld.w	r0,r8[0x0]
800030fa:	81 0d       	st.w	r0[0x0],sp

800030fc <LABEL_INT_SKIP_SAVE_CONTEXT_234>:
800030fc:	f0 1f 00 12 	mcall	80003144 <LABEL_INT_SKIP_RESTORE_CONTEXT_251+0x14>
80003100:	f0 1f 00 12 	mcall	80003148 <LABEL_INT_SKIP_RESTORE_CONTEXT_251+0x18>
80003104:	f0 1f 00 12 	mcall	8000314c <LABEL_INT_SKIP_RESTORE_CONTEXT_251+0x1c>
80003108:	f0 1f 00 12 	mcall	80003150 <LABEL_INT_SKIP_RESTORE_CONTEXT_251+0x20>
8000310c:	7a 90       	ld.w	r0,sp[0x24]
8000310e:	e1 d0 c2 c3 	bfextu	r0,r0,0x16,0x3
80003112:	58 10       	cp.w	r0,1
80003114:	e0 8b 00 0e 	brhi	80003130 <LABEL_INT_SKIP_RESTORE_CONTEXT_251>
80003118:	f0 1f 00 0c 	mcall	80003148 <LABEL_INT_SKIP_RESTORE_CONTEXT_251+0x18>
8000311c:	f0 1f 00 0e 	mcall	80003154 <LABEL_INT_SKIP_RESTORE_CONTEXT_251+0x24>
80003120:	f0 1f 00 0c 	mcall	80003150 <LABEL_INT_SKIP_RESTORE_CONTEXT_251+0x20>
80003124:	e0 68 06 20 	mov	r8,1568
80003128:	ea 18 00 00 	orh	r8,0x0
8000312c:	70 00       	ld.w	r0,r8[0x0]
8000312e:	60 0d       	ld.w	sp,r0[0x0]

80003130 <LABEL_INT_SKIP_RESTORE_CONTEXT_251>:
80003130:	1b 00       	ld.w	r0,sp++
80003132:	e0 68 00 1c 	mov	r8,28
80003136:	ea 18 00 00 	orh	r8,0x0
8000313a:	91 00       	st.w	r8[0x0],r0
8000313c:	e3 cd 00 ff 	ldm	sp++,r0-r7
80003140:	d6 03       	rete
80003142:	00 00       	add	r0,r0
80003144:	80 00       	ld.sh	r0,r0[0x0]
80003146:	34 40       	mov	r0,68
80003148:	80 00       	ld.sh	r0,r0[0x0]
8000314a:	31 f0       	mov	r0,31
8000314c:	80 00       	ld.sh	r0,r0[0x0]
8000314e:	42 78       	lddsp	r8,sp[0x9c]
80003150:	80 00       	ld.sh	r0,r0[0x0]
80003152:	32 0c       	mov	r12,32
80003154:	80 00       	ld.sh	r0,r0[0x0]
80003156:	43 d8       	lddsp	r8,sp[0xf4]

80003158 <SCALLYield>:
80003158:	20 6d       	sub	sp,24
8000315a:	eb cd 00 ff 	pushm	r0-r7
8000315e:	fa c7 ff c0 	sub	r7,sp,-64
80003162:	ee f0 ff f8 	ld.w	r0,r7[-8]
80003166:	ef 40 ff e0 	st.w	r7[-32],r0
8000316a:	ee f0 ff fc 	ld.w	r0,r7[-4]
8000316e:	ef 40 ff e4 	st.w	r7[-28],r0
80003172:	eb c7 5f 00 	stm	--r7,r8-r12,lr
80003176:	e0 68 00 1c 	mov	r8,28
8000317a:	ea 18 00 00 	orh	r8,0x0
8000317e:	70 00       	ld.w	r0,r8[0x0]
80003180:	1a d0       	st.w	--sp,r0
80003182:	f0 1f 00 1a 	mcall	800031e8 <LABEL_RET_SCALL_260+0x14>
80003186:	e0 68 06 20 	mov	r8,1568
8000318a:	ea 18 00 00 	orh	r8,0x0
8000318e:	70 00       	ld.w	r0,r8[0x0]
80003190:	81 0d       	st.w	r0[0x0],sp
80003192:	f0 1f 00 17 	mcall	800031ec <LABEL_RET_SCALL_260+0x18>
80003196:	e0 68 06 20 	mov	r8,1568
8000319a:	ea 18 00 00 	orh	r8,0x0
8000319e:	70 00       	ld.w	r0,r8[0x0]
800031a0:	60 0d       	ld.w	sp,r0[0x0]
800031a2:	1b 00       	ld.w	r0,sp++
800031a4:	e0 68 00 1c 	mov	r8,28
800031a8:	ea 18 00 00 	orh	r8,0x0
800031ac:	91 00       	st.w	r8[0x0],r0
800031ae:	fa c7 ff d8 	sub	r7,sp,-40
800031b2:	e3 c7 5f 00 	ldm	r7++,r8-r12,lr
800031b6:	ee f0 ff e0 	ld.w	r0,r7[-32]
800031ba:	e0 61 00 1c 	mov	r1,28
800031be:	ea 11 00 00 	orh	r1,0x0
800031c2:	62 02       	ld.w	r2,r1[0x0]
800031c4:	58 02       	cp.w	r2,0
800031c6:	c0 70       	breq	800031d4 <LABEL_RET_SCALL_260>
800031c8:	e4 c2 00 01 	sub	r2,r2,1
800031cc:	83 02       	st.w	r1[0x0],r2
800031ce:	58 02       	cp.w	r2,0
800031d0:	c0 21       	brne	800031d4 <LABEL_RET_SCALL_260>
800031d2:	b1 c0       	cbr	r0,0x10

800031d4 <LABEL_RET_SCALL_260>:
800031d4:	ef 40 ff f8 	st.w	r7[-8],r0
800031d8:	ee f0 ff e4 	ld.w	r0,r7[-28]
800031dc:	ef 40 ff fc 	st.w	r7[-4],r0
800031e0:	e3 cd 00 ff 	ldm	sp++,r0-r7
800031e4:	2f ad       	sub	sp,-24
800031e6:	d6 13       	rets
800031e8:	80 00       	ld.sh	r0,r0[0x0]
800031ea:	31 f0       	mov	r0,31
800031ec:	80 00       	ld.sh	r0,r0[0x0]
800031ee:	43 d8       	lddsp	r8,sp[0xf4]

800031f0 <vPortEnterCritical>:
800031f0:	eb cd 40 80 	pushm	r7,lr
800031f4:	1a 97       	mov	r7,sp
800031f6:	d3 03       	ssrf	0x10
800031f8:	48 48       	lddpc	r8,80003208 <vPortEnterCritical+0x18>
800031fa:	70 08       	ld.w	r8,r8[0x0]
800031fc:	f0 c9 ff ff 	sub	r9,r8,-1
80003200:	48 28       	lddpc	r8,80003208 <vPortEnterCritical+0x18>
80003202:	91 09       	st.w	r8[0x0],r9
80003204:	e3 cd 80 80 	ldm	sp++,r7,pc
80003208:	00 00       	add	r0,r0
8000320a:	00 1c       	sub	r12,r0

8000320c <vPortExitCritical>:
8000320c:	eb cd 40 80 	pushm	r7,lr
80003210:	1a 97       	mov	r7,sp
80003212:	48 98       	lddpc	r8,80003234 <vPortExitCritical+0x28>
80003214:	70 08       	ld.w	r8,r8[0x0]
80003216:	58 08       	cp.w	r8,0
80003218:	c0 c0       	breq	80003230 <vPortExitCritical+0x24>
8000321a:	48 78       	lddpc	r8,80003234 <vPortExitCritical+0x28>
8000321c:	70 08       	ld.w	r8,r8[0x0]
8000321e:	f0 c9 00 01 	sub	r9,r8,1
80003222:	48 58       	lddpc	r8,80003234 <vPortExitCritical+0x28>
80003224:	91 09       	st.w	r8[0x0],r9
80003226:	48 48       	lddpc	r8,80003234 <vPortExitCritical+0x28>
80003228:	70 08       	ld.w	r8,r8[0x0]
8000322a:	58 08       	cp.w	r8,0
8000322c:	c0 21       	brne	80003230 <vPortExitCritical+0x24>
8000322e:	d5 03       	csrf	0x10
80003230:	e3 cd 80 80 	ldm	sp++,r7,pc
80003234:	00 00       	add	r0,r0
80003236:	00 1c       	sub	r12,r0

80003238 <pxPortInitialiseStack>:
80003238:	eb cd 40 80 	pushm	r7,lr
8000323c:	1a 97       	mov	r7,sp
8000323e:	20 3d       	sub	sp,12
80003240:	ef 4c ff fc 	st.w	r7[-4],r12
80003244:	ef 4b ff f8 	st.w	r7[-8],r11
80003248:	ef 4a ff f4 	st.w	r7[-12],r10
8000324c:	ee f8 ff fc 	ld.w	r8,r7[-4]
80003250:	20 48       	sub	r8,4
80003252:	ef 48 ff fc 	st.w	r7[-4],r8
80003256:	ee f8 ff fc 	ld.w	r8,r7[-4]
8000325a:	e0 69 08 08 	mov	r9,2056
8000325e:	ea 19 08 08 	orh	r9,0x808
80003262:	91 09       	st.w	r8[0x0],r9
80003264:	ee f8 ff fc 	ld.w	r8,r7[-4]
80003268:	20 48       	sub	r8,4
8000326a:	ef 48 ff fc 	st.w	r7[-4],r8
8000326e:	ee f8 ff fc 	ld.w	r8,r7[-4]
80003272:	e0 69 09 09 	mov	r9,2313
80003276:	ea 19 09 09 	orh	r9,0x909
8000327a:	91 09       	st.w	r8[0x0],r9
8000327c:	ee f8 ff fc 	ld.w	r8,r7[-4]
80003280:	20 48       	sub	r8,4
80003282:	ef 48 ff fc 	st.w	r7[-4],r8
80003286:	ee f8 ff fc 	ld.w	r8,r7[-4]
8000328a:	e0 69 0a 0a 	mov	r9,2570
8000328e:	ea 19 0a 0a 	orh	r9,0xa0a
80003292:	91 09       	st.w	r8[0x0],r9
80003294:	ee f8 ff fc 	ld.w	r8,r7[-4]
80003298:	20 48       	sub	r8,4
8000329a:	ef 48 ff fc 	st.w	r7[-4],r8
8000329e:	ee f8 ff fc 	ld.w	r8,r7[-4]
800032a2:	e0 69 0b 0b 	mov	r9,2827
800032a6:	ea 19 0b 0b 	orh	r9,0xb0b
800032aa:	91 09       	st.w	r8[0x0],r9
800032ac:	ee f8 ff fc 	ld.w	r8,r7[-4]
800032b0:	20 48       	sub	r8,4
800032b2:	ef 48 ff fc 	st.w	r7[-4],r8
800032b6:	ee f9 ff f4 	ld.w	r9,r7[-12]
800032ba:	ee f8 ff fc 	ld.w	r8,r7[-4]
800032be:	91 09       	st.w	r8[0x0],r9
800032c0:	ee f8 ff fc 	ld.w	r8,r7[-4]
800032c4:	20 48       	sub	r8,4
800032c6:	ef 48 ff fc 	st.w	r7[-4],r8
800032ca:	ee f8 ff fc 	ld.w	r8,r7[-4]
800032ce:	e0 69 be ef 	mov	r9,48879
800032d2:	ea 19 de ad 	orh	r9,0xdead
800032d6:	91 09       	st.w	r8[0x0],r9
800032d8:	ee f8 ff fc 	ld.w	r8,r7[-4]
800032dc:	20 48       	sub	r8,4
800032de:	ef 48 ff fc 	st.w	r7[-4],r8
800032e2:	ee f9 ff f8 	ld.w	r9,r7[-8]
800032e6:	ee f8 ff fc 	ld.w	r8,r7[-4]
800032ea:	91 09       	st.w	r8[0x0],r9
800032ec:	ee f8 ff fc 	ld.w	r8,r7[-4]
800032f0:	20 48       	sub	r8,4
800032f2:	ef 48 ff fc 	st.w	r7[-4],r8
800032f6:	ee f8 ff fc 	ld.w	r8,r7[-4]
800032fa:	fc 19 00 40 	movh	r9,0x40
800032fe:	91 09       	st.w	r8[0x0],r9
80003300:	ee f8 ff fc 	ld.w	r8,r7[-4]
80003304:	20 48       	sub	r8,4
80003306:	ef 48 ff fc 	st.w	r7[-4],r8
8000330a:	ee f8 ff fc 	ld.w	r8,r7[-4]
8000330e:	e0 69 00 ff 	mov	r9,255
80003312:	ea 19 ff 00 	orh	r9,0xff00
80003316:	91 09       	st.w	r8[0x0],r9
80003318:	ee f8 ff fc 	ld.w	r8,r7[-4]
8000331c:	20 48       	sub	r8,4
8000331e:	ef 48 ff fc 	st.w	r7[-4],r8
80003322:	ee f8 ff fc 	ld.w	r8,r7[-4]
80003326:	e0 69 01 01 	mov	r9,257
8000332a:	ea 19 01 01 	orh	r9,0x101
8000332e:	91 09       	st.w	r8[0x0],r9
80003330:	ee f8 ff fc 	ld.w	r8,r7[-4]
80003334:	20 48       	sub	r8,4
80003336:	ef 48 ff fc 	st.w	r7[-4],r8
8000333a:	ee f8 ff fc 	ld.w	r8,r7[-4]
8000333e:	e0 69 02 02 	mov	r9,514
80003342:	ea 19 02 02 	orh	r9,0x202
80003346:	91 09       	st.w	r8[0x0],r9
80003348:	ee f8 ff fc 	ld.w	r8,r7[-4]
8000334c:	20 48       	sub	r8,4
8000334e:	ef 48 ff fc 	st.w	r7[-4],r8
80003352:	ee f8 ff fc 	ld.w	r8,r7[-4]
80003356:	e0 69 03 03 	mov	r9,771
8000335a:	ea 19 03 03 	orh	r9,0x303
8000335e:	91 09       	st.w	r8[0x0],r9
80003360:	ee f8 ff fc 	ld.w	r8,r7[-4]
80003364:	20 48       	sub	r8,4
80003366:	ef 48 ff fc 	st.w	r7[-4],r8
8000336a:	ee f8 ff fc 	ld.w	r8,r7[-4]
8000336e:	e0 69 04 04 	mov	r9,1028
80003372:	ea 19 04 04 	orh	r9,0x404
80003376:	91 09       	st.w	r8[0x0],r9
80003378:	ee f8 ff fc 	ld.w	r8,r7[-4]
8000337c:	20 48       	sub	r8,4
8000337e:	ef 48 ff fc 	st.w	r7[-4],r8
80003382:	ee f8 ff fc 	ld.w	r8,r7[-4]
80003386:	e0 69 05 05 	mov	r9,1285
8000338a:	ea 19 05 05 	orh	r9,0x505
8000338e:	91 09       	st.w	r8[0x0],r9
80003390:	ee f8 ff fc 	ld.w	r8,r7[-4]
80003394:	20 48       	sub	r8,4
80003396:	ef 48 ff fc 	st.w	r7[-4],r8
8000339a:	ee f8 ff fc 	ld.w	r8,r7[-4]
8000339e:	e0 69 06 06 	mov	r9,1542
800033a2:	ea 19 06 06 	orh	r9,0x606
800033a6:	91 09       	st.w	r8[0x0],r9
800033a8:	ee f8 ff fc 	ld.w	r8,r7[-4]
800033ac:	20 48       	sub	r8,4
800033ae:	ef 48 ff fc 	st.w	r7[-4],r8
800033b2:	ee f8 ff fc 	ld.w	r8,r7[-4]
800033b6:	e0 69 07 07 	mov	r9,1799
800033ba:	ea 19 07 07 	orh	r9,0x707
800033be:	91 09       	st.w	r8[0x0],r9
800033c0:	ee f8 ff fc 	ld.w	r8,r7[-4]
800033c4:	20 48       	sub	r8,4
800033c6:	ef 48 ff fc 	st.w	r7[-4],r8
800033ca:	ee f8 ff fc 	ld.w	r8,r7[-4]
800033ce:	30 09       	mov	r9,0
800033d0:	91 09       	st.w	r8[0x0],r9
800033d2:	ee f8 ff fc 	ld.w	r8,r7[-4]
800033d6:	10 9c       	mov	r12,r8
800033d8:	2f dd       	sub	sp,-12
800033da:	e3 cd 80 80 	ldm	sp++,r7,pc
800033de:	d7 03       	nop

800033e0 <xPortStartScheduler>:
800033e0:	eb cd 40 80 	pushm	r7,lr
800033e4:	1a 97       	mov	r7,sp
800033e6:	f0 1f 00 10 	mcall	80003424 <xPortStartScheduler+0x44>
800033ea:	e0 68 06 20 	mov	r8,1568
800033ee:	ea 18 00 00 	orh	r8,0x0
800033f2:	70 00       	ld.w	r0,r8[0x0]
800033f4:	60 0d       	ld.w	sp,r0[0x0]
800033f6:	1b 00       	ld.w	r0,sp++
800033f8:	e0 68 00 1c 	mov	r8,28
800033fc:	ea 18 00 00 	orh	r8,0x0
80003400:	91 00       	st.w	r8[0x0],r0
80003402:	e3 cd 00 ff 	ldm	sp++,r0-r7
80003406:	2f ed       	sub	sp,-8
80003408:	e3 cd 5f 00 	ldm	sp++,r8-r12,lr
8000340c:	fa f0 ff e0 	ld.w	r0,sp[-32]
80003410:	e3 b0 00 00 	mtsr	0x0,r0
80003414:	fa f0 ff dc 	ld.w	r0,sp[-36]
80003418:	fa ff ff e4 	ld.w	pc,sp[-28]
8000341c:	30 08       	mov	r8,0
8000341e:	10 9c       	mov	r12,r8
80003420:	e3 cd 80 80 	ldm	sp++,r7,pc
80003424:	80 00       	ld.sh	r0,r0[0x0]
80003426:	34 54       	mov	r4,69

80003428 <prvScheduleFirstTick>:
80003428:	eb cd 40 80 	pushm	r7,lr
8000342c:	1a 97       	mov	r7,sp
8000342e:	e0 68 2e e0 	mov	r8,12000
80003432:	e3 b8 00 43 	mtsr	0x10c,r8
80003436:	30 08       	mov	r8,0
80003438:	e3 b8 00 42 	mtsr	0x108,r8
8000343c:	e3 cd 80 80 	ldm	sp++,r7,pc

80003440 <prvClearCcInt>:
80003440:	eb cd 40 80 	pushm	r7,lr
80003444:	1a 97       	mov	r7,sp
80003446:	e1 b8 00 43 	mfsr	r8,0x10c
8000344a:	e3 b8 00 43 	mtsr	0x10c,r8
8000344e:	e3 cd 80 80 	ldm	sp++,r7,pc
80003452:	d7 03       	nop

80003454 <prvSetupTimerInterrupt>:
80003454:	eb cd 40 80 	pushm	r7,lr
80003458:	1a 97       	mov	r7,sp
8000345a:	d3 03       	ssrf	0x10
8000345c:	30 0a       	mov	r10,0
8000345e:	30 0b       	mov	r11,0
80003460:	48 4c       	lddpc	r12,80003470 <prvSetupTimerInterrupt+0x1c>
80003462:	f0 1f 00 05 	mcall	80003474 <prvSetupTimerInterrupt+0x20>
80003466:	f0 1f 00 05 	mcall	80003478 <prvSetupTimerInterrupt+0x24>
8000346a:	e3 cd 80 80 	ldm	sp++,r7,pc
8000346e:	00 00       	add	r0,r0
80003470:	80 00       	ld.sh	r0,r0[0x0]
80003472:	30 d4       	mov	r4,13
80003474:	80 00       	ld.sh	r0,r0[0x0]
80003476:	27 ec       	sub	r12,126
80003478:	80 00       	ld.sh	r0,r0[0x0]
8000347a:	34 28       	mov	r8,66

8000347c <pvPortMalloc>:
8000347c:	eb cd 40 80 	pushm	r7,lr
80003480:	1a 97       	mov	r7,sp
80003482:	20 2d       	sub	sp,8
80003484:	ef 4c ff f8 	st.w	r7[-8],r12
80003488:	f0 1f 00 09 	mcall	800034ac <pvPortMalloc+0x30>
8000348c:	ee fc ff f8 	ld.w	r12,r7[-8]
80003490:	f0 1f 00 08 	mcall	800034b0 <pvPortMalloc+0x34>
80003494:	18 98       	mov	r8,r12
80003496:	ef 48 ff fc 	st.w	r7[-4],r8
8000349a:	f0 1f 00 07 	mcall	800034b4 <pvPortMalloc+0x38>
8000349e:	ee f8 ff fc 	ld.w	r8,r7[-4]
800034a2:	10 9c       	mov	r12,r8
800034a4:	2f ed       	sub	sp,-8
800034a6:	e3 cd 80 80 	ldm	sp++,r7,pc
800034aa:	00 00       	add	r0,r0
800034ac:	80 00       	ld.sh	r0,r0[0x0]
800034ae:	41 04       	lddsp	r4,sp[0x40]
800034b0:	80 00       	ld.sh	r0,r0[0x0]
800034b2:	4a 48       	lddpc	r8,80003540 <xQueueCreate+0x50>
800034b4:	80 00       	ld.sh	r0,r0[0x0]
800034b6:	41 20       	lddsp	r0,sp[0x48]

800034b8 <vPortFree>:
800034b8:	eb cd 40 80 	pushm	r7,lr
800034bc:	1a 97       	mov	r7,sp
800034be:	20 1d       	sub	sp,4
800034c0:	ef 4c ff fc 	st.w	r7[-4],r12
800034c4:	ee f8 ff fc 	ld.w	r8,r7[-4]
800034c8:	58 08       	cp.w	r8,0
800034ca:	c0 90       	breq	800034dc <vPortFree+0x24>
800034cc:	f0 1f 00 06 	mcall	800034e4 <vPortFree+0x2c>
800034d0:	ee fc ff fc 	ld.w	r12,r7[-4]
800034d4:	f0 1f 00 05 	mcall	800034e8 <vPortFree+0x30>
800034d8:	f0 1f 00 05 	mcall	800034ec <vPortFree+0x34>
800034dc:	2f fd       	sub	sp,-4
800034de:	e3 cd 80 80 	ldm	sp++,r7,pc
800034e2:	00 00       	add	r0,r0
800034e4:	80 00       	ld.sh	r0,r0[0x0]
800034e6:	41 04       	lddsp	r4,sp[0x40]
800034e8:	80 00       	ld.sh	r0,r0[0x0]
800034ea:	4a 38       	lddpc	r8,80003574 <xQueueCreate+0x84>
800034ec:	80 00       	ld.sh	r0,r0[0x0]
800034ee:	41 20       	lddsp	r0,sp[0x48]

800034f0 <xQueueCreate>:
800034f0:	eb cd 40 80 	pushm	r7,lr
800034f4:	1a 97       	mov	r7,sp
800034f6:	20 5d       	sub	sp,20
800034f8:	ef 4c ff f0 	st.w	r7[-16],r12
800034fc:	ef 4b ff ec 	st.w	r7[-20],r11
80003500:	30 08       	mov	r8,0
80003502:	ef 48 ff fc 	st.w	r7[-4],r8
80003506:	ee f8 ff f0 	ld.w	r8,r7[-16]
8000350a:	58 08       	cp.w	r8,0
8000350c:	c7 20       	breq	800035f0 <xQueueCreate+0x100>
8000350e:	34 cc       	mov	r12,76
80003510:	f0 1f 00 3b 	mcall	800035fc <xQueueCreate+0x10c>
80003514:	18 98       	mov	r8,r12
80003516:	ef 48 ff f4 	st.w	r7[-12],r8
8000351a:	ee f8 ff f4 	ld.w	r8,r7[-12]
8000351e:	58 08       	cp.w	r8,0
80003520:	c6 80       	breq	800035f0 <xQueueCreate+0x100>
80003522:	ee f9 ff f0 	ld.w	r9,r7[-16]
80003526:	ee f8 ff ec 	ld.w	r8,r7[-20]
8000352a:	f2 08 02 48 	mul	r8,r9,r8
8000352e:	2f f8       	sub	r8,-1
80003530:	ef 48 ff f8 	st.w	r7[-8],r8
80003534:	ee fc ff f8 	ld.w	r12,r7[-8]
80003538:	f0 1f 00 31 	mcall	800035fc <xQueueCreate+0x10c>
8000353c:	18 98       	mov	r8,r12
8000353e:	10 99       	mov	r9,r8
80003540:	ee f8 ff f4 	ld.w	r8,r7[-12]
80003544:	91 09       	st.w	r8[0x0],r9
80003546:	ee f8 ff f4 	ld.w	r8,r7[-12]
8000354a:	70 08       	ld.w	r8,r8[0x0]
8000354c:	58 08       	cp.w	r8,0
8000354e:	c4 d0       	breq	800035e8 <xQueueCreate+0xf8>
80003550:	ee f8 ff f4 	ld.w	r8,r7[-12]
80003554:	70 09       	ld.w	r9,r8[0x0]
80003556:	ee fa ff f0 	ld.w	r10,r7[-16]
8000355a:	ee f8 ff ec 	ld.w	r8,r7[-20]
8000355e:	f4 08 02 48 	mul	r8,r10,r8
80003562:	10 09       	add	r9,r8
80003564:	ee f8 ff f4 	ld.w	r8,r7[-12]
80003568:	91 19       	st.w	r8[0x4],r9
8000356a:	ee f8 ff f4 	ld.w	r8,r7[-12]
8000356e:	30 09       	mov	r9,0
80003570:	91 e9       	st.w	r8[0x38],r9
80003572:	ee f8 ff f4 	ld.w	r8,r7[-12]
80003576:	70 09       	ld.w	r9,r8[0x0]
80003578:	ee f8 ff f4 	ld.w	r8,r7[-12]
8000357c:	91 29       	st.w	r8[0x8],r9
8000357e:	ee f8 ff f4 	ld.w	r8,r7[-12]
80003582:	70 09       	ld.w	r9,r8[0x0]
80003584:	ee f8 ff f0 	ld.w	r8,r7[-16]
80003588:	f0 ca 00 01 	sub	r10,r8,1
8000358c:	ee f8 ff ec 	ld.w	r8,r7[-20]
80003590:	f4 08 02 48 	mul	r8,r10,r8
80003594:	10 09       	add	r9,r8
80003596:	ee f8 ff f4 	ld.w	r8,r7[-12]
8000359a:	91 39       	st.w	r8[0xc],r9
8000359c:	ee f8 ff f4 	ld.w	r8,r7[-12]
800035a0:	ee f9 ff f0 	ld.w	r9,r7[-16]
800035a4:	91 f9       	st.w	r8[0x3c],r9
800035a6:	ee f8 ff f4 	ld.w	r8,r7[-12]
800035aa:	ee f9 ff ec 	ld.w	r9,r7[-20]
800035ae:	f1 49 00 40 	st.w	r8[64],r9
800035b2:	ee f8 ff f4 	ld.w	r8,r7[-12]
800035b6:	3f f9       	mov	r9,-1
800035b8:	f1 49 00 44 	st.w	r8[68],r9
800035bc:	ee f8 ff f4 	ld.w	r8,r7[-12]
800035c0:	3f f9       	mov	r9,-1
800035c2:	f1 49 00 48 	st.w	r8[72],r9
800035c6:	ee f8 ff f4 	ld.w	r8,r7[-12]
800035ca:	2f 08       	sub	r8,-16
800035cc:	10 9c       	mov	r12,r8
800035ce:	f0 1f 00 0d 	mcall	80003600 <xQueueCreate+0x110>
800035d2:	ee f8 ff f4 	ld.w	r8,r7[-12]
800035d6:	2d c8       	sub	r8,-36
800035d8:	10 9c       	mov	r12,r8
800035da:	f0 1f 00 0a 	mcall	80003600 <xQueueCreate+0x110>
800035de:	ee f8 ff f4 	ld.w	r8,r7[-12]
800035e2:	ef 48 ff fc 	st.w	r7[-4],r8
800035e6:	c0 58       	rjmp	800035f0 <xQueueCreate+0x100>
800035e8:	ee fc ff f4 	ld.w	r12,r7[-12]
800035ec:	f0 1f 00 06 	mcall	80003604 <xQueueCreate+0x114>
800035f0:	ee f8 ff fc 	ld.w	r8,r7[-4]
800035f4:	10 9c       	mov	r12,r8
800035f6:	2f bd       	sub	sp,-20
800035f8:	e3 cd 80 80 	ldm	sp++,r7,pc
800035fc:	80 00       	ld.sh	r0,r0[0x0]
800035fe:	34 7c       	mov	r12,71
80003600:	80 00       	ld.sh	r0,r0[0x0]
80003602:	2e 60       	sub	r0,-26
80003604:	80 00       	ld.sh	r0,r0[0x0]
80003606:	34 b8       	mov	r8,75

80003608 <xQueueGenericSend>:
80003608:	eb cd 40 80 	pushm	r7,lr
8000360c:	1a 97       	mov	r7,sp
8000360e:	20 7d       	sub	sp,28
80003610:	ef 4c ff f0 	st.w	r7[-16],r12
80003614:	ef 4b ff ec 	st.w	r7[-20],r11
80003618:	ef 4a ff e8 	st.w	r7[-24],r10
8000361c:	ef 49 ff e4 	st.w	r7[-28],r9
80003620:	30 08       	mov	r8,0
80003622:	ef 48 ff fc 	st.w	r7[-4],r8
80003626:	c0 28       	rjmp	8000362a <xQueueGenericSend+0x22>
80003628:	d7 03       	nop
8000362a:	f0 1f 00 47 	mcall	80003744 <xQueueGenericSend+0x13c>
8000362e:	ee f8 ff f0 	ld.w	r8,r7[-16]
80003632:	70 e9       	ld.w	r9,r8[0x38]
80003634:	ee f8 ff f0 	ld.w	r8,r7[-16]
80003638:	70 f8       	ld.w	r8,r8[0x3c]
8000363a:	10 39       	cp.w	r9,r8
8000363c:	c1 c2       	brcc	80003674 <xQueueGenericSend+0x6c>
8000363e:	ee fa ff e4 	ld.w	r10,r7[-28]
80003642:	ee fb ff ec 	ld.w	r11,r7[-20]
80003646:	ee fc ff f0 	ld.w	r12,r7[-16]
8000364a:	f0 1f 00 40 	mcall	80003748 <xQueueGenericSend+0x140>
8000364e:	ee f8 ff f0 	ld.w	r8,r7[-16]
80003652:	70 98       	ld.w	r8,r8[0x24]
80003654:	58 08       	cp.w	r8,0
80003656:	c0 b0       	breq	8000366c <xQueueGenericSend+0x64>
80003658:	ee f8 ff f0 	ld.w	r8,r7[-16]
8000365c:	2d c8       	sub	r8,-36
8000365e:	10 9c       	mov	r12,r8
80003660:	f0 1f 00 3b 	mcall	8000374c <xQueueGenericSend+0x144>
80003664:	18 98       	mov	r8,r12
80003666:	58 18       	cp.w	r8,1
80003668:	c0 21       	brne	8000366c <xQueueGenericSend+0x64>
8000366a:	d7 33       	scall
8000366c:	f0 1f 00 39 	mcall	80003750 <xQueueGenericSend+0x148>
80003670:	30 18       	mov	r8,1
80003672:	c6 58       	rjmp	8000373c <xQueueGenericSend+0x134>
80003674:	ee f8 ff e8 	ld.w	r8,r7[-24]
80003678:	58 08       	cp.w	r8,0
8000367a:	c0 51       	brne	80003684 <xQueueGenericSend+0x7c>
8000367c:	f0 1f 00 35 	mcall	80003750 <xQueueGenericSend+0x148>
80003680:	30 08       	mov	r8,0
80003682:	c5 d8       	rjmp	8000373c <xQueueGenericSend+0x134>
80003684:	ee f8 ff fc 	ld.w	r8,r7[-4]
80003688:	58 08       	cp.w	r8,0
8000368a:	c0 91       	brne	8000369c <xQueueGenericSend+0x94>
8000368c:	ee c8 00 0c 	sub	r8,r7,12
80003690:	10 9c       	mov	r12,r8
80003692:	f0 1f 00 31 	mcall	80003754 <xQueueGenericSend+0x14c>
80003696:	30 18       	mov	r8,1
80003698:	ef 48 ff fc 	st.w	r7[-4],r8
8000369c:	f0 1f 00 2d 	mcall	80003750 <xQueueGenericSend+0x148>
800036a0:	f0 1f 00 2e 	mcall	80003758 <xQueueGenericSend+0x150>
800036a4:	f0 1f 00 28 	mcall	80003744 <xQueueGenericSend+0x13c>
800036a8:	ee f8 ff f0 	ld.w	r8,r7[-16]
800036ac:	71 18       	ld.w	r8,r8[0x44]
800036ae:	5b f8       	cp.w	r8,-1
800036b0:	c0 61       	brne	800036bc <xQueueGenericSend+0xb4>
800036b2:	ee f8 ff f0 	ld.w	r8,r7[-16]
800036b6:	30 09       	mov	r9,0
800036b8:	f1 49 00 44 	st.w	r8[68],r9
800036bc:	ee f8 ff f0 	ld.w	r8,r7[-16]
800036c0:	71 28       	ld.w	r8,r8[0x48]
800036c2:	5b f8       	cp.w	r8,-1
800036c4:	c0 61       	brne	800036d0 <xQueueGenericSend+0xc8>
800036c6:	ee f8 ff f0 	ld.w	r8,r7[-16]
800036ca:	30 09       	mov	r9,0
800036cc:	f1 49 00 48 	st.w	r8[72],r9
800036d0:	f0 1f 00 20 	mcall	80003750 <xQueueGenericSend+0x148>
800036d4:	ee c9 00 18 	sub	r9,r7,24
800036d8:	ee c8 00 0c 	sub	r8,r7,12
800036dc:	12 9b       	mov	r11,r9
800036de:	10 9c       	mov	r12,r8
800036e0:	f0 1f 00 1f 	mcall	8000375c <xQueueGenericSend+0x154>
800036e4:	18 98       	mov	r8,r12
800036e6:	58 08       	cp.w	r8,0
800036e8:	c2 31       	brne	8000372e <xQueueGenericSend+0x126>
800036ea:	ee fc ff f0 	ld.w	r12,r7[-16]
800036ee:	f0 1f 00 1d 	mcall	80003760 <xQueueGenericSend+0x158>
800036f2:	18 98       	mov	r8,r12
800036f4:	58 08       	cp.w	r8,0
800036f6:	c1 50       	breq	80003720 <xQueueGenericSend+0x118>
800036f8:	ee f9 ff e8 	ld.w	r9,r7[-24]
800036fc:	ee f8 ff f0 	ld.w	r8,r7[-16]
80003700:	2f 08       	sub	r8,-16
80003702:	12 9b       	mov	r11,r9
80003704:	10 9c       	mov	r12,r8
80003706:	f0 1f 00 18 	mcall	80003764 <xQueueGenericSend+0x15c>
8000370a:	ee fc ff f0 	ld.w	r12,r7[-16]
8000370e:	f0 1f 00 17 	mcall	80003768 <xQueueGenericSend+0x160>
80003712:	f0 1f 00 17 	mcall	8000376c <xQueueGenericSend+0x164>
80003716:	18 98       	mov	r8,r12
80003718:	58 08       	cp.w	r8,0
8000371a:	c8 71       	brne	80003628 <xQueueGenericSend+0x20>
8000371c:	d7 33       	scall
8000371e:	c8 6b       	rjmp	8000362a <xQueueGenericSend+0x22>
80003720:	ee fc ff f0 	ld.w	r12,r7[-16]
80003724:	f0 1f 00 11 	mcall	80003768 <xQueueGenericSend+0x160>
80003728:	f0 1f 00 11 	mcall	8000376c <xQueueGenericSend+0x164>
8000372c:	c7 fb       	rjmp	8000362a <xQueueGenericSend+0x22>
8000372e:	ee fc ff f0 	ld.w	r12,r7[-16]
80003732:	f0 1f 00 0e 	mcall	80003768 <xQueueGenericSend+0x160>
80003736:	f0 1f 00 0e 	mcall	8000376c <xQueueGenericSend+0x164>
8000373a:	30 08       	mov	r8,0
8000373c:	10 9c       	mov	r12,r8
8000373e:	2f 9d       	sub	sp,-28
80003740:	e3 cd 80 80 	ldm	sp++,r7,pc
80003744:	80 00       	ld.sh	r0,r0[0x0]
80003746:	31 f0       	mov	r0,31
80003748:	80 00       	ld.sh	r0,r0[0x0]
8000374a:	39 1c       	mov	r12,-111
8000374c:	80 00       	ld.sh	r0,r0[0x0]
8000374e:	45 08       	lddsp	r8,sp[0x140]
80003750:	80 00       	ld.sh	r0,r0[0x0]
80003752:	32 0c       	mov	r12,32
80003754:	80 00       	ld.sh	r0,r0[0x0]
80003756:	45 d8       	lddsp	r8,sp[0x174]
80003758:	80 00       	ld.sh	r0,r0[0x0]
8000375a:	41 04       	lddsp	r4,sp[0x40]
8000375c:	80 00       	ld.sh	r0,r0[0x0]
8000375e:	46 08       	lddsp	r8,sp[0x180]
80003760:	80 00       	ld.sh	r0,r0[0x0]
80003762:	3b 70       	mov	r0,-73
80003764:	80 00       	ld.sh	r0,r0[0x0]
80003766:	44 88       	lddsp	r8,sp[0x120]
80003768:	80 00       	ld.sh	r0,r0[0x0]
8000376a:	3a 68       	mov	r8,-90
8000376c:	80 00       	ld.sh	r0,r0[0x0]
8000376e:	41 20       	lddsp	r0,sp[0x48]

80003770 <xQueueGenericReceive>:
80003770:	eb cd 40 80 	pushm	r7,lr
80003774:	1a 97       	mov	r7,sp
80003776:	20 8d       	sub	sp,32
80003778:	ef 4c ff ec 	st.w	r7[-20],r12
8000377c:	ef 4b ff e8 	st.w	r7[-24],r11
80003780:	ef 4a ff e4 	st.w	r7[-28],r10
80003784:	ef 49 ff e0 	st.w	r7[-32],r9
80003788:	30 08       	mov	r8,0
8000378a:	ef 48 ff f8 	st.w	r7[-8],r8
8000378e:	c0 28       	rjmp	80003792 <xQueueGenericReceive+0x22>
80003790:	d7 03       	nop
80003792:	f0 1f 00 58 	mcall	800038f0 <xQueueGenericReceive+0x180>
80003796:	ee f8 ff ec 	ld.w	r8,r7[-20]
8000379a:	70 e8       	ld.w	r8,r8[0x38]
8000379c:	58 08       	cp.w	r8,0
8000379e:	c4 00       	breq	8000381e <xQueueGenericReceive+0xae>
800037a0:	ee f8 ff ec 	ld.w	r8,r7[-20]
800037a4:	70 38       	ld.w	r8,r8[0xc]
800037a6:	ef 48 ff fc 	st.w	r7[-4],r8
800037aa:	ee fb ff e8 	ld.w	r11,r7[-24]
800037ae:	ee fc ff ec 	ld.w	r12,r7[-20]
800037b2:	f0 1f 00 51 	mcall	800038f4 <xQueueGenericReceive+0x184>
800037b6:	ee f8 ff e0 	ld.w	r8,r7[-32]
800037ba:	58 08       	cp.w	r8,0
800037bc:	c1 91       	brne	800037ee <xQueueGenericReceive+0x7e>
800037be:	ee f8 ff ec 	ld.w	r8,r7[-20]
800037c2:	70 e8       	ld.w	r8,r8[0x38]
800037c4:	f0 c9 00 01 	sub	r9,r8,1
800037c8:	ee f8 ff ec 	ld.w	r8,r7[-20]
800037cc:	91 e9       	st.w	r8[0x38],r9
800037ce:	ee f8 ff ec 	ld.w	r8,r7[-20]
800037d2:	70 48       	ld.w	r8,r8[0x10]
800037d4:	58 08       	cp.w	r8,0
800037d6:	c2 00       	breq	80003816 <xQueueGenericReceive+0xa6>
800037d8:	ee f8 ff ec 	ld.w	r8,r7[-20]
800037dc:	2f 08       	sub	r8,-16
800037de:	10 9c       	mov	r12,r8
800037e0:	f0 1f 00 46 	mcall	800038f8 <xQueueGenericReceive+0x188>
800037e4:	18 98       	mov	r8,r12
800037e6:	58 18       	cp.w	r8,1
800037e8:	c1 71       	brne	80003816 <xQueueGenericReceive+0xa6>
800037ea:	d7 33       	scall
800037ec:	c1 58       	rjmp	80003816 <xQueueGenericReceive+0xa6>
800037ee:	ee f8 ff ec 	ld.w	r8,r7[-20]
800037f2:	ee f9 ff fc 	ld.w	r9,r7[-4]
800037f6:	91 39       	st.w	r8[0xc],r9
800037f8:	ee f8 ff ec 	ld.w	r8,r7[-20]
800037fc:	70 98       	ld.w	r8,r8[0x24]
800037fe:	58 08       	cp.w	r8,0
80003800:	c0 b0       	breq	80003816 <xQueueGenericReceive+0xa6>
80003802:	ee f8 ff ec 	ld.w	r8,r7[-20]
80003806:	2d c8       	sub	r8,-36
80003808:	10 9c       	mov	r12,r8
8000380a:	f0 1f 00 3c 	mcall	800038f8 <xQueueGenericReceive+0x188>
8000380e:	18 98       	mov	r8,r12
80003810:	58 08       	cp.w	r8,0
80003812:	c0 20       	breq	80003816 <xQueueGenericReceive+0xa6>
80003814:	d7 33       	scall
80003816:	f0 1f 00 3a 	mcall	800038fc <xQueueGenericReceive+0x18c>
8000381a:	30 18       	mov	r8,1
8000381c:	c6 68       	rjmp	800038e8 <xQueueGenericReceive+0x178>
8000381e:	ee f8 ff e4 	ld.w	r8,r7[-28]
80003822:	58 08       	cp.w	r8,0
80003824:	c0 51       	brne	8000382e <xQueueGenericReceive+0xbe>
80003826:	f0 1f 00 36 	mcall	800038fc <xQueueGenericReceive+0x18c>
8000382a:	30 08       	mov	r8,0
8000382c:	c5 e8       	rjmp	800038e8 <xQueueGenericReceive+0x178>
8000382e:	ee f8 ff f8 	ld.w	r8,r7[-8]
80003832:	58 08       	cp.w	r8,0
80003834:	c0 91       	brne	80003846 <xQueueGenericReceive+0xd6>
80003836:	ee c8 00 10 	sub	r8,r7,16
8000383a:	10 9c       	mov	r12,r8
8000383c:	f0 1f 00 31 	mcall	80003900 <xQueueGenericReceive+0x190>
80003840:	30 18       	mov	r8,1
80003842:	ef 48 ff f8 	st.w	r7[-8],r8
80003846:	f0 1f 00 2e 	mcall	800038fc <xQueueGenericReceive+0x18c>
8000384a:	f0 1f 00 2f 	mcall	80003904 <xQueueGenericReceive+0x194>
8000384e:	f0 1f 00 29 	mcall	800038f0 <xQueueGenericReceive+0x180>
80003852:	ee f8 ff ec 	ld.w	r8,r7[-20]
80003856:	71 18       	ld.w	r8,r8[0x44]
80003858:	5b f8       	cp.w	r8,-1
8000385a:	c0 61       	brne	80003866 <xQueueGenericReceive+0xf6>
8000385c:	ee f8 ff ec 	ld.w	r8,r7[-20]
80003860:	30 09       	mov	r9,0
80003862:	f1 49 00 44 	st.w	r8[68],r9
80003866:	ee f8 ff ec 	ld.w	r8,r7[-20]
8000386a:	71 28       	ld.w	r8,r8[0x48]
8000386c:	5b f8       	cp.w	r8,-1
8000386e:	c0 61       	brne	8000387a <xQueueGenericReceive+0x10a>
80003870:	ee f8 ff ec 	ld.w	r8,r7[-20]
80003874:	30 09       	mov	r9,0
80003876:	f1 49 00 48 	st.w	r8[72],r9
8000387a:	f0 1f 00 21 	mcall	800038fc <xQueueGenericReceive+0x18c>
8000387e:	ee c9 00 1c 	sub	r9,r7,28
80003882:	ee c8 00 10 	sub	r8,r7,16
80003886:	12 9b       	mov	r11,r9
80003888:	10 9c       	mov	r12,r8
8000388a:	f0 1f 00 20 	mcall	80003908 <xQueueGenericReceive+0x198>
8000388e:	18 98       	mov	r8,r12
80003890:	58 08       	cp.w	r8,0
80003892:	c2 41       	brne	800038da <xQueueGenericReceive+0x16a>
80003894:	ee fc ff ec 	ld.w	r12,r7[-20]
80003898:	f0 1f 00 1d 	mcall	8000390c <xQueueGenericReceive+0x19c>
8000389c:	18 98       	mov	r8,r12
8000389e:	58 08       	cp.w	r8,0
800038a0:	c1 60       	breq	800038cc <xQueueGenericReceive+0x15c>
800038a2:	ee f9 ff e4 	ld.w	r9,r7[-28]
800038a6:	ee f8 ff ec 	ld.w	r8,r7[-20]
800038aa:	2d c8       	sub	r8,-36
800038ac:	12 9b       	mov	r11,r9
800038ae:	10 9c       	mov	r12,r8
800038b0:	f0 1f 00 18 	mcall	80003910 <xQueueGenericReceive+0x1a0>
800038b4:	ee fc ff ec 	ld.w	r12,r7[-20]
800038b8:	f0 1f 00 17 	mcall	80003914 <xQueueGenericReceive+0x1a4>
800038bc:	f0 1f 00 17 	mcall	80003918 <xQueueGenericReceive+0x1a8>
800038c0:	18 98       	mov	r8,r12
800038c2:	58 08       	cp.w	r8,0
800038c4:	fe 91 ff 66 	brne	80003790 <xQueueGenericReceive+0x20>
800038c8:	d7 33       	scall
800038ca:	c6 4b       	rjmp	80003792 <xQueueGenericReceive+0x22>
800038cc:	ee fc ff ec 	ld.w	r12,r7[-20]
800038d0:	f0 1f 00 11 	mcall	80003914 <xQueueGenericReceive+0x1a4>
800038d4:	f0 1f 00 11 	mcall	80003918 <xQueueGenericReceive+0x1a8>
800038d8:	c5 db       	rjmp	80003792 <xQueueGenericReceive+0x22>
800038da:	ee fc ff ec 	ld.w	r12,r7[-20]
800038de:	f0 1f 00 0e 	mcall	80003914 <xQueueGenericReceive+0x1a4>
800038e2:	f0 1f 00 0e 	mcall	80003918 <xQueueGenericReceive+0x1a8>
800038e6:	30 08       	mov	r8,0
800038e8:	10 9c       	mov	r12,r8
800038ea:	2f 8d       	sub	sp,-32
800038ec:	e3 cd 80 80 	ldm	sp++,r7,pc
800038f0:	80 00       	ld.sh	r0,r0[0x0]
800038f2:	31 f0       	mov	r0,31
800038f4:	80 00       	ld.sh	r0,r0[0x0]
800038f6:	39 fc       	mov	r12,-97
800038f8:	80 00       	ld.sh	r0,r0[0x0]
800038fa:	45 08       	lddsp	r8,sp[0x140]
800038fc:	80 00       	ld.sh	r0,r0[0x0]
800038fe:	32 0c       	mov	r12,32
80003900:	80 00       	ld.sh	r0,r0[0x0]
80003902:	45 d8       	lddsp	r8,sp[0x174]
80003904:	80 00       	ld.sh	r0,r0[0x0]
80003906:	41 04       	lddsp	r4,sp[0x40]
80003908:	80 00       	ld.sh	r0,r0[0x0]
8000390a:	46 08       	lddsp	r8,sp[0x180]
8000390c:	80 00       	ld.sh	r0,r0[0x0]
8000390e:	3b 38       	mov	r8,-77
80003910:	80 00       	ld.sh	r0,r0[0x0]
80003912:	44 88       	lddsp	r8,sp[0x120]
80003914:	80 00       	ld.sh	r0,r0[0x0]
80003916:	3a 68       	mov	r8,-90
80003918:	80 00       	ld.sh	r0,r0[0x0]
8000391a:	41 20       	lddsp	r0,sp[0x48]

8000391c <prvCopyDataToQueue>:
8000391c:	eb cd 40 80 	pushm	r7,lr
80003920:	1a 97       	mov	r7,sp
80003922:	20 3d       	sub	sp,12
80003924:	ef 4c ff fc 	st.w	r7[-4],r12
80003928:	ef 4b ff f8 	st.w	r7[-8],r11
8000392c:	ef 4a ff f4 	st.w	r7[-12],r10
80003930:	ee f8 ff fc 	ld.w	r8,r7[-4]
80003934:	71 08       	ld.w	r8,r8[0x40]
80003936:	58 08       	cp.w	r8,0
80003938:	c5 40       	breq	800039e0 <prvCopyDataToQueue+0xc4>
8000393a:	ee f8 ff f4 	ld.w	r8,r7[-12]
8000393e:	58 08       	cp.w	r8,0
80003940:	c2 61       	brne	8000398c <prvCopyDataToQueue+0x70>
80003942:	ee f8 ff fc 	ld.w	r8,r7[-4]
80003946:	71 09       	ld.w	r9,r8[0x40]
80003948:	ee f8 ff fc 	ld.w	r8,r7[-4]
8000394c:	70 28       	ld.w	r8,r8[0x8]
8000394e:	12 9a       	mov	r10,r9
80003950:	ee fb ff f8 	ld.w	r11,r7[-8]
80003954:	10 9c       	mov	r12,r8
80003956:	f0 1f 00 29 	mcall	800039f8 <prvCopyDataToQueue+0xdc>
8000395a:	ee f8 ff fc 	ld.w	r8,r7[-4]
8000395e:	70 29       	ld.w	r9,r8[0x8]
80003960:	ee f8 ff fc 	ld.w	r8,r7[-4]
80003964:	71 08       	ld.w	r8,r8[0x40]
80003966:	10 09       	add	r9,r8
80003968:	ee f8 ff fc 	ld.w	r8,r7[-4]
8000396c:	91 29       	st.w	r8[0x8],r9
8000396e:	ee f8 ff fc 	ld.w	r8,r7[-4]
80003972:	70 29       	ld.w	r9,r8[0x8]
80003974:	ee f8 ff fc 	ld.w	r8,r7[-4]
80003978:	70 18       	ld.w	r8,r8[0x4]
8000397a:	10 39       	cp.w	r9,r8
8000397c:	c3 23       	brcs	800039e0 <prvCopyDataToQueue+0xc4>
8000397e:	ee f8 ff fc 	ld.w	r8,r7[-4]
80003982:	70 09       	ld.w	r9,r8[0x0]
80003984:	ee f8 ff fc 	ld.w	r8,r7[-4]
80003988:	91 29       	st.w	r8[0x8],r9
8000398a:	c2 b8       	rjmp	800039e0 <prvCopyDataToQueue+0xc4>
8000398c:	ee f8 ff fc 	ld.w	r8,r7[-4]
80003990:	71 09       	ld.w	r9,r8[0x40]
80003992:	ee f8 ff fc 	ld.w	r8,r7[-4]
80003996:	70 38       	ld.w	r8,r8[0xc]
80003998:	12 9a       	mov	r10,r9
8000399a:	ee fb ff f8 	ld.w	r11,r7[-8]
8000399e:	10 9c       	mov	r12,r8
800039a0:	f0 1f 00 16 	mcall	800039f8 <prvCopyDataToQueue+0xdc>
800039a4:	ee f8 ff fc 	ld.w	r8,r7[-4]
800039a8:	70 39       	ld.w	r9,r8[0xc]
800039aa:	ee f8 ff fc 	ld.w	r8,r7[-4]
800039ae:	71 08       	ld.w	r8,r8[0x40]
800039b0:	5c 38       	neg	r8
800039b2:	10 09       	add	r9,r8
800039b4:	ee f8 ff fc 	ld.w	r8,r7[-4]
800039b8:	91 39       	st.w	r8[0xc],r9
800039ba:	ee f8 ff fc 	ld.w	r8,r7[-4]
800039be:	70 39       	ld.w	r9,r8[0xc]
800039c0:	ee f8 ff fc 	ld.w	r8,r7[-4]
800039c4:	70 08       	ld.w	r8,r8[0x0]
800039c6:	10 39       	cp.w	r9,r8
800039c8:	c0 c2       	brcc	800039e0 <prvCopyDataToQueue+0xc4>
800039ca:	ee f8 ff fc 	ld.w	r8,r7[-4]
800039ce:	70 19       	ld.w	r9,r8[0x4]
800039d0:	ee f8 ff fc 	ld.w	r8,r7[-4]
800039d4:	71 08       	ld.w	r8,r8[0x40]
800039d6:	5c 38       	neg	r8
800039d8:	10 09       	add	r9,r8
800039da:	ee f8 ff fc 	ld.w	r8,r7[-4]
800039de:	91 39       	st.w	r8[0xc],r9
800039e0:	ee f8 ff fc 	ld.w	r8,r7[-4]
800039e4:	70 e8       	ld.w	r8,r8[0x38]
800039e6:	f0 c9 ff ff 	sub	r9,r8,-1
800039ea:	ee f8 ff fc 	ld.w	r8,r7[-4]
800039ee:	91 e9       	st.w	r8[0x38],r9
800039f0:	2f dd       	sub	sp,-12
800039f2:	e3 cd 80 80 	ldm	sp++,r7,pc
800039f6:	00 00       	add	r0,r0
800039f8:	80 00       	ld.sh	r0,r0[0x0]
800039fa:	4e 8c       	lddpc	r12,80003b98 <prvIsQueueFull+0x28>

800039fc <prvCopyDataFromQueue>:
800039fc:	eb cd 40 80 	pushm	r7,lr
80003a00:	1a 97       	mov	r7,sp
80003a02:	20 2d       	sub	sp,8
80003a04:	ef 4c ff fc 	st.w	r7[-4],r12
80003a08:	ef 4b ff f8 	st.w	r7[-8],r11
80003a0c:	ee f8 ff fc 	ld.w	r8,r7[-4]
80003a10:	70 08       	ld.w	r8,r8[0x0]
80003a12:	58 08       	cp.w	r8,0
80003a14:	c2 50       	breq	80003a5e <prvCopyDataFromQueue+0x62>
80003a16:	ee f8 ff fc 	ld.w	r8,r7[-4]
80003a1a:	70 39       	ld.w	r9,r8[0xc]
80003a1c:	ee f8 ff fc 	ld.w	r8,r7[-4]
80003a20:	71 08       	ld.w	r8,r8[0x40]
80003a22:	10 09       	add	r9,r8
80003a24:	ee f8 ff fc 	ld.w	r8,r7[-4]
80003a28:	91 39       	st.w	r8[0xc],r9
80003a2a:	ee f8 ff fc 	ld.w	r8,r7[-4]
80003a2e:	70 39       	ld.w	r9,r8[0xc]
80003a30:	ee f8 ff fc 	ld.w	r8,r7[-4]
80003a34:	70 18       	ld.w	r8,r8[0x4]
80003a36:	10 39       	cp.w	r9,r8
80003a38:	c0 73       	brcs	80003a46 <prvCopyDataFromQueue+0x4a>
80003a3a:	ee f8 ff fc 	ld.w	r8,r7[-4]
80003a3e:	70 09       	ld.w	r9,r8[0x0]
80003a40:	ee f8 ff fc 	ld.w	r8,r7[-4]
80003a44:	91 39       	st.w	r8[0xc],r9
80003a46:	ee f8 ff fc 	ld.w	r8,r7[-4]
80003a4a:	71 09       	ld.w	r9,r8[0x40]
80003a4c:	ee f8 ff fc 	ld.w	r8,r7[-4]
80003a50:	70 38       	ld.w	r8,r8[0xc]
80003a52:	12 9a       	mov	r10,r9
80003a54:	10 9b       	mov	r11,r8
80003a56:	ee fc ff f8 	ld.w	r12,r7[-8]
80003a5a:	f0 1f 00 03 	mcall	80003a64 <prvCopyDataFromQueue+0x68>
80003a5e:	2f ed       	sub	sp,-8
80003a60:	e3 cd 80 80 	ldm	sp++,r7,pc
80003a64:	80 00       	ld.sh	r0,r0[0x0]
80003a66:	4e 8c       	lddpc	r12,80003c04 <xTaskGenericCreate+0x50>

80003a68 <prvUnlockQueue>:
80003a68:	eb cd 40 80 	pushm	r7,lr
80003a6c:	1a 97       	mov	r7,sp
80003a6e:	20 1d       	sub	sp,4
80003a70:	ef 4c ff fc 	st.w	r7[-4],r12
80003a74:	f0 1f 00 2d 	mcall	80003b28 <prvUnlockQueue+0xc0>
80003a78:	c1 a8       	rjmp	80003aac <prvUnlockQueue+0x44>
80003a7a:	ee f8 ff fc 	ld.w	r8,r7[-4]
80003a7e:	70 98       	ld.w	r8,r8[0x24]
80003a80:	58 08       	cp.w	r8,0
80003a82:	c1 c0       	breq	80003aba <prvUnlockQueue+0x52>
80003a84:	ee f8 ff fc 	ld.w	r8,r7[-4]
80003a88:	2d c8       	sub	r8,-36
80003a8a:	10 9c       	mov	r12,r8
80003a8c:	f0 1f 00 28 	mcall	80003b2c <prvUnlockQueue+0xc4>
80003a90:	18 98       	mov	r8,r12
80003a92:	58 08       	cp.w	r8,0
80003a94:	c0 30       	breq	80003a9a <prvUnlockQueue+0x32>
80003a96:	f0 1f 00 27 	mcall	80003b30 <prvUnlockQueue+0xc8>
80003a9a:	ee f8 ff fc 	ld.w	r8,r7[-4]
80003a9e:	71 28       	ld.w	r8,r8[0x48]
80003aa0:	f0 c9 00 01 	sub	r9,r8,1
80003aa4:	ee f8 ff fc 	ld.w	r8,r7[-4]
80003aa8:	f1 49 00 48 	st.w	r8[72],r9
80003aac:	ee f8 ff fc 	ld.w	r8,r7[-4]
80003ab0:	71 28       	ld.w	r8,r8[0x48]
80003ab2:	58 08       	cp.w	r8,0
80003ab4:	fe 99 ff e3 	brgt	80003a7a <prvUnlockQueue+0x12>
80003ab8:	c0 28       	rjmp	80003abc <prvUnlockQueue+0x54>
80003aba:	d7 03       	nop
80003abc:	ee f8 ff fc 	ld.w	r8,r7[-4]
80003ac0:	3f f9       	mov	r9,-1
80003ac2:	f1 49 00 48 	st.w	r8[72],r9
80003ac6:	f0 1f 00 1c 	mcall	80003b34 <prvUnlockQueue+0xcc>
80003aca:	f0 1f 00 18 	mcall	80003b28 <prvUnlockQueue+0xc0>
80003ace:	c1 a8       	rjmp	80003b02 <prvUnlockQueue+0x9a>
80003ad0:	ee f8 ff fc 	ld.w	r8,r7[-4]
80003ad4:	70 48       	ld.w	r8,r8[0x10]
80003ad6:	58 08       	cp.w	r8,0
80003ad8:	c1 c0       	breq	80003b10 <prvUnlockQueue+0xa8>
80003ada:	ee f8 ff fc 	ld.w	r8,r7[-4]
80003ade:	2f 08       	sub	r8,-16
80003ae0:	10 9c       	mov	r12,r8
80003ae2:	f0 1f 00 13 	mcall	80003b2c <prvUnlockQueue+0xc4>
80003ae6:	18 98       	mov	r8,r12
80003ae8:	58 08       	cp.w	r8,0
80003aea:	c0 30       	breq	80003af0 <prvUnlockQueue+0x88>
80003aec:	f0 1f 00 11 	mcall	80003b30 <prvUnlockQueue+0xc8>
80003af0:	ee f8 ff fc 	ld.w	r8,r7[-4]
80003af4:	71 18       	ld.w	r8,r8[0x44]
80003af6:	f0 c9 00 01 	sub	r9,r8,1
80003afa:	ee f8 ff fc 	ld.w	r8,r7[-4]
80003afe:	f1 49 00 44 	st.w	r8[68],r9
80003b02:	ee f8 ff fc 	ld.w	r8,r7[-4]
80003b06:	71 18       	ld.w	r8,r8[0x44]
80003b08:	58 08       	cp.w	r8,0
80003b0a:	fe 99 ff e3 	brgt	80003ad0 <prvUnlockQueue+0x68>
80003b0e:	c0 28       	rjmp	80003b12 <prvUnlockQueue+0xaa>
80003b10:	d7 03       	nop
80003b12:	ee f8 ff fc 	ld.w	r8,r7[-4]
80003b16:	3f f9       	mov	r9,-1
80003b18:	f1 49 00 44 	st.w	r8[68],r9
80003b1c:	f0 1f 00 06 	mcall	80003b34 <prvUnlockQueue+0xcc>
80003b20:	2f fd       	sub	sp,-4
80003b22:	e3 cd 80 80 	ldm	sp++,r7,pc
80003b26:	00 00       	add	r0,r0
80003b28:	80 00       	ld.sh	r0,r0[0x0]
80003b2a:	31 f0       	mov	r0,31
80003b2c:	80 00       	ld.sh	r0,r0[0x0]
80003b2e:	45 08       	lddsp	r8,sp[0x140]
80003b30:	80 00       	ld.sh	r0,r0[0x0]
80003b32:	46 c0       	lddsp	r0,sp[0x1b0]
80003b34:	80 00       	ld.sh	r0,r0[0x0]
80003b36:	32 0c       	mov	r12,32

80003b38 <prvIsQueueEmpty>:
80003b38:	eb cd 40 80 	pushm	r7,lr
80003b3c:	1a 97       	mov	r7,sp
80003b3e:	20 2d       	sub	sp,8
80003b40:	ef 4c ff f8 	st.w	r7[-8],r12
80003b44:	f0 1f 00 09 	mcall	80003b68 <prvIsQueueEmpty+0x30>
80003b48:	ee f8 ff f8 	ld.w	r8,r7[-8]
80003b4c:	70 e8       	ld.w	r8,r8[0x38]
80003b4e:	58 08       	cp.w	r8,0
80003b50:	5f 08       	sreq	r8
80003b52:	ef 48 ff fc 	st.w	r7[-4],r8
80003b56:	f0 1f 00 06 	mcall	80003b6c <prvIsQueueEmpty+0x34>
80003b5a:	ee f8 ff fc 	ld.w	r8,r7[-4]
80003b5e:	10 9c       	mov	r12,r8
80003b60:	2f ed       	sub	sp,-8
80003b62:	e3 cd 80 80 	ldm	sp++,r7,pc
80003b66:	00 00       	add	r0,r0
80003b68:	80 00       	ld.sh	r0,r0[0x0]
80003b6a:	31 f0       	mov	r0,31
80003b6c:	80 00       	ld.sh	r0,r0[0x0]
80003b6e:	32 0c       	mov	r12,32

80003b70 <prvIsQueueFull>:
80003b70:	eb cd 40 80 	pushm	r7,lr
80003b74:	1a 97       	mov	r7,sp
80003b76:	20 2d       	sub	sp,8
80003b78:	ef 4c ff f8 	st.w	r7[-8],r12
80003b7c:	f0 1f 00 0a 	mcall	80003ba4 <prvIsQueueFull+0x34>
80003b80:	ee f8 ff f8 	ld.w	r8,r7[-8]
80003b84:	70 e9       	ld.w	r9,r8[0x38]
80003b86:	ee f8 ff f8 	ld.w	r8,r7[-8]
80003b8a:	70 f8       	ld.w	r8,r8[0x3c]
80003b8c:	10 39       	cp.w	r9,r8
80003b8e:	5f 08       	sreq	r8
80003b90:	ef 48 ff fc 	st.w	r7[-4],r8
80003b94:	f0 1f 00 05 	mcall	80003ba8 <prvIsQueueFull+0x38>
80003b98:	ee f8 ff fc 	ld.w	r8,r7[-4]
80003b9c:	10 9c       	mov	r12,r8
80003b9e:	2f ed       	sub	sp,-8
80003ba0:	e3 cd 80 80 	ldm	sp++,r7,pc
80003ba4:	80 00       	ld.sh	r0,r0[0x0]
80003ba6:	31 f0       	mov	r0,31
80003ba8:	80 00       	ld.sh	r0,r0[0x0]
80003baa:	32 0c       	mov	r12,32
80003bac:	49 44       	lddpc	r4,80003bfc <xTaskGenericCreate+0x48>
80003bae:	4c 45       	lddpc	r5,80003cbc <xTaskGenericCreate+0x108>
80003bb0:	00 00       	add	r0,r0
	...

80003bb4 <xTaskGenericCreate>:
80003bb4:	eb cd 40 c0 	pushm	r6-r7,lr
80003bb8:	1a 97       	mov	r7,sp
80003bba:	20 8d       	sub	sp,32
80003bbc:	ee c6 ff f4 	sub	r6,r7,-12
80003bc0:	ef 4c ff f0 	st.w	r7[-16],r12
80003bc4:	ef 4b ff ec 	st.w	r7[-20],r11
80003bc8:	ef 49 ff e4 	st.w	r7[-28],r9
80003bcc:	ef 48 ff e0 	st.w	r7[-32],r8
80003bd0:	14 98       	mov	r8,r10
80003bd2:	ef 58 ff e8 	st.h	r7[-24],r8
80003bd6:	ef 18 ff e8 	ld.uh	r8,r7[-24]
80003bda:	6c 1b       	ld.w	r11,r6[0x4]
80003bdc:	10 9c       	mov	r12,r8
80003bde:	f0 1f 00 5a 	mcall	80003d44 <xTaskGenericCreate+0x190>
80003be2:	18 98       	mov	r8,r12
80003be4:	ef 48 ff f8 	st.w	r7[-8],r8
80003be8:	ee f8 ff f8 	ld.w	r8,r7[-8]
80003bec:	58 08       	cp.w	r8,0
80003bee:	e0 80 00 92 	breq	80003d12 <xTaskGenericCreate+0x15e>
80003bf2:	ee f8 ff f8 	ld.w	r8,r7[-8]
80003bf6:	70 c9       	ld.w	r9,r8[0x30]
80003bf8:	ef 18 ff e8 	ld.uh	r8,r7[-24]
80003bfc:	20 18       	sub	r8,1
80003bfe:	a3 68       	lsl	r8,0x2
80003c00:	f2 08 00 08 	add	r8,r9,r8
80003c04:	ef 48 ff fc 	st.w	r7[-4],r8
80003c08:	ee f8 ff fc 	ld.w	r8,r7[-4]
80003c0c:	e0 18 ff fc 	andl	r8,0xfffc
80003c10:	ef 48 ff fc 	st.w	r7[-4],r8
80003c14:	ef 18 ff e8 	ld.uh	r8,r7[-24]
80003c18:	6c 29       	ld.w	r9,r6[0x8]
80003c1a:	ee fa ff e0 	ld.w	r10,r7[-32]
80003c1e:	ee fb ff ec 	ld.w	r11,r7[-20]
80003c22:	ee fc ff f8 	ld.w	r12,r7[-8]
80003c26:	f0 1f 00 49 	mcall	80003d48 <xTaskGenericCreate+0x194>
80003c2a:	ee fa ff e4 	ld.w	r10,r7[-28]
80003c2e:	ee fb ff f0 	ld.w	r11,r7[-16]
80003c32:	ee fc ff fc 	ld.w	r12,r7[-4]
80003c36:	f0 1f 00 46 	mcall	80003d4c <xTaskGenericCreate+0x198>
80003c3a:	18 98       	mov	r8,r12
80003c3c:	10 99       	mov	r9,r8
80003c3e:	ee f8 ff f8 	ld.w	r8,r7[-8]
80003c42:	91 09       	st.w	r8[0x0],r9
80003c44:	6c 08       	ld.w	r8,r6[0x0]
80003c46:	58 08       	cp.w	r8,0
80003c48:	c0 50       	breq	80003c52 <xTaskGenericCreate+0x9e>
80003c4a:	6c 08       	ld.w	r8,r6[0x0]
80003c4c:	ee f9 ff f8 	ld.w	r9,r7[-8]
80003c50:	91 09       	st.w	r8[0x0],r9
80003c52:	f0 1f 00 40 	mcall	80003d50 <xTaskGenericCreate+0x19c>
80003c56:	4c 08       	lddpc	r8,80003d54 <xTaskGenericCreate+0x1a0>
80003c58:	70 08       	ld.w	r8,r8[0x0]
80003c5a:	f0 c9 ff ff 	sub	r9,r8,-1
80003c5e:	4b e8       	lddpc	r8,80003d54 <xTaskGenericCreate+0x1a0>
80003c60:	91 09       	st.w	r8[0x0],r9
80003c62:	4b e8       	lddpc	r8,80003d58 <xTaskGenericCreate+0x1a4>
80003c64:	70 08       	ld.w	r8,r8[0x0]
80003c66:	58 08       	cp.w	r8,0
80003c68:	c0 c1       	brne	80003c80 <xTaskGenericCreate+0xcc>
80003c6a:	4b c8       	lddpc	r8,80003d58 <xTaskGenericCreate+0x1a4>
80003c6c:	ee f9 ff f8 	ld.w	r9,r7[-8]
80003c70:	91 09       	st.w	r8[0x0],r9
80003c72:	4b 98       	lddpc	r8,80003d54 <xTaskGenericCreate+0x1a0>
80003c74:	70 08       	ld.w	r8,r8[0x0]
80003c76:	58 18       	cp.w	r8,1
80003c78:	c1 41       	brne	80003ca0 <xTaskGenericCreate+0xec>
80003c7a:	f0 1f 00 39 	mcall	80003d5c <xTaskGenericCreate+0x1a8>
80003c7e:	c1 18       	rjmp	80003ca0 <xTaskGenericCreate+0xec>
80003c80:	4b 88       	lddpc	r8,80003d60 <xTaskGenericCreate+0x1ac>
80003c82:	70 08       	ld.w	r8,r8[0x0]
80003c84:	58 08       	cp.w	r8,0
80003c86:	c0 d1       	brne	80003ca0 <xTaskGenericCreate+0xec>
80003c88:	4b 48       	lddpc	r8,80003d58 <xTaskGenericCreate+0x1a4>
80003c8a:	70 08       	ld.w	r8,r8[0x0]
80003c8c:	70 b9       	ld.w	r9,r8[0x2c]
80003c8e:	ee f8 ff e0 	ld.w	r8,r7[-32]
80003c92:	10 39       	cp.w	r9,r8
80003c94:	e0 8b 00 06 	brhi	80003ca0 <xTaskGenericCreate+0xec>
80003c98:	4b 08       	lddpc	r8,80003d58 <xTaskGenericCreate+0x1a4>
80003c9a:	ee f9 ff f8 	ld.w	r9,r7[-8]
80003c9e:	91 09       	st.w	r8[0x0],r9
80003ca0:	ee f8 ff f8 	ld.w	r8,r7[-8]
80003ca4:	70 b9       	ld.w	r9,r8[0x2c]
80003ca6:	4b 08       	lddpc	r8,80003d64 <xTaskGenericCreate+0x1b0>
80003ca8:	70 08       	ld.w	r8,r8[0x0]
80003caa:	10 39       	cp.w	r9,r8
80003cac:	e0 88 00 07 	brls	80003cba <xTaskGenericCreate+0x106>
80003cb0:	ee f8 ff f8 	ld.w	r8,r7[-8]
80003cb4:	70 b9       	ld.w	r9,r8[0x2c]
80003cb6:	4a c8       	lddpc	r8,80003d64 <xTaskGenericCreate+0x1b0>
80003cb8:	91 09       	st.w	r8[0x0],r9
80003cba:	4a c8       	lddpc	r8,80003d68 <xTaskGenericCreate+0x1b4>
80003cbc:	70 08       	ld.w	r8,r8[0x0]
80003cbe:	f0 c9 ff ff 	sub	r9,r8,-1
80003cc2:	4a a8       	lddpc	r8,80003d68 <xTaskGenericCreate+0x1b4>
80003cc4:	91 09       	st.w	r8[0x0],r9
80003cc6:	ee f8 ff f8 	ld.w	r8,r7[-8]
80003cca:	70 b9       	ld.w	r9,r8[0x2c]
80003ccc:	4a 88       	lddpc	r8,80003d6c <xTaskGenericCreate+0x1b8>
80003cce:	70 08       	ld.w	r8,r8[0x0]
80003cd0:	10 39       	cp.w	r9,r8
80003cd2:	e0 88 00 07 	brls	80003ce0 <xTaskGenericCreate+0x12c>
80003cd6:	ee f8 ff f8 	ld.w	r8,r7[-8]
80003cda:	70 b9       	ld.w	r9,r8[0x2c]
80003cdc:	4a 48       	lddpc	r8,80003d6c <xTaskGenericCreate+0x1b8>
80003cde:	91 09       	st.w	r8[0x0],r9
80003ce0:	ee f8 ff f8 	ld.w	r8,r7[-8]
80003ce4:	f0 ca ff fc 	sub	r10,r8,-4
80003ce8:	ee f8 ff f8 	ld.w	r8,r7[-8]
80003cec:	70 b9       	ld.w	r9,r8[0x2c]
80003cee:	12 98       	mov	r8,r9
80003cf0:	a3 68       	lsl	r8,0x2
80003cf2:	12 08       	add	r8,r9
80003cf4:	a3 68       	lsl	r8,0x2
80003cf6:	10 99       	mov	r9,r8
80003cf8:	49 e8       	lddpc	r8,80003d70 <xTaskGenericCreate+0x1bc>
80003cfa:	f2 08 00 08 	add	r8,r9,r8
80003cfe:	14 9b       	mov	r11,r10
80003d00:	10 9c       	mov	r12,r8
80003d02:	f0 1f 00 1d 	mcall	80003d74 <xTaskGenericCreate+0x1c0>
80003d06:	30 18       	mov	r8,1
80003d08:	ef 48 ff f4 	st.w	r7[-12],r8
80003d0c:	f0 1f 00 1b 	mcall	80003d78 <xTaskGenericCreate+0x1c4>
80003d10:	c0 48       	rjmp	80003d18 <xTaskGenericCreate+0x164>
80003d12:	3f f8       	mov	r8,-1
80003d14:	ef 48 ff f4 	st.w	r7[-12],r8
80003d18:	ee f8 ff f4 	ld.w	r8,r7[-12]
80003d1c:	58 18       	cp.w	r8,1
80003d1e:	c0 d1       	brne	80003d38 <xTaskGenericCreate+0x184>
80003d20:	49 08       	lddpc	r8,80003d60 <xTaskGenericCreate+0x1ac>
80003d22:	70 08       	ld.w	r8,r8[0x0]
80003d24:	58 08       	cp.w	r8,0
80003d26:	c0 90       	breq	80003d38 <xTaskGenericCreate+0x184>
80003d28:	48 c8       	lddpc	r8,80003d58 <xTaskGenericCreate+0x1a4>
80003d2a:	70 08       	ld.w	r8,r8[0x0]
80003d2c:	70 b9       	ld.w	r9,r8[0x2c]
80003d2e:	ee f8 ff e0 	ld.w	r8,r7[-32]
80003d32:	10 39       	cp.w	r9,r8
80003d34:	c0 22       	brcc	80003d38 <xTaskGenericCreate+0x184>
80003d36:	d7 33       	scall
80003d38:	ee f8 ff f4 	ld.w	r8,r7[-12]
80003d3c:	10 9c       	mov	r12,r8
80003d3e:	2f 8d       	sub	sp,-32
80003d40:	e3 cd 80 c0 	ldm	sp++,r6-r7,pc
80003d44:	80 00       	ld.sh	r0,r0[0x0]
80003d46:	49 48       	lddpc	r8,80003d94 <vTaskPrioritySet+0x18>
80003d48:	80 00       	ld.sh	r0,r0[0x0]
80003d4a:	47 00       	lddsp	r0,sp[0x1c0]
80003d4c:	80 00       	ld.sh	r0,r0[0x0]
80003d4e:	32 38       	mov	r8,35
80003d50:	80 00       	ld.sh	r0,r0[0x0]
80003d52:	31 f0       	mov	r0,31
80003d54:	00 00       	add	r0,r0
80003d56:	07 34       	ld.ub	r4,r3++
80003d58:	00 00       	add	r0,r0
80003d5a:	06 20       	rsub	r0,r3
80003d5c:	80 00       	ld.sh	r0,r0[0x0]
80003d5e:	47 9c       	lddsp	r12,sp[0x1e4]
80003d60:	00 00       	add	r0,r0
80003d62:	07 44       	ld.w	r4,--r3
80003d64:	00 00       	add	r0,r0
80003d66:	07 3c       	ld.ub	r12,r3++
80003d68:	00 00       	add	r0,r0
80003d6a:	07 58       	ld.sh	r8,--r3
80003d6c:	00 00       	add	r0,r0
80003d6e:	07 40       	ld.w	r0,--r3
80003d70:	00 00       	add	r0,r0
80003d72:	06 24       	rsub	r4,r3
80003d74:	80 00       	ld.sh	r0,r0[0x0]
80003d76:	2e c6       	sub	r6,-20
80003d78:	80 00       	ld.sh	r0,r0[0x0]
80003d7a:	32 0c       	mov	r12,32

80003d7c <vTaskPrioritySet>:
80003d7c:	eb cd 40 80 	pushm	r7,lr
80003d80:	1a 97       	mov	r7,sp
80003d82:	20 5d       	sub	sp,20
80003d84:	ef 4c ff f0 	st.w	r7[-16],r12
80003d88:	ef 4b ff ec 	st.w	r7[-20],r11
80003d8c:	30 08       	mov	r8,0
80003d8e:	ef 48 ff fc 	st.w	r7[-4],r8
80003d92:	ee f8 ff ec 	ld.w	r8,r7[-20]
80003d96:	58 78       	cp.w	r8,7
80003d98:	e0 88 00 05 	brls	80003da2 <vTaskPrioritySet+0x26>
80003d9c:	30 78       	mov	r8,7
80003d9e:	ef 48 ff ec 	st.w	r7[-20],r8
80003da2:	f0 1f 00 42 	mcall	80003ea8 <vTaskPrioritySet+0x12c>
80003da6:	4c 28       	lddpc	r8,80003eac <vTaskPrioritySet+0x130>
80003da8:	70 08       	ld.w	r8,r8[0x0]
80003daa:	ee f9 ff f0 	ld.w	r9,r7[-16]
80003dae:	10 39       	cp.w	r9,r8
80003db0:	c0 41       	brne	80003db8 <vTaskPrioritySet+0x3c>
80003db2:	30 08       	mov	r8,0
80003db4:	ef 48 ff f0 	st.w	r7[-16],r8
80003db8:	ee f8 ff f0 	ld.w	r8,r7[-16]
80003dbc:	58 08       	cp.w	r8,0
80003dbe:	c0 41       	brne	80003dc6 <vTaskPrioritySet+0x4a>
80003dc0:	4b b8       	lddpc	r8,80003eac <vTaskPrioritySet+0x130>
80003dc2:	70 08       	ld.w	r8,r8[0x0]
80003dc4:	c0 38       	rjmp	80003dca <vTaskPrioritySet+0x4e>
80003dc6:	ee f8 ff f0 	ld.w	r8,r7[-16]
80003dca:	ef 48 ff f4 	st.w	r7[-12],r8
80003dce:	ee f8 ff f4 	ld.w	r8,r7[-12]
80003dd2:	70 b8       	ld.w	r8,r8[0x2c]
80003dd4:	ef 48 ff f8 	st.w	r7[-8],r8
80003dd8:	ee f9 ff f8 	ld.w	r9,r7[-8]
80003ddc:	ee f8 ff ec 	ld.w	r8,r7[-20]
80003de0:	10 39       	cp.w	r9,r8
80003de2:	c5 d0       	breq	80003e9c <vTaskPrioritySet+0x120>
80003de4:	ee f9 ff ec 	ld.w	r9,r7[-20]
80003de8:	ee f8 ff f8 	ld.w	r8,r7[-8]
80003dec:	10 39       	cp.w	r9,r8
80003dee:	e0 88 00 0a 	brls	80003e02 <vTaskPrioritySet+0x86>
80003df2:	ee f8 ff f0 	ld.w	r8,r7[-16]
80003df6:	58 08       	cp.w	r8,0
80003df8:	c0 c0       	breq	80003e10 <vTaskPrioritySet+0x94>
80003dfa:	30 18       	mov	r8,1
80003dfc:	ef 48 ff fc 	st.w	r7[-4],r8
80003e00:	c0 88       	rjmp	80003e10 <vTaskPrioritySet+0x94>
80003e02:	ee f8 ff f0 	ld.w	r8,r7[-16]
80003e06:	58 08       	cp.w	r8,0
80003e08:	c0 41       	brne	80003e10 <vTaskPrioritySet+0x94>
80003e0a:	30 18       	mov	r8,1
80003e0c:	ef 48 ff fc 	st.w	r7[-4],r8
80003e10:	ee f8 ff f4 	ld.w	r8,r7[-12]
80003e14:	ee f9 ff ec 	ld.w	r9,r7[-20]
80003e18:	91 b9       	st.w	r8[0x2c],r9
80003e1a:	ee f8 ff ec 	ld.w	r8,r7[-20]
80003e1e:	f0 09 11 08 	rsub	r9,r8,8
80003e22:	ee f8 ff f4 	ld.w	r8,r7[-12]
80003e26:	91 69       	st.w	r8[0x18],r9
80003e28:	ee f8 ff f4 	ld.w	r8,r7[-12]
80003e2c:	70 5a       	ld.w	r10,r8[0x14]
80003e2e:	ee f9 ff f8 	ld.w	r9,r7[-8]
80003e32:	12 98       	mov	r8,r9
80003e34:	a3 68       	lsl	r8,0x2
80003e36:	12 08       	add	r8,r9
80003e38:	a3 68       	lsl	r8,0x2
80003e3a:	10 99       	mov	r9,r8
80003e3c:	49 d8       	lddpc	r8,80003eb0 <vTaskPrioritySet+0x134>
80003e3e:	f2 08 00 08 	add	r8,r9,r8
80003e42:	10 3a       	cp.w	r10,r8
80003e44:	c2 71       	brne	80003e92 <vTaskPrioritySet+0x116>
80003e46:	ee f8 ff f4 	ld.w	r8,r7[-12]
80003e4a:	2f c8       	sub	r8,-4
80003e4c:	10 9c       	mov	r12,r8
80003e4e:	f0 1f 00 1a 	mcall	80003eb4 <vTaskPrioritySet+0x138>
80003e52:	ee f8 ff f4 	ld.w	r8,r7[-12]
80003e56:	70 b9       	ld.w	r9,r8[0x2c]
80003e58:	49 88       	lddpc	r8,80003eb8 <vTaskPrioritySet+0x13c>
80003e5a:	70 08       	ld.w	r8,r8[0x0]
80003e5c:	10 39       	cp.w	r9,r8
80003e5e:	e0 88 00 07 	brls	80003e6c <vTaskPrioritySet+0xf0>
80003e62:	ee f8 ff f4 	ld.w	r8,r7[-12]
80003e66:	70 b9       	ld.w	r9,r8[0x2c]
80003e68:	49 48       	lddpc	r8,80003eb8 <vTaskPrioritySet+0x13c>
80003e6a:	91 09       	st.w	r8[0x0],r9
80003e6c:	ee f8 ff f4 	ld.w	r8,r7[-12]
80003e70:	f0 ca ff fc 	sub	r10,r8,-4
80003e74:	ee f8 ff f4 	ld.w	r8,r7[-12]
80003e78:	70 b9       	ld.w	r9,r8[0x2c]
80003e7a:	12 98       	mov	r8,r9
80003e7c:	a3 68       	lsl	r8,0x2
80003e7e:	12 08       	add	r8,r9
80003e80:	a3 68       	lsl	r8,0x2
80003e82:	10 99       	mov	r9,r8
80003e84:	48 b8       	lddpc	r8,80003eb0 <vTaskPrioritySet+0x134>
80003e86:	f2 08 00 08 	add	r8,r9,r8
80003e8a:	14 9b       	mov	r11,r10
80003e8c:	10 9c       	mov	r12,r8
80003e8e:	f0 1f 00 0c 	mcall	80003ebc <vTaskPrioritySet+0x140>
80003e92:	ee f8 ff fc 	ld.w	r8,r7[-4]
80003e96:	58 18       	cp.w	r8,1
80003e98:	c0 21       	brne	80003e9c <vTaskPrioritySet+0x120>
80003e9a:	d7 33       	scall
80003e9c:	f0 1f 00 09 	mcall	80003ec0 <vTaskPrioritySet+0x144>
80003ea0:	2f bd       	sub	sp,-20
80003ea2:	e3 cd 80 80 	ldm	sp++,r7,pc
80003ea6:	00 00       	add	r0,r0
80003ea8:	80 00       	ld.sh	r0,r0[0x0]
80003eaa:	31 f0       	mov	r0,31
80003eac:	00 00       	add	r0,r0
80003eae:	06 20       	rsub	r0,r3
80003eb0:	00 00       	add	r0,r0
80003eb2:	06 24       	rsub	r4,r3
80003eb4:	80 00       	ld.sh	r0,r0[0x0]
80003eb6:	2f da       	sub	r10,-3
80003eb8:	00 00       	add	r0,r0
80003eba:	07 40       	ld.w	r0,--r3
80003ebc:	80 00       	ld.sh	r0,r0[0x0]
80003ebe:	2e c6       	sub	r6,-20
80003ec0:	80 00       	ld.sh	r0,r0[0x0]
80003ec2:	32 0c       	mov	r12,32

80003ec4 <vTaskSuspend>:
80003ec4:	eb cd 40 80 	pushm	r7,lr
80003ec8:	1a 97       	mov	r7,sp
80003eca:	20 2d       	sub	sp,8
80003ecc:	ef 4c ff f8 	st.w	r7[-8],r12
80003ed0:	f0 1f 00 24 	mcall	80003f60 <vTaskSuspend+0x9c>
80003ed4:	4a 48       	lddpc	r8,80003f64 <vTaskSuspend+0xa0>
80003ed6:	70 08       	ld.w	r8,r8[0x0]
80003ed8:	ee f9 ff f8 	ld.w	r9,r7[-8]
80003edc:	10 39       	cp.w	r9,r8
80003ede:	c0 41       	brne	80003ee6 <vTaskSuspend+0x22>
80003ee0:	30 08       	mov	r8,0
80003ee2:	ef 48 ff f8 	st.w	r7[-8],r8
80003ee6:	ee f8 ff f8 	ld.w	r8,r7[-8]
80003eea:	58 08       	cp.w	r8,0
80003eec:	c0 41       	brne	80003ef4 <vTaskSuspend+0x30>
80003eee:	49 e8       	lddpc	r8,80003f64 <vTaskSuspend+0xa0>
80003ef0:	70 08       	ld.w	r8,r8[0x0]
80003ef2:	c0 38       	rjmp	80003ef8 <vTaskSuspend+0x34>
80003ef4:	ee f8 ff f8 	ld.w	r8,r7[-8]
80003ef8:	ef 48 ff fc 	st.w	r7[-4],r8
80003efc:	ee f8 ff fc 	ld.w	r8,r7[-4]
80003f00:	2f c8       	sub	r8,-4
80003f02:	10 9c       	mov	r12,r8
80003f04:	f0 1f 00 19 	mcall	80003f68 <vTaskSuspend+0xa4>
80003f08:	ee f8 ff fc 	ld.w	r8,r7[-4]
80003f0c:	70 a8       	ld.w	r8,r8[0x28]
80003f0e:	58 08       	cp.w	r8,0
80003f10:	c0 70       	breq	80003f1e <vTaskSuspend+0x5a>
80003f12:	ee f8 ff fc 	ld.w	r8,r7[-4]
80003f16:	2e 88       	sub	r8,-24
80003f18:	10 9c       	mov	r12,r8
80003f1a:	f0 1f 00 14 	mcall	80003f68 <vTaskSuspend+0xa4>
80003f1e:	ee f8 ff fc 	ld.w	r8,r7[-4]
80003f22:	2f c8       	sub	r8,-4
80003f24:	10 9b       	mov	r11,r8
80003f26:	49 2c       	lddpc	r12,80003f6c <vTaskSuspend+0xa8>
80003f28:	f0 1f 00 12 	mcall	80003f70 <vTaskSuspend+0xac>
80003f2c:	f0 1f 00 12 	mcall	80003f74 <vTaskSuspend+0xb0>
80003f30:	ee f8 ff f8 	ld.w	r8,r7[-8]
80003f34:	58 08       	cp.w	r8,0
80003f36:	c1 11       	brne	80003f58 <vTaskSuspend+0x94>
80003f38:	49 08       	lddpc	r8,80003f78 <vTaskSuspend+0xb4>
80003f3a:	70 08       	ld.w	r8,r8[0x0]
80003f3c:	58 08       	cp.w	r8,0
80003f3e:	c0 30       	breq	80003f44 <vTaskSuspend+0x80>
80003f40:	d7 33       	scall
80003f42:	c0 b8       	rjmp	80003f58 <vTaskSuspend+0x94>
80003f44:	48 e8       	lddpc	r8,80003f7c <vTaskSuspend+0xb8>
80003f46:	70 08       	ld.w	r8,r8[0x0]
80003f48:	58 18       	cp.w	r8,1
80003f4a:	c0 51       	brne	80003f54 <vTaskSuspend+0x90>
80003f4c:	48 68       	lddpc	r8,80003f64 <vTaskSuspend+0xa0>
80003f4e:	30 09       	mov	r9,0
80003f50:	91 09       	st.w	r8[0x0],r9
80003f52:	c0 38       	rjmp	80003f58 <vTaskSuspend+0x94>
80003f54:	f0 1f 00 0b 	mcall	80003f80 <vTaskSuspend+0xbc>
80003f58:	2f ed       	sub	sp,-8
80003f5a:	e3 cd 80 80 	ldm	sp++,r7,pc
80003f5e:	00 00       	add	r0,r0
80003f60:	80 00       	ld.sh	r0,r0[0x0]
80003f62:	31 f0       	mov	r0,31
80003f64:	00 00       	add	r0,r0
80003f66:	06 20       	rsub	r0,r3
80003f68:	80 00       	ld.sh	r0,r0[0x0]
80003f6a:	2f da       	sub	r10,-3
80003f6c:	00 00       	add	r0,r0
80003f6e:	07 20       	ld.uh	r0,r3++
80003f70:	80 00       	ld.sh	r0,r0[0x0]
80003f72:	2e c6       	sub	r6,-20
80003f74:	80 00       	ld.sh	r0,r0[0x0]
80003f76:	32 0c       	mov	r12,32
80003f78:	00 00       	add	r0,r0
80003f7a:	07 44       	ld.w	r4,--r3
80003f7c:	00 00       	add	r0,r0
80003f7e:	07 34       	ld.ub	r4,r3++
80003f80:	80 00       	ld.sh	r0,r0[0x0]
80003f82:	43 d8       	lddsp	r8,sp[0xf4]

80003f84 <xTaskIsTaskSuspended>:
80003f84:	eb cd 40 80 	pushm	r7,lr
80003f88:	1a 97       	mov	r7,sp
80003f8a:	20 3d       	sub	sp,12
80003f8c:	ef 4c ff f4 	st.w	r7[-12],r12
80003f90:	30 08       	mov	r8,0
80003f92:	ef 48 ff f8 	st.w	r7[-8],r8
80003f96:	ee f8 ff f4 	ld.w	r8,r7[-12]
80003f9a:	ef 48 ff fc 	st.w	r7[-4],r8
80003f9e:	ee f8 ff fc 	ld.w	r8,r7[-4]
80003fa2:	70 59       	ld.w	r9,r8[0x14]
80003fa4:	48 c8       	lddpc	r8,80003fd4 <xTaskIsTaskSuspended+0x50>
80003fa6:	10 39       	cp.w	r9,r8
80003fa8:	c0 f1       	brne	80003fc6 <xTaskIsTaskSuspended+0x42>
80003faa:	ee f8 ff fc 	ld.w	r8,r7[-4]
80003fae:	70 a9       	ld.w	r9,r8[0x28]
80003fb0:	48 a8       	lddpc	r8,80003fd8 <xTaskIsTaskSuspended+0x54>
80003fb2:	10 39       	cp.w	r9,r8
80003fb4:	c0 90       	breq	80003fc6 <xTaskIsTaskSuspended+0x42>
80003fb6:	ee f8 ff fc 	ld.w	r8,r7[-4]
80003fba:	70 a8       	ld.w	r8,r8[0x28]
80003fbc:	58 08       	cp.w	r8,0
80003fbe:	c0 41       	brne	80003fc6 <xTaskIsTaskSuspended+0x42>
80003fc0:	30 18       	mov	r8,1
80003fc2:	ef 48 ff f8 	st.w	r7[-8],r8
80003fc6:	ee f8 ff f8 	ld.w	r8,r7[-8]
80003fca:	10 9c       	mov	r12,r8
80003fcc:	2f dd       	sub	sp,-12
80003fce:	e3 cd 80 80 	ldm	sp++,r7,pc
80003fd2:	00 00       	add	r0,r0
80003fd4:	00 00       	add	r0,r0
80003fd6:	07 20       	ld.uh	r0,r3++
80003fd8:	00 00       	add	r0,r0
80003fda:	06 f4       	st.b	--r3,r4

80003fdc <vTaskResume>:
80003fdc:	eb cd 40 80 	pushm	r7,lr
80003fe0:	1a 97       	mov	r7,sp
80003fe2:	20 2d       	sub	sp,8
80003fe4:	ef 4c ff f8 	st.w	r7[-8],r12
80003fe8:	ee f8 ff f8 	ld.w	r8,r7[-8]
80003fec:	ef 48 ff fc 	st.w	r7[-4],r8
80003ff0:	ee f8 ff fc 	ld.w	r8,r7[-4]
80003ff4:	58 08       	cp.w	r8,0
80003ff6:	c4 10       	breq	80004078 <vTaskResume+0x9c>
80003ff8:	4a 28       	lddpc	r8,80004080 <vTaskResume+0xa4>
80003ffa:	70 08       	ld.w	r8,r8[0x0]
80003ffc:	ee f9 ff fc 	ld.w	r9,r7[-4]
80004000:	10 39       	cp.w	r9,r8
80004002:	c3 b0       	breq	80004078 <vTaskResume+0x9c>
80004004:	f0 1f 00 20 	mcall	80004084 <vTaskResume+0xa8>
80004008:	ee fc ff fc 	ld.w	r12,r7[-4]
8000400c:	f0 1f 00 1f 	mcall	80004088 <vTaskResume+0xac>
80004010:	18 98       	mov	r8,r12
80004012:	58 18       	cp.w	r8,1
80004014:	c3 01       	brne	80004074 <vTaskResume+0x98>
80004016:	ee f8 ff fc 	ld.w	r8,r7[-4]
8000401a:	2f c8       	sub	r8,-4
8000401c:	10 9c       	mov	r12,r8
8000401e:	f0 1f 00 1c 	mcall	8000408c <vTaskResume+0xb0>
80004022:	ee f8 ff fc 	ld.w	r8,r7[-4]
80004026:	70 b9       	ld.w	r9,r8[0x2c]
80004028:	49 a8       	lddpc	r8,80004090 <vTaskResume+0xb4>
8000402a:	70 08       	ld.w	r8,r8[0x0]
8000402c:	10 39       	cp.w	r9,r8
8000402e:	e0 88 00 07 	brls	8000403c <vTaskResume+0x60>
80004032:	ee f8 ff fc 	ld.w	r8,r7[-4]
80004036:	70 b9       	ld.w	r9,r8[0x2c]
80004038:	49 68       	lddpc	r8,80004090 <vTaskResume+0xb4>
8000403a:	91 09       	st.w	r8[0x0],r9
8000403c:	ee f8 ff fc 	ld.w	r8,r7[-4]
80004040:	f0 ca ff fc 	sub	r10,r8,-4
80004044:	ee f8 ff fc 	ld.w	r8,r7[-4]
80004048:	70 b9       	ld.w	r9,r8[0x2c]
8000404a:	12 98       	mov	r8,r9
8000404c:	a3 68       	lsl	r8,0x2
8000404e:	12 08       	add	r8,r9
80004050:	a3 68       	lsl	r8,0x2
80004052:	10 99       	mov	r9,r8
80004054:	49 08       	lddpc	r8,80004094 <vTaskResume+0xb8>
80004056:	f2 08 00 08 	add	r8,r9,r8
8000405a:	14 9b       	mov	r11,r10
8000405c:	10 9c       	mov	r12,r8
8000405e:	f0 1f 00 0f 	mcall	80004098 <vTaskResume+0xbc>
80004062:	ee f8 ff fc 	ld.w	r8,r7[-4]
80004066:	70 b9       	ld.w	r9,r8[0x2c]
80004068:	48 68       	lddpc	r8,80004080 <vTaskResume+0xa4>
8000406a:	70 08       	ld.w	r8,r8[0x0]
8000406c:	70 b8       	ld.w	r8,r8[0x2c]
8000406e:	10 39       	cp.w	r9,r8
80004070:	c0 23       	brcs	80004074 <vTaskResume+0x98>
80004072:	d7 33       	scall
80004074:	f0 1f 00 0a 	mcall	8000409c <vTaskResume+0xc0>
80004078:	2f ed       	sub	sp,-8
8000407a:	e3 cd 80 80 	ldm	sp++,r7,pc
8000407e:	00 00       	add	r0,r0
80004080:	00 00       	add	r0,r0
80004082:	06 20       	rsub	r0,r3
80004084:	80 00       	ld.sh	r0,r0[0x0]
80004086:	31 f0       	mov	r0,31
80004088:	80 00       	ld.sh	r0,r0[0x0]
8000408a:	3f 84       	mov	r4,-8
8000408c:	80 00       	ld.sh	r0,r0[0x0]
8000408e:	2f da       	sub	r10,-3
80004090:	00 00       	add	r0,r0
80004092:	07 40       	ld.w	r0,--r3
80004094:	00 00       	add	r0,r0
80004096:	06 24       	rsub	r4,r3
80004098:	80 00       	ld.sh	r0,r0[0x0]
8000409a:	2e c6       	sub	r6,-20
8000409c:	80 00       	ld.sh	r0,r0[0x0]
8000409e:	32 0c       	mov	r12,32

800040a0 <vTaskStartScheduler>:
800040a0:	eb cd 40 80 	pushm	r7,lr
800040a4:	1a 97       	mov	r7,sp
800040a6:	20 1d       	sub	sp,4
800040a8:	49 1b       	lddpc	r11,800040ec <vTaskStartScheduler+0x4c>
800040aa:	30 08       	mov	r8,0
800040ac:	1a d8       	st.w	--sp,r8
800040ae:	30 08       	mov	r8,0
800040b0:	1a d8       	st.w	--sp,r8
800040b2:	30 08       	mov	r8,0
800040b4:	1a d8       	st.w	--sp,r8
800040b6:	30 08       	mov	r8,0
800040b8:	30 09       	mov	r9,0
800040ba:	e0 6a 01 00 	mov	r10,256
800040be:	48 dc       	lddpc	r12,800040f0 <vTaskStartScheduler+0x50>
800040c0:	f0 1f 00 0d 	mcall	800040f4 <vTaskStartScheduler+0x54>
800040c4:	2f dd       	sub	sp,-12
800040c6:	18 98       	mov	r8,r12
800040c8:	ef 48 ff fc 	st.w	r7[-4],r8
800040cc:	ee f8 ff fc 	ld.w	r8,r7[-4]
800040d0:	58 18       	cp.w	r8,1
800040d2:	c0 a1       	brne	800040e6 <vTaskStartScheduler+0x46>
800040d4:	d3 03       	ssrf	0x10
800040d6:	48 98       	lddpc	r8,800040f8 <vTaskStartScheduler+0x58>
800040d8:	30 19       	mov	r9,1
800040da:	91 09       	st.w	r8[0x0],r9
800040dc:	48 88       	lddpc	r8,800040fc <vTaskStartScheduler+0x5c>
800040de:	30 09       	mov	r9,0
800040e0:	91 09       	st.w	r8[0x0],r9
800040e2:	f0 1f 00 08 	mcall	80004100 <vTaskStartScheduler+0x60>
800040e6:	2f fd       	sub	sp,-4
800040e8:	e3 cd 80 80 	ldm	sp++,r7,pc
800040ec:	80 00       	ld.sh	r0,r0[0x0]
800040ee:	3b ac       	mov	r12,-70
800040f0:	80 00       	ld.sh	r0,r0[0x0]
800040f2:	46 d4       	lddsp	r4,sp[0x1b4]
800040f4:	80 00       	ld.sh	r0,r0[0x0]
800040f6:	3b b4       	mov	r4,-69
800040f8:	00 00       	add	r0,r0
800040fa:	07 44       	ld.w	r4,--r3
800040fc:	00 00       	add	r0,r0
800040fe:	07 38       	ld.ub	r8,r3++
80004100:	80 00       	ld.sh	r0,r0[0x0]
80004102:	33 e0       	mov	r0,62

80004104 <vTaskSuspendAll>:
80004104:	eb cd 40 80 	pushm	r7,lr
80004108:	1a 97       	mov	r7,sp
8000410a:	48 58       	lddpc	r8,8000411c <vTaskSuspendAll+0x18>
8000410c:	70 08       	ld.w	r8,r8[0x0]
8000410e:	f0 c9 ff ff 	sub	r9,r8,-1
80004112:	48 38       	lddpc	r8,8000411c <vTaskSuspendAll+0x18>
80004114:	91 09       	st.w	r8[0x0],r9
80004116:	e3 cd 80 80 	ldm	sp++,r7,pc
8000411a:	00 00       	add	r0,r0
8000411c:	00 00       	add	r0,r0
8000411e:	07 48       	ld.w	r8,--r3

80004120 <xTaskResumeAll>:
80004120:	eb cd 40 c0 	pushm	r6-r7,lr
80004124:	1a 97       	mov	r7,sp
80004126:	20 2d       	sub	sp,8
80004128:	30 08       	mov	r8,0
8000412a:	ef 48 ff f8 	st.w	r7[-8],r8
8000412e:	f0 1f 00 3a 	mcall	80004214 <xTaskResumeAll+0xf4>
80004132:	4b a8       	lddpc	r8,80004218 <xTaskResumeAll+0xf8>
80004134:	70 08       	ld.w	r8,r8[0x0]
80004136:	f0 c9 00 01 	sub	r9,r8,1
8000413a:	4b 88       	lddpc	r8,80004218 <xTaskResumeAll+0xf8>
8000413c:	91 09       	st.w	r8[0x0],r9
8000413e:	4b 78       	lddpc	r8,80004218 <xTaskResumeAll+0xf8>
80004140:	70 08       	ld.w	r8,r8[0x0]
80004142:	58 08       	cp.w	r8,0
80004144:	c5 f1       	brne	80004202 <xTaskResumeAll+0xe2>
80004146:	4b 68       	lddpc	r8,8000421c <xTaskResumeAll+0xfc>
80004148:	70 08       	ld.w	r8,r8[0x0]
8000414a:	58 08       	cp.w	r8,0
8000414c:	c5 b0       	breq	80004202 <xTaskResumeAll+0xe2>
8000414e:	30 08       	mov	r8,0
80004150:	ef 48 ff fc 	st.w	r7[-4],r8
80004154:	c3 08       	rjmp	800041b4 <xTaskResumeAll+0x94>
80004156:	4b 38       	lddpc	r8,80004220 <xTaskResumeAll+0x100>
80004158:	70 38       	ld.w	r8,r8[0xc]
8000415a:	70 38       	ld.w	r8,r8[0xc]
8000415c:	10 96       	mov	r6,r8
8000415e:	ec c8 ff e8 	sub	r8,r6,-24
80004162:	10 9c       	mov	r12,r8
80004164:	f0 1f 00 30 	mcall	80004224 <xTaskResumeAll+0x104>
80004168:	ec c8 ff fc 	sub	r8,r6,-4
8000416c:	10 9c       	mov	r12,r8
8000416e:	f0 1f 00 2e 	mcall	80004224 <xTaskResumeAll+0x104>
80004172:	6c b9       	ld.w	r9,r6[0x2c]
80004174:	4a d8       	lddpc	r8,80004228 <xTaskResumeAll+0x108>
80004176:	70 08       	ld.w	r8,r8[0x0]
80004178:	10 39       	cp.w	r9,r8
8000417a:	e0 88 00 05 	brls	80004184 <xTaskResumeAll+0x64>
8000417e:	6c b9       	ld.w	r9,r6[0x2c]
80004180:	4a a8       	lddpc	r8,80004228 <xTaskResumeAll+0x108>
80004182:	91 09       	st.w	r8[0x0],r9
80004184:	ec ca ff fc 	sub	r10,r6,-4
80004188:	6c b9       	ld.w	r9,r6[0x2c]
8000418a:	12 98       	mov	r8,r9
8000418c:	a3 68       	lsl	r8,0x2
8000418e:	12 08       	add	r8,r9
80004190:	a3 68       	lsl	r8,0x2
80004192:	10 99       	mov	r9,r8
80004194:	4a 68       	lddpc	r8,8000422c <xTaskResumeAll+0x10c>
80004196:	f2 08 00 08 	add	r8,r9,r8
8000419a:	14 9b       	mov	r11,r10
8000419c:	10 9c       	mov	r12,r8
8000419e:	f0 1f 00 25 	mcall	80004230 <xTaskResumeAll+0x110>
800041a2:	6c b9       	ld.w	r9,r6[0x2c]
800041a4:	4a 48       	lddpc	r8,80004234 <xTaskResumeAll+0x114>
800041a6:	70 08       	ld.w	r8,r8[0x0]
800041a8:	70 b8       	ld.w	r8,r8[0x2c]
800041aa:	10 39       	cp.w	r9,r8
800041ac:	c0 43       	brcs	800041b4 <xTaskResumeAll+0x94>
800041ae:	30 18       	mov	r8,1
800041b0:	ef 48 ff fc 	st.w	r7[-4],r8
800041b4:	49 b8       	lddpc	r8,80004220 <xTaskResumeAll+0x100>
800041b6:	70 08       	ld.w	r8,r8[0x0]
800041b8:	58 08       	cp.w	r8,0
800041ba:	cc e1       	brne	80004156 <xTaskResumeAll+0x36>
800041bc:	49 f8       	lddpc	r8,80004238 <xTaskResumeAll+0x118>
800041be:	70 08       	ld.w	r8,r8[0x0]
800041c0:	58 08       	cp.w	r8,0
800041c2:	c1 10       	breq	800041e4 <xTaskResumeAll+0xc4>
800041c4:	c0 98       	rjmp	800041d6 <xTaskResumeAll+0xb6>
800041c6:	f0 1f 00 1e 	mcall	8000423c <xTaskResumeAll+0x11c>
800041ca:	49 c8       	lddpc	r8,80004238 <xTaskResumeAll+0x118>
800041cc:	70 08       	ld.w	r8,r8[0x0]
800041ce:	f0 c9 00 01 	sub	r9,r8,1
800041d2:	49 a8       	lddpc	r8,80004238 <xTaskResumeAll+0x118>
800041d4:	91 09       	st.w	r8[0x0],r9
800041d6:	49 98       	lddpc	r8,80004238 <xTaskResumeAll+0x118>
800041d8:	70 08       	ld.w	r8,r8[0x0]
800041da:	58 08       	cp.w	r8,0
800041dc:	cf 51       	brne	800041c6 <xTaskResumeAll+0xa6>
800041de:	30 18       	mov	r8,1
800041e0:	ef 48 ff fc 	st.w	r7[-4],r8
800041e4:	ee f8 ff fc 	ld.w	r8,r7[-4]
800041e8:	58 18       	cp.w	r8,1
800041ea:	c0 50       	breq	800041f4 <xTaskResumeAll+0xd4>
800041ec:	49 58       	lddpc	r8,80004240 <xTaskResumeAll+0x120>
800041ee:	70 08       	ld.w	r8,r8[0x0]
800041f0:	58 18       	cp.w	r8,1
800041f2:	c0 81       	brne	80004202 <xTaskResumeAll+0xe2>
800041f4:	30 18       	mov	r8,1
800041f6:	ef 48 ff f8 	st.w	r7[-8],r8
800041fa:	49 28       	lddpc	r8,80004240 <xTaskResumeAll+0x120>
800041fc:	30 09       	mov	r9,0
800041fe:	91 09       	st.w	r8[0x0],r9
80004200:	d7 33       	scall
80004202:	f0 1f 00 11 	mcall	80004244 <xTaskResumeAll+0x124>
80004206:	ee f8 ff f8 	ld.w	r8,r7[-8]
8000420a:	10 9c       	mov	r12,r8
8000420c:	2f ed       	sub	sp,-8
8000420e:	e3 cd 80 c0 	ldm	sp++,r6-r7,pc
80004212:	00 00       	add	r0,r0
80004214:	80 00       	ld.sh	r0,r0[0x0]
80004216:	31 f0       	mov	r0,31
80004218:	00 00       	add	r0,r0
8000421a:	07 48       	ld.w	r8,--r3
8000421c:	00 00       	add	r0,r0
8000421e:	07 34       	ld.ub	r4,r3++
80004220:	00 00       	add	r0,r0
80004222:	06 f4       	st.b	--r3,r4
80004224:	80 00       	ld.sh	r0,r0[0x0]
80004226:	2f da       	sub	r10,-3
80004228:	00 00       	add	r0,r0
8000422a:	07 40       	ld.w	r0,--r3
8000422c:	00 00       	add	r0,r0
8000422e:	06 24       	rsub	r4,r3
80004230:	80 00       	ld.sh	r0,r0[0x0]
80004232:	2e c6       	sub	r6,-20
80004234:	00 00       	add	r0,r0
80004236:	06 20       	rsub	r0,r3
80004238:	00 00       	add	r0,r0
8000423a:	07 4c       	ld.w	r12,--r3
8000423c:	80 00       	ld.sh	r0,r0[0x0]
8000423e:	42 78       	lddsp	r8,sp[0x9c]
80004240:	00 00       	add	r0,r0
80004242:	07 50       	ld.sh	r0,--r3
80004244:	80 00       	ld.sh	r0,r0[0x0]
80004246:	32 0c       	mov	r12,32

80004248 <xTaskGetTickCount>:
80004248:	eb cd 40 80 	pushm	r7,lr
8000424c:	1a 97       	mov	r7,sp
8000424e:	20 1d       	sub	sp,4
80004250:	f0 1f 00 07 	mcall	8000426c <xTaskGetTickCount+0x24>
80004254:	48 78       	lddpc	r8,80004270 <xTaskGetTickCount+0x28>
80004256:	70 08       	ld.w	r8,r8[0x0]
80004258:	ef 48 ff fc 	st.w	r7[-4],r8
8000425c:	f0 1f 00 06 	mcall	80004274 <xTaskGetTickCount+0x2c>
80004260:	ee f8 ff fc 	ld.w	r8,r7[-4]
80004264:	10 9c       	mov	r12,r8
80004266:	2f fd       	sub	sp,-4
80004268:	e3 cd 80 80 	ldm	sp++,r7,pc
8000426c:	80 00       	ld.sh	r0,r0[0x0]
8000426e:	31 f0       	mov	r0,31
80004270:	00 00       	add	r0,r0
80004272:	07 38       	ld.ub	r8,r3++
80004274:	80 00       	ld.sh	r0,r0[0x0]
80004276:	32 0c       	mov	r12,32

80004278 <vTaskIncrementTick>:
80004278:	eb cd 40 80 	pushm	r7,lr
8000427c:	1a 97       	mov	r7,sp
8000427e:	20 3d       	sub	sp,12
80004280:	4c b8       	lddpc	r8,800043ac <vTaskIncrementTick+0x134>
80004282:	70 08       	ld.w	r8,r8[0x0]
80004284:	58 08       	cp.w	r8,0
80004286:	e0 81 00 89 	brne	80004398 <vTaskIncrementTick+0x120>
8000428a:	4c a8       	lddpc	r8,800043b0 <vTaskIncrementTick+0x138>
8000428c:	70 08       	ld.w	r8,r8[0x0]
8000428e:	f0 c9 ff ff 	sub	r9,r8,-1
80004292:	4c 88       	lddpc	r8,800043b0 <vTaskIncrementTick+0x138>
80004294:	91 09       	st.w	r8[0x0],r9
80004296:	4c 78       	lddpc	r8,800043b0 <vTaskIncrementTick+0x138>
80004298:	70 08       	ld.w	r8,r8[0x0]
8000429a:	58 08       	cp.w	r8,0
8000429c:	c2 71       	brne	800042ea <vTaskIncrementTick+0x72>
8000429e:	4c 68       	lddpc	r8,800043b4 <vTaskIncrementTick+0x13c>
800042a0:	70 08       	ld.w	r8,r8[0x0]
800042a2:	ef 48 ff f8 	st.w	r7[-8],r8
800042a6:	4c 58       	lddpc	r8,800043b8 <vTaskIncrementTick+0x140>
800042a8:	70 09       	ld.w	r9,r8[0x0]
800042aa:	4c 38       	lddpc	r8,800043b4 <vTaskIncrementTick+0x13c>
800042ac:	91 09       	st.w	r8[0x0],r9
800042ae:	4c 38       	lddpc	r8,800043b8 <vTaskIncrementTick+0x140>
800042b0:	ee f9 ff f8 	ld.w	r9,r7[-8]
800042b4:	91 09       	st.w	r8[0x0],r9
800042b6:	4c 28       	lddpc	r8,800043bc <vTaskIncrementTick+0x144>
800042b8:	70 08       	ld.w	r8,r8[0x0]
800042ba:	f0 c9 ff ff 	sub	r9,r8,-1
800042be:	4c 08       	lddpc	r8,800043bc <vTaskIncrementTick+0x144>
800042c0:	91 09       	st.w	r8[0x0],r9
800042c2:	4b d8       	lddpc	r8,800043b4 <vTaskIncrementTick+0x13c>
800042c4:	70 08       	ld.w	r8,r8[0x0]
800042c6:	70 08       	ld.w	r8,r8[0x0]
800042c8:	58 08       	cp.w	r8,0
800042ca:	c0 51       	brne	800042d4 <vTaskIncrementTick+0x5c>
800042cc:	4b d8       	lddpc	r8,800043c0 <vTaskIncrementTick+0x148>
800042ce:	3f f9       	mov	r9,-1
800042d0:	91 09       	st.w	r8[0x0],r9
800042d2:	c0 c8       	rjmp	800042ea <vTaskIncrementTick+0x72>
800042d4:	4b 88       	lddpc	r8,800043b4 <vTaskIncrementTick+0x13c>
800042d6:	70 08       	ld.w	r8,r8[0x0]
800042d8:	70 38       	ld.w	r8,r8[0xc]
800042da:	70 38       	ld.w	r8,r8[0xc]
800042dc:	ef 48 ff f4 	st.w	r7[-12],r8
800042e0:	ee f8 ff f4 	ld.w	r8,r7[-12]
800042e4:	70 19       	ld.w	r9,r8[0x4]
800042e6:	4b 78       	lddpc	r8,800043c0 <vTaskIncrementTick+0x148>
800042e8:	91 09       	st.w	r8[0x0],r9
800042ea:	4b 28       	lddpc	r8,800043b0 <vTaskIncrementTick+0x138>
800042ec:	70 09       	ld.w	r9,r8[0x0]
800042ee:	4b 58       	lddpc	r8,800043c0 <vTaskIncrementTick+0x148>
800042f0:	70 08       	ld.w	r8,r8[0x0]
800042f2:	10 39       	cp.w	r9,r8
800042f4:	c5 83       	brcs	800043a4 <vTaskIncrementTick+0x12c>
800042f6:	4b 08       	lddpc	r8,800043b4 <vTaskIncrementTick+0x13c>
800042f8:	70 08       	ld.w	r8,r8[0x0]
800042fa:	70 08       	ld.w	r8,r8[0x0]
800042fc:	58 08       	cp.w	r8,0
800042fe:	c0 51       	brne	80004308 <vTaskIncrementTick+0x90>
80004300:	4b 08       	lddpc	r8,800043c0 <vTaskIncrementTick+0x148>
80004302:	3f f9       	mov	r9,-1
80004304:	91 09       	st.w	r8[0x0],r9
80004306:	c4 f8       	rjmp	800043a4 <vTaskIncrementTick+0x12c>
80004308:	4a b8       	lddpc	r8,800043b4 <vTaskIncrementTick+0x13c>
8000430a:	70 08       	ld.w	r8,r8[0x0]
8000430c:	70 38       	ld.w	r8,r8[0xc]
8000430e:	70 38       	ld.w	r8,r8[0xc]
80004310:	ef 48 ff f4 	st.w	r7[-12],r8
80004314:	ee f8 ff f4 	ld.w	r8,r7[-12]
80004318:	70 18       	ld.w	r8,r8[0x4]
8000431a:	ef 48 ff fc 	st.w	r7[-4],r8
8000431e:	4a 58       	lddpc	r8,800043b0 <vTaskIncrementTick+0x138>
80004320:	70 09       	ld.w	r9,r8[0x0]
80004322:	ee f8 ff fc 	ld.w	r8,r7[-4]
80004326:	10 39       	cp.w	r9,r8
80004328:	c0 62       	brcc	80004334 <vTaskIncrementTick+0xbc>
8000432a:	4a 68       	lddpc	r8,800043c0 <vTaskIncrementTick+0x148>
8000432c:	ee f9 ff fc 	ld.w	r9,r7[-4]
80004330:	91 09       	st.w	r8[0x0],r9
80004332:	c3 98       	rjmp	800043a4 <vTaskIncrementTick+0x12c>
80004334:	ee f8 ff f4 	ld.w	r8,r7[-12]
80004338:	2f c8       	sub	r8,-4
8000433a:	10 9c       	mov	r12,r8
8000433c:	f0 1f 00 22 	mcall	800043c4 <vTaskIncrementTick+0x14c>
80004340:	ee f8 ff f4 	ld.w	r8,r7[-12]
80004344:	70 a8       	ld.w	r8,r8[0x28]
80004346:	58 08       	cp.w	r8,0
80004348:	c0 70       	breq	80004356 <vTaskIncrementTick+0xde>
8000434a:	ee f8 ff f4 	ld.w	r8,r7[-12]
8000434e:	2e 88       	sub	r8,-24
80004350:	10 9c       	mov	r12,r8
80004352:	f0 1f 00 1d 	mcall	800043c4 <vTaskIncrementTick+0x14c>
80004356:	ee f8 ff f4 	ld.w	r8,r7[-12]
8000435a:	70 b9       	ld.w	r9,r8[0x2c]
8000435c:	49 b8       	lddpc	r8,800043c8 <vTaskIncrementTick+0x150>
8000435e:	70 08       	ld.w	r8,r8[0x0]
80004360:	10 39       	cp.w	r9,r8
80004362:	e0 88 00 07 	brls	80004370 <vTaskIncrementTick+0xf8>
80004366:	ee f8 ff f4 	ld.w	r8,r7[-12]
8000436a:	70 b9       	ld.w	r9,r8[0x2c]
8000436c:	49 78       	lddpc	r8,800043c8 <vTaskIncrementTick+0x150>
8000436e:	91 09       	st.w	r8[0x0],r9
80004370:	ee f8 ff f4 	ld.w	r8,r7[-12]
80004374:	f0 ca ff fc 	sub	r10,r8,-4
80004378:	ee f8 ff f4 	ld.w	r8,r7[-12]
8000437c:	70 b9       	ld.w	r9,r8[0x2c]
8000437e:	12 98       	mov	r8,r9
80004380:	a3 68       	lsl	r8,0x2
80004382:	12 08       	add	r8,r9
80004384:	a3 68       	lsl	r8,0x2
80004386:	10 99       	mov	r9,r8
80004388:	49 18       	lddpc	r8,800043cc <vTaskIncrementTick+0x154>
8000438a:	f2 08 00 08 	add	r8,r9,r8
8000438e:	14 9b       	mov	r11,r10
80004390:	10 9c       	mov	r12,r8
80004392:	f0 1f 00 10 	mcall	800043d0 <vTaskIncrementTick+0x158>
80004396:	cb 0b       	rjmp	800042f6 <vTaskIncrementTick+0x7e>
80004398:	48 f8       	lddpc	r8,800043d4 <vTaskIncrementTick+0x15c>
8000439a:	70 08       	ld.w	r8,r8[0x0]
8000439c:	f0 c9 ff ff 	sub	r9,r8,-1
800043a0:	48 d8       	lddpc	r8,800043d4 <vTaskIncrementTick+0x15c>
800043a2:	91 09       	st.w	r8[0x0],r9
800043a4:	2f dd       	sub	sp,-12
800043a6:	e3 cd 80 80 	ldm	sp++,r7,pc
800043aa:	00 00       	add	r0,r0
800043ac:	00 00       	add	r0,r0
800043ae:	07 48       	ld.w	r8,--r3
800043b0:	00 00       	add	r0,r0
800043b2:	07 38       	ld.ub	r8,r3++
800043b4:	00 00       	add	r0,r0
800043b6:	06 ec       	st.h	--r3,r12
800043b8:	00 00       	add	r0,r0
800043ba:	06 f0       	st.b	--r3,r0
800043bc:	00 00       	add	r0,r0
800043be:	07 54       	ld.sh	r4,--r3
800043c0:	00 00       	add	r0,r0
800043c2:	00 20       	rsub	r0,r0
800043c4:	80 00       	ld.sh	r0,r0[0x0]
800043c6:	2f da       	sub	r10,-3
800043c8:	00 00       	add	r0,r0
800043ca:	07 40       	ld.w	r0,--r3
800043cc:	00 00       	add	r0,r0
800043ce:	06 24       	rsub	r4,r3
800043d0:	80 00       	ld.sh	r0,r0[0x0]
800043d2:	2e c6       	sub	r6,-20
800043d4:	00 00       	add	r0,r0
800043d6:	07 4c       	ld.w	r12,--r3

800043d8 <vTaskSwitchContext>:
800043d8:	eb cd 40 80 	pushm	r7,lr
800043dc:	1a 97       	mov	r7,sp
800043de:	20 1d       	sub	sp,4
800043e0:	4a 58       	lddpc	r8,80004474 <vTaskSwitchContext+0x9c>
800043e2:	70 08       	ld.w	r8,r8[0x0]
800043e4:	58 08       	cp.w	r8,0
800043e6:	c0 c0       	breq	800043fe <vTaskSwitchContext+0x26>
800043e8:	4a 48       	lddpc	r8,80004478 <vTaskSwitchContext+0xa0>
800043ea:	30 19       	mov	r9,1
800043ec:	91 09       	st.w	r8[0x0],r9
800043ee:	c3 f8       	rjmp	8000446c <vTaskSwitchContext+0x94>
800043f0:	4a 38       	lddpc	r8,8000447c <vTaskSwitchContext+0xa4>
800043f2:	70 08       	ld.w	r8,r8[0x0]
800043f4:	f0 c9 00 01 	sub	r9,r8,1
800043f8:	4a 18       	lddpc	r8,8000447c <vTaskSwitchContext+0xa4>
800043fa:	91 09       	st.w	r8[0x0],r9
800043fc:	c0 28       	rjmp	80004400 <vTaskSwitchContext+0x28>
800043fe:	d7 03       	nop
80004400:	49 f8       	lddpc	r8,8000447c <vTaskSwitchContext+0xa4>
80004402:	70 09       	ld.w	r9,r8[0x0]
80004404:	12 98       	mov	r8,r9
80004406:	a3 68       	lsl	r8,0x2
80004408:	12 08       	add	r8,r9
8000440a:	a3 68       	lsl	r8,0x2
8000440c:	10 99       	mov	r9,r8
8000440e:	49 d8       	lddpc	r8,80004480 <vTaskSwitchContext+0xa8>
80004410:	f2 08 00 08 	add	r8,r9,r8
80004414:	70 08       	ld.w	r8,r8[0x0]
80004416:	58 08       	cp.w	r8,0
80004418:	ce c0       	breq	800043f0 <vTaskSwitchContext+0x18>
8000441a:	49 98       	lddpc	r8,8000447c <vTaskSwitchContext+0xa4>
8000441c:	70 09       	ld.w	r9,r8[0x0]
8000441e:	12 98       	mov	r8,r9
80004420:	a3 68       	lsl	r8,0x2
80004422:	12 08       	add	r8,r9
80004424:	a3 68       	lsl	r8,0x2
80004426:	10 99       	mov	r9,r8
80004428:	49 68       	lddpc	r8,80004480 <vTaskSwitchContext+0xa8>
8000442a:	f2 08 00 08 	add	r8,r9,r8
8000442e:	ef 48 ff fc 	st.w	r7[-4],r8
80004432:	ee f8 ff fc 	ld.w	r8,r7[-4]
80004436:	70 18       	ld.w	r8,r8[0x4]
80004438:	70 19       	ld.w	r9,r8[0x4]
8000443a:	ee f8 ff fc 	ld.w	r8,r7[-4]
8000443e:	91 19       	st.w	r8[0x4],r9
80004440:	ee f8 ff fc 	ld.w	r8,r7[-4]
80004444:	70 19       	ld.w	r9,r8[0x4]
80004446:	ee f8 ff fc 	ld.w	r8,r7[-4]
8000444a:	2f 88       	sub	r8,-8
8000444c:	10 39       	cp.w	r9,r8
8000444e:	c0 81       	brne	8000445e <vTaskSwitchContext+0x86>
80004450:	ee f8 ff fc 	ld.w	r8,r7[-4]
80004454:	70 18       	ld.w	r8,r8[0x4]
80004456:	70 19       	ld.w	r9,r8[0x4]
80004458:	ee f8 ff fc 	ld.w	r8,r7[-4]
8000445c:	91 19       	st.w	r8[0x4],r9
8000445e:	ee f8 ff fc 	ld.w	r8,r7[-4]
80004462:	70 18       	ld.w	r8,r8[0x4]
80004464:	70 38       	ld.w	r8,r8[0xc]
80004466:	10 99       	mov	r9,r8
80004468:	48 78       	lddpc	r8,80004484 <vTaskSwitchContext+0xac>
8000446a:	91 09       	st.w	r8[0x0],r9
8000446c:	2f fd       	sub	sp,-4
8000446e:	e3 cd 80 80 	ldm	sp++,r7,pc
80004472:	00 00       	add	r0,r0
80004474:	00 00       	add	r0,r0
80004476:	07 48       	ld.w	r8,--r3
80004478:	00 00       	add	r0,r0
8000447a:	07 50       	ld.sh	r0,--r3
8000447c:	00 00       	add	r0,r0
8000447e:	07 40       	ld.w	r0,--r3
80004480:	00 00       	add	r0,r0
80004482:	06 24       	rsub	r4,r3
80004484:	00 00       	add	r0,r0
80004486:	06 20       	rsub	r0,r3

80004488 <vTaskPlaceOnEventList>:
80004488:	eb cd 40 80 	pushm	r7,lr
8000448c:	1a 97       	mov	r7,sp
8000448e:	20 3d       	sub	sp,12
80004490:	ef 4c ff f8 	st.w	r7[-8],r12
80004494:	ef 4b ff f4 	st.w	r7[-12],r11
80004498:	49 58       	lddpc	r8,800044ec <vTaskPlaceOnEventList+0x64>
8000449a:	70 08       	ld.w	r8,r8[0x0]
8000449c:	2e 88       	sub	r8,-24
8000449e:	10 9b       	mov	r11,r8
800044a0:	ee fc ff f8 	ld.w	r12,r7[-8]
800044a4:	f0 1f 00 13 	mcall	800044f0 <vTaskPlaceOnEventList+0x68>
800044a8:	49 18       	lddpc	r8,800044ec <vTaskPlaceOnEventList+0x64>
800044aa:	70 08       	ld.w	r8,r8[0x0]
800044ac:	2f c8       	sub	r8,-4
800044ae:	10 9c       	mov	r12,r8
800044b0:	f0 1f 00 11 	mcall	800044f4 <vTaskPlaceOnEventList+0x6c>
800044b4:	ee f8 ff f4 	ld.w	r8,r7[-12]
800044b8:	5b f8       	cp.w	r8,-1
800044ba:	c0 91       	brne	800044cc <vTaskPlaceOnEventList+0x44>
800044bc:	48 c8       	lddpc	r8,800044ec <vTaskPlaceOnEventList+0x64>
800044be:	70 08       	ld.w	r8,r8[0x0]
800044c0:	2f c8       	sub	r8,-4
800044c2:	10 9b       	mov	r11,r8
800044c4:	48 dc       	lddpc	r12,800044f8 <vTaskPlaceOnEventList+0x70>
800044c6:	f0 1f 00 0e 	mcall	800044fc <vTaskPlaceOnEventList+0x74>
800044ca:	c0 d8       	rjmp	800044e4 <vTaskPlaceOnEventList+0x5c>
800044cc:	48 d8       	lddpc	r8,80004500 <vTaskPlaceOnEventList+0x78>
800044ce:	70 09       	ld.w	r9,r8[0x0]
800044d0:	ee f8 ff f4 	ld.w	r8,r7[-12]
800044d4:	f2 08 00 08 	add	r8,r9,r8
800044d8:	ef 48 ff fc 	st.w	r7[-4],r8
800044dc:	ee fc ff fc 	ld.w	r12,r7[-4]
800044e0:	f0 1f 00 09 	mcall	80004504 <vTaskPlaceOnEventList+0x7c>
800044e4:	2f dd       	sub	sp,-12
800044e6:	e3 cd 80 80 	ldm	sp++,r7,pc
800044ea:	00 00       	add	r0,r0
800044ec:	00 00       	add	r0,r0
800044ee:	06 20       	rsub	r0,r3
800044f0:	80 00       	ld.sh	r0,r0[0x0]
800044f2:	2f 38       	sub	r8,-13
800044f4:	80 00       	ld.sh	r0,r0[0x0]
800044f6:	2f da       	sub	r10,-3
800044f8:	00 00       	add	r0,r0
800044fa:	07 20       	ld.uh	r0,r3++
800044fc:	80 00       	ld.sh	r0,r0[0x0]
800044fe:	2e c6       	sub	r6,-20
80004500:	00 00       	add	r0,r0
80004502:	07 38       	ld.ub	r8,r3++
80004504:	80 00       	ld.sh	r0,r0[0x0]
80004506:	48 c8       	lddpc	r8,80004534 <xTaskRemoveFromEventList+0x2c>

80004508 <xTaskRemoveFromEventList>:
80004508:	eb cd 40 80 	pushm	r7,lr
8000450c:	1a 97       	mov	r7,sp
8000450e:	20 3d       	sub	sp,12
80004510:	ef 4c ff f4 	st.w	r7[-12],r12
80004514:	ee f8 ff f4 	ld.w	r8,r7[-12]
80004518:	70 38       	ld.w	r8,r8[0xc]
8000451a:	70 38       	ld.w	r8,r8[0xc]
8000451c:	ef 48 ff f8 	st.w	r7[-8],r8
80004520:	ee f8 ff f8 	ld.w	r8,r7[-8]
80004524:	2e 88       	sub	r8,-24
80004526:	10 9c       	mov	r12,r8
80004528:	f0 1f 00 25 	mcall	800045bc <xTaskRemoveFromEventList+0xb4>
8000452c:	4a 58       	lddpc	r8,800045c0 <xTaskRemoveFromEventList+0xb8>
8000452e:	70 08       	ld.w	r8,r8[0x0]
80004530:	58 08       	cp.w	r8,0
80004532:	c2 81       	brne	80004582 <xTaskRemoveFromEventList+0x7a>
80004534:	ee f8 ff f8 	ld.w	r8,r7[-8]
80004538:	2f c8       	sub	r8,-4
8000453a:	10 9c       	mov	r12,r8
8000453c:	f0 1f 00 20 	mcall	800045bc <xTaskRemoveFromEventList+0xb4>
80004540:	ee f8 ff f8 	ld.w	r8,r7[-8]
80004544:	70 b9       	ld.w	r9,r8[0x2c]
80004546:	4a 08       	lddpc	r8,800045c4 <xTaskRemoveFromEventList+0xbc>
80004548:	70 08       	ld.w	r8,r8[0x0]
8000454a:	10 39       	cp.w	r9,r8
8000454c:	e0 88 00 07 	brls	8000455a <xTaskRemoveFromEventList+0x52>
80004550:	ee f8 ff f8 	ld.w	r8,r7[-8]
80004554:	70 b9       	ld.w	r9,r8[0x2c]
80004556:	49 c8       	lddpc	r8,800045c4 <xTaskRemoveFromEventList+0xbc>
80004558:	91 09       	st.w	r8[0x0],r9
8000455a:	ee f8 ff f8 	ld.w	r8,r7[-8]
8000455e:	f0 ca ff fc 	sub	r10,r8,-4
80004562:	ee f8 ff f8 	ld.w	r8,r7[-8]
80004566:	70 b9       	ld.w	r9,r8[0x2c]
80004568:	12 98       	mov	r8,r9
8000456a:	a3 68       	lsl	r8,0x2
8000456c:	12 08       	add	r8,r9
8000456e:	a3 68       	lsl	r8,0x2
80004570:	10 99       	mov	r9,r8
80004572:	49 68       	lddpc	r8,800045c8 <xTaskRemoveFromEventList+0xc0>
80004574:	f2 08 00 08 	add	r8,r9,r8
80004578:	14 9b       	mov	r11,r10
8000457a:	10 9c       	mov	r12,r8
8000457c:	f0 1f 00 14 	mcall	800045cc <xTaskRemoveFromEventList+0xc4>
80004580:	c0 88       	rjmp	80004590 <xTaskRemoveFromEventList+0x88>
80004582:	ee f8 ff f8 	ld.w	r8,r7[-8]
80004586:	2e 88       	sub	r8,-24
80004588:	10 9b       	mov	r11,r8
8000458a:	49 2c       	lddpc	r12,800045d0 <xTaskRemoveFromEventList+0xc8>
8000458c:	f0 1f 00 10 	mcall	800045cc <xTaskRemoveFromEventList+0xc4>
80004590:	ee f8 ff f8 	ld.w	r8,r7[-8]
80004594:	70 b9       	ld.w	r9,r8[0x2c]
80004596:	49 08       	lddpc	r8,800045d4 <xTaskRemoveFromEventList+0xcc>
80004598:	70 08       	ld.w	r8,r8[0x0]
8000459a:	70 b8       	ld.w	r8,r8[0x2c]
8000459c:	10 39       	cp.w	r9,r8
8000459e:	c0 53       	brcs	800045a8 <xTaskRemoveFromEventList+0xa0>
800045a0:	30 18       	mov	r8,1
800045a2:	ef 48 ff fc 	st.w	r7[-4],r8
800045a6:	c0 48       	rjmp	800045ae <xTaskRemoveFromEventList+0xa6>
800045a8:	30 08       	mov	r8,0
800045aa:	ef 48 ff fc 	st.w	r7[-4],r8
800045ae:	ee f8 ff fc 	ld.w	r8,r7[-4]
800045b2:	10 9c       	mov	r12,r8
800045b4:	2f dd       	sub	sp,-12
800045b6:	e3 cd 80 80 	ldm	sp++,r7,pc
800045ba:	00 00       	add	r0,r0
800045bc:	80 00       	ld.sh	r0,r0[0x0]
800045be:	2f da       	sub	r10,-3
800045c0:	00 00       	add	r0,r0
800045c2:	07 48       	ld.w	r8,--r3
800045c4:	00 00       	add	r0,r0
800045c6:	07 40       	ld.w	r0,--r3
800045c8:	00 00       	add	r0,r0
800045ca:	06 24       	rsub	r4,r3
800045cc:	80 00       	ld.sh	r0,r0[0x0]
800045ce:	2e c6       	sub	r6,-20
800045d0:	00 00       	add	r0,r0
800045d2:	06 f4       	st.b	--r3,r4
800045d4:	00 00       	add	r0,r0
800045d6:	06 20       	rsub	r0,r3

800045d8 <vTaskSetTimeOutState>:
800045d8:	eb cd 40 80 	pushm	r7,lr
800045dc:	1a 97       	mov	r7,sp
800045de:	20 1d       	sub	sp,4
800045e0:	ef 4c ff fc 	st.w	r7[-4],r12
800045e4:	48 78       	lddpc	r8,80004600 <vTaskSetTimeOutState+0x28>
800045e6:	70 09       	ld.w	r9,r8[0x0]
800045e8:	ee f8 ff fc 	ld.w	r8,r7[-4]
800045ec:	91 09       	st.w	r8[0x0],r9
800045ee:	48 68       	lddpc	r8,80004604 <vTaskSetTimeOutState+0x2c>
800045f0:	70 09       	ld.w	r9,r8[0x0]
800045f2:	ee f8 ff fc 	ld.w	r8,r7[-4]
800045f6:	91 19       	st.w	r8[0x4],r9
800045f8:	2f fd       	sub	sp,-4
800045fa:	e3 cd 80 80 	ldm	sp++,r7,pc
800045fe:	00 00       	add	r0,r0
80004600:	00 00       	add	r0,r0
80004602:	07 54       	ld.sh	r4,--r3
80004604:	00 00       	add	r0,r0
80004606:	07 38       	ld.ub	r8,r3++

80004608 <xTaskCheckForTimeOut>:
80004608:	eb cd 40 80 	pushm	r7,lr
8000460c:	1a 97       	mov	r7,sp
8000460e:	20 3d       	sub	sp,12
80004610:	ef 4c ff f8 	st.w	r7[-8],r12
80004614:	ef 4b ff f4 	st.w	r7[-12],r11
80004618:	f0 1f 00 25 	mcall	800046ac <xTaskCheckForTimeOut+0xa4>
8000461c:	ee f8 ff f4 	ld.w	r8,r7[-12]
80004620:	70 08       	ld.w	r8,r8[0x0]
80004622:	5b f8       	cp.w	r8,-1
80004624:	c0 51       	brne	8000462e <xTaskCheckForTimeOut+0x26>
80004626:	30 08       	mov	r8,0
80004628:	ef 48 ff fc 	st.w	r7[-4],r8
8000462c:	c3 88       	rjmp	8000469c <xTaskCheckForTimeOut+0x94>
8000462e:	ee f8 ff f8 	ld.w	r8,r7[-8]
80004632:	70 09       	ld.w	r9,r8[0x0]
80004634:	49 f8       	lddpc	r8,800046b0 <xTaskCheckForTimeOut+0xa8>
80004636:	70 08       	ld.w	r8,r8[0x0]
80004638:	10 39       	cp.w	r9,r8
8000463a:	c0 d0       	breq	80004654 <xTaskCheckForTimeOut+0x4c>
8000463c:	ee f8 ff f8 	ld.w	r8,r7[-8]
80004640:	70 19       	ld.w	r9,r8[0x4]
80004642:	49 d8       	lddpc	r8,800046b4 <xTaskCheckForTimeOut+0xac>
80004644:	70 08       	ld.w	r8,r8[0x0]
80004646:	10 39       	cp.w	r9,r8
80004648:	e0 8b 00 06 	brhi	80004654 <xTaskCheckForTimeOut+0x4c>
8000464c:	30 18       	mov	r8,1
8000464e:	ef 48 ff fc 	st.w	r7[-4],r8
80004652:	c2 58       	rjmp	8000469c <xTaskCheckForTimeOut+0x94>
80004654:	49 88       	lddpc	r8,800046b4 <xTaskCheckForTimeOut+0xac>
80004656:	70 09       	ld.w	r9,r8[0x0]
80004658:	ee f8 ff f8 	ld.w	r8,r7[-8]
8000465c:	70 18       	ld.w	r8,r8[0x4]
8000465e:	10 19       	sub	r9,r8
80004660:	ee f8 ff f4 	ld.w	r8,r7[-12]
80004664:	70 08       	ld.w	r8,r8[0x0]
80004666:	10 39       	cp.w	r9,r8
80004668:	c1 72       	brcc	80004696 <xTaskCheckForTimeOut+0x8e>
8000466a:	ee f8 ff f4 	ld.w	r8,r7[-12]
8000466e:	70 09       	ld.w	r9,r8[0x0]
80004670:	ee f8 ff f8 	ld.w	r8,r7[-8]
80004674:	70 1a       	ld.w	r10,r8[0x4]
80004676:	49 08       	lddpc	r8,800046b4 <xTaskCheckForTimeOut+0xac>
80004678:	70 08       	ld.w	r8,r8[0x0]
8000467a:	f4 08 01 08 	sub	r8,r10,r8
8000467e:	10 09       	add	r9,r8
80004680:	ee f8 ff f4 	ld.w	r8,r7[-12]
80004684:	91 09       	st.w	r8[0x0],r9
80004686:	ee fc ff f8 	ld.w	r12,r7[-8]
8000468a:	f0 1f 00 0c 	mcall	800046b8 <xTaskCheckForTimeOut+0xb0>
8000468e:	30 08       	mov	r8,0
80004690:	ef 48 ff fc 	st.w	r7[-4],r8
80004694:	c0 48       	rjmp	8000469c <xTaskCheckForTimeOut+0x94>
80004696:	30 18       	mov	r8,1
80004698:	ef 48 ff fc 	st.w	r7[-4],r8
8000469c:	f0 1f 00 08 	mcall	800046bc <xTaskCheckForTimeOut+0xb4>
800046a0:	ee f8 ff fc 	ld.w	r8,r7[-4]
800046a4:	10 9c       	mov	r12,r8
800046a6:	2f dd       	sub	sp,-12
800046a8:	e3 cd 80 80 	ldm	sp++,r7,pc
800046ac:	80 00       	ld.sh	r0,r0[0x0]
800046ae:	31 f0       	mov	r0,31
800046b0:	00 00       	add	r0,r0
800046b2:	07 54       	ld.sh	r4,--r3
800046b4:	00 00       	add	r0,r0
800046b6:	07 38       	ld.ub	r8,r3++
800046b8:	80 00       	ld.sh	r0,r0[0x0]
800046ba:	45 d8       	lddsp	r8,sp[0x174]
800046bc:	80 00       	ld.sh	r0,r0[0x0]
800046be:	32 0c       	mov	r12,32

800046c0 <vTaskMissedYield>:
800046c0:	eb cd 40 80 	pushm	r7,lr
800046c4:	1a 97       	mov	r7,sp
800046c6:	48 38       	lddpc	r8,800046d0 <vTaskMissedYield+0x10>
800046c8:	30 19       	mov	r9,1
800046ca:	91 09       	st.w	r8[0x0],r9
800046cc:	e3 cd 80 80 	ldm	sp++,r7,pc
800046d0:	00 00       	add	r0,r0
800046d2:	07 50       	ld.sh	r0,--r3

800046d4 <prvIdleTask>:
800046d4:	eb cd 40 80 	pushm	r7,lr
800046d8:	1a 97       	mov	r7,sp
800046da:	20 1d       	sub	sp,4
800046dc:	ef 4c ff fc 	st.w	r7[-4],r12
800046e0:	c0 28       	rjmp	800046e4 <prvIdleTask+0x10>
800046e2:	d7 03       	nop
800046e4:	f0 1f 00 05 	mcall	800046f8 <prvIdleTask+0x24>
800046e8:	48 58       	lddpc	r8,800046fc <prvIdleTask+0x28>
800046ea:	70 08       	ld.w	r8,r8[0x0]
800046ec:	58 18       	cp.w	r8,1
800046ee:	fe 98 ff fa 	brls	800046e2 <prvIdleTask+0xe>
800046f2:	d7 33       	scall
800046f4:	cf 8b       	rjmp	800046e4 <prvIdleTask+0x10>
800046f6:	00 00       	add	r0,r0
800046f8:	80 00       	ld.sh	r0,r0[0x0]
800046fa:	48 30       	lddpc	r0,80004704 <prvInitialiseTCBVariables+0x4>
800046fc:	00 00       	add	r0,r0
800046fe:	06 24       	rsub	r4,r3

80004700 <prvInitialiseTCBVariables>:
80004700:	eb cd 40 80 	pushm	r7,lr
80004704:	1a 97       	mov	r7,sp
80004706:	20 5d       	sub	sp,20
80004708:	ef 4c ff fc 	st.w	r7[-4],r12
8000470c:	ef 4b ff f8 	st.w	r7[-8],r11
80004710:	ef 4a ff f4 	st.w	r7[-12],r10
80004714:	ef 49 ff f0 	st.w	r7[-16],r9
80004718:	ef 58 ff ec 	st.h	r7[-20],r8
8000471c:	ee f9 ff f8 	ld.w	r9,r7[-8]
80004720:	ee f8 ff fc 	ld.w	r8,r7[-4]
80004724:	2c c8       	sub	r8,-52
80004726:	31 0a       	mov	r10,16
80004728:	12 9b       	mov	r11,r9
8000472a:	10 9c       	mov	r12,r8
8000472c:	f0 1f 00 1a 	mcall	80004794 <prvInitialiseTCBVariables+0x94>
80004730:	ee f9 ff fc 	ld.w	r9,r7[-4]
80004734:	30 08       	mov	r8,0
80004736:	f3 68 00 43 	st.b	r9[67],r8
8000473a:	ee f8 ff f4 	ld.w	r8,r7[-12]
8000473e:	58 78       	cp.w	r8,7
80004740:	e0 88 00 05 	brls	8000474a <prvInitialiseTCBVariables+0x4a>
80004744:	30 78       	mov	r8,7
80004746:	ef 48 ff f4 	st.w	r7[-12],r8
8000474a:	ee f8 ff fc 	ld.w	r8,r7[-4]
8000474e:	ee f9 ff f4 	ld.w	r9,r7[-12]
80004752:	91 b9       	st.w	r8[0x2c],r9
80004754:	ee f8 ff fc 	ld.w	r8,r7[-4]
80004758:	2f c8       	sub	r8,-4
8000475a:	10 9c       	mov	r12,r8
8000475c:	f0 1f 00 0f 	mcall	80004798 <prvInitialiseTCBVariables+0x98>
80004760:	ee f8 ff fc 	ld.w	r8,r7[-4]
80004764:	2e 88       	sub	r8,-24
80004766:	10 9c       	mov	r12,r8
80004768:	f0 1f 00 0c 	mcall	80004798 <prvInitialiseTCBVariables+0x98>
8000476c:	ee f8 ff fc 	ld.w	r8,r7[-4]
80004770:	ee f9 ff fc 	ld.w	r9,r7[-4]
80004774:	91 49       	st.w	r8[0x10],r9
80004776:	ee f8 ff f4 	ld.w	r8,r7[-12]
8000477a:	f0 09 11 08 	rsub	r9,r8,8
8000477e:	ee f8 ff fc 	ld.w	r8,r7[-4]
80004782:	91 69       	st.w	r8[0x18],r9
80004784:	ee f8 ff fc 	ld.w	r8,r7[-4]
80004788:	ee f9 ff fc 	ld.w	r9,r7[-4]
8000478c:	91 99       	st.w	r8[0x24],r9
8000478e:	2f bd       	sub	sp,-20
80004790:	e3 cd 80 80 	ldm	sp++,r7,pc
80004794:	80 00       	ld.sh	r0,r0[0x0]
80004796:	50 18       	stdsp	sp[0x4],r8
80004798:	80 00       	ld.sh	r0,r0[0x0]
8000479a:	2e ac       	sub	r12,-22

8000479c <prvInitialiseTaskLists>:
8000479c:	eb cd 40 80 	pushm	r7,lr
800047a0:	1a 97       	mov	r7,sp
800047a2:	20 1d       	sub	sp,4
800047a4:	30 08       	mov	r8,0
800047a6:	ef 48 ff fc 	st.w	r7[-4],r8
800047aa:	c1 38       	rjmp	800047d0 <prvInitialiseTaskLists+0x34>
800047ac:	ee f9 ff fc 	ld.w	r9,r7[-4]
800047b0:	12 98       	mov	r8,r9
800047b2:	a3 68       	lsl	r8,0x2
800047b4:	12 08       	add	r8,r9
800047b6:	a3 68       	lsl	r8,0x2
800047b8:	10 99       	mov	r9,r8
800047ba:	49 58       	lddpc	r8,8000480c <prvInitialiseTaskLists+0x70>
800047bc:	f2 08 00 08 	add	r8,r9,r8
800047c0:	10 9c       	mov	r12,r8
800047c2:	f0 1f 00 14 	mcall	80004810 <prvInitialiseTaskLists+0x74>
800047c6:	ee f8 ff fc 	ld.w	r8,r7[-4]
800047ca:	2f f8       	sub	r8,-1
800047cc:	ef 48 ff fc 	st.w	r7[-4],r8
800047d0:	ee f8 ff fc 	ld.w	r8,r7[-4]
800047d4:	58 78       	cp.w	r8,7
800047d6:	fe 98 ff eb 	brls	800047ac <prvInitialiseTaskLists+0x10>
800047da:	48 fc       	lddpc	r12,80004814 <prvInitialiseTaskLists+0x78>
800047dc:	f0 1f 00 0d 	mcall	80004810 <prvInitialiseTaskLists+0x74>
800047e0:	48 ec       	lddpc	r12,80004818 <prvInitialiseTaskLists+0x7c>
800047e2:	f0 1f 00 0c 	mcall	80004810 <prvInitialiseTaskLists+0x74>
800047e6:	48 ec       	lddpc	r12,8000481c <prvInitialiseTaskLists+0x80>
800047e8:	f0 1f 00 0a 	mcall	80004810 <prvInitialiseTaskLists+0x74>
800047ec:	48 dc       	lddpc	r12,80004820 <prvInitialiseTaskLists+0x84>
800047ee:	f0 1f 00 09 	mcall	80004810 <prvInitialiseTaskLists+0x74>
800047f2:	48 dc       	lddpc	r12,80004824 <prvInitialiseTaskLists+0x88>
800047f4:	f0 1f 00 07 	mcall	80004810 <prvInitialiseTaskLists+0x74>
800047f8:	48 c8       	lddpc	r8,80004828 <prvInitialiseTaskLists+0x8c>
800047fa:	48 79       	lddpc	r9,80004814 <prvInitialiseTaskLists+0x78>
800047fc:	91 09       	st.w	r8[0x0],r9
800047fe:	48 c8       	lddpc	r8,8000482c <prvInitialiseTaskLists+0x90>
80004800:	48 69       	lddpc	r9,80004818 <prvInitialiseTaskLists+0x7c>
80004802:	91 09       	st.w	r8[0x0],r9
80004804:	2f fd       	sub	sp,-4
80004806:	e3 cd 80 80 	ldm	sp++,r7,pc
8000480a:	00 00       	add	r0,r0
8000480c:	00 00       	add	r0,r0
8000480e:	06 24       	rsub	r4,r3
80004810:	80 00       	ld.sh	r0,r0[0x0]
80004812:	2e 60       	sub	r0,-26
80004814:	00 00       	add	r0,r0
80004816:	06 c4       	st.b	r3++,r4
80004818:	00 00       	add	r0,r0
8000481a:	06 d8       	st.w	--r3,r8
8000481c:	00 00       	add	r0,r0
8000481e:	06 f4       	st.b	--r3,r4
80004820:	00 00       	add	r0,r0
80004822:	07 08       	ld.w	r8,r3++
80004824:	00 00       	add	r0,r0
80004826:	07 20       	ld.uh	r0,r3++
80004828:	00 00       	add	r0,r0
8000482a:	06 ec       	st.h	--r3,r12
8000482c:	00 00       	add	r0,r0
8000482e:	06 f0       	st.b	--r3,r0

80004830 <prvCheckTasksWaitingTermination>:
80004830:	eb cd 40 80 	pushm	r7,lr
80004834:	1a 97       	mov	r7,sp
80004836:	20 2d       	sub	sp,8
80004838:	49 b8       	lddpc	r8,800048a4 <prvCheckTasksWaitingTermination+0x74>
8000483a:	70 08       	ld.w	r8,r8[0x0]
8000483c:	58 08       	cp.w	r8,0
8000483e:	c2 f0       	breq	8000489c <prvCheckTasksWaitingTermination+0x6c>
80004840:	f0 1f 00 1a 	mcall	800048a8 <prvCheckTasksWaitingTermination+0x78>
80004844:	49 a8       	lddpc	r8,800048ac <prvCheckTasksWaitingTermination+0x7c>
80004846:	70 08       	ld.w	r8,r8[0x0]
80004848:	58 08       	cp.w	r8,0
8000484a:	5f 08       	sreq	r8
8000484c:	ef 48 ff f8 	st.w	r7[-8],r8
80004850:	f0 1f 00 18 	mcall	800048b0 <prvCheckTasksWaitingTermination+0x80>
80004854:	ee f8 ff f8 	ld.w	r8,r7[-8]
80004858:	58 08       	cp.w	r8,0
8000485a:	c2 11       	brne	8000489c <prvCheckTasksWaitingTermination+0x6c>
8000485c:	f0 1f 00 16 	mcall	800048b4 <prvCheckTasksWaitingTermination+0x84>
80004860:	49 38       	lddpc	r8,800048ac <prvCheckTasksWaitingTermination+0x7c>
80004862:	2f 88       	sub	r8,-8
80004864:	70 18       	ld.w	r8,r8[0x4]
80004866:	70 38       	ld.w	r8,r8[0xc]
80004868:	ef 48 ff fc 	st.w	r7[-4],r8
8000486c:	ee f8 ff fc 	ld.w	r8,r7[-4]
80004870:	2f c8       	sub	r8,-4
80004872:	10 9c       	mov	r12,r8
80004874:	f0 1f 00 11 	mcall	800048b8 <prvCheckTasksWaitingTermination+0x88>
80004878:	49 18       	lddpc	r8,800048bc <prvCheckTasksWaitingTermination+0x8c>
8000487a:	70 08       	ld.w	r8,r8[0x0]
8000487c:	f0 c9 00 01 	sub	r9,r8,1
80004880:	48 f8       	lddpc	r8,800048bc <prvCheckTasksWaitingTermination+0x8c>
80004882:	91 09       	st.w	r8[0x0],r9
80004884:	48 88       	lddpc	r8,800048a4 <prvCheckTasksWaitingTermination+0x74>
80004886:	70 08       	ld.w	r8,r8[0x0]
80004888:	f0 c9 00 01 	sub	r9,r8,1
8000488c:	48 68       	lddpc	r8,800048a4 <prvCheckTasksWaitingTermination+0x74>
8000488e:	91 09       	st.w	r8[0x0],r9
80004890:	f0 1f 00 0c 	mcall	800048c0 <prvCheckTasksWaitingTermination+0x90>
80004894:	ee fc ff fc 	ld.w	r12,r7[-4]
80004898:	f0 1f 00 0b 	mcall	800048c4 <prvCheckTasksWaitingTermination+0x94>
8000489c:	2f ed       	sub	sp,-8
8000489e:	e3 cd 80 80 	ldm	sp++,r7,pc
800048a2:	00 00       	add	r0,r0
800048a4:	00 00       	add	r0,r0
800048a6:	07 1c       	ld.sh	r12,r3++
800048a8:	80 00       	ld.sh	r0,r0[0x0]
800048aa:	41 04       	lddsp	r4,sp[0x40]
800048ac:	00 00       	add	r0,r0
800048ae:	07 08       	ld.w	r8,r3++
800048b0:	80 00       	ld.sh	r0,r0[0x0]
800048b2:	41 20       	lddsp	r0,sp[0x48]
800048b4:	80 00       	ld.sh	r0,r0[0x0]
800048b6:	31 f0       	mov	r0,31
800048b8:	80 00       	ld.sh	r0,r0[0x0]
800048ba:	2f da       	sub	r10,-3
800048bc:	00 00       	add	r0,r0
800048be:	07 34       	ld.ub	r4,r3++
800048c0:	80 00       	ld.sh	r0,r0[0x0]
800048c2:	32 0c       	mov	r12,32
800048c4:	80 00       	ld.sh	r0,r0[0x0]
800048c6:	49 dc       	lddpc	r12,80004938 <prvAddCurrentTaskToDelayedList+0x70>

800048c8 <prvAddCurrentTaskToDelayedList>:
800048c8:	eb cd 40 80 	pushm	r7,lr
800048cc:	1a 97       	mov	r7,sp
800048ce:	20 1d       	sub	sp,4
800048d0:	ef 4c ff fc 	st.w	r7[-4],r12
800048d4:	49 78       	lddpc	r8,80004930 <prvAddCurrentTaskToDelayedList+0x68>
800048d6:	70 08       	ld.w	r8,r8[0x0]
800048d8:	ee f9 ff fc 	ld.w	r9,r7[-4]
800048dc:	91 19       	st.w	r8[0x4],r9
800048de:	49 68       	lddpc	r8,80004934 <prvAddCurrentTaskToDelayedList+0x6c>
800048e0:	70 08       	ld.w	r8,r8[0x0]
800048e2:	ee f9 ff fc 	ld.w	r9,r7[-4]
800048e6:	10 39       	cp.w	r9,r8
800048e8:	c0 c2       	brcc	80004900 <prvAddCurrentTaskToDelayedList+0x38>
800048ea:	49 28       	lddpc	r8,80004930 <prvAddCurrentTaskToDelayedList+0x68>
800048ec:	70 08       	ld.w	r8,r8[0x0]
800048ee:	f0 c9 ff fc 	sub	r9,r8,-4
800048f2:	49 28       	lddpc	r8,80004938 <prvAddCurrentTaskToDelayedList+0x70>
800048f4:	70 08       	ld.w	r8,r8[0x0]
800048f6:	12 9b       	mov	r11,r9
800048f8:	10 9c       	mov	r12,r8
800048fa:	f0 1f 00 11 	mcall	8000493c <prvAddCurrentTaskToDelayedList+0x74>
800048fe:	c1 58       	rjmp	80004928 <prvAddCurrentTaskToDelayedList+0x60>
80004900:	48 c8       	lddpc	r8,80004930 <prvAddCurrentTaskToDelayedList+0x68>
80004902:	70 08       	ld.w	r8,r8[0x0]
80004904:	f0 c9 ff fc 	sub	r9,r8,-4
80004908:	48 e8       	lddpc	r8,80004940 <prvAddCurrentTaskToDelayedList+0x78>
8000490a:	70 08       	ld.w	r8,r8[0x0]
8000490c:	12 9b       	mov	r11,r9
8000490e:	10 9c       	mov	r12,r8
80004910:	f0 1f 00 0b 	mcall	8000493c <prvAddCurrentTaskToDelayedList+0x74>
80004914:	48 c8       	lddpc	r8,80004944 <prvAddCurrentTaskToDelayedList+0x7c>
80004916:	70 08       	ld.w	r8,r8[0x0]
80004918:	ee f9 ff fc 	ld.w	r9,r7[-4]
8000491c:	10 39       	cp.w	r9,r8
8000491e:	c0 52       	brcc	80004928 <prvAddCurrentTaskToDelayedList+0x60>
80004920:	48 98       	lddpc	r8,80004944 <prvAddCurrentTaskToDelayedList+0x7c>
80004922:	ee f9 ff fc 	ld.w	r9,r7[-4]
80004926:	91 09       	st.w	r8[0x0],r9
80004928:	2f fd       	sub	sp,-4
8000492a:	e3 cd 80 80 	ldm	sp++,r7,pc
8000492e:	00 00       	add	r0,r0
80004930:	00 00       	add	r0,r0
80004932:	06 20       	rsub	r0,r3
80004934:	00 00       	add	r0,r0
80004936:	07 38       	ld.ub	r8,r3++
80004938:	00 00       	add	r0,r0
8000493a:	06 f0       	st.b	--r3,r0
8000493c:	80 00       	ld.sh	r0,r0[0x0]
8000493e:	2f 38       	sub	r8,-13
80004940:	00 00       	add	r0,r0
80004942:	06 ec       	st.h	--r3,r12
80004944:	00 00       	add	r0,r0
80004946:	00 20       	rsub	r0,r0

80004948 <prvAllocateTCBAndStack>:
80004948:	eb cd 40 80 	pushm	r7,lr
8000494c:	1a 97       	mov	r7,sp
8000494e:	20 3d       	sub	sp,12
80004950:	18 98       	mov	r8,r12
80004952:	ef 4b ff f4 	st.w	r7[-12],r11
80004956:	ef 58 ff f8 	st.h	r7[-8],r8
8000495a:	34 4c       	mov	r12,68
8000495c:	f0 1f 00 1d 	mcall	800049d0 <prvAllocateTCBAndStack+0x88>
80004960:	18 98       	mov	r8,r12
80004962:	ef 48 ff fc 	st.w	r7[-4],r8
80004966:	ee f8 ff fc 	ld.w	r8,r7[-4]
8000496a:	58 08       	cp.w	r8,0
8000496c:	c2 c0       	breq	800049c4 <prvAllocateTCBAndStack+0x7c>
8000496e:	ee f8 ff f4 	ld.w	r8,r7[-12]
80004972:	58 08       	cp.w	r8,0
80004974:	c0 91       	brne	80004986 <prvAllocateTCBAndStack+0x3e>
80004976:	ef 18 ff f8 	ld.uh	r8,r7[-8]
8000497a:	a3 68       	lsl	r8,0x2
8000497c:	10 9c       	mov	r12,r8
8000497e:	f0 1f 00 15 	mcall	800049d0 <prvAllocateTCBAndStack+0x88>
80004982:	18 98       	mov	r8,r12
80004984:	c0 38       	rjmp	8000498a <prvAllocateTCBAndStack+0x42>
80004986:	ee f8 ff f4 	ld.w	r8,r7[-12]
8000498a:	ee f9 ff fc 	ld.w	r9,r7[-4]
8000498e:	93 c8       	st.w	r9[0x30],r8
80004990:	ee f8 ff fc 	ld.w	r8,r7[-4]
80004994:	70 c8       	ld.w	r8,r8[0x30]
80004996:	58 08       	cp.w	r8,0
80004998:	c0 91       	brne	800049aa <prvAllocateTCBAndStack+0x62>
8000499a:	ee fc ff fc 	ld.w	r12,r7[-4]
8000499e:	f0 1f 00 0e 	mcall	800049d4 <prvAllocateTCBAndStack+0x8c>
800049a2:	30 08       	mov	r8,0
800049a4:	ef 48 ff fc 	st.w	r7[-4],r8
800049a8:	c0 e8       	rjmp	800049c4 <prvAllocateTCBAndStack+0x7c>
800049aa:	ef 18 ff f8 	ld.uh	r8,r7[-8]
800049ae:	f0 09 15 02 	lsl	r9,r8,0x2
800049b2:	ee f8 ff fc 	ld.w	r8,r7[-4]
800049b6:	70 c8       	ld.w	r8,r8[0x30]
800049b8:	12 9a       	mov	r10,r9
800049ba:	e0 6b 00 a5 	mov	r11,165
800049be:	10 9c       	mov	r12,r8
800049c0:	f0 1f 00 06 	mcall	800049d8 <prvAllocateTCBAndStack+0x90>
800049c4:	ee f8 ff fc 	ld.w	r8,r7[-4]
800049c8:	10 9c       	mov	r12,r8
800049ca:	2f dd       	sub	sp,-12
800049cc:	e3 cd 80 80 	ldm	sp++,r7,pc
800049d0:	80 00       	ld.sh	r0,r0[0x0]
800049d2:	34 7c       	mov	r12,71
800049d4:	80 00       	ld.sh	r0,r0[0x0]
800049d6:	34 b8       	mov	r8,75
800049d8:	80 00       	ld.sh	r0,r0[0x0]
800049da:	4f d4       	lddpc	r4,80004bcc <_malloc_r+0x174>

800049dc <prvDeleteTCB>:
800049dc:	eb cd 40 80 	pushm	r7,lr
800049e0:	1a 97       	mov	r7,sp
800049e2:	20 1d       	sub	sp,4
800049e4:	ef 4c ff fc 	st.w	r7[-4],r12
800049e8:	ee f8 ff fc 	ld.w	r8,r7[-4]
800049ec:	70 c8       	ld.w	r8,r8[0x30]
800049ee:	10 9c       	mov	r12,r8
800049f0:	f0 1f 00 05 	mcall	80004a04 <prvDeleteTCB+0x28>
800049f4:	ee fc ff fc 	ld.w	r12,r7[-4]
800049f8:	f0 1f 00 03 	mcall	80004a04 <prvDeleteTCB+0x28>
800049fc:	2f fd       	sub	sp,-4
800049fe:	e3 cd 80 80 	ldm	sp++,r7,pc
80004a02:	00 00       	add	r0,r0
80004a04:	80 00       	ld.sh	r0,r0[0x0]
80004a06:	34 b8       	mov	r8,75

80004a08 <atexit>:
80004a08:	d4 01       	pushm	lr
80004a0a:	30 09       	mov	r9,0
80004a0c:	18 9b       	mov	r11,r12
80004a0e:	12 9a       	mov	r10,r9
80004a10:	12 9c       	mov	r12,r9
80004a12:	e0 a0 03 39 	rcall	80005084 <__register_exitproc>
80004a16:	d8 02       	popm	pc

80004a18 <exit>:
80004a18:	d4 21       	pushm	r4-r7,lr
80004a1a:	30 0b       	mov	r11,0
80004a1c:	18 97       	mov	r7,r12
80004a1e:	e0 a0 03 85 	rcall	80005128 <__call_exitprocs>
80004a22:	fe c8 f1 1e 	sub	r8,pc,-3810
80004a26:	70 0c       	ld.w	r12,r8[0x0]
80004a28:	78 a8       	ld.w	r8,r12[0x28]
80004a2a:	58 08       	cp.w	r8,0
80004a2c:	c0 20       	breq	80004a30 <exit+0x18>
80004a2e:	5d 18       	icall	r8
80004a30:	0e 9c       	mov	r12,r7
80004a32:	e0 a0 03 08 	rcall	80005042 <_exit>
80004a36:	d7 03       	nop

80004a38 <free>:
80004a38:	d4 01       	pushm	lr
80004a3a:	e0 68 01 14 	mov	r8,276
80004a3e:	18 9b       	mov	r11,r12
80004a40:	70 0c       	ld.w	r12,r8[0x0]
80004a42:	e0 a0 04 27 	rcall	80005290 <_free_r>
80004a46:	d8 02       	popm	pc

80004a48 <malloc>:
80004a48:	d4 01       	pushm	lr
80004a4a:	e0 68 01 14 	mov	r8,276
80004a4e:	18 9b       	mov	r11,r12
80004a50:	70 0c       	ld.w	r12,r8[0x0]
80004a52:	c0 3c       	rcall	80004a58 <_malloc_r>
80004a54:	d8 02       	popm	pc
80004a56:	d7 03       	nop

80004a58 <_malloc_r>:
80004a58:	d4 31       	pushm	r0-r7,lr
80004a5a:	f6 c8 ff f5 	sub	r8,r11,-11
80004a5e:	18 95       	mov	r5,r12
80004a60:	10 97       	mov	r7,r8
80004a62:	e0 17 ff f8 	andl	r7,0xfff8
80004a66:	59 68       	cp.w	r8,22
80004a68:	f9 b7 08 10 	movls	r7,16
80004a6c:	16 37       	cp.w	r7,r11
80004a6e:	5f 38       	srlo	r8
80004a70:	f1 e7 13 f8 	or	r8,r8,r7>>0x1f
80004a74:	c0 50       	breq	80004a7e <_malloc_r+0x26>
80004a76:	30 c8       	mov	r8,12
80004a78:	99 38       	st.w	r12[0xc],r8
80004a7a:	e0 8f 01 f8 	bral	80004e6a <_malloc_r+0x412>
80004a7e:	fe b0 f3 0f 	rcall	8000309c <__malloc_lock>
80004a82:	e0 47 01 f7 	cp.w	r7,503
80004a86:	e0 8b 00 1d 	brhi	80004ac0 <_malloc_r+0x68>
80004a8a:	ee 03 16 03 	lsr	r3,r7,0x3
80004a8e:	e0 68 01 18 	mov	r8,280
80004a92:	f0 03 00 38 	add	r8,r8,r3<<0x3
80004a96:	70 36       	ld.w	r6,r8[0xc]
80004a98:	10 36       	cp.w	r6,r8
80004a9a:	c0 61       	brne	80004aa6 <_malloc_r+0x4e>
80004a9c:	ec c8 ff f8 	sub	r8,r6,-8
80004aa0:	70 36       	ld.w	r6,r8[0xc]
80004aa2:	10 36       	cp.w	r6,r8
80004aa4:	c0 c0       	breq	80004abc <_malloc_r+0x64>
80004aa6:	6c 18       	ld.w	r8,r6[0x4]
80004aa8:	e0 18 ff fc 	andl	r8,0xfffc
80004aac:	6c 3a       	ld.w	r10,r6[0xc]
80004aae:	ec 08 00 09 	add	r9,r6,r8
80004ab2:	0a 9c       	mov	r12,r5
80004ab4:	6c 28       	ld.w	r8,r6[0x8]
80004ab6:	95 28       	st.w	r10[0x8],r8
80004ab8:	91 3a       	st.w	r8[0xc],r10
80004aba:	c4 78       	rjmp	80004b48 <_malloc_r+0xf0>
80004abc:	2f e3       	sub	r3,-2
80004abe:	c4 d8       	rjmp	80004b58 <_malloc_r+0x100>
80004ac0:	ee 03 16 09 	lsr	r3,r7,0x9
80004ac4:	c0 41       	brne	80004acc <_malloc_r+0x74>
80004ac6:	ee 03 16 03 	lsr	r3,r7,0x3
80004aca:	c2 68       	rjmp	80004b16 <_malloc_r+0xbe>
80004acc:	58 43       	cp.w	r3,4
80004ace:	e0 8b 00 06 	brhi	80004ada <_malloc_r+0x82>
80004ad2:	ee 03 16 06 	lsr	r3,r7,0x6
80004ad6:	2c 83       	sub	r3,-56
80004ad8:	c1 f8       	rjmp	80004b16 <_malloc_r+0xbe>
80004ada:	59 43       	cp.w	r3,20
80004adc:	e0 8b 00 04 	brhi	80004ae4 <_malloc_r+0x8c>
80004ae0:	2a 53       	sub	r3,-91
80004ae2:	c1 a8       	rjmp	80004b16 <_malloc_r+0xbe>
80004ae4:	e0 43 00 54 	cp.w	r3,84
80004ae8:	e0 8b 00 06 	brhi	80004af4 <_malloc_r+0x9c>
80004aec:	ee 03 16 0c 	lsr	r3,r7,0xc
80004af0:	29 23       	sub	r3,-110
80004af2:	c1 28       	rjmp	80004b16 <_malloc_r+0xbe>
80004af4:	e0 43 01 54 	cp.w	r3,340
80004af8:	e0 8b 00 06 	brhi	80004b04 <_malloc_r+0xac>
80004afc:	ee 03 16 0f 	lsr	r3,r7,0xf
80004b00:	28 93       	sub	r3,-119
80004b02:	c0 a8       	rjmp	80004b16 <_malloc_r+0xbe>
80004b04:	e0 43 05 54 	cp.w	r3,1364
80004b08:	e0 88 00 04 	brls	80004b10 <_malloc_r+0xb8>
80004b0c:	37 e3       	mov	r3,126
80004b0e:	c0 48       	rjmp	80004b16 <_malloc_r+0xbe>
80004b10:	ee 03 16 12 	lsr	r3,r7,0x12
80004b14:	28 43       	sub	r3,-124
80004b16:	e0 6a 01 18 	mov	r10,280
80004b1a:	f4 03 00 3a 	add	r10,r10,r3<<0x3
80004b1e:	74 36       	ld.w	r6,r10[0xc]
80004b20:	c1 98       	rjmp	80004b52 <_malloc_r+0xfa>
80004b22:	6c 19       	ld.w	r9,r6[0x4]
80004b24:	e0 19 ff fc 	andl	r9,0xfffc
80004b28:	f2 07 01 0b 	sub	r11,r9,r7
80004b2c:	58 fb       	cp.w	r11,15
80004b2e:	e0 8a 00 04 	brle	80004b36 <_malloc_r+0xde>
80004b32:	20 13       	sub	r3,1
80004b34:	c1 18       	rjmp	80004b56 <_malloc_r+0xfe>
80004b36:	6c 38       	ld.w	r8,r6[0xc]
80004b38:	58 0b       	cp.w	r11,0
80004b3a:	c0 b5       	brlt	80004b50 <_malloc_r+0xf8>
80004b3c:	6c 2a       	ld.w	r10,r6[0x8]
80004b3e:	ec 09 00 09 	add	r9,r6,r9
80004b42:	0a 9c       	mov	r12,r5
80004b44:	91 2a       	st.w	r8[0x8],r10
80004b46:	95 38       	st.w	r10[0xc],r8
80004b48:	72 18       	ld.w	r8,r9[0x4]
80004b4a:	a1 a8       	sbr	r8,0x0
80004b4c:	93 18       	st.w	r9[0x4],r8
80004b4e:	cb c8       	rjmp	80004cc6 <_malloc_r+0x26e>
80004b50:	10 96       	mov	r6,r8
80004b52:	14 36       	cp.w	r6,r10
80004b54:	ce 71       	brne	80004b22 <_malloc_r+0xca>
80004b56:	2f f3       	sub	r3,-1
80004b58:	e0 6a 01 18 	mov	r10,280
80004b5c:	f4 cc ff f8 	sub	r12,r10,-8
80004b60:	78 26       	ld.w	r6,r12[0x8]
80004b62:	18 36       	cp.w	r6,r12
80004b64:	c6 c0       	breq	80004c3c <_malloc_r+0x1e4>
80004b66:	6c 19       	ld.w	r9,r6[0x4]
80004b68:	e0 19 ff fc 	andl	r9,0xfffc
80004b6c:	f2 07 01 08 	sub	r8,r9,r7
80004b70:	58 f8       	cp.w	r8,15
80004b72:	e0 89 00 8f 	brgt	80004c90 <_malloc_r+0x238>
80004b76:	99 3c       	st.w	r12[0xc],r12
80004b78:	99 2c       	st.w	r12[0x8],r12
80004b7a:	58 08       	cp.w	r8,0
80004b7c:	c0 55       	brlt	80004b86 <_malloc_r+0x12e>
80004b7e:	ec 09 00 09 	add	r9,r6,r9
80004b82:	0a 9c       	mov	r12,r5
80004b84:	ce 2b       	rjmp	80004b48 <_malloc_r+0xf0>
80004b86:	e0 49 01 ff 	cp.w	r9,511
80004b8a:	e0 8b 00 13 	brhi	80004bb0 <_malloc_r+0x158>
80004b8e:	a3 99       	lsr	r9,0x3
80004b90:	f4 09 00 38 	add	r8,r10,r9<<0x3
80004b94:	70 2b       	ld.w	r11,r8[0x8]
80004b96:	8d 38       	st.w	r6[0xc],r8
80004b98:	8d 2b       	st.w	r6[0x8],r11
80004b9a:	97 36       	st.w	r11[0xc],r6
80004b9c:	91 26       	st.w	r8[0x8],r6
80004b9e:	a3 49       	asr	r9,0x2
80004ba0:	74 18       	ld.w	r8,r10[0x4]
80004ba2:	30 1b       	mov	r11,1
80004ba4:	f6 09 09 49 	lsl	r9,r11,r9
80004ba8:	f1 e9 10 09 	or	r9,r8,r9
80004bac:	95 19       	st.w	r10[0x4],r9
80004bae:	c4 78       	rjmp	80004c3c <_malloc_r+0x1e4>
80004bb0:	f2 0a 16 09 	lsr	r10,r9,0x9
80004bb4:	58 4a       	cp.w	r10,4
80004bb6:	e0 8b 00 07 	brhi	80004bc4 <_malloc_r+0x16c>
80004bba:	f2 0a 16 06 	lsr	r10,r9,0x6
80004bbe:	2c 8a       	sub	r10,-56
80004bc0:	c2 08       	rjmp	80004c00 <_malloc_r+0x1a8>
80004bc2:	d7 03       	nop
80004bc4:	59 4a       	cp.w	r10,20
80004bc6:	e0 8b 00 04 	brhi	80004bce <_malloc_r+0x176>
80004bca:	2a 5a       	sub	r10,-91
80004bcc:	c1 a8       	rjmp	80004c00 <_malloc_r+0x1a8>
80004bce:	e0 4a 00 54 	cp.w	r10,84
80004bd2:	e0 8b 00 06 	brhi	80004bde <_malloc_r+0x186>
80004bd6:	f2 0a 16 0c 	lsr	r10,r9,0xc
80004bda:	29 2a       	sub	r10,-110
80004bdc:	c1 28       	rjmp	80004c00 <_malloc_r+0x1a8>
80004bde:	e0 4a 01 54 	cp.w	r10,340
80004be2:	e0 8b 00 06 	brhi	80004bee <_malloc_r+0x196>
80004be6:	f2 0a 16 0f 	lsr	r10,r9,0xf
80004bea:	28 9a       	sub	r10,-119
80004bec:	c0 a8       	rjmp	80004c00 <_malloc_r+0x1a8>
80004bee:	e0 4a 05 54 	cp.w	r10,1364
80004bf2:	e0 88 00 04 	brls	80004bfa <_malloc_r+0x1a2>
80004bf6:	37 ea       	mov	r10,126
80004bf8:	c0 48       	rjmp	80004c00 <_malloc_r+0x1a8>
80004bfa:	f2 0a 16 12 	lsr	r10,r9,0x12
80004bfe:	28 4a       	sub	r10,-124
80004c00:	e0 6b 01 18 	mov	r11,280
80004c04:	f6 0a 00 34 	add	r4,r11,r10<<0x3
80004c08:	68 28       	ld.w	r8,r4[0x8]
80004c0a:	08 38       	cp.w	r8,r4
80004c0c:	c0 e1       	brne	80004c28 <_malloc_r+0x1d0>
80004c0e:	76 19       	ld.w	r9,r11[0x4]
80004c10:	a3 4a       	asr	r10,0x2
80004c12:	30 1e       	mov	lr,1
80004c14:	fc 0a 09 4a 	lsl	r10,lr,r10
80004c18:	f3 ea 10 0a 	or	r10,r9,r10
80004c1c:	10 99       	mov	r9,r8
80004c1e:	97 1a       	st.w	r11[0x4],r10
80004c20:	c0 a8       	rjmp	80004c34 <_malloc_r+0x1dc>
80004c22:	70 28       	ld.w	r8,r8[0x8]
80004c24:	08 38       	cp.w	r8,r4
80004c26:	c0 60       	breq	80004c32 <_malloc_r+0x1da>
80004c28:	70 1a       	ld.w	r10,r8[0x4]
80004c2a:	e0 1a ff fc 	andl	r10,0xfffc
80004c2e:	14 39       	cp.w	r9,r10
80004c30:	cf 93       	brcs	80004c22 <_malloc_r+0x1ca>
80004c32:	70 39       	ld.w	r9,r8[0xc]
80004c34:	8d 39       	st.w	r6[0xc],r9
80004c36:	8d 28       	st.w	r6[0x8],r8
80004c38:	91 36       	st.w	r8[0xc],r6
80004c3a:	93 26       	st.w	r9[0x8],r6
80004c3c:	e6 08 14 02 	asr	r8,r3,0x2
80004c40:	30 1b       	mov	r11,1
80004c42:	e0 64 01 18 	mov	r4,280
80004c46:	f6 08 09 4b 	lsl	r11,r11,r8
80004c4a:	68 18       	ld.w	r8,r4[0x4]
80004c4c:	10 3b       	cp.w	r11,r8
80004c4e:	e0 8b 00 6b 	brhi	80004d24 <_malloc_r+0x2cc>
80004c52:	f7 e8 00 09 	and	r9,r11,r8
80004c56:	c0 b1       	brne	80004c6c <_malloc_r+0x214>
80004c58:	e0 13 ff fc 	andl	r3,0xfffc
80004c5c:	a1 7b       	lsl	r11,0x1
80004c5e:	2f c3       	sub	r3,-4
80004c60:	c0 38       	rjmp	80004c66 <_malloc_r+0x20e>
80004c62:	2f c3       	sub	r3,-4
80004c64:	a1 7b       	lsl	r11,0x1
80004c66:	f7 e8 00 09 	and	r9,r11,r8
80004c6a:	cf c0       	breq	80004c62 <_malloc_r+0x20a>
80004c6c:	e8 03 00 3e 	add	lr,r4,r3<<0x3
80004c70:	06 92       	mov	r2,r3
80004c72:	1c 91       	mov	r1,lr
80004c74:	62 36       	ld.w	r6,r1[0xc]
80004c76:	c2 e8       	rjmp	80004cd2 <_malloc_r+0x27a>
80004c78:	6c 1a       	ld.w	r10,r6[0x4]
80004c7a:	e0 1a ff fc 	andl	r10,0xfffc
80004c7e:	f4 07 01 08 	sub	r8,r10,r7
80004c82:	58 f8       	cp.w	r8,15
80004c84:	e0 8a 00 15 	brle	80004cae <_malloc_r+0x256>
80004c88:	6c 3a       	ld.w	r10,r6[0xc]
80004c8a:	6c 29       	ld.w	r9,r6[0x8]
80004c8c:	95 29       	st.w	r10[0x8],r9
80004c8e:	93 3a       	st.w	r9[0xc],r10
80004c90:	0e 99       	mov	r9,r7
80004c92:	ec 07 00 07 	add	r7,r6,r7
80004c96:	a1 a9       	sbr	r9,0x0
80004c98:	99 37       	st.w	r12[0xc],r7
80004c9a:	99 27       	st.w	r12[0x8],r7
80004c9c:	8d 19       	st.w	r6[0x4],r9
80004c9e:	ee 08 09 08 	st.w	r7[r8],r8
80004ca2:	8f 2c       	st.w	r7[0x8],r12
80004ca4:	8f 3c       	st.w	r7[0xc],r12
80004ca6:	a1 a8       	sbr	r8,0x0
80004ca8:	0a 9c       	mov	r12,r5
80004caa:	8f 18       	st.w	r7[0x4],r8
80004cac:	c0 d8       	rjmp	80004cc6 <_malloc_r+0x26e>
80004cae:	6c 39       	ld.w	r9,r6[0xc]
80004cb0:	58 08       	cp.w	r8,0
80004cb2:	c0 f5       	brlt	80004cd0 <_malloc_r+0x278>
80004cb4:	ec 0a 00 0a 	add	r10,r6,r10
80004cb8:	74 18       	ld.w	r8,r10[0x4]
80004cba:	a1 a8       	sbr	r8,0x0
80004cbc:	0a 9c       	mov	r12,r5
80004cbe:	95 18       	st.w	r10[0x4],r8
80004cc0:	6c 28       	ld.w	r8,r6[0x8]
80004cc2:	93 28       	st.w	r9[0x8],r8
80004cc4:	91 39       	st.w	r8[0xc],r9
80004cc6:	fe b0 f1 f9 	rcall	800030b8 <__malloc_unlock>
80004cca:	ec cc ff f8 	sub	r12,r6,-8
80004cce:	d8 32       	popm	r0-r7,pc
80004cd0:	12 96       	mov	r6,r9
80004cd2:	02 36       	cp.w	r6,r1
80004cd4:	cd 21       	brne	80004c78 <_malloc_r+0x220>
80004cd6:	2f f2       	sub	r2,-1
80004cd8:	f1 d2 c0 02 	bfextu	r8,r2,0x0,0x2
80004cdc:	c0 30       	breq	80004ce2 <_malloc_r+0x28a>
80004cde:	2f 81       	sub	r1,-8
80004ce0:	cc ab       	rjmp	80004c74 <_malloc_r+0x21c>
80004ce2:	1c 98       	mov	r8,lr
80004ce4:	f3 d3 c0 02 	bfextu	r9,r3,0x0,0x2
80004ce8:	c0 81       	brne	80004cf8 <_malloc_r+0x2a0>
80004cea:	68 19       	ld.w	r9,r4[0x4]
80004cec:	f6 08 11 ff 	rsub	r8,r11,-1
80004cf0:	f3 e8 00 08 	and	r8,r9,r8
80004cf4:	89 18       	st.w	r4[0x4],r8
80004cf6:	c0 78       	rjmp	80004d04 <_malloc_r+0x2ac>
80004cf8:	f0 c9 00 08 	sub	r9,r8,8
80004cfc:	20 13       	sub	r3,1
80004cfe:	70 08       	ld.w	r8,r8[0x0]
80004d00:	12 38       	cp.w	r8,r9
80004d02:	cf 10       	breq	80004ce4 <_malloc_r+0x28c>
80004d04:	a1 7b       	lsl	r11,0x1
80004d06:	68 18       	ld.w	r8,r4[0x4]
80004d08:	10 3b       	cp.w	r11,r8
80004d0a:	e0 8b 00 0d 	brhi	80004d24 <_malloc_r+0x2cc>
80004d0e:	58 0b       	cp.w	r11,0
80004d10:	c0 a0       	breq	80004d24 <_malloc_r+0x2cc>
80004d12:	04 93       	mov	r3,r2
80004d14:	c0 38       	rjmp	80004d1a <_malloc_r+0x2c2>
80004d16:	2f c3       	sub	r3,-4
80004d18:	a1 7b       	lsl	r11,0x1
80004d1a:	f7 e8 00 09 	and	r9,r11,r8
80004d1e:	ca 71       	brne	80004c6c <_malloc_r+0x214>
80004d20:	cf bb       	rjmp	80004d16 <_malloc_r+0x2be>
80004d22:	d7 03       	nop
80004d24:	68 23       	ld.w	r3,r4[0x8]
80004d26:	66 12       	ld.w	r2,r3[0x4]
80004d28:	e0 12 ff fc 	andl	r2,0xfffc
80004d2c:	0e 32       	cp.w	r2,r7
80004d2e:	5f 39       	srlo	r9
80004d30:	e4 07 01 08 	sub	r8,r2,r7
80004d34:	58 f8       	cp.w	r8,15
80004d36:	5f aa       	srle	r10
80004d38:	f5 e9 10 09 	or	r9,r10,r9
80004d3c:	e0 80 00 98 	breq	80004e6c <_malloc_r+0x414>
80004d40:	e0 68 07 64 	mov	r8,1892
80004d44:	70 01       	ld.w	r1,r8[0x0]
80004d46:	e0 68 05 24 	mov	r8,1316
80004d4a:	2f 01       	sub	r1,-16
80004d4c:	70 08       	ld.w	r8,r8[0x0]
80004d4e:	0e 01       	add	r1,r7
80004d50:	5b f8       	cp.w	r8,-1
80004d52:	c0 40       	breq	80004d5a <_malloc_r+0x302>
80004d54:	28 11       	sub	r1,-127
80004d56:	e0 11 ff 80 	andl	r1,0xff80
80004d5a:	02 9b       	mov	r11,r1
80004d5c:	0a 9c       	mov	r12,r5
80004d5e:	c4 3d       	rcall	80004fe4 <_sbrk_r>
80004d60:	18 96       	mov	r6,r12
80004d62:	5b fc       	cp.w	r12,-1
80004d64:	c7 40       	breq	80004e4c <_malloc_r+0x3f4>
80004d66:	e6 02 00 08 	add	r8,r3,r2
80004d6a:	10 3c       	cp.w	r12,r8
80004d6c:	c0 32       	brcc	80004d72 <_malloc_r+0x31a>
80004d6e:	08 33       	cp.w	r3,r4
80004d70:	c6 e1       	brne	80004e4c <_malloc_r+0x3f4>
80004d72:	e0 6a 07 68 	mov	r10,1896
80004d76:	74 09       	ld.w	r9,r10[0x0]
80004d78:	e2 09 00 09 	add	r9,r1,r9
80004d7c:	95 09       	st.w	r10[0x0],r9
80004d7e:	10 36       	cp.w	r6,r8
80004d80:	c0 a1       	brne	80004d94 <_malloc_r+0x33c>
80004d82:	f5 d6 c0 07 	bfextu	r10,r6,0x0,0x7
80004d86:	c0 71       	brne	80004d94 <_malloc_r+0x33c>
80004d88:	e2 02 00 02 	add	r2,r1,r2
80004d8c:	68 28       	ld.w	r8,r4[0x8]
80004d8e:	a1 a2       	sbr	r2,0x0
80004d90:	91 12       	st.w	r8[0x4],r2
80004d92:	c4 e8       	rjmp	80004e2e <_malloc_r+0x3d6>
80004d94:	e0 6a 05 24 	mov	r10,1316
80004d98:	74 0b       	ld.w	r11,r10[0x0]
80004d9a:	5b fb       	cp.w	r11,-1
80004d9c:	c0 31       	brne	80004da2 <_malloc_r+0x34a>
80004d9e:	95 06       	st.w	r10[0x0],r6
80004da0:	c0 78       	rjmp	80004dae <_malloc_r+0x356>
80004da2:	ec 09 00 09 	add	r9,r6,r9
80004da6:	e0 6a 07 68 	mov	r10,1896
80004daa:	10 19       	sub	r9,r8
80004dac:	95 09       	st.w	r10[0x0],r9
80004dae:	f1 d6 c0 03 	bfextu	r8,r6,0x0,0x3
80004db2:	f0 09 11 08 	rsub	r9,r8,8
80004db6:	58 08       	cp.w	r8,0
80004db8:	f2 08 17 10 	movne	r8,r9
80004dbc:	ed d8 e1 06 	addne	r6,r6,r8
80004dc0:	28 08       	sub	r8,-128
80004dc2:	ec 01 00 01 	add	r1,r6,r1
80004dc6:	0a 9c       	mov	r12,r5
80004dc8:	e3 d1 c0 07 	bfextu	r1,r1,0x0,0x7
80004dcc:	f0 01 01 01 	sub	r1,r8,r1
80004dd0:	02 9b       	mov	r11,r1
80004dd2:	c0 9d       	rcall	80004fe4 <_sbrk_r>
80004dd4:	e0 68 07 68 	mov	r8,1896
80004dd8:	5b fc       	cp.w	r12,-1
80004dda:	ec 0c 17 00 	moveq	r12,r6
80004dde:	f9 b1 00 00 	moveq	r1,0
80004de2:	70 09       	ld.w	r9,r8[0x0]
80004de4:	0c 1c       	sub	r12,r6
80004de6:	89 26       	st.w	r4[0x8],r6
80004de8:	02 0c       	add	r12,r1
80004dea:	12 01       	add	r1,r9
80004dec:	a1 ac       	sbr	r12,0x0
80004dee:	91 01       	st.w	r8[0x0],r1
80004df0:	8d 1c       	st.w	r6[0x4],r12
80004df2:	08 33       	cp.w	r3,r4
80004df4:	c1 d0       	breq	80004e2e <_malloc_r+0x3d6>
80004df6:	58 f2       	cp.w	r2,15
80004df8:	e0 8b 00 05 	brhi	80004e02 <_malloc_r+0x3aa>
80004dfc:	30 18       	mov	r8,1
80004dfe:	8d 18       	st.w	r6[0x4],r8
80004e00:	c2 68       	rjmp	80004e4c <_malloc_r+0x3f4>
80004e02:	30 59       	mov	r9,5
80004e04:	20 c2       	sub	r2,12
80004e06:	e0 12 ff f8 	andl	r2,0xfff8
80004e0a:	e6 02 00 08 	add	r8,r3,r2
80004e0e:	91 29       	st.w	r8[0x8],r9
80004e10:	91 19       	st.w	r8[0x4],r9
80004e12:	66 18       	ld.w	r8,r3[0x4]
80004e14:	f1 d8 c0 01 	bfextu	r8,r8,0x0,0x1
80004e18:	e5 e8 10 08 	or	r8,r2,r8
80004e1c:	87 18       	st.w	r3[0x4],r8
80004e1e:	58 f2       	cp.w	r2,15
80004e20:	e0 88 00 07 	brls	80004e2e <_malloc_r+0x3d6>
80004e24:	e6 cb ff f8 	sub	r11,r3,-8
80004e28:	0a 9c       	mov	r12,r5
80004e2a:	e0 a0 02 33 	rcall	80005290 <_free_r>
80004e2e:	e0 69 07 60 	mov	r9,1888
80004e32:	72 0a       	ld.w	r10,r9[0x0]
80004e34:	e0 68 07 68 	mov	r8,1896
80004e38:	70 08       	ld.w	r8,r8[0x0]
80004e3a:	14 38       	cp.w	r8,r10
80004e3c:	f3 f8 ba 00 	st.whi	r9[0x0],r8
80004e40:	e0 69 07 5c 	mov	r9,1884
80004e44:	72 0a       	ld.w	r10,r9[0x0]
80004e46:	14 38       	cp.w	r8,r10
80004e48:	f3 f8 ba 00 	st.whi	r9[0x0],r8
80004e4c:	68 28       	ld.w	r8,r4[0x8]
80004e4e:	70 18       	ld.w	r8,r8[0x4]
80004e50:	e0 18 ff fc 	andl	r8,0xfffc
80004e54:	0e 38       	cp.w	r8,r7
80004e56:	5f 39       	srlo	r9
80004e58:	0e 18       	sub	r8,r7
80004e5a:	58 f8       	cp.w	r8,15
80004e5c:	5f aa       	srle	r10
80004e5e:	f5 e9 10 09 	or	r9,r10,r9
80004e62:	c0 50       	breq	80004e6c <_malloc_r+0x414>
80004e64:	0a 9c       	mov	r12,r5
80004e66:	fe b0 f1 29 	rcall	800030b8 <__malloc_unlock>
80004e6a:	d8 3a       	popm	r0-r7,pc,r12=0
80004e6c:	68 26       	ld.w	r6,r4[0x8]
80004e6e:	a1 a8       	sbr	r8,0x0
80004e70:	0e 99       	mov	r9,r7
80004e72:	a1 a9       	sbr	r9,0x0
80004e74:	8d 19       	st.w	r6[0x4],r9
80004e76:	ec 07 00 07 	add	r7,r6,r7
80004e7a:	0a 9c       	mov	r12,r5
80004e7c:	89 27       	st.w	r4[0x8],r7
80004e7e:	8f 18       	st.w	r7[0x4],r8
80004e80:	fe b0 f1 1c 	rcall	800030b8 <__malloc_unlock>
80004e84:	ec cc ff f8 	sub	r12,r6,-8
80004e88:	d8 32       	popm	r0-r7,pc
80004e8a:	d7 03       	nop

80004e8c <memcpy>:
80004e8c:	58 8a       	cp.w	r10,8
80004e8e:	c2 f5       	brlt	80004eec <memcpy+0x60>
80004e90:	f9 eb 10 09 	or	r9,r12,r11
80004e94:	e2 19 00 03 	andl	r9,0x3,COH
80004e98:	e0 81 00 97 	brne	80004fc6 <memcpy+0x13a>
80004e9c:	e0 4a 00 20 	cp.w	r10,32
80004ea0:	c3 b4       	brge	80004f16 <memcpy+0x8a>
80004ea2:	f4 08 14 02 	asr	r8,r10,0x2
80004ea6:	f0 09 11 08 	rsub	r9,r8,8
80004eaa:	fe 09 00 2f 	add	pc,pc,r9<<0x2
80004eae:	76 69       	ld.w	r9,r11[0x18]
80004eb0:	99 69       	st.w	r12[0x18],r9
80004eb2:	76 59       	ld.w	r9,r11[0x14]
80004eb4:	99 59       	st.w	r12[0x14],r9
80004eb6:	76 49       	ld.w	r9,r11[0x10]
80004eb8:	99 49       	st.w	r12[0x10],r9
80004eba:	76 39       	ld.w	r9,r11[0xc]
80004ebc:	99 39       	st.w	r12[0xc],r9
80004ebe:	76 29       	ld.w	r9,r11[0x8]
80004ec0:	99 29       	st.w	r12[0x8],r9
80004ec2:	76 19       	ld.w	r9,r11[0x4]
80004ec4:	99 19       	st.w	r12[0x4],r9
80004ec6:	76 09       	ld.w	r9,r11[0x0]
80004ec8:	99 09       	st.w	r12[0x0],r9
80004eca:	f6 08 00 2b 	add	r11,r11,r8<<0x2
80004ece:	f8 08 00 28 	add	r8,r12,r8<<0x2
80004ed2:	e0 1a 00 03 	andl	r10,0x3
80004ed6:	f4 0a 11 04 	rsub	r10,r10,4
80004eda:	fe 0a 00 2f 	add	pc,pc,r10<<0x2
80004ede:	17 a9       	ld.ub	r9,r11[0x2]
80004ee0:	b0 a9       	st.b	r8[0x2],r9
80004ee2:	17 99       	ld.ub	r9,r11[0x1]
80004ee4:	b0 99       	st.b	r8[0x1],r9
80004ee6:	17 89       	ld.ub	r9,r11[0x0]
80004ee8:	b0 89       	st.b	r8[0x0],r9
80004eea:	5e fc       	retal	r12
80004eec:	f4 0a 11 09 	rsub	r10,r10,9
80004ef0:	fe 0a 00 2f 	add	pc,pc,r10<<0x2
80004ef4:	17 f9       	ld.ub	r9,r11[0x7]
80004ef6:	b8 f9       	st.b	r12[0x7],r9
80004ef8:	17 e9       	ld.ub	r9,r11[0x6]
80004efa:	b8 e9       	st.b	r12[0x6],r9
80004efc:	17 d9       	ld.ub	r9,r11[0x5]
80004efe:	b8 d9       	st.b	r12[0x5],r9
80004f00:	17 c9       	ld.ub	r9,r11[0x4]
80004f02:	b8 c9       	st.b	r12[0x4],r9
80004f04:	17 b9       	ld.ub	r9,r11[0x3]
80004f06:	b8 b9       	st.b	r12[0x3],r9
80004f08:	17 a9       	ld.ub	r9,r11[0x2]
80004f0a:	b8 a9       	st.b	r12[0x2],r9
80004f0c:	17 99       	ld.ub	r9,r11[0x1]
80004f0e:	b8 99       	st.b	r12[0x1],r9
80004f10:	17 89       	ld.ub	r9,r11[0x0]
80004f12:	b8 89       	st.b	r12[0x0],r9
80004f14:	5e fc       	retal	r12
80004f16:	eb cd 40 c0 	pushm	r6-r7,lr
80004f1a:	18 99       	mov	r9,r12
80004f1c:	22 0a       	sub	r10,32
80004f1e:	b7 07       	ld.d	r6,r11++
80004f20:	b3 26       	st.d	r9++,r6
80004f22:	b7 07       	ld.d	r6,r11++
80004f24:	b3 26       	st.d	r9++,r6
80004f26:	b7 07       	ld.d	r6,r11++
80004f28:	b3 26       	st.d	r9++,r6
80004f2a:	b7 07       	ld.d	r6,r11++
80004f2c:	b3 26       	st.d	r9++,r6
80004f2e:	22 0a       	sub	r10,32
80004f30:	cf 74       	brge	80004f1e <memcpy+0x92>
80004f32:	2f 0a       	sub	r10,-16
80004f34:	c0 65       	brlt	80004f40 <memcpy+0xb4>
80004f36:	b7 07       	ld.d	r6,r11++
80004f38:	b3 26       	st.d	r9++,r6
80004f3a:	b7 07       	ld.d	r6,r11++
80004f3c:	b3 26       	st.d	r9++,r6
80004f3e:	21 0a       	sub	r10,16
80004f40:	5c 3a       	neg	r10
80004f42:	fe 0a 00 3f 	add	pc,pc,r10<<0x3
80004f46:	d7 03       	nop
80004f48:	d7 03       	nop
80004f4a:	f7 36 00 0e 	ld.ub	r6,r11[14]
80004f4e:	f3 66 00 0e 	st.b	r9[14],r6
80004f52:	f7 36 00 0d 	ld.ub	r6,r11[13]
80004f56:	f3 66 00 0d 	st.b	r9[13],r6
80004f5a:	f7 36 00 0c 	ld.ub	r6,r11[12]
80004f5e:	f3 66 00 0c 	st.b	r9[12],r6
80004f62:	f7 36 00 0b 	ld.ub	r6,r11[11]
80004f66:	f3 66 00 0b 	st.b	r9[11],r6
80004f6a:	f7 36 00 0a 	ld.ub	r6,r11[10]
80004f6e:	f3 66 00 0a 	st.b	r9[10],r6
80004f72:	f7 36 00 09 	ld.ub	r6,r11[9]
80004f76:	f3 66 00 09 	st.b	r9[9],r6
80004f7a:	f7 36 00 08 	ld.ub	r6,r11[8]
80004f7e:	f3 66 00 08 	st.b	r9[8],r6
80004f82:	f7 36 00 07 	ld.ub	r6,r11[7]
80004f86:	f3 66 00 07 	st.b	r9[7],r6
80004f8a:	f7 36 00 06 	ld.ub	r6,r11[6]
80004f8e:	f3 66 00 06 	st.b	r9[6],r6
80004f92:	f7 36 00 05 	ld.ub	r6,r11[5]
80004f96:	f3 66 00 05 	st.b	r9[5],r6
80004f9a:	f7 36 00 04 	ld.ub	r6,r11[4]
80004f9e:	f3 66 00 04 	st.b	r9[4],r6
80004fa2:	f7 36 00 03 	ld.ub	r6,r11[3]
80004fa6:	f3 66 00 03 	st.b	r9[3],r6
80004faa:	f7 36 00 02 	ld.ub	r6,r11[2]
80004fae:	f3 66 00 02 	st.b	r9[2],r6
80004fb2:	f7 36 00 01 	ld.ub	r6,r11[1]
80004fb6:	f3 66 00 01 	st.b	r9[1],r6
80004fba:	f7 36 00 00 	ld.ub	r6,r11[0]
80004fbe:	f3 66 00 00 	st.b	r9[0],r6
80004fc2:	e3 cd 80 c0 	ldm	sp++,r6-r7,pc
80004fc6:	20 1a       	sub	r10,1
80004fc8:	f6 0a 07 09 	ld.ub	r9,r11[r10]
80004fcc:	f8 0a 0b 09 	st.b	r12[r10],r9
80004fd0:	cf b1       	brne	80004fc6 <memcpy+0x13a>
80004fd2:	5e fc       	retal	r12

80004fd4 <memset>:
80004fd4:	18 98       	mov	r8,r12
80004fd6:	c0 38       	rjmp	80004fdc <memset+0x8>
80004fd8:	10 cb       	st.b	r8++,r11
80004fda:	20 1a       	sub	r10,1
80004fdc:	58 0a       	cp.w	r10,0
80004fde:	cf d1       	brne	80004fd8 <memset+0x4>
80004fe0:	5e fc       	retal	r12
80004fe2:	d7 03       	nop

80004fe4 <_sbrk_r>:
80004fe4:	d4 21       	pushm	r4-r7,lr
80004fe6:	30 08       	mov	r8,0
80004fe8:	18 97       	mov	r7,r12
80004fea:	e0 66 07 a8 	mov	r6,1960
80004fee:	16 9c       	mov	r12,r11
80004ff0:	8d 08       	st.w	r6[0x0],r8
80004ff2:	c2 dc       	rcall	8000504c <_sbrk>
80004ff4:	5b fc       	cp.w	r12,-1
80004ff6:	c0 51       	brne	80005000 <_sbrk_r+0x1c>
80004ff8:	6c 08       	ld.w	r8,r6[0x0]
80004ffa:	58 08       	cp.w	r8,0
80004ffc:	ef f8 1a 03 	st.wne	r7[0xc],r8
80005000:	d8 22       	popm	r4-r7,pc
80005002:	d7 03       	nop

80005004 <strcpy>:
80005004:	30 08       	mov	r8,0
80005006:	f6 08 07 09 	ld.ub	r9,r11[r8]
8000500a:	f8 08 0b 09 	st.b	r12[r8],r9
8000500e:	2f f8       	sub	r8,-1
80005010:	58 09       	cp.w	r9,0
80005012:	cf a1       	brne	80005006 <strcpy+0x2>
80005014:	5e fc       	retal	r12
80005016:	d7 03       	nop

80005018 <strncpy>:
80005018:	30 08       	mov	r8,0
8000501a:	10 3a       	cp.w	r10,r8
8000501c:	5e 0c       	reteq	r12
8000501e:	f6 08 07 09 	ld.ub	r9,r11[r8]
80005022:	f8 08 0b 09 	st.b	r12[r8],r9
80005026:	2f f8       	sub	r8,-1
80005028:	58 09       	cp.w	r9,0
8000502a:	cf 81       	brne	8000501a <strncpy+0x2>
8000502c:	10 3a       	cp.w	r10,r8
8000502e:	5e 0c       	reteq	r12
80005030:	f8 08 0b 09 	st.b	r12[r8],r9
80005034:	2f f8       	sub	r8,-1
80005036:	cf bb       	rjmp	8000502c <strncpy+0x14>

80005038 <_init_argv>:
80005038:	30 e8       	mov	r8,14
8000503a:	d6 73       	breakpoint
8000503c:	3f fc       	mov	r12,-1
8000503e:	35 8b       	mov	r11,88
80005040:	5e fc       	retal	r12

80005042 <_exit>:
80005042:	30 d8       	mov	r8,13
80005044:	d6 73       	breakpoint
80005046:	3f fc       	mov	r12,-1
80005048:	35 8b       	mov	r11,88
8000504a:	c0 08       	rjmp	8000504a <_exit+0x8>

8000504c <_sbrk>:
8000504c:	d4 01       	pushm	lr
8000504e:	e0 68 07 90 	mov	r8,1936
80005052:	70 09       	ld.w	r9,r8[0x0]
80005054:	58 09       	cp.w	r9,0
80005056:	c0 41       	brne	8000505e <_sbrk+0x12>
80005058:	e0 69 07 b0 	mov	r9,1968
8000505c:	91 09       	st.w	r8[0x0],r9
8000505e:	e0 69 07 90 	mov	r9,1936
80005062:	e0 6a f0 00 	mov	r10,61440
80005066:	72 08       	ld.w	r8,r9[0x0]
80005068:	f0 0c 00 0c 	add	r12,r8,r12
8000506c:	14 3c       	cp.w	r12,r10
8000506e:	e0 8b 00 04 	brhi	80005076 <_sbrk+0x2a>
80005072:	93 0c       	st.w	r9[0x0],r12
80005074:	c0 58       	rjmp	8000507e <_sbrk+0x32>
80005076:	cb fc       	rcall	800051f4 <__errno>
80005078:	30 c8       	mov	r8,12
8000507a:	99 08       	st.w	r12[0x0],r8
8000507c:	3f f8       	mov	r8,-1
8000507e:	10 9c       	mov	r12,r8
80005080:	d8 02       	popm	pc
80005082:	d7 03       	nop

80005084 <__register_exitproc>:
80005084:	d4 31       	pushm	r0-r7,lr
80005086:	fe c8 f7 82 	sub	r8,pc,-2174
8000508a:	70 03       	ld.w	r3,r8[0x0]
8000508c:	67 24       	ld.w	r4,r3[0x48]
8000508e:	e6 c8 ff b4 	sub	r8,r3,-76
80005092:	58 04       	cp.w	r4,0
80005094:	f0 04 17 00 	moveq	r4,r8
80005098:	e7 f4 0a 12 	st.weq	r3[0x48],r4
8000509c:	18 97       	mov	r7,r12
8000509e:	16 96       	mov	r6,r11
800050a0:	14 95       	mov	r5,r10
800050a2:	12 92       	mov	r2,r9
800050a4:	68 18       	ld.w	r8,r4[0x4]
800050a6:	59 f8       	cp.w	r8,31
800050a8:	e0 8a 00 0e 	brle	800050c4 <__register_exitproc+0x40>
800050ac:	e0 6c 00 8c 	mov	r12,140
800050b0:	fe b0 fc cc 	rcall	80004a48 <malloc>
800050b4:	18 94       	mov	r4,r12
800050b6:	c3 80       	breq	80005126 <__register_exitproc+0xa2>
800050b8:	67 28       	ld.w	r8,r3[0x48]
800050ba:	99 08       	st.w	r12[0x0],r8
800050bc:	e7 4c 00 48 	st.w	r3[72],r12
800050c0:	30 08       	mov	r8,0
800050c2:	99 18       	st.w	r12[0x4],r8
800050c4:	58 07       	cp.w	r7,0
800050c6:	c2 70       	breq	80005114 <__register_exitproc+0x90>
800050c8:	e8 fc 00 88 	ld.w	r12,r4[136]
800050cc:	58 0c       	cp.w	r12,0
800050ce:	c0 d1       	brne	800050e8 <__register_exitproc+0x64>
800050d0:	e0 6c 01 08 	mov	r12,264
800050d4:	fe b0 fc ba 	rcall	80004a48 <malloc>
800050d8:	c2 70       	breq	80005126 <__register_exitproc+0xa2>
800050da:	30 08       	mov	r8,0
800050dc:	e9 4c 00 88 	st.w	r4[136],r12
800050e0:	f9 48 01 04 	st.w	r12[260],r8
800050e4:	f9 48 01 00 	st.w	r12[256],r8
800050e8:	68 18       	ld.w	r8,r4[0x4]
800050ea:	f0 c9 ff e0 	sub	r9,r8,-32
800050ee:	f8 08 09 25 	st.w	r12[r8<<0x2],r5
800050f2:	f8 09 09 22 	st.w	r12[r9<<0x2],r2
800050f6:	30 1a       	mov	r10,1
800050f8:	f8 f9 01 00 	ld.w	r9,r12[256]
800050fc:	f4 08 09 48 	lsl	r8,r10,r8
80005100:	10 49       	or	r9,r8
80005102:	f9 49 01 00 	st.w	r12[256],r9
80005106:	58 27       	cp.w	r7,2
80005108:	f9 f9 00 41 	ld.weq	r9,r12[0x104]
8000510c:	f3 d8 e0 38 	oreq	r8,r9,r8
80005110:	f9 f8 0a 41 	st.weq	r12[0x104],r8
80005114:	68 18       	ld.w	r8,r4[0x4]
80005116:	30 0c       	mov	r12,0
80005118:	f0 c9 ff ff 	sub	r9,r8,-1
8000511c:	2f e8       	sub	r8,-2
8000511e:	89 19       	st.w	r4[0x4],r9
80005120:	e8 08 09 26 	st.w	r4[r8<<0x2],r6
80005124:	d8 32       	popm	r0-r7,pc
80005126:	dc 3a       	popm	r0-r7,pc,r12=-1

80005128 <__call_exitprocs>:
80005128:	d4 31       	pushm	r0-r7,lr
8000512a:	20 3d       	sub	sp,12
8000512c:	fe c8 f8 28 	sub	r8,pc,-2008
80005130:	50 2c       	stdsp	sp[0x8],r12
80005132:	70 08       	ld.w	r8,r8[0x0]
80005134:	16 91       	mov	r1,r11
80005136:	50 08       	stdsp	sp[0x0],r8
80005138:	2b 88       	sub	r8,-72
8000513a:	50 18       	stdsp	sp[0x4],r8
8000513c:	40 0a       	lddsp	r10,sp[0x0]
8000513e:	40 14       	lddsp	r4,sp[0x4]
80005140:	75 27       	ld.w	r7,r10[0x48]
80005142:	c5 58       	rjmp	800051ec <__call_exitprocs+0xc4>
80005144:	6e 15       	ld.w	r5,r7[0x4]
80005146:	ee f6 00 88 	ld.w	r6,r7[136]
8000514a:	ea c2 ff ff 	sub	r2,r5,-1
8000514e:	20 15       	sub	r5,1
80005150:	ee 02 00 22 	add	r2,r7,r2<<0x2
80005154:	ec 05 00 23 	add	r3,r6,r5<<0x2
80005158:	c3 58       	rjmp	800051c2 <__call_exitprocs+0x9a>
8000515a:	58 01       	cp.w	r1,0
8000515c:	c0 70       	breq	8000516a <__call_exitprocs+0x42>
8000515e:	58 06       	cp.w	r6,0
80005160:	c2 e0       	breq	800051bc <__call_exitprocs+0x94>
80005162:	e6 f8 00 80 	ld.w	r8,r3[128]
80005166:	02 38       	cp.w	r8,r1
80005168:	c2 a1       	brne	800051bc <__call_exitprocs+0x94>
8000516a:	6e 19       	ld.w	r9,r7[0x4]
8000516c:	64 08       	ld.w	r8,r2[0x0]
8000516e:	20 19       	sub	r9,1
80005170:	12 35       	cp.w	r5,r9
80005172:	ef f5 0a 01 	st.weq	r7[0x4],r5
80005176:	f9 b9 01 00 	movne	r9,0
8000517a:	e5 f9 1a 00 	st.wne	r2[0x0],r9
8000517e:	58 08       	cp.w	r8,0
80005180:	c1 e0       	breq	800051bc <__call_exitprocs+0x94>
80005182:	6e 10       	ld.w	r0,r7[0x4]
80005184:	58 06       	cp.w	r6,0
80005186:	c0 90       	breq	80005198 <__call_exitprocs+0x70>
80005188:	30 1a       	mov	r10,1
8000518a:	f4 05 09 49 	lsl	r9,r10,r5
8000518e:	ec fa 01 00 	ld.w	r10,r6[256]
80005192:	f3 ea 00 0a 	and	r10,r9,r10
80005196:	c0 31       	brne	8000519c <__call_exitprocs+0x74>
80005198:	5d 18       	icall	r8
8000519a:	c0 b8       	rjmp	800051b0 <__call_exitprocs+0x88>
8000519c:	ec fa 01 04 	ld.w	r10,r6[260]
800051a0:	66 0b       	ld.w	r11,r3[0x0]
800051a2:	14 69       	and	r9,r10
800051a4:	c0 41       	brne	800051ac <__call_exitprocs+0x84>
800051a6:	40 2c       	lddsp	r12,sp[0x8]
800051a8:	5d 18       	icall	r8
800051aa:	c0 38       	rjmp	800051b0 <__call_exitprocs+0x88>
800051ac:	16 9c       	mov	r12,r11
800051ae:	5d 18       	icall	r8
800051b0:	6e 18       	ld.w	r8,r7[0x4]
800051b2:	10 30       	cp.w	r0,r8
800051b4:	cc 41       	brne	8000513c <__call_exitprocs+0x14>
800051b6:	68 08       	ld.w	r8,r4[0x0]
800051b8:	0e 38       	cp.w	r8,r7
800051ba:	cc 11       	brne	8000513c <__call_exitprocs+0x14>
800051bc:	20 15       	sub	r5,1
800051be:	20 43       	sub	r3,4
800051c0:	20 42       	sub	r2,4
800051c2:	58 05       	cp.w	r5,0
800051c4:	cc b4       	brge	8000515a <__call_exitprocs+0x32>
800051c6:	6e 18       	ld.w	r8,r7[0x4]
800051c8:	58 08       	cp.w	r8,0
800051ca:	c0 f1       	brne	800051e8 <__call_exitprocs+0xc0>
800051cc:	6e 08       	ld.w	r8,r7[0x0]
800051ce:	58 08       	cp.w	r8,0
800051d0:	c0 c0       	breq	800051e8 <__call_exitprocs+0xc0>
800051d2:	89 08       	st.w	r4[0x0],r8
800051d4:	58 06       	cp.w	r6,0
800051d6:	c0 40       	breq	800051de <__call_exitprocs+0xb6>
800051d8:	0c 9c       	mov	r12,r6
800051da:	fe b0 fc 2f 	rcall	80004a38 <free>
800051de:	0e 9c       	mov	r12,r7
800051e0:	fe b0 fc 2c 	rcall	80004a38 <free>
800051e4:	68 07       	ld.w	r7,r4[0x0]
800051e6:	c0 38       	rjmp	800051ec <__call_exitprocs+0xc4>
800051e8:	0e 94       	mov	r4,r7
800051ea:	6e 07       	ld.w	r7,r7[0x0]
800051ec:	58 07       	cp.w	r7,0
800051ee:	ca b1       	brne	80005144 <__call_exitprocs+0x1c>
800051f0:	2f dd       	sub	sp,-12
800051f2:	d8 32       	popm	r0-r7,pc

800051f4 <__errno>:
800051f4:	e0 68 01 14 	mov	r8,276
800051f8:	70 0c       	ld.w	r12,r8[0x0]
800051fa:	2f 4c       	sub	r12,-12
800051fc:	5e fc       	retal	r12
800051fe:	d7 03       	nop

80005200 <_malloc_trim_r>:
80005200:	d4 21       	pushm	r4-r7,lr
80005202:	16 95       	mov	r5,r11
80005204:	18 97       	mov	r7,r12
80005206:	fe b0 ef 4b 	rcall	8000309c <__malloc_lock>
8000520a:	e0 64 01 18 	mov	r4,280
8000520e:	68 28       	ld.w	r8,r4[0x8]
80005210:	70 16       	ld.w	r6,r8[0x4]
80005212:	e0 16 ff fc 	andl	r6,0xfffc
80005216:	ec c8 ff 91 	sub	r8,r6,-111
8000521a:	f0 05 01 05 	sub	r5,r8,r5
8000521e:	e0 15 ff 80 	andl	r5,0xff80
80005222:	ea c5 00 80 	sub	r5,r5,128
80005226:	e0 45 00 7f 	cp.w	r5,127
8000522a:	e0 8a 00 22 	brle	8000526e <_malloc_trim_r+0x6e>
8000522e:	30 0b       	mov	r11,0
80005230:	0e 9c       	mov	r12,r7
80005232:	cd 9e       	rcall	80004fe4 <_sbrk_r>
80005234:	68 28       	ld.w	r8,r4[0x8]
80005236:	0c 08       	add	r8,r6
80005238:	10 3c       	cp.w	r12,r8
8000523a:	c1 a1       	brne	8000526e <_malloc_trim_r+0x6e>
8000523c:	ea 0b 11 00 	rsub	r11,r5,0
80005240:	0e 9c       	mov	r12,r7
80005242:	cd 1e       	rcall	80004fe4 <_sbrk_r>
80005244:	5b fc       	cp.w	r12,-1
80005246:	c1 81       	brne	80005276 <_malloc_trim_r+0x76>
80005248:	30 0b       	mov	r11,0
8000524a:	0e 9c       	mov	r12,r7
8000524c:	cc ce       	rcall	80004fe4 <_sbrk_r>
8000524e:	68 28       	ld.w	r8,r4[0x8]
80005250:	f8 08 01 09 	sub	r9,r12,r8
80005254:	58 f9       	cp.w	r9,15
80005256:	e0 8a 00 0c 	brle	8000526e <_malloc_trim_r+0x6e>
8000525a:	a1 a9       	sbr	r9,0x0
8000525c:	91 19       	st.w	r8[0x4],r9
8000525e:	e0 68 05 24 	mov	r8,1316
80005262:	70 09       	ld.w	r9,r8[0x0]
80005264:	e0 68 07 68 	mov	r8,1896
80005268:	f8 09 01 09 	sub	r9,r12,r9
8000526c:	91 09       	st.w	r8[0x0],r9
8000526e:	0e 9c       	mov	r12,r7
80005270:	fe b0 ef 24 	rcall	800030b8 <__malloc_unlock>
80005274:	d8 2a       	popm	r4-r7,pc,r12=0
80005276:	68 28       	ld.w	r8,r4[0x8]
80005278:	0a 16       	sub	r6,r5
8000527a:	a1 a6       	sbr	r6,0x0
8000527c:	91 16       	st.w	r8[0x4],r6
8000527e:	e0 68 07 68 	mov	r8,1896
80005282:	70 09       	ld.w	r9,r8[0x0]
80005284:	0a 19       	sub	r9,r5
80005286:	0e 9c       	mov	r12,r7
80005288:	91 09       	st.w	r8[0x0],r9
8000528a:	fe b0 ef 17 	rcall	800030b8 <__malloc_unlock>
8000528e:	da 2a       	popm	r4-r7,pc,r12=1

80005290 <_free_r>:
80005290:	d4 21       	pushm	r4-r7,lr
80005292:	16 96       	mov	r6,r11
80005294:	18 97       	mov	r7,r12
80005296:	58 0b       	cp.w	r11,0
80005298:	e0 80 00 c0 	breq	80005418 <_free_r+0x188>
8000529c:	fe b0 ef 00 	rcall	8000309c <__malloc_lock>
800052a0:	20 86       	sub	r6,8
800052a2:	e0 6a 01 18 	mov	r10,280
800052a6:	6c 18       	ld.w	r8,r6[0x4]
800052a8:	74 2e       	ld.w	lr,r10[0x8]
800052aa:	f9 d8 c0 01 	bfextu	r12,r8,0x0,0x1
800052ae:	a1 c8       	cbr	r8,0x0
800052b0:	ec 08 00 09 	add	r9,r6,r8
800052b4:	72 1b       	ld.w	r11,r9[0x4]
800052b6:	e0 1b ff fc 	andl	r11,0xfffc
800052ba:	1c 39       	cp.w	r9,lr
800052bc:	c1 e1       	brne	800052f8 <_free_r+0x68>
800052be:	f6 08 00 08 	add	r8,r11,r8
800052c2:	58 0c       	cp.w	r12,0
800052c4:	c0 81       	brne	800052d4 <_free_r+0x44>
800052c6:	6c 09       	ld.w	r9,r6[0x0]
800052c8:	12 16       	sub	r6,r9
800052ca:	12 08       	add	r8,r9
800052cc:	6c 3b       	ld.w	r11,r6[0xc]
800052ce:	6c 29       	ld.w	r9,r6[0x8]
800052d0:	97 29       	st.w	r11[0x8],r9
800052d2:	93 3b       	st.w	r9[0xc],r11
800052d4:	10 99       	mov	r9,r8
800052d6:	95 26       	st.w	r10[0x8],r6
800052d8:	a1 a9       	sbr	r9,0x0
800052da:	8d 19       	st.w	r6[0x4],r9
800052dc:	e0 69 05 20 	mov	r9,1312
800052e0:	72 09       	ld.w	r9,r9[0x0]
800052e2:	12 38       	cp.w	r8,r9
800052e4:	c0 63       	brcs	800052f0 <_free_r+0x60>
800052e6:	e0 68 07 64 	mov	r8,1892
800052ea:	0e 9c       	mov	r12,r7
800052ec:	70 0b       	ld.w	r11,r8[0x0]
800052ee:	c8 9f       	rcall	80005200 <_malloc_trim_r>
800052f0:	0e 9c       	mov	r12,r7
800052f2:	fe b0 ee e3 	rcall	800030b8 <__malloc_unlock>
800052f6:	d8 22       	popm	r4-r7,pc
800052f8:	93 1b       	st.w	r9[0x4],r11
800052fa:	58 0c       	cp.w	r12,0
800052fc:	c0 30       	breq	80005302 <_free_r+0x72>
800052fe:	30 0c       	mov	r12,0
80005300:	c1 08       	rjmp	80005320 <_free_r+0x90>
80005302:	6c 0e       	ld.w	lr,r6[0x0]
80005304:	f4 c5 ff f8 	sub	r5,r10,-8
80005308:	1c 16       	sub	r6,lr
8000530a:	1c 08       	add	r8,lr
8000530c:	6c 2e       	ld.w	lr,r6[0x8]
8000530e:	0a 3e       	cp.w	lr,r5
80005310:	f9 bc 00 01 	moveq	r12,1
80005314:	ed f5 10 03 	ld.wne	r5,r6[0xc]
80005318:	eb fe 1a 02 	st.wne	r5[0x8],lr
8000531c:	fd f5 1a 03 	st.wne	lr[0xc],r5
80005320:	f2 0b 00 0e 	add	lr,r9,r11
80005324:	7c 1e       	ld.w	lr,lr[0x4]
80005326:	ed be 00 00 	bld	lr,0x0
8000532a:	c1 40       	breq	80005352 <_free_r+0xc2>
8000532c:	16 08       	add	r8,r11
8000532e:	58 0c       	cp.w	r12,0
80005330:	c0 d1       	brne	8000534a <_free_r+0xba>
80005332:	e0 6e 01 18 	mov	lr,280
80005336:	72 2b       	ld.w	r11,r9[0x8]
80005338:	2f 8e       	sub	lr,-8
8000533a:	1c 3b       	cp.w	r11,lr
8000533c:	c0 71       	brne	8000534a <_free_r+0xba>
8000533e:	97 36       	st.w	r11[0xc],r6
80005340:	97 26       	st.w	r11[0x8],r6
80005342:	8d 2b       	st.w	r6[0x8],r11
80005344:	8d 3b       	st.w	r6[0xc],r11
80005346:	30 1c       	mov	r12,1
80005348:	c0 58       	rjmp	80005352 <_free_r+0xc2>
8000534a:	72 2b       	ld.w	r11,r9[0x8]
8000534c:	72 39       	ld.w	r9,r9[0xc]
8000534e:	93 2b       	st.w	r9[0x8],r11
80005350:	97 39       	st.w	r11[0xc],r9
80005352:	10 99       	mov	r9,r8
80005354:	ec 08 09 08 	st.w	r6[r8],r8
80005358:	a1 a9       	sbr	r9,0x0
8000535a:	8d 19       	st.w	r6[0x4],r9
8000535c:	58 0c       	cp.w	r12,0
8000535e:	c5 a1       	brne	80005412 <_free_r+0x182>
80005360:	e0 48 01 ff 	cp.w	r8,511
80005364:	e0 8b 00 13 	brhi	8000538a <_free_r+0xfa>
80005368:	a3 98       	lsr	r8,0x3
8000536a:	f4 08 00 39 	add	r9,r10,r8<<0x3
8000536e:	72 2b       	ld.w	r11,r9[0x8]
80005370:	8d 39       	st.w	r6[0xc],r9
80005372:	8d 2b       	st.w	r6[0x8],r11
80005374:	97 36       	st.w	r11[0xc],r6
80005376:	93 26       	st.w	r9[0x8],r6
80005378:	a3 48       	asr	r8,0x2
8000537a:	74 19       	ld.w	r9,r10[0x4]
8000537c:	30 1b       	mov	r11,1
8000537e:	f6 08 09 48 	lsl	r8,r11,r8
80005382:	f3 e8 10 08 	or	r8,r9,r8
80005386:	95 18       	st.w	r10[0x4],r8
80005388:	c4 58       	rjmp	80005412 <_free_r+0x182>
8000538a:	f0 0b 16 09 	lsr	r11,r8,0x9
8000538e:	58 4b       	cp.w	r11,4
80005390:	e0 8b 00 06 	brhi	8000539c <_free_r+0x10c>
80005394:	f0 0b 16 06 	lsr	r11,r8,0x6
80005398:	2c 8b       	sub	r11,-56
8000539a:	c2 08       	rjmp	800053da <_free_r+0x14a>
8000539c:	59 4b       	cp.w	r11,20
8000539e:	e0 8b 00 04 	brhi	800053a6 <_free_r+0x116>
800053a2:	2a 5b       	sub	r11,-91
800053a4:	c1 b8       	rjmp	800053da <_free_r+0x14a>
800053a6:	e0 4b 00 54 	cp.w	r11,84
800053aa:	e0 8b 00 06 	brhi	800053b6 <_free_r+0x126>
800053ae:	f0 0b 16 0c 	lsr	r11,r8,0xc
800053b2:	29 2b       	sub	r11,-110
800053b4:	c1 38       	rjmp	800053da <_free_r+0x14a>
800053b6:	e0 4b 01 54 	cp.w	r11,340
800053ba:	e0 8b 00 06 	brhi	800053c6 <_free_r+0x136>
800053be:	f0 0b 16 0f 	lsr	r11,r8,0xf
800053c2:	28 9b       	sub	r11,-119
800053c4:	c0 b8       	rjmp	800053da <_free_r+0x14a>
800053c6:	e0 4b 05 54 	cp.w	r11,1364
800053ca:	e0 88 00 05 	brls	800053d4 <_free_r+0x144>
800053ce:	37 eb       	mov	r11,126
800053d0:	c0 58       	rjmp	800053da <_free_r+0x14a>
800053d2:	d7 03       	nop
800053d4:	f0 0b 16 12 	lsr	r11,r8,0x12
800053d8:	28 4b       	sub	r11,-124
800053da:	f4 0b 00 3c 	add	r12,r10,r11<<0x3
800053de:	78 29       	ld.w	r9,r12[0x8]
800053e0:	18 39       	cp.w	r9,r12
800053e2:	c0 e1       	brne	800053fe <_free_r+0x16e>
800053e4:	74 18       	ld.w	r8,r10[0x4]
800053e6:	a3 4b       	asr	r11,0x2
800053e8:	30 1c       	mov	r12,1
800053ea:	f8 0b 09 4b 	lsl	r11,r12,r11
800053ee:	f1 eb 10 0b 	or	r11,r8,r11
800053f2:	12 98       	mov	r8,r9
800053f4:	95 1b       	st.w	r10[0x4],r11
800053f6:	c0 a8       	rjmp	8000540a <_free_r+0x17a>
800053f8:	72 29       	ld.w	r9,r9[0x8]
800053fa:	18 39       	cp.w	r9,r12
800053fc:	c0 60       	breq	80005408 <_free_r+0x178>
800053fe:	72 1a       	ld.w	r10,r9[0x4]
80005400:	e0 1a ff fc 	andl	r10,0xfffc
80005404:	14 38       	cp.w	r8,r10
80005406:	cf 93       	brcs	800053f8 <_free_r+0x168>
80005408:	72 38       	ld.w	r8,r9[0xc]
8000540a:	8d 38       	st.w	r6[0xc],r8
8000540c:	8d 29       	st.w	r6[0x8],r9
8000540e:	93 36       	st.w	r9[0xc],r6
80005410:	91 26       	st.w	r8[0x8],r6
80005412:	0e 9c       	mov	r12,r7
80005414:	fe b0 ee 52 	rcall	800030b8 <__malloc_unlock>
80005418:	d8 22       	popm	r4-r7,pc
8000541a:	d7 03       	nop

8000541c <__do_global_ctors_aux>:
8000541c:	d4 21       	pushm	r4-r7,lr
8000541e:	30 c7       	mov	r7,12
80005420:	c0 28       	rjmp	80005424 <__do_global_ctors_aux+0x8>
80005422:	5d 18       	icall	r8
80005424:	20 47       	sub	r7,4
80005426:	6e 08       	ld.w	r8,r7[0x0]
80005428:	5b f8       	cp.w	r8,-1
8000542a:	cf c1       	brne	80005422 <__do_global_ctors_aux+0x6>
8000542c:	d8 22       	popm	r4-r7,pc
8000542e:	d7 03       	nop

Disassembly of section .exception:

80005600 <_evba>:
80005600:	c0 08       	rjmp	80005600 <_evba>
	...

80005604 <_handle_TLB_Multiple_Hit>:
80005604:	c0 08       	rjmp	80005604 <_handle_TLB_Multiple_Hit>
	...

80005608 <_handle_Bus_Error_Data_Fetch>:
80005608:	c0 08       	rjmp	80005608 <_handle_Bus_Error_Data_Fetch>
	...

8000560c <_handle_Bus_Error_Instruction_Fetch>:
8000560c:	c0 08       	rjmp	8000560c <_handle_Bus_Error_Instruction_Fetch>
	...

80005610 <_handle_NMI>:
80005610:	c0 08       	rjmp	80005610 <_handle_NMI>
	...

80005614 <_handle_Instruction_Address>:
80005614:	c0 08       	rjmp	80005614 <_handle_Instruction_Address>
	...

80005618 <_handle_ITLB_Protection>:
80005618:	c0 08       	rjmp	80005618 <_handle_ITLB_Protection>
	...

8000561c <_handle_Breakpoint>:
8000561c:	c0 08       	rjmp	8000561c <_handle_Breakpoint>
	...

80005620 <_handle_Illegal_Opcode>:
80005620:	c0 08       	rjmp	80005620 <_handle_Illegal_Opcode>
	...

80005624 <_handle_Unimplemented_Instruction>:
80005624:	c0 08       	rjmp	80005624 <_handle_Unimplemented_Instruction>
	...

80005628 <_handle_Privilege_Violation>:
80005628:	c0 08       	rjmp	80005628 <_handle_Privilege_Violation>
	...

8000562c <_handle_Floating_Point>:
8000562c:	c0 08       	rjmp	8000562c <_handle_Floating_Point>
	...

80005630 <_handle_Coprocessor_Absent>:
80005630:	c0 08       	rjmp	80005630 <_handle_Coprocessor_Absent>
	...

80005634 <_handle_Data_Address_Read>:
80005634:	c0 08       	rjmp	80005634 <_handle_Data_Address_Read>
	...

80005638 <_handle_Data_Address_Write>:
80005638:	c0 08       	rjmp	80005638 <_handle_Data_Address_Write>
	...

8000563c <_handle_DTLB_Protection_Read>:
8000563c:	c0 08       	rjmp	8000563c <_handle_DTLB_Protection_Read>
	...

80005640 <_handle_DTLB_Protection_Write>:
80005640:	c0 08       	rjmp	80005640 <_handle_DTLB_Protection_Write>
	...

80005644 <_handle_DTLB_Modified>:
80005644:	c0 08       	rjmp	80005644 <_handle_DTLB_Modified>
	...

80005650 <_handle_ITLB_Miss>:
80005650:	c0 08       	rjmp	80005650 <_handle_ITLB_Miss>
	...

80005660 <_handle_DTLB_Miss_Read>:
80005660:	c0 08       	rjmp	80005660 <_handle_DTLB_Miss_Read>
	...

80005670 <_handle_DTLB_Miss_Write>:
80005670:	c0 08       	rjmp	80005670 <_handle_DTLB_Miss_Write>
	...

80005700 <_handle_Supervisor_Call>:
80005700:	fe cf 25 a8 	sub	pc,pc,9640

80005704 <_int0>:
80005704:	30 0c       	mov	r12,0
80005706:	fe b0 e7 e5 	rcall	800026d0 <_get_interrupt_handler>
8000570a:	58 0c       	cp.w	r12,0
8000570c:	f8 0f 17 10 	movne	pc,r12
80005710:	d6 03       	rete

80005712 <_int1>:
80005712:	30 1c       	mov	r12,1
80005714:	fe b0 e7 de 	rcall	800026d0 <_get_interrupt_handler>
80005718:	58 0c       	cp.w	r12,0
8000571a:	f8 0f 17 10 	movne	pc,r12
8000571e:	d6 03       	rete

80005720 <_int2>:
80005720:	30 2c       	mov	r12,2
80005722:	fe b0 e7 d7 	rcall	800026d0 <_get_interrupt_handler>
80005726:	58 0c       	cp.w	r12,0
80005728:	f8 0f 17 10 	movne	pc,r12
8000572c:	d6 03       	rete

8000572e <_int3>:
8000572e:	30 3c       	mov	r12,3
80005730:	fe b0 e7 d0 	rcall	800026d0 <_get_interrupt_handler>
80005734:	58 0c       	cp.w	r12,0
80005736:	f8 0f 17 10 	movne	pc,r12
8000573a:	d6 03       	rete
8000573c:	d7 03       	nop
8000573e:	d7 03       	nop
80005740:	d7 03       	nop
80005742:	d7 03       	nop
80005744:	d7 03       	nop
80005746:	d7 03       	nop
80005748:	d7 03       	nop
8000574a:	d7 03       	nop
8000574c:	d7 03       	nop
8000574e:	d7 03       	nop
80005750:	d7 03       	nop
80005752:	d7 03       	nop
80005754:	d7 03       	nop
80005756:	d7 03       	nop
80005758:	d7 03       	nop
8000575a:	d7 03       	nop
8000575c:	d7 03       	nop
8000575e:	d7 03       	nop
80005760:	d7 03       	nop
80005762:	d7 03       	nop
80005764:	d7 03       	nop
80005766:	d7 03       	nop
80005768:	d7 03       	nop
8000576a:	d7 03       	nop
8000576c:	d7 03       	nop
8000576e:	d7 03       	nop
80005770:	d7 03       	nop
80005772:	d7 03       	nop
80005774:	d7 03       	nop
80005776:	d7 03       	nop
80005778:	d7 03       	nop
8000577a:	d7 03       	nop
8000577c:	d7 03       	nop
8000577e:	d7 03       	nop
80005780:	d7 03       	nop
80005782:	d7 03       	nop
80005784:	d7 03       	nop
80005786:	d7 03       	nop
80005788:	d7 03       	nop
8000578a:	d7 03       	nop
8000578c:	d7 03       	nop
8000578e:	d7 03       	nop
80005790:	d7 03       	nop
80005792:	d7 03       	nop
80005794:	d7 03       	nop
80005796:	d7 03       	nop
80005798:	d7 03       	nop
8000579a:	d7 03       	nop
8000579c:	d7 03       	nop
8000579e:	d7 03       	nop
800057a0:	d7 03       	nop
800057a2:	d7 03       	nop
800057a4:	d7 03       	nop
800057a6:	d7 03       	nop
800057a8:	d7 03       	nop
800057aa:	d7 03       	nop
800057ac:	d7 03       	nop
800057ae:	d7 03       	nop
800057b0:	d7 03       	nop
800057b2:	d7 03       	nop
800057b4:	d7 03       	nop
800057b6:	d7 03       	nop
800057b8:	d7 03       	nop
800057ba:	d7 03       	nop
800057bc:	d7 03       	nop
800057be:	d7 03       	nop
800057c0:	d7 03       	nop
800057c2:	d7 03       	nop
800057c4:	d7 03       	nop
800057c6:	d7 03       	nop
800057c8:	d7 03       	nop
800057ca:	d7 03       	nop
800057cc:	d7 03       	nop
800057ce:	d7 03       	nop
800057d0:	d7 03       	nop
800057d2:	d7 03       	nop
800057d4:	d7 03       	nop
800057d6:	d7 03       	nop
800057d8:	d7 03       	nop
800057da:	d7 03       	nop
800057dc:	d7 03       	nop
800057de:	d7 03       	nop
800057e0:	d7 03       	nop
800057e2:	d7 03       	nop
800057e4:	d7 03       	nop
800057e6:	d7 03       	nop
800057e8:	d7 03       	nop
800057ea:	d7 03       	nop
800057ec:	d7 03       	nop
800057ee:	d7 03       	nop
800057f0:	d7 03       	nop
800057f2:	d7 03       	nop
800057f4:	d7 03       	nop
800057f6:	d7 03       	nop
800057f8:	d7 03       	nop
800057fa:	d7 03       	nop
800057fc:	d7 03       	nop
800057fe:	d7 03       	nop

Disassembly of section .fini:

80005800 <_fini>:
80005800:	eb cd 40 40 	pushm	r6,lr
80005804:	48 26       	lddpc	r6,8000580c <_fini+0xc>
80005806:	1e 26       	rsub	r6,pc
80005808:	c0 48       	rjmp	80005810 <_fini+0x10>
8000580a:	d7 03       	nop
8000580c:	80 00       	ld.sh	r0,r0[0x0]
8000580e:	57 ea       	stdsp	sp[0x1f8],r10
80005810:	fe b0 e4 3c 	rcall	80002088 <__do_global_dtors_aux>
80005814:	e3 cd 80 40 	ldm	sp++,r6,pc
